(i__main__
DelphiUnit
p1
(dp2
S'sectionsInOrderDefined'
p3
(lp4
(i__main__
DelphiEnumeratedType
p5
(dp6
S'typeName'
p7
S'TrackPhase'
p8
sS'names'
p9
(lp10
S'trackPress'
p11
aS'trackMove'
p12
aS'trackRelease'
p13
asS'name'
p14
g8
sba(i__main__
DelphiEnumeratedType
p15
(dp16
g7
S'KfCommandChangeType'
p17
sg9
(lp18
S'commandDone'
p19
aS'commandUndone'
p20
asg14
g17
sba(i__main__
DelphiClass
p21
(dp22
S'variableNamesInProperCase'
p23
(dp24
S'notifyprocedure'
p25
S'notifyProcedure'
p26
sS'commandchangesfile'
p27
S'commandChangesFile'
p28
sS'done'
p29
S'done'
p30
sS'canundo'
p31
S'canUndo'
p32
ssg14
S'KfCommand'
p33
sS'methodDeclarations'
p34
(dp35
S'description'
p36
(i__main__
DelphiMethodDeclaration
p37
(dp38
g14
S'description'
p39
sS'formalParameters'
p40
(lp41
sS'className'
p42
g33
sS'resultType'
p43
(i__main__
DelphiPrimitiveType
p44
(dp45
g7
S'string'
p46
sbsS'isClassMethod'
p47
I0
sS'methodType'
p48
S'function'
p49
sbsS'donotify'
p50
(i__main__
DelphiMethodDeclaration
p51
(dp52
g14
S'doNotify'
p53
sg40
(lp54
sg42
g33
sg43
Nsg47
I0
sg48
S'procedure'
p55
sbsS'create'
p56
(i__main__
DelphiMethodDeclaration
p57
(dp58
g14
S'create'
p59
sg40
(lp60
sg42
g33
sg43
Nsg47
I0
sg48
S'constructor'
p61
sbsS'docommand'
p62
(i__main__
DelphiMethodDeclaration
p63
(dp64
g14
S'doCommand'
p65
sg40
(lp66
sg42
g33
sg43
Nsg47
I0
sg48
g55
sbsS'trackmouse'
p67
(i__main__
DelphiMethodDeclaration
p68
(dp69
g14
S'TrackMouse'
p70
sg40
(lp71
(i__main__
DelphiFormalParameter
p72
(dp73
S'initialValue'
p74
Nsg9
(lp75
S'aTrackPhase'
p76
asS'theType'
p77
(i__main__
DelphiNamedType
p78
(dp79
g7
S'TrackPhase'
p80
sS'unitDefinedIn'
p81
g1
sS'unitName'
p82
NsbsS'parameterVariety'
p83
Nsba(i__main__
DelphiFormalParameter
p84
(dp85
g74
Nsg9
(lp86
S'anchorPoint'
p87
aS'previousPoint'
p88
aS'nextPoint'
p89
asg77
(i__main__
DelphiNamedType
p90
(dp91
g7
S'TPoint'
p92
sg81
g1
sg82
Nsbsg83
S'var'
p93
sba(i__main__
DelphiFormalParameter
p94
(dp95
g74
Nsg9
(lp96
S'mouseDidMove'
p97
aS'rightButtonDown'
p98
asg77
(i__main__
DelphiPrimitiveType
p99
(dp100
g7
S'boolean'
p101
sbsg83
Nsbasg42
g33
sg43
(i__main__
DelphiNamedType
p102
(dp103
g7
S'KfCommand'
p104
sg81
g1
sg82
Nsbsg47
I0
sg48
g49
sbsS'redocommand'
p105
(i__main__
DelphiMethodDeclaration
p106
(dp107
g14
S'redoCommand'
p108
sg40
(lp109
sg42
g33
sg43
Nsg47
I0
sg48
g55
sbsS'destroy'
p110
(i__main__
DelphiMethodDeclaration
p111
(dp112
g14
S'destroy'
p113
sg40
(lp114
sg42
g33
sg43
Nsg47
I0
sg48
S'destructor'
p115
sbsS'undocommand'
p116
(i__main__
DelphiMethodDeclaration
p117
(dp118
g14
S'undoCommand'
p119
sg40
(lp120
sg42
g33
sg43
Nsg47
I0
sg48
g55
sbssS'superclassNamedTypes'
p121
(lp122
(i__main__
DelphiNamedType
p123
(dp124
g7
S'TObject'
p125
sg81
g1
sg82
NsbasS'variableNames'
p126
(dp127
S'notifyprocedure'
p128
(i__main__
DelphiNamedType
p129
(dp130
g7
S'TCommandEvent'
p131
sg81
g1
sg82
NsbsS'commandchangesfile'
p132
(i__main__
DelphiPrimitiveType
p133
(dp134
g7
g101
sbsS'done'
p135
(i__main__
DelphiPrimitiveType
p136
(dp137
g7
g101
sbsS'canundo'
p138
(i__main__
DelphiPrimitiveType
p139
(dp140
g7
g101
sbssS'methodNamesInDefinedOrder'
p141
(lp142
S'create'
p143
aS'destroy'
p144
aS'docommand'
p145
aS'undocommand'
p146
aS'redocommand'
p147
aS'description'
p148
aS'trackmouse'
p149
aS'donotify'
p150
asS'methodImplementations'
p151
(dp152
S'description'
p153
(i__main__
DelphiMethodImplementation
p154
(dp155
S'originalDeclaration'
p156
g37
sg14
g39
sg40
(lp157
sS'varParamIndexes'
p158
(lp159
sS'varParamsSkipped'
p160
(lp161
sS'argNames'
p162
(lp163
S'self'
p164
asS'argTypes'
p165
(dp166
sg42
S'KfCommand'
p167
sg43
(i__main__
DelphiPrimitiveType
p168
(dp169
g7
g46
sbsS'varParamNames'
p170
(lp171
sg47
I0
sg48
g49
sS'block'
p172
(i__main__
DelphiBlock
p173
(dp174
S'compoundStatement'
p175
(idelphi
DelphiCompoundStatement
p176
(dp177
S'statements'
p178
(lp179
(i__main__
DelphiAssignStatement
p180
(dp181
S'newValueExpression'
p182
(idelphi
DelphiStringAccess
p183
(dp184
S'endAccessList'
p185
(lp186
sg46
(idelphi
DelphiStringValue
p187
(dp188
g46
S'*command description*'
p189
sbsbsS'destinationExpression'
p190
(i__main__
DelphiIdentAccess
p191
(dp192
S'ident'
p193
S'result'
p194
sg185
(lp195
sbsbasbsS'limitedDeclSectionList'
p196
(lp197
sbsbsS'donotify'
p198
(i__main__
DelphiMethodImplementation
p199
(dp200
g156
g51
sg14
g53
sg40
(lp201
sg158
(lp202
sg160
(lp203
sg162
(lp204
g164
asg165
(dp205
sg42
S'KfCommand'
p206
sg43
Nsg170
(lp207
sg47
I0
sg48
g55
sg172
(i__main__
DelphiBlock
p208
(dp209
g175
(idelphi
DelphiCompoundStatement
p210
(dp211
g178
(lp212
(idelphi
DelphiIfStatement
p213
(dp214
S'expression'
p215
(i__main__
DelphiIdentAccess
p216
(dp217
g193
S'Assigned'
p218
sg185
(lp219
(idelphi
DelphiFunctionEndAccess
p220
(dp221
S'expressionList'
p222
(lp223
(i__main__
DelphiIdentAccess
p224
(dp225
g193
S'notifyProcedure'
p226
sg185
(lp227
sbasbasbsS'ifFalseStatement'
p228
NsS'ifTrueStatement'
p229
(idelphi
DelphiCompoundStatement
p230
(dp231
g178
(lp232
(idelphi
DelphiIfStatement
p233
(dp234
g215
(i__main__
DelphiIdentAccess
p235
(dp236
g193
S'self'
p237
sg185
(lp238
(idelphi
DelphiFieldEndAccess
p239
(dp240
S'field'
p241
S'done'
p242
sbasbsg228
(i__main__
DelphiAssignStatement
p243
(dp244
g182
Nsg190
(i__main__
DelphiIdentAccess
p245
(dp246
g193
S'self'
p247
sg185
(lp248
(idelphi
DelphiFieldEndAccess
p249
(dp250
g241
S'notifyProcedure'
p251
sba(idelphi
DelphiFunctionEndAccess
p252
(dp253
g222
(lp254
(i__main__
DelphiIdentAccess
p255
(dp256
g193
S'self'
p257
sg185
(lp258
sba(i__main__
DelphiIdentAccess
p259
(dp260
g193
S'commandUndone'
p261
sg185
(lp262
sbasbasbsbsg229
(i__main__
DelphiAssignStatement
p263
(dp264
g182
Nsg190
(i__main__
DelphiIdentAccess
p265
(dp266
g193
S'self'
p267
sg185
(lp268
(idelphi
DelphiFieldEndAccess
p269
(dp270
g241
S'notifyProcedure'
p271
sba(idelphi
DelphiFunctionEndAccess
p272
(dp273
g222
(lp274
(i__main__
DelphiIdentAccess
p275
(dp276
g193
S'self'
p277
sg185
(lp278
sba(i__main__
DelphiIdentAccess
p279
(dp280
g193
S'commandDone'
p281
sg185
(lp282
sbasbasbsS'commentLinesBefore'
p283
(lp284
S' commandChangesFile and\r'
p285
asbsbasbsbasbsg196
(lp286
sbsg283
(lp287
S' notify cannot be done within the do, undo, redo of command because\r'
p288
aS' command list will not have finished updating itself\r'
p289
asbsS'create'
p290
(i__main__
DelphiMethodImplementation
p291
(dp292
g156
g57
sg14
g59
sg40
(lp293
sg158
(lp294
sg160
(lp295
sg162
(lp296
g164
asg165
(dp297
sg42
S'KfCommand'
p298
sg43
Nsg170
(lp299
sg47
I0
sg48
g61
sg172
(i__main__
DelphiBlock
p300
(dp301
g175
(idelphi
DelphiCompoundStatement
p302
(dp303
g178
(lp304
(i__main__
DelphiAssignStatement
p305
(dp306
g182
Nsg190
(idelphi
DelphiInheritedCall
p307
(dp308
g193
S'create'
p309
sg222
Nsbsba(i__main__
DelphiAssignStatement
p310
(dp311
g182
(i__main__
DelphiIdentAccess
p312
(dp313
g193
S'true'
p314
sg185
(lp315
sbsg190
(i__main__
DelphiIdentAccess
p316
(dp317
g193
S'canUndo'
p318
sg185
(lp319
sbsba(i__main__
DelphiAssignStatement
p320
(dp321
g182
(i__main__
DelphiIdentAccess
p322
(dp323
g193
S'false'
p324
sg185
(lp325
sbsg190
(i__main__
DelphiIdentAccess
p326
(dp327
g193
S'done'
p328
sg185
(lp329
sbsba(i__main__
DelphiAssignStatement
p330
(dp331
g182
(i__main__
DelphiIdentAccess
p332
(dp333
g193
S'true'
p334
sg185
(lp335
sbsg190
(i__main__
DelphiIdentAccess
p336
(dp337
g193
S'commandChangesFile'
p338
sg185
(lp339
sbsg283
(lp340
S' default commandChangesPlantFile to true, since most commands change file,\r'
p341
aS'    if command does not change file, set to false after call to inherited create '
p342
asbasbsg196
(lp343
sbsg283
(lp344
S'KfCommand'
p345
asbsS'docommand'
p346
(i__main__
DelphiMethodImplementation
p347
(dp348
g156
g63
sg14
g65
sg40
(lp349
sg158
(lp350
sg160
(lp351
sg162
(lp352
g164
asg165
(dp353
sg42
S'KfCommand'
p354
sg43
Nsg170
(lp355
sg47
I0
sg48
g55
sg172
(i__main__
DelphiBlock
p356
(dp357
g175
(idelphi
DelphiCompoundStatement
p358
(dp359
g178
(lp360
(i__main__
DelphiAssignStatement
p361
(dp362
g182
(i__main__
DelphiIdentAccess
p363
(dp364
g193
S'true'
p365
sg185
(lp366
sbsg190
(i__main__
DelphiIdentAccess
p367
(dp368
g193
S'self'
p369
sg185
(lp370
(idelphi
DelphiFieldEndAccess
p371
(dp372
g241
S'done'
p373
sbasbsbasg283
(lp374
S'subclass should override and call inherited'
p375
asbsg196
(lp376
sbsbsS'trackmouse'
p377
(i__main__
DelphiMethodImplementation
p378
(dp379
g156
g68
sg14
g70
sg40
(lp380
(i__main__
DelphiFormalParameter
p381
(dp382
g74
Nsg9
(lp383
S'aTrackPhase'
p384
asg77
(i__main__
DelphiNamedType
p385
(dp386
g7
S'TrackPhase'
p387
sg81
g1
sg82
Nsbsg83
Nsba(i__main__
DelphiFormalParameter
p388
(dp389
g74
Nsg9
(lp390
S'anchorPoint'
p391
aS'previousPoint'
p392
aS'nextPoint'
p393
asg77
(i__main__
DelphiNamedType
p394
(dp395
g7
S'TPoint'
p396
sg81
g1
sg82
Nsbsg83
g93
sba(i__main__
DelphiFormalParameter
p397
(dp398
g74
Nsg9
(lp399
S'mouseDidMove'
p400
aS'rightButtonDown'
p401
asg77
(i__main__
DelphiPrimitiveType
p402
(dp403
g7
g101
sbsg83
Nsbasg158
(lp404
sg160
(lp405
g391
ag392
ag393
asg162
(lp406
g164
ag384
ag391
ag392
ag393
ag400
ag401
asg165
(dp407
g391
g394
sg392
g394
sg401
g402
sg393
g394
sg384
g385
sg400
g402
ssg42
S'KfCommand'
p408
sg43
(i__main__
DelphiNamedType
p409
(dp410
g7
S'KfCommand'
p411
sg81
g1
sg82
Nsbsg170
(lp412
sg47
I0
sg48
g49
sg172
(i__main__
DelphiBlock
p413
(dp414
g175
(idelphi
DelphiCompoundStatement
p415
(dp416
g178
(lp417
(i__main__
DelphiAssignStatement
p418
(dp419
g182
(i__main__
DelphiIdentAccess
p420
(dp421
g193
S'self'
p422
sg185
(lp423
sbsg190
(i__main__
DelphiIdentAccess
p424
(dp425
g193
S'result'
p426
sg185
(lp427
sbsg283
(lp428
S'sublasses should override if needed'
p429
asbasbsg196
(lp430
sbsbsS'redocommand'
p431
(i__main__
DelphiMethodImplementation
p432
(dp433
g156
g106
sg14
g108
sg40
(lp434
sg158
(lp435
sg160
(lp436
sg162
(lp437
g164
asg165
(dp438
sg42
S'KfCommand'
p439
sg43
Nsg170
(lp440
sg47
I0
sg48
g55
sg172
(i__main__
DelphiBlock
p441
(dp442
g175
(idelphi
DelphiCompoundStatement
p443
(dp444
g178
(lp445
(i__main__
DelphiAssignStatement
p446
(dp447
g182
Nsg190
(i__main__
DelphiIdentAccess
p448
(dp449
g193
S'self'
p450
sg185
(lp451
(idelphi
DelphiFieldEndAccess
p452
(dp453
g241
S'doCommand'
p454
sbasbsbasg283
(lp455
S'sublass may override and call inherited doCommand'
p456
aS'could call inherited redo, but then watch out that do will be done too!'
p457
asbsg196
(lp458
sbsbsS'destroy'
p459
(i__main__
DelphiMethodImplementation
p460
(dp461
g156
g111
sg14
g113
sg40
(lp462
sg158
(lp463
sg160
(lp464
sg162
(lp465
g164
asg165
(dp466
sg42
S'KfCommand'
p467
sg43
Nsg170
(lp468
sg47
I0
sg48
g115
sg172
(i__main__
DelphiBlock
p469
(dp470
g175
(idelphi
DelphiCompoundStatement
p471
(dp472
g178
(lp473
(i__main__
DelphiAssignStatement
p474
(dp475
g182
Nsg190
(idelphi
DelphiInheritedCall
p476
(dp477
g193
S'destroy'
p478
sg222
Nsbsg283
(lp479
S'sublass could override'
p480
asbasbsg196
(lp481
sbsbsS'undocommand'
p482
(i__main__
DelphiMethodImplementation
p483
(dp484
g156
g117
sg14
g119
sg40
(lp485
sg158
(lp486
sg160
(lp487
sg162
(lp488
g164
asg165
(dp489
sg42
S'KfCommand'
p490
sg43
Nsg170
(lp491
sg47
I0
sg48
g55
sg172
(i__main__
DelphiBlock
p492
(dp493
g175
(idelphi
DelphiCompoundStatement
p494
(dp495
g178
(lp496
(i__main__
DelphiAssignStatement
p497
(dp498
g182
(i__main__
DelphiIdentAccess
p499
(dp500
g193
S'false'
p501
sg185
(lp502
sbsg190
(i__main__
DelphiIdentAccess
p503
(dp504
g193
S'self'
p505
sg185
(lp506
(idelphi
DelphiFieldEndAccess
p507
(dp508
g241
S'done'
p509
sbasbsbasg283
(lp510
S'sublass should override and call inherited'
p511
asbsg196
(lp512
sbsbssS'propertyDeclarations'
p513
(dp514
sS'variableNamesInDeclaredOrder'
p515
(lp516
g26
ag32
ag30
ag28
asba(i__main__
DelphiClass
p517
(dp518
g23
(dp519
S'lastdonecommandindex'
p520
S'lastDoneCommandIndex'
p521
sS'anchorpoint'
p522
S'anchorPoint'
p523
sS'previouspoint'
p524
S'previousPoint'
p525
sS'notifyprocedure'
p526
S'notifyProcedure'
p527
sS'commandlist'
p528
S'commandList'
p529
sS'mousecommand'
p530
S'mouseCommand'
p531
sS'undolimit'
p532
S'undoLimit'
p533
sS'rightbuttondown'
p534
S'rightButtonDown'
p535
ssg14
S'KfCommandList'
p536
sg34
(dp537
S'redolast'
p538
(i__main__
DelphiMethodDeclaration
p539
(dp540
g14
S'redoLast'
p541
sg40
(lp542
sg42
g536
sg43
Nsg47
I0
sg48
g55
sbsS'removecommand'
p543
(i__main__
DelphiMethodDeclaration
p544
(dp545
g14
S'removeCommand'
p546
sg40
(lp547
(i__main__
DelphiFormalParameter
p548
(dp549
g74
Nsg9
(lp550
S'aCommand'
p551
asg77
(i__main__
DelphiNamedType
p552
(dp553
g7
S'KfCommand'
p554
sg81
g1
sg82
Nsbsg83
Nsbasg42
g536
sg43
Nsg47
I0
sg48
g55
sbsS'isundoenabled'
p555
(i__main__
DelphiMethodDeclaration
p556
(dp557
g14
S'isUndoEnabled'
p558
sg40
(lp559
sg42
g536
sg43
(i__main__
DelphiPrimitiveType
p560
(dp561
g7
g101
sbsg47
I0
sg48
g49
sbsS'create'
p562
(i__main__
DelphiMethodDeclaration
p563
(dp564
g14
S'create'
p565
sg40
(lp566
sg42
g536
sg43
Nsg47
I0
sg48
g61
sbsS'docommand'
p567
(i__main__
DelphiMethodDeclaration
p568
(dp569
g14
S'doCommand'
p570
sg40
(lp571
(i__main__
DelphiFormalParameter
p572
(dp573
g74
Nsg9
(lp574
S'newCommand'
p575
asg77
(i__main__
DelphiNamedType
p576
(dp577
g7
S'KfCommand'
p578
sg81
g1
sg82
Nsbsg83
Nsbasg42
g536
sg43
Nsg47
I0
sg48
g55
sbsS'mousedown'
p579
(i__main__
DelphiMethodDeclaration
p580
(dp581
g14
S'mouseDown'
p582
sg40
(lp583
(i__main__
DelphiFormalParameter
p584
(dp585
g74
Nsg9
(lp586
S'newCommand'
p587
asg77
(i__main__
DelphiNamedType
p588
(dp589
g7
S'KfCommand'
p590
sg81
g1
sg82
Nsbsg83
Nsba(i__main__
DelphiFormalParameter
p591
(dp592
g74
Nsg9
(lp593
S'point'
p594
asg77
(i__main__
DelphiNamedType
p595
(dp596
g7
S'TPoint'
p597
sg81
g1
sg82
Nsbsg83
Nsbasg42
g536
sg43
(i__main__
DelphiPrimitiveType
p598
(dp599
g7
g101
sbsg47
I0
sg48
g49
sbsS'mouseup'
p600
(i__main__
DelphiMethodDeclaration
p601
(dp602
g14
S'mouseUp'
p603
sg40
(lp604
(i__main__
DelphiFormalParameter
p605
(dp606
g74
Nsg9
(lp607
S'point'
p608
asg77
(i__main__
DelphiNamedType
p609
(dp610
g7
S'TPoint'
p611
sg81
g1
sg82
Nsbsg83
Nsbasg42
g536
sg43
Nsg47
I0
sg48
g55
sbsS'mousemove'
p612
(i__main__
DelphiMethodDeclaration
p613
(dp614
g14
S'mouseMove'
p615
sg40
(lp616
(i__main__
DelphiFormalParameter
p617
(dp618
g74
Nsg9
(lp619
S'point'
p620
asg77
(i__main__
DelphiNamedType
p621
(dp622
g7
S'TPoint'
p623
sg81
g1
sg82
Nsbsg83
Nsbasg42
g536
sg43
Nsg47
I0
sg48
g55
sbsS'clearredoablecommands'
p624
(i__main__
DelphiMethodDeclaration
p625
(dp626
g14
S'clearRedoableCommands'
p627
sg40
(lp628
sg42
g536
sg43
Nsg47
I0
sg48
g55
sbsS'freecommandsabovelimit'
p629
(i__main__
DelphiMethodDeclaration
p630
(dp631
g14
S'freeCommandsAboveLimit'
p632
sg40
(lp633
(i__main__
DelphiFormalParameter
p634
(dp635
g74
Nsg9
(lp636
S'theLimit'
p637
asg77
(i__main__
DelphiPrimitiveType
p638
(dp639
g7
S'longint'
p640
sbsg83
Nsbasg42
g536
sg43
Nsg47
I0
sg48
g55
sbsS'command'
p641
(i__main__
DelphiMethodDeclaration
p642
(dp643
g14
S'command'
p644
sg40
(lp645
(i__main__
DelphiFormalParameter
p646
(dp647
g74
Nsg9
(lp648
S'index'
p649
asg77
(i__main__
DelphiPrimitiveType
p650
(dp651
g7
g640
sbsg83
Nsbasg42
g536
sg43
(i__main__
DelphiNamedType
p652
(dp653
g7
S'KfCommand'
p654
sg81
g1
sg82
Nsbsg47
I0
sg48
g49
sbsS'isredoenabled'
p655
(i__main__
DelphiMethodDeclaration
p656
(dp657
g14
S'isRedoEnabled'
p658
sg40
(lp659
sg42
g536
sg43
(i__main__
DelphiPrimitiveType
p660
(dp661
g7
g101
sbsg47
I0
sg48
g49
sbsS'redodescription'
p662
(i__main__
DelphiMethodDeclaration
p663
(dp664
g14
S'redoDescription'
p665
sg40
(lp666
sg42
g536
sg43
(i__main__
DelphiPrimitiveType
p667
(dp668
g7
g46
sbsg47
I0
sg48
g49
sbsS'lastcommand'
p669
(i__main__
DelphiMethodDeclaration
p670
(dp671
g14
S'lastCommand'
p672
sg40
(lp673
sg42
g536
sg43
(i__main__
DelphiNamedType
p674
(dp675
g7
S'KfCommand'
p676
sg81
g1
sg82
Nsbsg47
I0
sg48
g49
sbsS'destroy'
p677
(i__main__
DelphiMethodDeclaration
p678
(dp679
g14
S'destroy'
p680
sg40
(lp681
sg42
g536
sg43
Nsg47
I0
sg48
g115
sbsS'setnewundolimit'
p682
(i__main__
DelphiMethodDeclaration
p683
(dp684
g14
S'setNewUndoLimit'
p685
sg40
(lp686
(i__main__
DelphiFormalParameter
p687
(dp688
g74
Nsg9
(lp689
S'newLimit'
p690
asg77
(i__main__
DelphiPrimitiveType
p691
(dp692
g7
g640
sbsg83
Nsbasg42
g536
sg43
Nsg47
I0
sg48
g55
sbsS'undodescription'
p693
(i__main__
DelphiMethodDeclaration
p694
(dp695
g14
S'undoDescription'
p696
sg40
(lp697
sg42
g536
sg43
(i__main__
DelphiPrimitiveType
p698
(dp699
g7
g46
sbsg47
I0
sg48
g49
sbsS'clear'
p700
(i__main__
DelphiMethodDeclaration
p701
(dp702
g14
S'clear'
p703
sg40
(lp704
sg42
g536
sg43
Nsg47
I0
sg48
g55
sbsS'undolast'
p705
(i__main__
DelphiMethodDeclaration
p706
(dp707
g14
S'undoLast'
p708
sg40
(lp709
sg42
g536
sg43
Nsg47
I0
sg48
g55
sbsS'lastcommandchanged'
p710
(i__main__
DelphiMethodDeclaration
p711
(dp712
g14
S'lastCommandChanged'
p713
sg40
(lp714
sg42
g536
sg43
Nsg47
I0
sg48
g55
sg283
(lp715
S'call if change last command'
p716
asbssg121
(lp717
(i__main__
DelphiNamedType
p718
(dp719
g7
S'TObject'
p720
sg81
g1
sg82
Nsbasg126
(dp721
S'lastdonecommandindex'
p722
(i__main__
DelphiPrimitiveType
p723
(dp724
g7
g640
sbsS'anchorpoint'
p725
(i__main__
DelphiNamedType
p726
(dp727
g7
S'TPoint'
p728
sg81
g1
sg82
NsbsS'previouspoint'
p729
(i__main__
DelphiNamedType
p730
(dp731
g7
S'TPoint'
p732
sg81
g1
sg82
NsbsS'notifyprocedure'
p733
(i__main__
DelphiNamedType
p734
(dp735
g7
S'TCommandEvent'
p736
sg81
g1
sg82
NsbsS'commandlist'
p737
(i__main__
DelphiNamedType
p738
(dp739
g7
S'TList'
p740
sg81
g1
sg82
NsbsS'mousecommand'
p741
(i__main__
DelphiNamedType
p742
(dp743
g7
S'KfCommand'
p744
sg81
g1
sg82
NsbsS'undolimit'
p745
(i__main__
DelphiPrimitiveType
p746
(dp747
g7
g640
sbsS'rightbuttondown'
p748
(i__main__
DelphiPrimitiveType
p749
(dp750
g7
g101
sbssg141
(lp751
S'create'
p752
aS'clear'
p753
aS'destroy'
p754
aS'command'
p755
aS'setnewundolimit'
p756
aS'freecommandsabovelimit'
p757
aS'docommand'
p758
aS'mousedown'
p759
aS'mousemove'
p760
aS'mouseup'
p761
aS'isundoenabled'
p762
aS'isredoenabled'
p763
aS'undodescription'
p764
aS'redodescription'
p765
aS'undolast'
p766
aS'redolast'
p767
aS'removecommand'
p768
aS'lastcommand'
p769
aS'clearredoablecommands'
p770
aS'lastcommandchanged'
p771
asg151
(dp772
S'redolast'
p773
(i__main__
DelphiMethodImplementation
p774
(dp775
g156
g539
sg14
g541
sg40
(lp776
sg158
(lp777
sg160
(lp778
sg162
(lp779
g164
asg165
(dp780
sg42
S'KfCommandList'
p781
sg43
Nsg170
(lp782
sg47
I0
sg48
g55
sg172
(i__main__
DelphiBlock
p783
(dp784
g175
(idelphi
DelphiCompoundStatement
p785
(dp786
g178
(lp787
(idelphi
DelphiIfStatement
p788
(dp789
g215
(idelphi
DelphiRelOp
p790
(dp791
S'simpleExpression1'
p792
(i__main__
DelphiIdentAccess
p793
(dp794
g193
S'lastDoneCommandIndex'
p795
sg185
(lp796
sbsS'simpleExpression2'
p797
(idelphi
DelphiNestedExpressionListAccess
p798
(dp799
g185
(lp800
sg222
(lp801
(idelphi
DelphiAddOp
p802
(dp803
S'addOp'
p804
S'-'
sS'term2'
p805
(idelphi
DelphiIntegerValue
p806
(dp807
g46
S'1'
sbsS'term1'
p808
(i__main__
DelphiIdentAccess
p809
(dp810
g193
S'commandList'
p811
sg185
(lp812
(idelphi
DelphiFieldEndAccess
p813
(dp814
g241
S'count'
p815
sbasbsbasbsS'relOp'
p816
S'<'
sbsg228
Nsg229
(idelphi
DelphiCompoundStatement
p817
(dp818
g178
(lp819
(i__main__
DelphiAssignStatement
p820
(dp821
g182
(i__main__
DelphiIdentAccess
p822
(dp823
g193
S'command'
p824
sg185
(lp825
(idelphi
DelphiFunctionEndAccess
p826
(dp827
g222
(lp828
(idelphi
DelphiAddOp
p829
(dp830
g804
S'+'
sg805
(idelphi
DelphiIntegerValue
p831
(dp832
g46
S'1'
sbsg808
(i__main__
DelphiIdentAccess
p833
(dp834
g193
S'lastDoneCommandIndex'
p835
sg185
(lp836
sbsbasbasbsg190
(i__main__
DelphiIdentAccess
p837
(dp838
g193
S'aCommand'
p839
sg185
(lp840
sbsba(i__main__
DelphiAssignStatement
p841
(dp842
g182
Nsg190
(i__main__
DelphiIdentAccess
p843
(dp844
g193
S'aCommand'
p845
sg185
(lp846
(idelphi
DelphiFieldEndAccess
p847
(dp848
g241
S'redoCommand'
p849
sbasbsba(i__main__
DelphiIncOrDecStatement
p850
(dp851
S'incOrDecString'
p852
S'inc'
p853
sS'incrementExpression'
p854
Nsg190
(i__main__
DelphiIdentAccess
p855
(dp856
g193
S'lastDoneCommandIndex'
p857
sg185
(lp858
sbsba(i__main__
DelphiAssignStatement
p859
(dp860
g182
Nsg190
(i__main__
DelphiIdentAccess
p861
(dp862
g193
S'aCommand'
p863
sg185
(lp864
(idelphi
DelphiFieldEndAccess
p865
(dp866
g241
S'doNotify'
p867
sbasbsbasbsbasbsg196
(lp868
(i__main__
DelphiVarSection
p869
(dp870
S'atTopLevel'
p871
I0
sS'varDeclList'
p872
(lp873
(idelphi
DelphiVarDecl
p874
(dp875
S'constExpression'
p876
NsS'identList'
p877
(lp878
S'aCommand'
p879
asg77
(i__main__
DelphiNamedType
p880
(dp881
g7
S'KfCommand'
p882
sg81
g1
sg82
NsbsbasbasbsbsS'removecommand'
p883
(i__main__
DelphiMethodImplementation
p884
(dp885
g156
g544
sg14
g546
sg40
(lp886
(i__main__
DelphiFormalParameter
p887
(dp888
g74
Nsg9
(lp889
S'aCommand'
p890
asg77
(i__main__
DelphiNamedType
p891
(dp892
g7
S'KfCommand'
p893
sg81
g1
sg82
Nsbsg83
Nsbasg158
(lp894
sg160
(lp895
sg162
(lp896
g164
ag890
asg165
(dp897
g890
g891
ssg42
S'KfCommandList'
p898
sg43
Nsg170
(lp899
sg47
I0
sg48
g55
sg172
(i__main__
DelphiBlock
p900
(dp901
g175
(idelphi
DelphiCompoundStatement
p902
(dp903
g178
(lp904
(idelphi
DelphiIfStatement
p905
(dp906
g215
(i__main__
DelphiIdentAccess
p907
(dp908
g193
S'aCommand'
p909
sg185
(lp910
(idelphi
DelphiFieldEndAccess
p911
(dp912
g241
S'done'
p913
sbasbsg228
Nsg229
(idelphi
DelphiRaiseStatement
p914
(dp915
g215
(i__main__
DelphiIdentAccess
p916
(dp917
g193
S'Exception'
p918
sg185
(lp919
(idelphi
DelphiFieldEndAccess
p920
(dp921
g241
S'create'
p922
sba(idelphi
DelphiFunctionEndAccess
p923
(dp924
g222
(lp925
(idelphi
DelphiStringAccess
p926
(dp927
g185
(lp928
sg46
(idelphi
DelphiStringValue
p929
(dp930
g46
S'KfCommandList.removeCommand: command not undone'
p931
sbsbasbasbsg283
(lp932
S' assume this command has been undone previously '
p933
asbsba(i__main__
DelphiAssignStatement
p934
(dp935
g182
Nsg190
(i__main__
DelphiIdentAccess
p936
(dp937
g193
S'commandList'
p938
sg185
(lp939
(idelphi
DelphiFieldEndAccess
p940
(dp941
g241
S'remove'
p942
sba(idelphi
DelphiFunctionEndAccess
p943
(dp944
g222
(lp945
(i__main__
DelphiIdentAccess
p946
(dp947
g193
S'aCommand'
p948
sg185
(lp949
sbasbasbsbasbsg196
(lp950
sbsbsS'isundoenabled'
p951
(i__main__
DelphiMethodImplementation
p952
(dp953
g156
g556
sg14
g558
sg40
(lp954
sg158
(lp955
sg160
(lp956
sg162
(lp957
g164
asg165
(dp958
sg42
S'KfCommandList'
p959
sg43
(i__main__
DelphiPrimitiveType
p960
(dp961
g7
g101
sbsg170
(lp962
sg47
I0
sg48
g49
sg172
(i__main__
DelphiBlock
p963
(dp964
g175
(idelphi
DelphiCompoundStatement
p965
(dp966
g178
(lp967
(i__main__
DelphiAssignStatement
p968
(dp969
g182
(idelphi
DelphiRelOp
p970
(dp971
g792
(i__main__
DelphiIdentAccess
p972
(dp973
g193
S'lastDoneCommandIndex'
p974
sg185
(lp975
sbsg797
(idelphi
DelphiIntegerValue
p976
(dp977
g46
S'0'
sbsg816
S'>='
p978
sbsg190
(i__main__
DelphiIdentAccess
p979
(dp980
g193
S'result'
p981
sg185
(lp982
sbsbasbsg196
(lp983
sbsbsS'create'
p984
(i__main__
DelphiMethodImplementation
p985
(dp986
g156
g563
sg14
g565
sg40
(lp987
sg158
(lp988
sg160
(lp989
sg162
(lp990
g164
asg165
(dp991
sg42
S'KfCommandList'
p992
sg43
Nsg170
(lp993
sg47
I0
sg48
g61
sg172
(i__main__
DelphiBlock
p994
(dp995
g175
(idelphi
DelphiCompoundStatement
p996
(dp997
g178
(lp998
(i__main__
DelphiAssignStatement
p999
(dp1000
g182
Nsg190
(idelphi
DelphiInheritedCall
p1001
(dp1002
g193
S'create'
p1003
sg222
Nsbsba(i__main__
DelphiAssignStatement
p1004
(dp1005
g182
(i__main__
DelphiIdentAccess
p1006
(dp1007
g193
S'TList'
p1008
sg185
(lp1009
(idelphi
DelphiFieldEndAccess
p1010
(dp1011
g241
S'create'
p1012
sbasbsg190
(i__main__
DelphiIdentAccess
p1013
(dp1014
g193
S'commandList'
p1015
sg185
(lp1016
sbsba(i__main__
DelphiAssignStatement
p1017
(dp1018
g182
(idelphi
DelphiSign
p1019
(dp1020
S'factor'
p1021
(idelphi
DelphiIntegerValue
p1022
(dp1023
g46
S'1'
sbsS'sign'
p1024
S'-'
sbsg190
(i__main__
DelphiIdentAccess
p1025
(dp1026
g193
S'lastDoneCommandIndex'
p1027
sg185
(lp1028
sbsba(i__main__
DelphiAssignStatement
p1029
(dp1030
g182
(idelphi
DelphiIntegerValue
p1031
(dp1032
g46
S'100'
p1033
sbsg190
(i__main__
DelphiIdentAccess
p1034
(dp1035
g193
S'undoLimit'
p1036
sg185
(lp1037
sbsbasbsg196
(lp1038
sbsg283
(lp1039
S'KfCommandList'
p1040
asbsS'docommand'
p1041
(i__main__
DelphiMethodImplementation
p1042
(dp1043
g156
g568
sg14
g570
sg40
(lp1044
(i__main__
DelphiFormalParameter
p1045
(dp1046
g74
Nsg9
(lp1047
S'newCommand'
p1048
asg77
(i__main__
DelphiNamedType
p1049
(dp1050
g7
S'KfCommand'
p1051
sg81
g1
sg82
Nsbsg83
Nsbasg158
(lp1052
sg160
(lp1053
sg162
(lp1054
g164
ag1048
asg165
(dp1055
g1048
g1049
ssg42
S'KfCommandList'
p1056
sg43
Nsg170
(lp1057
sg47
I0
sg48
g55
sg172
(i__main__
DelphiBlock
p1058
(dp1059
g175
(idelphi
DelphiCompoundStatement
p1060
(dp1061
g178
(lp1062
(i__main__
DelphiAssignStatement
p1063
(dp1064
g182
Nsg190
(i__main__
DelphiIdentAccess
p1065
(dp1066
g193
S'self'
p1067
sg185
(lp1068
(idelphi
DelphiFieldEndAccess
p1069
(dp1070
g241
S'clearRedoableCommands'
p1071
sbasbsg283
(lp1072
S'remove any extra commands after the current'
p1073
aS'do this first to free memory for command'
p1074
asba(i__main__
DelphiAssignStatement
p1075
(dp1076
g182
Nsg190
(i__main__
DelphiIdentAccess
p1077
(dp1078
g193
S'self'
p1079
sg185
(lp1080
(idelphi
DelphiFieldEndAccess
p1081
(dp1082
g241
S'freeCommandsAboveLimit'
p1083
sba(idelphi
DelphiFunctionEndAccess
p1084
(dp1085
g222
(lp1086
(idelphi
DelphiAddOp
p1087
(dp1088
g804
S'-'
sg805
(idelphi
DelphiIntegerValue
p1089
(dp1090
g46
S'1'
sbsg808
(i__main__
DelphiIdentAccess
p1091
(dp1092
g193
S'undoLimit'
p1093
sg185
(lp1094
sbsbasbasbsg283
(lp1095
S'see if too many commands are stored and if so, scroll them'
p1096
asba(idelphi
DelphiIfStatement
p1097
(dp1098
g215
(idelphi
DelphiNot
p1099
(dp1100
g1021
(i__main__
DelphiIdentAccess
p1101
(dp1102
g193
S'Assigned'
p1103
sg185
(lp1104
(idelphi
DelphiFunctionEndAccess
p1105
(dp1106
g222
(lp1107
(i__main__
DelphiIdentAccess
p1108
(dp1109
g193
S'newCommand'
p1110
sg185
(lp1111
(idelphi
DelphiFieldEndAccess
p1112
(dp1113
g241
S'notifyProcedure'
p1114
sbasbasbasbsbsg228
Nsg229
(i__main__
DelphiAssignStatement
p1115
(dp1116
g182
(i__main__
DelphiIdentAccess
p1117
(dp1118
g193
S'notifyProcedure'
p1119
sg185
(lp1120
sbsg190
(i__main__
DelphiIdentAccess
p1121
(dp1122
g193
S'newCommand'
p1123
sg185
(lp1124
(idelphi
DelphiFieldEndAccess
p1125
(dp1126
g241
S'notifyProcedure'
p1127
sbasbsg283
(lp1128
S'now do this command'
p1129
asbsba(i__main__
DelphiAssignStatement
p1130
(dp1131
g182
Nsg190
(i__main__
DelphiIdentAccess
p1132
(dp1133
g193
S'newCommand'
p1134
sg185
(lp1135
(idelphi
DelphiFieldEndAccess
p1136
(dp1137
g241
S'doCommand'
p1138
sbasbsg283
(lp1139
S"may fail in which case won't add"
p1140
asba(i__main__
DelphiIncOrDecStatement
p1141
(dp1142
g852
g853
sg854
Nsg190
(i__main__
DelphiIdentAccess
p1143
(dp1144
g193
S'lastDoneCommandIndex'
p1145
sg185
(lp1146
sbsba(i__main__
DelphiAssignStatement
p1147
(dp1148
g182
Nsg190
(i__main__
DelphiIdentAccess
p1149
(dp1150
g193
S'commandList'
p1151
sg185
(lp1152
(idelphi
DelphiFieldEndAccess
p1153
(dp1154
g241
S'add'
p1155
sba(idelphi
DelphiFunctionEndAccess
p1156
(dp1157
g222
(lp1158
(i__main__
DelphiIdentAccess
p1159
(dp1160
g193
S'newCommand'
p1161
sg185
(lp1162
sbasbasbsba(i__main__
DelphiAssignStatement
p1163
(dp1164
g182
Nsg190
(i__main__
DelphiIdentAccess
p1165
(dp1166
g193
S'newCommand'
p1167
sg185
(lp1168
(idelphi
DelphiFieldEndAccess
p1169
(dp1170
g241
S'doNotify'
p1171
sbasbsbasbsg196
(lp1172
sbsbsS'mousedown'
p1173
(i__main__
DelphiMethodImplementation
p1174
(dp1175
g156
g580
sg14
g582
sg40
(lp1176
(i__main__
DelphiFormalParameter
p1177
(dp1178
g74
Nsg9
(lp1179
S'newCommand'
p1180
asg77
(i__main__
DelphiNamedType
p1181
(dp1182
g7
S'KfCommand'
p1183
sg81
g1
sg82
Nsbsg83
Nsba(i__main__
DelphiFormalParameter
p1184
(dp1185
g74
Nsg9
(lp1186
S'point'
p1187
asg77
(i__main__
DelphiNamedType
p1188
(dp1189
g7
S'Tpoint'
p1190
sg81
g1
sg82
Nsbsg83
Nsbasg158
(lp1191
sg160
(lp1192
sg162
(lp1193
g164
ag1180
ag1187
asg165
(dp1194
g1187
g1188
sg1180
g1181
ssg42
S'KfCommandList'
p1195
sg43
(i__main__
DelphiPrimitiveType
p1196
(dp1197
g7
g101
sbsg170
(lp1198
sg47
I0
sg48
g49
sg172
(i__main__
DelphiBlock
p1199
(dp1200
g175
(idelphi
DelphiCompoundStatement
p1201
(dp1202
g178
(lp1203
(i__main__
DelphiAssignStatement
p1204
(dp1205
g182
(i__main__
DelphiIdentAccess
p1206
(dp1207
g193
S'false'
p1208
sg185
(lp1209
sbsg190
(i__main__
DelphiIdentAccess
p1210
(dp1211
g193
S'result'
p1212
sg185
(lp1213
sbsba(idelphi
DelphiIfStatement
p1214
(dp1215
g215
(idelphi
DelphiRelOp
p1216
(dp1217
g792
(i__main__
DelphiIdentAccess
p1218
(dp1219
g193
S'mouseCommand'
p1220
sg185
(lp1221
sbsg797
(idelphi
DelphiNilValue
p1222
(dp1223
bsg816
S'<>'
p1224
sbsg228
Nsg229
(i__main__
DelphiAssignStatement
p1225
(dp1226
g182
Nsg190
(i__main__
DelphiIdentAccess
p1227
(dp1228
g193
S'self'
p1229
sg185
(lp1230
(idelphi
DelphiFieldEndAccess
p1231
(dp1232
g241
S'mouseUp'
p1233
sba(idelphi
DelphiFunctionEndAccess
p1234
(dp1235
g222
(lp1236
(i__main__
DelphiIdentAccess
p1237
(dp1238
g193
S'point'
p1239
sg185
(lp1240
sbasbasbsg283
(lp1241
S'check if need to clear mouse command'
p1242
asbsba(i__main__
DelphiAssignStatement
p1243
(dp1244
g182
(idelphi
DelphiNilValue
p1245
(dp1246
bsg190
(i__main__
DelphiIdentAccess
p1247
(dp1248
g193
S'mouseCommand'
p1249
sg185
(lp1250
sbsba(idelphi
DelphiIfStatement
p1251
(dp1252
g215
(idelphi
DelphiRelOp
p1253
(dp1254
g792
(i__main__
DelphiIdentAccess
p1255
(dp1256
g193
S'newCommand'
p1257
sg185
(lp1258
sbsg797
(idelphi
DelphiNilValue
p1259
(dp1260
bsg816
g1224
sbsg228
Nsg229
(idelphi
DelphiCompoundStatement
p1261
(dp1262
g178
(lp1263
(i__main__
DelphiAssignStatement
p1264
(dp1265
g182
(i__main__
DelphiIdentAccess
p1266
(dp1267
g193
S'point'
p1268
sg185
(lp1269
sbsg190
(i__main__
DelphiIdentAccess
p1270
(dp1271
g193
S'anchorPoint'
p1272
sg185
(lp1273
sbsg283
(lp1274
S'save mouse command and start it'
p1275
asba(i__main__
DelphiAssignStatement
p1276
(dp1277
g182
(i__main__
DelphiIdentAccess
p1278
(dp1279
g193
S'point'
p1280
sg185
(lp1281
sbsg190
(i__main__
DelphiIdentAccess
p1282
(dp1283
g193
S'previousPoint'
p1284
sg185
(lp1285
sbsba(i__main__
DelphiAssignStatement
p1286
(dp1287
g182
(i__main__
DelphiIdentAccess
p1288
(dp1289
g193
S'newCommand'
p1290
sg185
(lp1291
sbsg190
(i__main__
DelphiIdentAccess
p1292
(dp1293
g193
S'nextMouseCommand'
p1294
sg185
(lp1295
sbsba(idelphi
DelphiIfStatement
p1296
(dp1297
g215
(idelphi
DelphiNot
p1298
(dp1299
g1021
(i__main__
DelphiIdentAccess
p1300
(dp1301
g193
S'Assigned'
p1302
sg185
(lp1303
(idelphi
DelphiFunctionEndAccess
p1304
(dp1305
g222
(lp1306
(i__main__
DelphiIdentAccess
p1307
(dp1308
g193
S'newCommand'
p1309
sg185
(lp1310
(idelphi
DelphiFieldEndAccess
p1311
(dp1312
g241
S'notifyProcedure'
p1313
sbasbasbasbsbsg228
Nsg229
(i__main__
DelphiAssignStatement
p1314
(dp1315
g182
(i__main__
DelphiIdentAccess
p1316
(dp1317
g193
S'notifyProcedure'
p1318
sg185
(lp1319
sbsg190
(i__main__
DelphiIdentAccess
p1320
(dp1321
g193
S'newCommand'
p1322
sg185
(lp1323
(idelphi
DelphiFieldEndAccess
p1324
(dp1325
g241
S'notifyProcedure'
p1326
sbasbsbsba(i__main__
DelphiAssignStatement
p1327
(dp1328
g182
(i__main__
DelphiIdentAccess
p1329
(dp1330
g193
S'nextMouseCommand'
p1331
sg185
(lp1332
(idelphi
DelphiFieldEndAccess
p1333
(dp1334
g241
S'trackMouse'
p1335
sba(idelphi
DelphiFunctionEndAccess
p1336
(dp1337
g222
(lp1338
(i__main__
DelphiIdentAccess
p1339
(dp1340
g193
S'TrackPress'
p1341
sg185
(lp1342
sba(i__main__
DelphiIdentAccess
p1343
(dp1344
g193
S'anchorPoint'
p1345
sg185
(lp1346
sba(i__main__
DelphiIdentAccess
p1347
(dp1348
g193
S'previousPoint'
p1349
sg185
(lp1350
sba(i__main__
DelphiIdentAccess
p1351
(dp1352
g193
S'point'
p1353
sg185
(lp1354
sba(i__main__
DelphiIdentAccess
p1355
(dp1356
g193
S'false'
p1357
sg185
(lp1358
sba(i__main__
DelphiIdentAccess
p1359
(dp1360
g193
S'rightButtonDown'
p1361
sg185
(lp1362
sbasbasbsg190
(i__main__
DelphiIdentAccess
p1363
(dp1364
g193
S'mouseCommand'
p1365
sg185
(lp1366
sbsba(i__main__
DelphiAssignStatement
p1367
(dp1368
g182
(idelphi
DelphiNestedExpressionListAccess
p1369
(dp1370
g185
(lp1371
sg222
(lp1372
(idelphi
DelphiRelOp
p1373
(dp1374
g792
(i__main__
DelphiIdentAccess
p1375
(dp1376
g193
S'mouseCommand'
p1377
sg185
(lp1378
sbsg797
(idelphi
DelphiNilValue
p1379
(dp1380
bsg816
g1224
sbasbsg190
(i__main__
DelphiIdentAccess
p1381
(dp1382
g193
S'result'
p1383
sg185
(lp1384
sbsbasbsbasbsg196
(lp1385
(i__main__
DelphiVarSection
p1386
(dp1387
g871
I0
sg872
(lp1388
(idelphi
DelphiVarDecl
p1389
(dp1390
g876
Nsg877
(lp1391
S'nextMouseCommand'
p1392
asg77
(i__main__
DelphiNamedType
p1393
(dp1394
g7
S'KfCommand'
p1395
sg81
g1
sg82
Nsbsbasbasbsg283
(lp1396
S'added nextMouseCommand in these three functions to deal with unhandled exceptions occurring\r'
p1397
aS'during mouse commands.  This way, the command will not be further processed.\r'
p1398
aS'This may occasionally leak - the mouse command should be the one responsible for freeing\r'
p1399
aS'itself and returning nil if a problem occurs'
p1400
aS'returns whether the command finished tracking without freeing itself'
p1401
asbsS'mouseup'
p1402
(i__main__
DelphiMethodImplementation
p1403
(dp1404
g156
g601
sg14
g603
sg40
(lp1405
(i__main__
DelphiFormalParameter
p1406
(dp1407
g74
Nsg9
(lp1408
S'point'
p1409
asg77
(i__main__
DelphiNamedType
p1410
(dp1411
g7
S'TPoint'
p1412
sg81
g1
sg82
Nsbsg83
Nsbasg158
(lp1413
sg160
(lp1414
sg162
(lp1415
g164
ag1409
asg165
(dp1416
g1409
g1410
ssg42
S'KfCommandList'
p1417
sg43
Nsg170
(lp1418
sg47
I0
sg48
g55
sg172
(i__main__
DelphiBlock
p1419
(dp1420
g175
(idelphi
DelphiCompoundStatement
p1421
(dp1422
g178
(lp1423
(i__main__
DelphiAssignStatement
p1424
(dp1425
g182
(i__main__
DelphiIdentAccess
p1426
(dp1427
g193
S'mouseCommand'
p1428
sg185
(lp1429
sbsg190
(i__main__
DelphiIdentAccess
p1430
(dp1431
g193
S'nextMouseCommand'
p1432
sg185
(lp1433
sbsba(i__main__
DelphiAssignStatement
p1434
(dp1435
g182
(idelphi
DelphiNilValue
p1436
(dp1437
bsg190
(i__main__
DelphiIdentAccess
p1438
(dp1439
g193
S'mouseCommand'
p1440
sg185
(lp1441
sbsba(idelphi
DelphiIfStatement
p1442
(dp1443
g215
(idelphi
DelphiRelOp
p1444
(dp1445
g792
(i__main__
DelphiIdentAccess
p1446
(dp1447
g193
S'nextMouseCommand'
p1448
sg185
(lp1449
sbsg797
(idelphi
DelphiNilValue
p1450
(dp1451
bsg816
g1224
sbsg228
Nsg229
(idelphi
DelphiCompoundStatement
p1452
(dp1453
g178
(lp1454
(i__main__
DelphiAssignStatement
p1455
(dp1456
g182
(idelphi
DelphiAddOp
p1457
(dp1458
g804
S'or'
p1459
sg805
(idelphi
DelphiNestedExpressionListAccess
p1460
(dp1461
g185
(lp1462
sg222
(lp1463
(idelphi
DelphiRelOp
p1464
(dp1465
g792
(i__main__
DelphiIdentAccess
p1466
(dp1467
g193
S'abs'
p1468
sg185
(lp1469
(idelphi
DelphiFunctionEndAccess
p1470
(dp1471
g222
(lp1472
(idelphi
DelphiAddOp
p1473
(dp1474
g804
S'-'
sg805
(i__main__
DelphiIdentAccess
p1475
(dp1476
g193
S'anchorPoint'
p1477
sg185
(lp1478
(idelphi
DelphiFieldEndAccess
p1479
(dp1480
g241
S'y'
sbasbsg808
(i__main__
DelphiIdentAccess
p1481
(dp1482
g193
S'point'
p1483
sg185
(lp1484
(idelphi
DelphiFieldEndAccess
p1485
(dp1486
g241
S'y'
sbasbsbasbasbsg797
(i__main__
DelphiIdentAccess
p1487
(dp1488
g193
S'kMinMouseMoveDistance'
p1489
sg185
(lp1490
sbsg816
S'>'
sbasbsg808
(idelphi
DelphiNestedExpressionListAccess
p1491
(dp1492
g185
(lp1493
sg222
(lp1494
(idelphi
DelphiRelOp
p1495
(dp1496
g792
(i__main__
DelphiIdentAccess
p1497
(dp1498
g193
S'abs'
p1499
sg185
(lp1500
(idelphi
DelphiFunctionEndAccess
p1501
(dp1502
g222
(lp1503
(idelphi
DelphiAddOp
p1504
(dp1505
g804
S'-'
sg805
(i__main__
DelphiIdentAccess
p1506
(dp1507
g193
S'anchorPoint'
p1508
sg185
(lp1509
(idelphi
DelphiFieldEndAccess
p1510
(dp1511
g241
S'x'
sbasbsg808
(i__main__
DelphiIdentAccess
p1512
(dp1513
g193
S'point'
p1514
sg185
(lp1515
(idelphi
DelphiFieldEndAccess
p1516
(dp1517
g241
S'x'
sbasbsbasbasbsg797
(i__main__
DelphiIdentAccess
p1518
(dp1519
g193
S'kMinMouseMoveDistance'
p1520
sg185
(lp1521
sbsg816
S'>'
sbasbsbsg190
(i__main__
DelphiIdentAccess
p1522
(dp1523
g193
S'mouseDidMove'
p1524
sg185
(lp1525
sbsba(idelphi
DelphiIfStatement
p1526
(dp1527
g215
(i__main__
DelphiIdentAccess
p1528
(dp1529
g193
S'mouseDidMove'
p1530
sg185
(lp1531
sbsg228
(i__main__
DelphiAssignStatement
p1532
(dp1533
g182
(i__main__
DelphiIdentAccess
p1534
(dp1535
g193
S'anchorPoint'
p1536
sg185
(lp1537
sbsg190
(i__main__
DelphiIdentAccess
p1538
(dp1539
g193
S'pointMovedTo'
p1540
sg185
(lp1541
sbsbsg229
(i__main__
DelphiAssignStatement
p1542
(dp1543
g182
(i__main__
DelphiIdentAccess
p1544
(dp1545
g193
S'point'
p1546
sg185
(lp1547
sbsg190
(i__main__
DelphiIdentAccess
p1548
(dp1549
g193
S'pointMovedTo'
p1550
sg185
(lp1551
sbsbsba(i__main__
DelphiAssignStatement
p1552
(dp1553
g182
(i__main__
DelphiIdentAccess
p1554
(dp1555
g193
S'nextMouseCommand'
p1556
sg185
(lp1557
(idelphi
DelphiFieldEndAccess
p1558
(dp1559
g241
S'trackMouse'
p1560
sba(idelphi
DelphiFunctionEndAccess
p1561
(dp1562
g222
(lp1563
(i__main__
DelphiIdentAccess
p1564
(dp1565
g193
S'trackRelease'
p1566
sg185
(lp1567
sba(i__main__
DelphiIdentAccess
p1568
(dp1569
g193
S'anchorPoint'
p1570
sg185
(lp1571
sba(i__main__
DelphiIdentAccess
p1572
(dp1573
g193
S'previousPoint'
p1574
sg185
(lp1575
sba(i__main__
DelphiIdentAccess
p1576
(dp1577
g193
S'point'
p1578
sg185
(lp1579
sba(i__main__
DelphiIdentAccess
p1580
(dp1581
g193
S'mouseDidMove'
p1582
sg185
(lp1583
sba(i__main__
DelphiIdentAccess
p1584
(dp1585
g193
S'rightButtonDown'
p1586
sg185
(lp1587
sbasbasbsg190
(i__main__
DelphiIdentAccess
p1588
(dp1589
g193
S'nextMouseCommand'
p1590
sg185
(lp1591
sbsba(idelphi
DelphiIfStatement
p1592
(dp1593
g215
(idelphi
DelphiRelOp
p1594
(dp1595
g792
(i__main__
DelphiIdentAccess
p1596
(dp1597
g193
S'nextMouseCommand'
p1598
sg185
(lp1599
sbsg797
(idelphi
DelphiNilValue
p1600
(dp1601
bsg816
g1224
sbsg228
Nsg229
(i__main__
DelphiAssignStatement
p1602
(dp1603
g182
Nsg190
(i__main__
DelphiIdentAccess
p1604
(dp1605
g193
S'doCommand'
p1606
sg185
(lp1607
(idelphi
DelphiFunctionEndAccess
p1608
(dp1609
g222
(lp1610
(i__main__
DelphiIdentAccess
p1611
(dp1612
g193
S'nextMouseCommand'
p1613
sg185
(lp1614
sbasbasbsbsbasbsbasbsg196
(lp1615
(i__main__
DelphiVarSection
p1616
(dp1617
g871
I0
sg872
(lp1618
(idelphi
DelphiVarDecl
p1619
(dp1620
g876
Nsg877
(lp1621
S'mouseDidMove'
p1622
asg77
(i__main__
DelphiPrimitiveType
p1623
(dp1624
g7
g101
sbsba(idelphi
DelphiVarDecl
p1625
(dp1626
g876
Nsg877
(lp1627
S'nextMouseCommand'
p1628
asg77
(i__main__
DelphiNamedType
p1629
(dp1630
g7
S'KfCommand'
p1631
sg81
g1
sg82
Nsbsba(idelphi
DelphiVarDecl
p1632
(dp1633
g876
Nsg877
(lp1634
S'pointMovedTo'
p1635
asg77
(i__main__
DelphiNamedType
p1636
(dp1637
g7
S'TPoint'
p1638
sg81
g1
sg82
NsbsbasbasbsbsS'mousemove'
p1639
(i__main__
DelphiMethodImplementation
p1640
(dp1641
g156
g613
sg14
g615
sg40
(lp1642
(i__main__
DelphiFormalParameter
p1643
(dp1644
g74
Nsg9
(lp1645
S'point'
p1646
asg77
(i__main__
DelphiNamedType
p1647
(dp1648
g7
S'TPoint'
p1649
sg81
g1
sg82
Nsbsg83
Nsbasg158
(lp1650
sg160
(lp1651
sg162
(lp1652
g164
ag1646
asg165
(dp1653
g1646
g1647
ssg42
S'KfCommandList'
p1654
sg43
Nsg170
(lp1655
sg47
I0
sg48
g55
sg172
(i__main__
DelphiBlock
p1656
(dp1657
g175
(idelphi
DelphiCompoundStatement
p1658
(dp1659
g178
(lp1660
(i__main__
DelphiAssignStatement
p1661
(dp1662
g182
(i__main__
DelphiIdentAccess
p1663
(dp1664
g193
S'mouseCommand'
p1665
sg185
(lp1666
sbsg190
(i__main__
DelphiIdentAccess
p1667
(dp1668
g193
S'nextMouseCommand'
p1669
sg185
(lp1670
sbsba(i__main__
DelphiAssignStatement
p1671
(dp1672
g182
(idelphi
DelphiNilValue
p1673
(dp1674
bsg190
(i__main__
DelphiIdentAccess
p1675
(dp1676
g193
S'mouseCommand'
p1677
sg185
(lp1678
sbsba(idelphi
DelphiIfStatement
p1679
(dp1680
g215
(idelphi
DelphiRelOp
p1681
(dp1682
g792
(i__main__
DelphiIdentAccess
p1683
(dp1684
g193
S'nextMouseCommand'
p1685
sg185
(lp1686
sbsg797
(idelphi
DelphiNilValue
p1687
(dp1688
bsg816
g1224
sbsg228
Nsg229
(idelphi
DelphiCompoundStatement
p1689
(dp1690
g178
(lp1691
(i__main__
DelphiAssignStatement
p1692
(dp1693
g182
(idelphi
DelphiAddOp
p1694
(dp1695
g804
g1459
sg805
(idelphi
DelphiNestedExpressionListAccess
p1696
(dp1697
g185
(lp1698
sg222
(lp1699
(idelphi
DelphiRelOp
p1700
(dp1701
g792
(i__main__
DelphiIdentAccess
p1702
(dp1703
g193
S'abs'
p1704
sg185
(lp1705
(idelphi
DelphiFunctionEndAccess
p1706
(dp1707
g222
(lp1708
(idelphi
DelphiAddOp
p1709
(dp1710
g804
S'-'
sg805
(i__main__
DelphiIdentAccess
p1711
(dp1712
g193
S'point'
p1713
sg185
(lp1714
(idelphi
DelphiFieldEndAccess
p1715
(dp1716
g241
S'y'
sbasbsg808
(i__main__
DelphiIdentAccess
p1717
(dp1718
g193
S'previousPoint'
p1719
sg185
(lp1720
(idelphi
DelphiFieldEndAccess
p1721
(dp1722
g241
S'y'
sbasbsbasbasbsg797
(i__main__
DelphiIdentAccess
p1723
(dp1724
g193
S'kMinMouseMoveDistance'
p1725
sg185
(lp1726
sbsg816
S'>'
sbasbsg808
(idelphi
DelphiNestedExpressionListAccess
p1727
(dp1728
g185
(lp1729
sg222
(lp1730
(idelphi
DelphiRelOp
p1731
(dp1732
g792
(i__main__
DelphiIdentAccess
p1733
(dp1734
g193
S'abs'
p1735
sg185
(lp1736
(idelphi
DelphiFunctionEndAccess
p1737
(dp1738
g222
(lp1739
(idelphi
DelphiAddOp
p1740
(dp1741
g804
S'-'
sg805
(i__main__
DelphiIdentAccess
p1742
(dp1743
g193
S'point'
p1744
sg185
(lp1745
(idelphi
DelphiFieldEndAccess
p1746
(dp1747
g241
S'x'
sbasbsg808
(i__main__
DelphiIdentAccess
p1748
(dp1749
g193
S'previousPoint'
p1750
sg185
(lp1751
(idelphi
DelphiFieldEndAccess
p1752
(dp1753
g241
S'x'
sbasbsbasbasbsg797
(i__main__
DelphiIdentAccess
p1754
(dp1755
g193
S'kMinMouseMoveDistance'
p1756
sg185
(lp1757
sbsg816
S'>'
sbasbsbsg190
(i__main__
DelphiIdentAccess
p1758
(dp1759
g193
S'mouseDidMove'
p1760
sg185
(lp1761
sbsba(idelphi
DelphiIfStatement
p1762
(dp1763
g215
(i__main__
DelphiIdentAccess
p1764
(dp1765
g193
S'mouseDidMove'
p1766
sg185
(lp1767
sbsg228
(i__main__
DelphiAssignStatement
p1768
(dp1769
g182
(i__main__
DelphiIdentAccess
p1770
(dp1771
g193
S'previousPoint'
p1772
sg185
(lp1773
sbsg190
(i__main__
DelphiIdentAccess
p1774
(dp1775
g193
S'pointMovedTo'
p1776
sg185
(lp1777
sbsbsg229
(i__main__
DelphiAssignStatement
p1778
(dp1779
g182
(i__main__
DelphiIdentAccess
p1780
(dp1781
g193
S'point'
p1782
sg185
(lp1783
sbsg190
(i__main__
DelphiIdentAccess
p1784
(dp1785
g193
S'pointMovedTo'
p1786
sg185
(lp1787
sbsbsba(i__main__
DelphiAssignStatement
p1788
(dp1789
g182
(i__main__
DelphiIdentAccess
p1790
(dp1791
g193
S'nextMouseCommand'
p1792
sg185
(lp1793
(idelphi
DelphiFieldEndAccess
p1794
(dp1795
g241
S'trackMouse'
p1796
sba(idelphi
DelphiFunctionEndAccess
p1797
(dp1798
g222
(lp1799
(i__main__
DelphiIdentAccess
p1800
(dp1801
g193
S'trackMove'
p1802
sg185
(lp1803
sba(i__main__
DelphiIdentAccess
p1804
(dp1805
g193
S'anchorPoint'
p1806
sg185
(lp1807
sba(i__main__
DelphiIdentAccess
p1808
(dp1809
g193
S'previousPoint'
p1810
sg185
(lp1811
sba(i__main__
DelphiIdentAccess
p1812
(dp1813
g193
S'pointMovedTo'
p1814
sg185
(lp1815
sba(i__main__
DelphiIdentAccess
p1816
(dp1817
g193
S'mouseDidMove'
p1818
sg185
(lp1819
sba(i__main__
DelphiIdentAccess
p1820
(dp1821
g193
S'rightButtonDown'
p1822
sg185
(lp1823
sbasbasbsg190
(i__main__
DelphiIdentAccess
p1824
(dp1825
g193
S'mouseCommand'
p1826
sg185
(lp1827
sbsbasbsba(i__main__
DelphiAssignStatement
p1828
(dp1829
g182
(i__main__
DelphiIdentAccess
p1830
(dp1831
g193
S'pointMovedTo'
p1832
sg185
(lp1833
sbsg190
(i__main__
DelphiIdentAccess
p1834
(dp1835
g193
S'previousPoint'
p1836
sg185
(lp1837
sbsbasbsg196
(lp1838
(i__main__
DelphiVarSection
p1839
(dp1840
g871
I0
sg872
(lp1841
(idelphi
DelphiVarDecl
p1842
(dp1843
g876
Nsg877
(lp1844
S'mouseDidMove'
p1845
asg77
(i__main__
DelphiPrimitiveType
p1846
(dp1847
g7
g101
sbsba(idelphi
DelphiVarDecl
p1848
(dp1849
g876
Nsg877
(lp1850
S'nextMouseCommand'
p1851
asg77
(i__main__
DelphiNamedType
p1852
(dp1853
g7
S'KfCommand'
p1854
sg81
g1
sg82
Nsbsba(idelphi
DelphiVarDecl
p1855
(dp1856
g876
Nsg877
(lp1857
S'pointMovedTo'
p1858
asg77
(i__main__
DelphiNamedType
p1859
(dp1860
g7
S'TPoint'
p1861
sg81
g1
sg82
NsbsbasbasbsbsS'clearredoablecommands'
p1862
(i__main__
DelphiMethodImplementation
p1863
(dp1864
g156
g625
sg14
g627
sg40
(lp1865
sg158
(lp1866
sg160
(lp1867
sg162
(lp1868
g164
asg165
(dp1869
sg42
S'KfCommandList'
p1870
sg43
Nsg170
(lp1871
sg47
I0
sg48
g55
sg172
(i__main__
DelphiBlock
p1872
(dp1873
g175
(idelphi
DelphiCompoundStatement
p1874
(dp1875
g178
(lp1876
(idelphi
DelphiIfStatement
p1877
(dp1878
g215
(i__main__
DelphiIdentAccess
p1879
(dp1880
g193
S'isRedoEnabled'
p1881
sg185
(lp1882
sbsg228
Nsg229
(idelphi
DelphiForStatement
p1883
(dp1884
S'variable'
p1885
S'i'
sS'finalValue'
p1886
(idelphi
DelphiAddOp
p1887
(dp1888
g804
S'+'
sg805
(idelphi
DelphiIntegerValue
p1889
(dp1890
g46
S'1'
sbsg808
(i__main__
DelphiIdentAccess
p1891
(dp1892
g193
S'lastDoneCommandIndex'
p1893
sg185
(lp1894
sbsbsS'direction'
p1895
S'downto'
p1896
sg74
(idelphi
DelphiAddOp
p1897
(dp1898
g804
S'-'
sg805
(idelphi
DelphiIntegerValue
p1899
(dp1900
g46
S'1'
sbsg808
(i__main__
DelphiIdentAccess
p1901
(dp1902
g193
S'commandList'
p1903
sg185
(lp1904
(idelphi
DelphiFieldEndAccess
p1905
(dp1906
g241
S'count'
p1907
sbasbsbsS'statement'
p1908
(idelphi
DelphiCompoundStatement
p1909
(dp1910
g178
(lp1911
(i__main__
DelphiAssignStatement
p1912
(dp1913
g182
(i__main__
DelphiIdentAccess
p1914
(dp1915
g193
S'command'
p1916
sg185
(lp1917
(idelphi
DelphiFunctionEndAccess
p1918
(dp1919
g222
(lp1920
(i__main__
DelphiIdentAccess
p1921
(dp1922
g193
S'i'
sg185
(lp1923
sbasbasbsg190
(i__main__
DelphiIdentAccess
p1924
(dp1925
g193
S'theCommand'
p1926
sg185
(lp1927
sbsba(i__main__
DelphiAssignStatement
p1928
(dp1929
g182
Nsg190
(i__main__
DelphiIdentAccess
p1930
(dp1931
g193
S'commandList'
p1932
sg185
(lp1933
(idelphi
DelphiFieldEndAccess
p1934
(dp1935
g241
S'delete'
p1936
sba(idelphi
DelphiFunctionEndAccess
p1937
(dp1938
g222
(lp1939
(i__main__
DelphiIdentAccess
p1940
(dp1941
g193
S'i'
sg185
(lp1942
sbasbasbsba(i__main__
DelphiAssignStatement
p1943
(dp1944
g182
Nsg190
(i__main__
DelphiIdentAccess
p1945
(dp1946
g193
S'theCommand'
p1947
sg185
(lp1948
(idelphi
DelphiFieldEndAccess
p1949
(dp1950
g241
S'free'
p1951
sbasbsbasbsbsbasbsg196
(lp1952
(i__main__
DelphiVarSection
p1953
(dp1954
g871
I0
sg872
(lp1955
(idelphi
DelphiVarDecl
p1956
(dp1957
g876
Nsg877
(lp1958
S'i'
asg77
(i__main__
DelphiPrimitiveType
p1959
(dp1960
g7
g640
sbsba(idelphi
DelphiVarDecl
p1961
(dp1962
g876
Nsg877
(lp1963
S'theCommand'
p1964
asg77
(i__main__
DelphiNamedType
p1965
(dp1966
g7
S'KfCommand'
p1967
sg81
g1
sg82
NsbsbasbasbsbsS'freecommandsabovelimit'
p1968
(i__main__
DelphiMethodImplementation
p1969
(dp1970
g156
g630
sg14
g632
sg40
(lp1971
(i__main__
DelphiFormalParameter
p1972
(dp1973
g74
Nsg9
(lp1974
S'theLimit'
p1975
asg77
(i__main__
DelphiPrimitiveType
p1976
(dp1977
g7
g640
sbsg83
Nsbasg158
(lp1978
sg160
(lp1979
sg162
(lp1980
g164
ag1975
asg165
(dp1981
g1975
g1976
ssg42
S'KfCommandList'
p1982
sg43
Nsg170
(lp1983
sg47
I0
sg48
g55
sg172
(i__main__
DelphiBlock
p1984
(dp1985
g175
(idelphi
DelphiCompoundStatement
p1986
(dp1987
g178
(lp1988
(idelphi
DelphiWhileStatement
p1989
(dp1990
g1908
(idelphi
DelphiCompoundStatement
p1991
(dp1992
g178
(lp1993
(i__main__
DelphiAssignStatement
p1994
(dp1995
g182
(i__main__
DelphiIdentAccess
p1996
(dp1997
g193
S'command'
p1998
sg185
(lp1999
(idelphi
DelphiFunctionEndAccess
p2000
(dp2001
g222
(lp2002
(idelphi
DelphiIntegerValue
p2003
(dp2004
g46
S'0'
sbasbasbsg190
(i__main__
DelphiIdentAccess
p2005
(dp2006
g193
S'theCommand'
p2007
sg185
(lp2008
sbsba(i__main__
DelphiAssignStatement
p2009
(dp2010
g182
Nsg190
(i__main__
DelphiIdentAccess
p2011
(dp2012
g193
S'commandList'
p2013
sg185
(lp2014
(idelphi
DelphiFieldEndAccess
p2015
(dp2016
g241
S'delete'
p2017
sba(idelphi
DelphiFunctionEndAccess
p2018
(dp2019
g222
(lp2020
(idelphi
DelphiIntegerValue
p2021
(dp2022
g46
S'0'
sbasbasbsba(i__main__
DelphiAssignStatement
p2023
(dp2024
g182
Nsg190
(i__main__
DelphiIdentAccess
p2025
(dp2026
g193
S'theCommand'
p2027
sg185
(lp2028
(idelphi
DelphiFieldEndAccess
p2029
(dp2030
g241
S'free'
p2031
sbasbsba(i__main__
DelphiIncOrDecStatement
p2032
(dp2033
g852
S'dec'
p2034
sg854
Nsg190
(i__main__
DelphiIdentAccess
p2035
(dp2036
g193
S'lastDoneCommandIndex'
p2037
sg185
(lp2038
sbsba(idelphi
DelphiIfStatement
p2039
(dp2040
g215
(idelphi
DelphiRelOp
p2041
(dp2042
g792
(i__main__
DelphiIdentAccess
p2043
(dp2044
g193
S'lastDoneCommandIndex'
p2045
sg185
(lp2046
sbsg797
(idelphi
DelphiSign
p2047
(dp2048
g1021
(idelphi
DelphiIntegerValue
p2049
(dp2050
g46
S'1'
sbsg1024
S'-'
sbsg816
S'<'
sbsg228
Nsg229
(i__main__
DelphiAssignStatement
p2051
(dp2052
g182
(idelphi
DelphiSign
p2053
(dp2054
g1021
(idelphi
DelphiIntegerValue
p2055
(dp2056
g46
S'1'
sbsg1024
S'-'
sbsg190
(i__main__
DelphiIdentAccess
p2057
(dp2058
g193
S'lastDoneCommandIndex'
p2059
sg185
(lp2060
sbsbsbasbsS'whileExpression'
p2061
(idelphi
DelphiMulOp
p2062
(dp2063
S'signedFactor2'
p2064
(idelphi
DelphiNestedExpressionListAccess
p2065
(dp2066
g185
(lp2067
sg222
(lp2068
(idelphi
DelphiRelOp
p2069
(dp2070
g792
(i__main__
DelphiIdentAccess
p2071
(dp2072
g193
S'commandList'
p2073
sg185
(lp2074
(idelphi
DelphiFieldEndAccess
p2075
(dp2076
g241
S'count'
p2077
sbasbsg797
(idelphi
DelphiIntegerValue
p2078
(dp2079
g46
S'0'
sbsg816
S'>'
sbasbsS'mulOp'
p2080
S'and'
p2081
sS'signedFactor1'
p2082
(idelphi
DelphiNestedExpressionListAccess
p2083
(dp2084
g185
(lp2085
sg222
(lp2086
(idelphi
DelphiRelOp
p2087
(dp2088
g792
(i__main__
DelphiIdentAccess
p2089
(dp2090
g193
S'commandList'
p2091
sg185
(lp2092
(idelphi
DelphiFieldEndAccess
p2093
(dp2094
g241
S'count'
p2095
sbasbsg797
(i__main__
DelphiIdentAccess
p2096
(dp2097
g193
S'theLimit'
p2098
sg185
(lp2099
sbsg816
S'>'
sbasbsbsbasbsg196
(lp2100
(i__main__
DelphiVarSection
p2101
(dp2102
g871
I0
sg872
(lp2103
(idelphi
DelphiVarDecl
p2104
(dp2105
g876
Nsg877
(lp2106
S'theCommand'
p2107
asg77
(i__main__
DelphiNamedType
p2108
(dp2109
g7
S'KfCommand'
p2110
sg81
g1
sg82
Nsbsbasbasbsg283
(lp2111
S'free any command more than the number passed in'
p2112
asbsS'command'
p2113
(i__main__
DelphiMethodImplementation
p2114
(dp2115
g156
g642
sg14
g644
sg40
(lp2116
(i__main__
DelphiFormalParameter
p2117
(dp2118
g74
Nsg9
(lp2119
g649
asg77
(i__main__
DelphiPrimitiveType
p2120
(dp2121
g7
g640
sbsg83
Nsbasg158
(lp2122
sg160
(lp2123
sg162
(lp2124
g164
ag649
asg165
(dp2125
g649
g2120
ssg42
S'KfCommandList'
p2126
sg43
(i__main__
DelphiNamedType
p2127
(dp2128
g7
S'KfCommand'
p2129
sg81
g1
sg82
Nsbsg170
(lp2130
sg47
I0
sg48
g49
sg172
(i__main__
DelphiBlock
p2131
(dp2132
g175
(idelphi
DelphiCompoundStatement
p2133
(dp2134
g178
(lp2135
(i__main__
DelphiAssignStatement
p2136
(dp2137
g182
(i__main__
DelphiIdentAccess
p2138
(dp2139
g193
S'KfCommand'
p2140
sg185
(lp2141
(idelphi
DelphiFunctionEndAccess
p2142
(dp2143
g222
(lp2144
(i__main__
DelphiIdentAccess
p2145
(dp2146
g193
S'commandList'
p2147
sg185
(lp2148
(idelphi
DelphiFieldEndAccess
p2149
(dp2150
g241
S'items'
p2151
sba(idelphi
DelphiArrayEndAccess
p2152
(dp2153
g222
(lp2154
(i__main__
DelphiIdentAccess
p2155
(dp2156
g193
g649
sg185
(lp2157
sbasbasbasbasbsg190
(i__main__
DelphiIdentAccess
p2158
(dp2159
g193
S'result'
p2160
sg185
(lp2161
sbsbasbsg196
(lp2162
sbsbsS'isredoenabled'
p2163
(i__main__
DelphiMethodImplementation
p2164
(dp2165
g156
g656
sg14
g658
sg40
(lp2166
sg158
(lp2167
sg160
(lp2168
sg162
(lp2169
g164
asg165
(dp2170
sg42
S'KfCommandList'
p2171
sg43
(i__main__
DelphiPrimitiveType
p2172
(dp2173
g7
g101
sbsg170
(lp2174
sg47
I0
sg48
g49
sg172
(i__main__
DelphiBlock
p2175
(dp2176
g175
(idelphi
DelphiCompoundStatement
p2177
(dp2178
g178
(lp2179
(i__main__
DelphiAssignStatement
p2180
(dp2181
g182
(idelphi
DelphiRelOp
p2182
(dp2183
g792
(i__main__
DelphiIdentAccess
p2184
(dp2185
g193
S'lastDoneCommandIndex'
p2186
sg185
(lp2187
sbsg797
(idelphi
DelphiNestedExpressionListAccess
p2188
(dp2189
g185
(lp2190
sg222
(lp2191
(idelphi
DelphiAddOp
p2192
(dp2193
g804
S'-'
sg805
(idelphi
DelphiIntegerValue
p2194
(dp2195
g46
S'1'
sbsg808
(i__main__
DelphiIdentAccess
p2196
(dp2197
g193
S'commandList'
p2198
sg185
(lp2199
(idelphi
DelphiFieldEndAccess
p2200
(dp2201
g241
S'count'
p2202
sbasbsbasbsg816
S'<'
sbsg190
(i__main__
DelphiIdentAccess
p2203
(dp2204
g193
S'result'
p2205
sg185
(lp2206
sbsbasbsg196
(lp2207
sbsbsS'redodescription'
p2208
(i__main__
DelphiMethodImplementation
p2209
(dp2210
g156
g663
sg14
g665
sg40
(lp2211
sg158
(lp2212
sg160
(lp2213
sg162
(lp2214
g164
asg165
(dp2215
sg42
S'KfCommandList'
p2216
sg43
(i__main__
DelphiPrimitiveType
p2217
(dp2218
g7
g46
sbsg170
(lp2219
sg47
I0
sg48
g49
sg172
(i__main__
DelphiBlock
p2220
(dp2221
g175
(idelphi
DelphiCompoundStatement
p2222
(dp2223
g178
(lp2224
(idelphi
DelphiIfStatement
p2225
(dp2226
g215
(idelphi
DelphiRelOp
p2227
(dp2228
g792
(i__main__
DelphiIdentAccess
p2229
(dp2230
g193
S'lastDoneCommandIndex'
p2231
sg185
(lp2232
sbsg797
(idelphi
DelphiNestedExpressionListAccess
p2233
(dp2234
g185
(lp2235
sg222
(lp2236
(idelphi
DelphiAddOp
p2237
(dp2238
g804
S'-'
sg805
(idelphi
DelphiIntegerValue
p2239
(dp2240
g46
S'1'
sbsg808
(i__main__
DelphiIdentAccess
p2241
(dp2242
g193
S'commandList'
p2243
sg185
(lp2244
(idelphi
DelphiFieldEndAccess
p2245
(dp2246
g241
S'count'
p2247
sbasbsbasbsg816
S'<'
sbsg228
(i__main__
DelphiAssignStatement
p2248
(dp2249
g182
(idelphi
DelphiStringAccess
p2250
(dp2251
g185
(lp2252
sg46
(idelphi
DelphiStringValue
p2253
(dp2254
g46
S''
sbsbsg190
(i__main__
DelphiIdentAccess
p2255
(dp2256
g193
S'result'
p2257
sg185
(lp2258
sbsbsg229
(i__main__
DelphiAssignStatement
p2259
(dp2260
g182
(i__main__
DelphiIdentAccess
p2261
(dp2262
g193
S'command'
p2263
sg185
(lp2264
(idelphi
DelphiFunctionEndAccess
p2265
(dp2266
g222
(lp2267
(idelphi
DelphiAddOp
p2268
(dp2269
g804
S'+'
sg805
(idelphi
DelphiIntegerValue
p2270
(dp2271
g46
S'1'
sbsg808
(i__main__
DelphiIdentAccess
p2272
(dp2273
g193
S'lastDoneCommandIndex'
p2274
sg185
(lp2275
sbsbasba(idelphi
DelphiFieldEndAccess
p2276
(dp2277
g241
S'description'
p2278
sbasbsg190
(i__main__
DelphiIdentAccess
p2279
(dp2280
g193
S'result'
p2281
sg185
(lp2282
sbsbsbasbsg196
(lp2283
sbsbsS'lastcommand'
p2284
(i__main__
DelphiMethodImplementation
p2285
(dp2286
g156
g670
sg14
g672
sg40
(lp2287
sg158
(lp2288
sg160
(lp2289
sg162
(lp2290
g164
asg165
(dp2291
sg42
S'KfCommandList'
p2292
sg43
(i__main__
DelphiNamedType
p2293
(dp2294
g7
S'KfCommand'
p2295
sg81
g1
sg82
Nsbsg170
(lp2296
sg47
I0
sg48
g49
sg172
(i__main__
DelphiBlock
p2297
(dp2298
g175
(idelphi
DelphiCompoundStatement
p2299
(dp2300
g178
(lp2301
(i__main__
DelphiAssignStatement
p2302
(dp2303
g182
(idelphi
DelphiNilValue
p2304
(dp2305
bsg190
(i__main__
DelphiIdentAccess
p2306
(dp2307
g193
S'result'
p2308
sg185
(lp2309
sbsba(idelphi
DelphiIfStatement
p2310
(dp2311
g215
(idelphi
DelphiRelOp
p2312
(dp2313
g792
(i__main__
DelphiIdentAccess
p2314
(dp2315
g193
S'lastDoneCommandIndex'
p2316
sg185
(lp2317
sbsg797
(idelphi
DelphiIntegerValue
p2318
(dp2319
g46
S'0'
sbsg816
g978
sbsg228
Nsg229
(idelphi
DelphiCompoundStatement
p2320
(dp2321
g178
(lp2322
(i__main__
DelphiAssignStatement
p2323
(dp2324
g182
(i__main__
DelphiIdentAccess
p2325
(dp2326
g193
S'command'
p2327
sg185
(lp2328
(idelphi
DelphiFunctionEndAccess
p2329
(dp2330
g222
(lp2331
(i__main__
DelphiIdentAccess
p2332
(dp2333
g193
S'lastDoneCommandIndex'
p2334
sg185
(lp2335
sbasbasbsg190
(i__main__
DelphiIdentAccess
p2336
(dp2337
g193
S'result'
p2338
sg185
(lp2339
sbsbasbsbasbsg196
(lp2340
sbsbsS'destroy'
p2341
(i__main__
DelphiMethodImplementation
p2342
(dp2343
g156
g678
sg14
g680
sg40
(lp2344
sg158
(lp2345
sg160
(lp2346
sg162
(lp2347
g164
asg165
(dp2348
sg42
S'KfCommandList'
p2349
sg43
Nsg170
(lp2350
sg47
I0
sg48
g115
sg172
(i__main__
DelphiBlock
p2351
(dp2352
g175
(idelphi
DelphiCompoundStatement
p2353
(dp2354
g178
(lp2355
(i__main__
DelphiAssignStatement
p2356
(dp2357
g182
Nsg190
(i__main__
DelphiIdentAccess
p2358
(dp2359
g193
S'self'
p2360
sg185
(lp2361
(idelphi
DelphiFieldEndAccess
p2362
(dp2363
g241
S'clear'
p2364
sbasbsba(i__main__
DelphiAssignStatement
p2365
(dp2366
g182
Nsg190
(i__main__
DelphiIdentAccess
p2367
(dp2368
g193
S'commandList'
p2369
sg185
(lp2370
(idelphi
DelphiFieldEndAccess
p2371
(dp2372
g241
S'free'
p2373
sbasbsba(i__main__
DelphiAssignStatement
p2374
(dp2375
g182
Nsg190
(idelphi
DelphiInheritedCall
p2376
(dp2377
g193
S'destroy'
p2378
sg222
Nsbsg283
(lp2379
S'if mouseCommand <> nil then error condition - ignoring for now - not released'
p2380
aS'could only happend if quitting somehow in middle of action'
p2381
asbasbsg196
(lp2382
sbsbsS'setnewundolimit'
p2383
(i__main__
DelphiMethodImplementation
p2384
(dp2385
g156
g683
sg14
g685
sg40
(lp2386
(i__main__
DelphiFormalParameter
p2387
(dp2388
g74
Nsg9
(lp2389
S'newLimit'
p2390
asg77
(i__main__
DelphiPrimitiveType
p2391
(dp2392
g7
g640
sbsg83
Nsbasg158
(lp2393
sg160
(lp2394
sg162
(lp2395
g164
ag2390
asg165
(dp2396
g2390
g2391
ssg42
S'KfCommandList'
p2397
sg43
Nsg170
(lp2398
sg47
I0
sg48
g55
sg172
(i__main__
DelphiBlock
p2399
(dp2400
g175
(idelphi
DelphiCompoundStatement
p2401
(dp2402
g178
(lp2403
(i__main__
DelphiAssignStatement
p2404
(dp2405
g182
(i__main__
DelphiIdentAccess
p2406
(dp2407
g193
S'newLimit'
p2408
sg185
(lp2409
sbsg190
(i__main__
DelphiIdentAccess
p2410
(dp2411
g193
S'undoLimit'
p2412
sg185
(lp2413
sbsba(i__main__
DelphiAssignStatement
p2414
(dp2415
g182
Nsg190
(i__main__
DelphiIdentAccess
p2416
(dp2417
g193
S'self'
p2418
sg185
(lp2419
(idelphi
DelphiFieldEndAccess
p2420
(dp2421
g241
S'freeCommandsAboveLimit'
p2422
sba(idelphi
DelphiFunctionEndAccess
p2423
(dp2424
g222
(lp2425
(i__main__
DelphiIdentAccess
p2426
(dp2427
g193
S'undoLimit'
p2428
sg185
(lp2429
sbasbasbsbasbsg196
(lp2430
sbsbsS'undodescription'
p2431
(i__main__
DelphiMethodImplementation
p2432
(dp2433
g156
g694
sg14
g696
sg40
(lp2434
sg158
(lp2435
sg160
(lp2436
sg162
(lp2437
g164
asg165
(dp2438
sg42
S'KfCommandList'
p2439
sg43
(i__main__
DelphiPrimitiveType
p2440
(dp2441
g7
g46
sbsg170
(lp2442
sg47
I0
sg48
g49
sg172
(i__main__
DelphiBlock
p2443
(dp2444
g175
(idelphi
DelphiCompoundStatement
p2445
(dp2446
g178
(lp2447
(idelphi
DelphiIfStatement
p2448
(dp2449
g215
(idelphi
DelphiRelOp
p2450
(dp2451
g792
(i__main__
DelphiIdentAccess
p2452
(dp2453
g193
S'lastDoneCommandIndex'
p2454
sg185
(lp2455
sbsg797
(idelphi
DelphiIntegerValue
p2456
(dp2457
g46
S'0'
sbsg816
g978
sbsg228
(i__main__
DelphiAssignStatement
p2458
(dp2459
g182
(idelphi
DelphiStringAccess
p2460
(dp2461
g185
(lp2462
sg46
(idelphi
DelphiStringValue
p2463
(dp2464
g46
S''
sbsbsg190
(i__main__
DelphiIdentAccess
p2465
(dp2466
g193
S'result'
p2467
sg185
(lp2468
sbsbsg229
(i__main__
DelphiAssignStatement
p2469
(dp2470
g182
(i__main__
DelphiIdentAccess
p2471
(dp2472
g193
S'command'
p2473
sg185
(lp2474
(idelphi
DelphiFunctionEndAccess
p2475
(dp2476
g222
(lp2477
(i__main__
DelphiIdentAccess
p2478
(dp2479
g193
S'lastDoneCommandIndex'
p2480
sg185
(lp2481
sbasba(idelphi
DelphiFieldEndAccess
p2482
(dp2483
g241
S'description'
p2484
sbasbsg190
(i__main__
DelphiIdentAccess
p2485
(dp2486
g193
S'result'
p2487
sg185
(lp2488
sbsbsbasbsg196
(lp2489
sbsbsS'clear'
p2490
(i__main__
DelphiMethodImplementation
p2491
(dp2492
g156
g701
sg14
g703
sg40
(lp2493
sg158
(lp2494
sg160
(lp2495
sg162
(lp2496
g164
asg165
(dp2497
sg42
S'KfCommandList'
p2498
sg43
Nsg170
(lp2499
sg47
I0
sg48
g55
sg172
(i__main__
DelphiBlock
p2500
(dp2501
g175
(idelphi
DelphiCompoundStatement
p2502
(dp2503
g178
(lp2504
(idelphi
DelphiIfStatement
p2505
(dp2506
g215
(idelphi
DelphiRelOp
p2507
(dp2508
g792
(i__main__
DelphiIdentAccess
p2509
(dp2510
g193
S'commandList'
p2511
sg185
(lp2512
(idelphi
DelphiFieldEndAccess
p2513
(dp2514
g241
S'count'
p2515
sbasbsg797
(idelphi
DelphiIntegerValue
p2516
(dp2517
g46
S'0'
sbsg816
S'>'
sbsg228
Nsg229
(idelphi
DelphiForStatement
p2518
(dp2519
g1885
S'i'
sg1886
(idelphi
DelphiAddOp
p2520
(dp2521
g804
S'-'
sg805
(idelphi
DelphiIntegerValue
p2522
(dp2523
g46
S'1'
sbsg808
(i__main__
DelphiIdentAccess
p2524
(dp2525
g193
S'commandList'
p2526
sg185
(lp2527
(idelphi
DelphiFieldEndAccess
p2528
(dp2529
g241
S'count'
p2530
sbasbsbsg1895
S'to'
p2531
sg74
(idelphi
DelphiIntegerValue
p2532
(dp2533
g46
S'0'
sbsg1908
(i__main__
DelphiAssignStatement
p2534
(dp2535
g182
Nsg190
(i__main__
DelphiIdentAccess
p2536
(dp2537
g193
S'TObject'
p2538
sg185
(lp2539
(idelphi
DelphiFunctionEndAccess
p2540
(dp2541
g222
(lp2542
(i__main__
DelphiIdentAccess
p2543
(dp2544
g193
S'commandList'
p2545
sg185
(lp2546
(idelphi
DelphiArrayEndAccess
p2547
(dp2548
g222
(lp2549
(i__main__
DelphiIdentAccess
p2550
(dp2551
g193
S'i'
sg185
(lp2552
sbasbasbasba(idelphi
DelphiFieldEndAccess
p2553
(dp2554
g241
S'free'
p2555
sbasbsbsbsba(i__main__
DelphiAssignStatement
p2556
(dp2557
g182
Nsg190
(i__main__
DelphiIdentAccess
p2558
(dp2559
g193
S'commandList'
p2560
sg185
(lp2561
(idelphi
DelphiFieldEndAccess
p2562
(dp2563
g241
S'clear'
p2564
sbasbsba(i__main__
DelphiAssignStatement
p2565
(dp2566
g182
(idelphi
DelphiSign
p2567
(dp2568
g1021
(idelphi
DelphiIntegerValue
p2569
(dp2570
g46
S'1'
sbsg1024
S'-'
sbsg190
(i__main__
DelphiIdentAccess
p2571
(dp2572
g193
S'lastDoneCommandIndex'
p2573
sg185
(lp2574
sbsbasbsg196
(lp2575
(i__main__
DelphiVarSection
p2576
(dp2577
g871
I0
sg872
(lp2578
(idelphi
DelphiVarDecl
p2579
(dp2580
g876
Nsg877
(lp2581
S'i'
asg77
(i__main__
DelphiPrimitiveType
p2582
(dp2583
g7
S'integer'
p2584
sbsbasbasbsbsS'undolast'
p2585
(i__main__
DelphiMethodImplementation
p2586
(dp2587
g156
g706
sg14
g708
sg40
(lp2588
sg158
(lp2589
sg160
(lp2590
sg162
(lp2591
g164
asg165
(dp2592
sg42
S'KfCommandList'
p2593
sg43
Nsg170
(lp2594
sg47
I0
sg48
g55
sg172
(i__main__
DelphiBlock
p2595
(dp2596
g175
(idelphi
DelphiCompoundStatement
p2597
(dp2598
g178
(lp2599
(idelphi
DelphiIfStatement
p2600
(dp2601
g215
(idelphi
DelphiRelOp
p2602
(dp2603
g792
(i__main__
DelphiIdentAccess
p2604
(dp2605
g193
S'lastDoneCommandIndex'
p2606
sg185
(lp2607
sbsg797
(idelphi
DelphiIntegerValue
p2608
(dp2609
g46
S'0'
sbsg816
g978
sbsg228
Nsg229
(idelphi
DelphiCompoundStatement
p2610
(dp2611
g178
(lp2612
(i__main__
DelphiAssignStatement
p2613
(dp2614
g182
(i__main__
DelphiIdentAccess
p2615
(dp2616
g193
S'command'
p2617
sg185
(lp2618
(idelphi
DelphiFunctionEndAccess
p2619
(dp2620
g222
(lp2621
(i__main__
DelphiIdentAccess
p2622
(dp2623
g193
S'lastDoneCommandIndex'
p2624
sg185
(lp2625
sbasbasbsg190
(i__main__
DelphiIdentAccess
p2626
(dp2627
g193
S'aCommand'
p2628
sg185
(lp2629
sbsba(i__main__
DelphiAssignStatement
p2630
(dp2631
g182
Nsg190
(i__main__
DelphiIdentAccess
p2632
(dp2633
g193
S'aCommand'
p2634
sg185
(lp2635
(idelphi
DelphiFieldEndAccess
p2636
(dp2637
g241
S'undoCommand'
p2638
sbasbsba(i__main__
DelphiIncOrDecStatement
p2639
(dp2640
g852
g2034
sg854
Nsg190
(i__main__
DelphiIdentAccess
p2641
(dp2642
g193
S'lastDoneCommandIndex'
p2643
sg185
(lp2644
sbsba(i__main__
DelphiAssignStatement
p2645
(dp2646
g182
Nsg190
(i__main__
DelphiIdentAccess
p2647
(dp2648
g193
S'aCommand'
p2649
sg185
(lp2650
(idelphi
DelphiFieldEndAccess
p2651
(dp2652
g241
S'doNotify'
p2653
sbasbsbasbsbasbsg196
(lp2654
(i__main__
DelphiVarSection
p2655
(dp2656
g871
I0
sg872
(lp2657
(idelphi
DelphiVarDecl
p2658
(dp2659
g876
Nsg877
(lp2660
S'aCommand'
p2661
asg77
(i__main__
DelphiNamedType
p2662
(dp2663
g7
S'KfCommand'
p2664
sg81
g1
sg82
NsbsbasbasbsbsS'lastcommandchanged'
p2665
(i__main__
DelphiMethodImplementation
p2666
(dp2667
g156
g711
sg14
g713
sg40
(lp2668
sg158
(lp2669
sg160
(lp2670
sg162
(lp2671
g164
asg165
(dp2672
sg42
S'KfCommandList'
p2673
sg43
Nsg170
(lp2674
sg47
I0
sg48
g55
sg172
(i__main__
DelphiBlock
p2675
(dp2676
g175
(idelphi
DelphiCompoundStatement
p2677
(dp2678
g178
(lp2679
(i__main__
DelphiAssignStatement
p2680
(dp2681
g182
Nsg190
(i__main__
DelphiIdentAccess
p2682
(dp2683
g193
S'self'
p2684
sg185
(lp2685
(idelphi
DelphiFieldEndAccess
p2686
(dp2687
g241
S'clearRedoableCommands'
p2688
sbasbsbasbsg196
(lp2689
sbsg283
g715
sbssg513
(dp2690
sg515
(lp2691
g527
ag529
ag521
ag533
ag531
ag523
ag525
ag535
asba(i__main__
DelphiConstSection
p2692
(dp2693
S'constDeclList'
p2694
(lp2695
(idelphi
DelphiConstDeclaration
p2696
(dp2697
g876
(idelphi
DelphiIntegerValue
p2698
(dp2699
g46
S'2'
sbsg193
S'kMinMouseMoveDistance'
p2700
sg77
(idelphi
DelphiPrimitiveType
p2701
(dp2702
g7
S'UNDEFINED_NEEDS_CALCULATION'
p2703
sbsbasg871
I1
sbasS'includedUnits'
p2704
NsS'implementationUses'
p2705
(lp2706
S'SysUtils'
p2707
asg14
S'Ucommand'
p2708
sS'constSections'
p2709
(lp2710
g2692
asS'globalsInProperCase'
p2711
NsS'interfaceUses'
p2712
(lp2713
S'delphi_compatability'
p2714
aS'Classes'
p2715
aS'WinTypes'
p2716
asS'finalCommentToken'
p2717
(i__main__
PassStatement
p2718
(dp2719
g196
(lp2720
sbsS'varSections'
p2721
(lp2722
sS'globals'
p2723
NsS'originalFileName'
p2724
S'../../storyharp-js/converted_source/ucommand.pas'
p2725
sS'proceduralImplementations'
p2726
(dp2727
sS'fileName'
p2728
S'/home/pdfernhout/workspace/storyharp-js/converted_source/ucommand.pas'
p2729
sS'proceduralDeclarations'
p2730
(dp2731
sS'types'
p2732
(dp2733
S'tcommandevent'
p2734
(i__main__
DelphiProceduralType
p2735
(dp2736
g40
(lp2737
(i__main__
DelphiFormalParameter
p2738
(dp2739
g74
Nsg9
(lp2740
S'command'
p2741
asg77
(i__main__
DelphiNamedType
p2742
(dp2743
g7
S'KfCommand'
p2744
sg81
g1
sg82
Nsbsg83
Nsba(i__main__
DelphiFormalParameter
p2745
(dp2746
g74
Nsg9
(lp2747
S'state'
p2748
asg77
(i__main__
DelphiNamedType
p2749
(dp2750
g7
S'KfCommandChangeType'
p2751
sg81
g1
sg82
Nsbsg83
Nsbasg14
S'TCommandEvent'
p2752
sg43
NsbsS'kfcommandchangetype'
p2753
g15
sS'kfcommandlist'
p2754
g517
sS'trackphase'
p2755
g5
sS'kfcommand'
p2756
g21
ssb.