(i__main__
DelphiUnit
p1
(dp2
S'sectionsInOrderDefined'
p3
(lp4
(i__main__
DelphiClass
p5
(dp6
S'variableNamesInProperCase'
p7
(dp8
S'contextstartpageimage'
p9
S'contextStartPageImage'
p10
sS'label18'
p11
S'Label18'
p12
sS'label19'
p13
S'Label19'
p14
sS'gonext'
p15
S'goNext'
p16
sS'cancel'
p17
S'cancel'
p18
sS'label13'
p19
S'Label13'
p20
sS'label10'
p21
S'Label10'
p22
sS'label11'
p23
S'Label11'
p24
sS'label16'
p25
S'Label16'
p26
sS'describelabelextra'
p27
S'DescribeLabelExtra'
p28
sS'label14'
p29
S'Label14'
p30
sS'label15'
p31
S'Label15'
p32
sS'helpbutton'
p33
S'helpButton'
p34
sS'label1'
p35
S'Label1'
p36
sS'replystartpageimage'
p37
S'replyStartPageImage'
p38
sS'label12'
p39
S'Label12'
p40
sS'label8'
p41
S'Label8'
p42
sS'label9'
p43
S'Label9'
p44
sS'commandimage'
p45
S'commandImage'
p46
sS'goback'
p47
S'goBack'
p48
sS'label2'
p49
S'Label2'
p50
sS'label3'
p51
S'Label3'
p52
sS'label4'
p53
S'Label4'
p54
sS'label5'
p55
S'Label5'
p56
sS'label6'
p57
S'Label6'
p58
sS'label7'
p59
S'Label7'
p60
sS'label22'
p61
S'Label22'
p62
sS'label21'
p63
S'Label21'
p64
sS'notebook'
p65
S'notebook'
p66
sS'label26'
p67
S'Label26'
p68
sS'describelabel'
p69
S'DescribeLabel'
p70
sS'image3'
p71
S'Image3'
p72
sS'image2'
p73
S'Image2'
p74
sS'image1'
p75
S'Image1'
p76
sS'describeedit'
p77
S'DescribeEdit'
p78
sS'newcontextsmemo'
p79
S'NewContextsMemo'
p80
sS'generated'
p81
S'generated'
p82
sS'describeimage'
p83
S'DescribeImage'
p84
sS'commandstartpageimage'
p85
S'commandStartPageImage'
p86
ssS'name'
p87
S'TContextWizardForm'
p88
sS'methodDeclarations'
p89
(dp90
S'helpbuttonclick'
p91
(i__main__
DelphiMethodDeclaration
p92
(dp93
g87
S'helpButtonClick'
p94
sS'formalParameters'
p95
(lp96
(i__main__
DelphiFormalParameter
p97
(dp98
S'initialValue'
p99
NsS'names'
p100
(lp101
S'Sender'
p102
asS'theType'
p103
(i__main__
DelphiNamedType
p104
(dp105
S'typeName'
p106
S'TObject'
p107
sS'unitDefinedIn'
p108
g1
sS'unitName'
p109
NsbsS'parameterVariety'
p110
NsbasS'className'
p111
g88
sS'resultType'
p112
NsS'isClassMethod'
p113
I0
sS'methodType'
p114
S'procedure'
p115
sbsS'notebookpagechanged'
p116
(i__main__
DelphiMethodDeclaration
p117
(dp118
g87
S'notebookPageChanged'
p119
sg95
(lp120
(i__main__
DelphiFormalParameter
p121
(dp122
g99
Nsg100
(lp123
S'Sender'
p124
asg103
(i__main__
DelphiNamedType
p125
(dp126
g106
S'TObject'
p127
sg108
g1
sg109
Nsbsg110
Nsbasg111
g88
sg112
Nsg113
I0
sg114
g115
sbsS'cancelclick'
p128
(i__main__
DelphiMethodDeclaration
p129
(dp130
g87
S'cancelClick'
p131
sg95
(lp132
(i__main__
DelphiFormalParameter
p133
(dp134
g99
Nsg100
(lp135
S'Sender'
p136
asg103
(i__main__
DelphiNamedType
p137
(dp138
g106
S'TObject'
p139
sg108
g1
sg109
Nsbsg110
Nsbasg111
g88
sg112
Nsg113
I0
sg114
g115
sbsS'formactivate'
p140
(i__main__
DelphiMethodDeclaration
p141
(dp142
g87
S'FormActivate'
p143
sg95
(lp144
(i__main__
DelphiFormalParameter
p145
(dp146
g99
Nsg100
(lp147
S'Sender'
p148
asg103
(i__main__
DelphiNamedType
p149
(dp150
g106
S'TObject'
p151
sg108
g1
sg109
Nsbsg110
Nsbasg111
g88
sg112
Nsg113
I0
sg114
g115
sbsS'formclosequery'
p152
(i__main__
DelphiMethodDeclaration
p153
(dp154
g87
S'FormCloseQuery'
p155
sg95
(lp156
(i__main__
DelphiFormalParameter
p157
(dp158
g99
Nsg100
(lp159
S'Sender'
p160
asg103
(i__main__
DelphiNamedType
p161
(dp162
g106
S'TObject'
p163
sg108
g1
sg109
Nsbsg110
Nsba(i__main__
DelphiFormalParameter
p164
(dp165
g99
Nsg100
(lp166
S'CanClose'
p167
asg103
(i__main__
DelphiPrimitiveType
p168
(dp169
g106
S'boolean'
p170
sbsg110
S'var'
p171
sbasg111
g88
sg112
Nsg113
I0
sg114
g115
sbsS'gobackclick'
p172
(i__main__
DelphiMethodDeclaration
p173
(dp174
g87
S'goBackClick'
p175
sg95
(lp176
(i__main__
DelphiFormalParameter
p177
(dp178
g99
Nsg100
(lp179
S'Sender'
p180
asg103
(i__main__
DelphiNamedType
p181
(dp182
g106
S'TObject'
p183
sg108
g1
sg109
Nsbsg110
Nsbasg111
g88
sg112
Nsg113
I0
sg114
g115
sbsS'initialize'
p184
(i__main__
DelphiMethodDeclaration
p185
(dp186
g87
S'initialize'
p187
sg95
(lp188
sg111
g88
sg112
(i__main__
DelphiPrimitiveType
p189
(dp190
g106
g170
sbsg113
I0
sg114
S'function'
p191
sS'commentLinesBefore'
p192
(lp193
S' Private declarations '
p194
aS' Public declarations '
p195
asbsS'gonextclick'
p196
(i__main__
DelphiMethodDeclaration
p197
(dp198
g87
S'goNextClick'
p199
sg95
(lp200
(i__main__
DelphiFormalParameter
p201
(dp202
g99
Nsg100
(lp203
S'Sender'
p204
asg103
(i__main__
DelphiNamedType
p205
(dp206
g106
S'TObject'
p207
sg108
g1
sg109
Nsbsg110
Nsbasg111
g88
sg112
Nsg113
I0
sg114
g115
sbsS'generaterules'
p208
(i__main__
DelphiMethodDeclaration
p209
(dp210
g87
S'generateRules'
p211
sg95
(lp212
sg111
g88
sg112
Nsg113
I0
sg114
g115
sbssS'superclassNamedTypes'
p213
(lp214
(i__main__
DelphiNamedType
p215
(dp216
g106
S'TForm'
p217
sg108
g1
sg109
NsbasS'variableNames'
p218
(dp219
S'contextstartpageimage'
p220
(i__main__
DelphiNamedType
p221
(dp222
g106
S'TImage'
p223
sg108
g1
sg109
NsbsS'label18'
p224
(i__main__
DelphiNamedType
p225
(dp226
g106
S'TLabel'
p227
sg108
g1
sg109
NsbsS'label19'
p228
(i__main__
DelphiNamedType
p229
(dp230
g106
S'TLabel'
p231
sg108
g1
sg109
NsbsS'gonext'
p232
(i__main__
DelphiNamedType
p233
(dp234
g106
S'TButton'
p235
sg108
g1
sg109
NsbsS'cancel'
p236
(i__main__
DelphiNamedType
p237
(dp238
g106
S'TButton'
p239
sg108
g1
sg109
NsbsS'label13'
p240
(i__main__
DelphiNamedType
p241
(dp242
g106
S'TLabel'
p243
sg108
g1
sg109
NsbsS'label10'
p244
(i__main__
DelphiNamedType
p245
(dp246
g106
S'TLabel'
p247
sg108
g1
sg109
NsbsS'label11'
p248
(i__main__
DelphiNamedType
p249
(dp250
g106
S'TLabel'
p251
sg108
g1
sg109
NsbsS'label16'
p252
(i__main__
DelphiNamedType
p253
(dp254
g106
S'TLabel'
p255
sg108
g1
sg109
NsbsS'describelabelextra'
p256
(i__main__
DelphiNamedType
p257
(dp258
g106
S'TLabel'
p259
sg108
g1
sg109
NsbsS'label14'
p260
(i__main__
DelphiNamedType
p261
(dp262
g106
S'TLabel'
p263
sg108
g1
sg109
NsbsS'label15'
p264
(i__main__
DelphiNamedType
p265
(dp266
g106
S'TLabel'
p267
sg108
g1
sg109
NsbsS'helpbutton'
p268
(i__main__
DelphiNamedType
p269
(dp270
g106
S'TButton'
p271
sg108
g1
sg109
NsbsS'label1'
p272
(i__main__
DelphiNamedType
p273
(dp274
g106
S'TLabel'
p275
sg108
g1
sg109
NsbsS'replystartpageimage'
p276
(i__main__
DelphiNamedType
p277
(dp278
g106
S'TImage'
p279
sg108
g1
sg109
NsbsS'label12'
p280
(i__main__
DelphiNamedType
p281
(dp282
g106
S'TLabel'
p283
sg108
g1
sg109
NsbsS'label8'
p284
(i__main__
DelphiNamedType
p285
(dp286
g106
S'TLabel'
p287
sg108
g1
sg109
NsbsS'label9'
p288
(i__main__
DelphiNamedType
p289
(dp290
g106
S'TLabel'
p291
sg108
g1
sg109
NsbsS'commandimage'
p292
(i__main__
DelphiNamedType
p293
(dp294
g106
S'TImage'
p295
sg108
g1
sg109
NsbsS'goback'
p296
(i__main__
DelphiNamedType
p297
(dp298
g106
S'TButton'
p299
sg108
g1
sg109
NsbsS'label2'
p300
(i__main__
DelphiNamedType
p301
(dp302
g106
S'TLabel'
p303
sg108
g1
sg109
NsbsS'label3'
p304
(i__main__
DelphiNamedType
p305
(dp306
g106
S'TLabel'
p307
sg108
g1
sg109
NsbsS'label4'
p308
(i__main__
DelphiNamedType
p309
(dp310
g106
S'TLabel'
p311
sg108
g1
sg109
NsbsS'label5'
p312
(i__main__
DelphiNamedType
p313
(dp314
g106
S'TLabel'
p315
sg108
g1
sg109
NsbsS'label6'
p316
(i__main__
DelphiNamedType
p317
(dp318
g106
S'TLabel'
p319
sg108
g1
sg109
NsbsS'label7'
p320
(i__main__
DelphiNamedType
p321
(dp322
g106
S'TLabel'
p323
sg108
g1
sg109
NsbsS'label22'
p324
(i__main__
DelphiNamedType
p325
(dp326
g106
S'TLabel'
p327
sg108
g1
sg109
NsbsS'label21'
p328
(i__main__
DelphiNamedType
p329
(dp330
g106
S'TLabel'
p331
sg108
g1
sg109
NsbsS'notebook'
p332
(i__main__
DelphiNamedType
p333
(dp334
g106
S'TNotebook'
p335
sg108
g1
sg109
NsbsS'label26'
p336
(i__main__
DelphiNamedType
p337
(dp338
g106
S'TLabel'
p339
sg108
g1
sg109
NsbsS'describelabel'
p340
(i__main__
DelphiNamedType
p341
(dp342
g106
S'TLabel'
p343
sg108
g1
sg109
NsbsS'image3'
p344
(i__main__
DelphiNamedType
p345
(dp346
g106
S'TImage'
p347
sg108
g1
sg109
NsbsS'image2'
p348
(i__main__
DelphiNamedType
p349
(dp350
g106
S'TImage'
p351
sg108
g1
sg109
NsbsS'image1'
p352
(i__main__
DelphiNamedType
p353
(dp354
g106
S'TImage'
p355
sg108
g1
sg109
NsbsS'describeedit'
p356
(i__main__
DelphiNamedType
p357
(dp358
g106
S'TEdit'
p359
sg108
g1
sg109
NsbsS'newcontextsmemo'
p360
(i__main__
DelphiNamedType
p361
(dp362
g106
S'TMemo'
p363
sg108
g1
sg109
NsbsS'generated'
p364
(i__main__
DelphiPrimitiveType
p365
(dp366
g106
g170
sbsS'describeimage'
p367
(i__main__
DelphiNamedType
p368
(dp369
g106
S'TImage'
p370
sg108
g1
sg109
NsbsS'commandstartpageimage'
p371
(i__main__
DelphiNamedType
p372
(dp373
g106
S'TImage'
p374
sg108
g1
sg109
NsbssS'methodNamesInDefinedOrder'
p375
(lp376
S'formactivate'
p377
aS'initialize'
p378
aS'gobackclick'
p379
aS'gonextclick'
p380
aS'notebookpagechanged'
p381
aS'cancelclick'
p382
aS'generaterules'
p383
aS'formclosequery'
p384
aS'helpbuttonclick'
p385
asS'methodImplementations'
p386
(dp387
S'helpbuttonclick'
p388
(i__main__
DelphiMethodImplementation
p389
(dp390
S'originalDeclaration'
p391
g92
sg87
g94
sg95
(lp392
(i__main__
DelphiFormalParameter
p393
(dp394
g99
Nsg100
(lp395
S'Sender'
p396
asg103
(i__main__
DelphiNamedType
p397
(dp398
g106
S'TObject'
p399
sg108
g1
sg109
Nsbsg110
NsbasS'varParamIndexes'
p400
(lp401
sS'varParamsSkipped'
p402
(lp403
sS'argNames'
p404
(lp405
S'self'
p406
ag396
asS'argTypes'
p407
(dp408
g396
g397
ssg111
S'TContextWizardForm'
p409
sg112
NsS'varParamNames'
p410
(lp411
sg113
I0
sg114
g115
sS'block'
p412
(i__main__
DelphiBlock
p413
(dp414
S'compoundStatement'
p415
(idelphi
DelphiCompoundStatement
p416
(dp417
S'statements'
p418
(lp419
(i__main__
DelphiAssignStatement
p420
(dp421
S'newValueExpression'
p422
NsS'destinationExpression'
p423
(i__main__
DelphiIdentAccess
p424
(dp425
S'ident'
p426
S'Application'
p427
sS'endAccessList'
p428
(lp429
(idelphi
DelphiFieldEndAccess
p430
(dp431
S'field'
p432
S'helpJump'
p433
sba(idelphi
DelphiFunctionEndAccess
p434
(dp435
S'expressionList'
p436
(lp437
(idelphi
DelphiStringAccess
p438
(dp439
g428
(lp440
sS'string'
p441
(idelphi
DelphiStringValue
p442
(dp443
g441
S'Making_new_rules_using_the_new_contexts_wizard'
p444
sbsbasbasbsbasbsS'limitedDeclSectionList'
p445
(lp446
sbsbsS'formactivate'
p447
(i__main__
DelphiMethodImplementation
p448
(dp449
g391
g141
sg87
g143
sg95
(lp450
(i__main__
DelphiFormalParameter
p451
(dp452
g99
Nsg100
(lp453
S'Sender'
p454
asg103
(i__main__
DelphiNamedType
p455
(dp456
g106
S'TObject'
p457
sg108
g1
sg109
Nsbsg110
Nsbasg400
(lp458
sg402
(lp459
sg404
(lp460
g406
ag454
asg407
(dp461
g454
g455
ssg111
S'TContextWizardForm'
p462
sg112
Nsg410
(lp463
sg113
I0
sg114
g115
sg412
(i__main__
DelphiBlock
p464
(dp465
g415
(idelphi
DelphiCompoundStatement
p466
(dp467
g418
(lp468
(i__main__
DelphiAssignStatement
p469
(dp470
g422
(i__main__
DelphiIdentAccess
p471
(dp472
g426
S'ConsoleForm'
p473
sg428
(lp474
(idelphi
DelphiFieldEndAccess
p475
(dp476
g432
S'ContextButton'
p477
sba(idelphi
DelphiFieldEndAccess
p478
(dp479
g432
S'glyph'
p480
sbasbsg423
(i__main__
DelphiIdentAccess
p481
(dp482
g426
S'contextStartPageImage'
p483
sg428
(lp484
(idelphi
DelphiFieldEndAccess
p485
(dp486
g432
S'picture'
p487
sba(idelphi
DelphiFieldEndAccess
p488
(dp489
g432
S'bitmap'
p490
sbasbsba(i__main__
DelphiAssignStatement
p491
(dp492
g422
(i__main__
DelphiIdentAccess
p493
(dp494
g426
S'ConsoleForm'
p495
sg428
(lp496
(idelphi
DelphiFieldEndAccess
p497
(dp498
g432
S'CommandButton'
p499
sba(idelphi
DelphiFieldEndAccess
p500
(dp501
g432
S'glyph'
p502
sbasbsg423
(i__main__
DelphiIdentAccess
p503
(dp504
g426
S'commandStartPageImage'
p505
sg428
(lp506
(idelphi
DelphiFieldEndAccess
p507
(dp508
g432
S'picture'
p509
sba(idelphi
DelphiFieldEndAccess
p510
(dp511
g432
S'bitmap'
p512
sbasbsba(i__main__
DelphiAssignStatement
p513
(dp514
g422
(i__main__
DelphiIdentAccess
p515
(dp516
g426
S'RuleEditorForm'
p517
sg428
(lp518
(idelphi
DelphiFieldEndAccess
p519
(dp520
g432
S'ReplyPicture'
p521
sba(idelphi
DelphiFieldEndAccess
p522
(dp523
g432
S'picture'
p524
sba(idelphi
DelphiFieldEndAccess
p525
(dp526
g432
S'bitmap'
p527
sbasbsg423
(i__main__
DelphiIdentAccess
p528
(dp529
g426
S'replyStartPageImage'
p530
sg428
(lp531
(idelphi
DelphiFieldEndAccess
p532
(dp533
g432
S'picture'
p534
sba(idelphi
DelphiFieldEndAccess
p535
(dp536
g432
S'bitmap'
p537
sbasbsba(i__main__
DelphiAssignStatement
p538
(dp539
g422
(i__main__
DelphiIdentAccess
p540
(dp541
g426
S'ConsoleForm'
p542
sg428
(lp543
(idelphi
DelphiFieldEndAccess
p544
(dp545
g432
S'CommandButton'
p546
sba(idelphi
DelphiFieldEndAccess
p547
(dp548
g432
S'glyph'
p549
sbasbsg423
(i__main__
DelphiIdentAccess
p550
(dp551
g426
S'commandImage'
p552
sg428
(lp553
(idelphi
DelphiFieldEndAccess
p554
(dp555
g432
S'picture'
p556
sba(idelphi
DelphiFieldEndAccess
p557
(dp558
g432
S'bitmap'
p559
sbasbsbasbsg445
(lp560
sbsg192
(lp561
S'$R *.DFM'
p562
asbsS'cancelclick'
p563
(i__main__
DelphiMethodImplementation
p564
(dp565
g391
g129
sg87
g131
sg95
(lp566
(i__main__
DelphiFormalParameter
p567
(dp568
g99
Nsg100
(lp569
S'Sender'
p570
asg103
(i__main__
DelphiNamedType
p571
(dp572
g106
S'TObject'
p573
sg108
g1
sg109
Nsbsg110
Nsbasg400
(lp574
sg402
(lp575
sg404
(lp576
g406
ag570
asg407
(dp577
g570
g571
ssg111
S'TContextWizardForm'
p578
sg112
Nsg410
(lp579
sg113
I0
sg114
g115
sg412
(i__main__
DelphiBlock
p580
(dp581
g415
(idelphi
DelphiCompoundStatement
p582
(dp583
g418
(lp584
(i__main__
DelphiAssignStatement
p585
(dp586
g422
(i__main__
DelphiIdentAccess
p587
(dp588
g426
S'mrCancel'
p589
sg428
(lp590
sbsg423
(i__main__
DelphiIdentAccess
p591
(dp592
g426
S'modalResult'
p593
sg428
(lp594
sbsbasbsg445
(lp595
sbsbsS'notebookpagechanged'
p596
(i__main__
DelphiMethodImplementation
p597
(dp598
g391
g117
sg87
g119
sg95
(lp599
(i__main__
DelphiFormalParameter
p600
(dp601
g99
Nsg100
(lp602
S'Sender'
p603
asg103
(i__main__
DelphiNamedType
p604
(dp605
g106
S'TObject'
p606
sg108
g1
sg109
Nsbsg110
Nsbasg400
(lp607
sg402
(lp608
sg404
(lp609
g406
ag603
asg407
(dp610
g603
g604
ssg111
S'TContextWizardForm'
p611
sg112
Nsg410
(lp612
sg113
I0
sg114
g115
sg412
(i__main__
DelphiBlock
p613
(dp614
g415
(idelphi
DelphiCompoundStatement
p615
(dp616
g418
(lp617
(i__main__
DelphiAssignStatement
p618
(dp619
g422
(idelphi
DelphiRelOp
p620
(dp621
S'simpleExpression1'
p622
(i__main__
DelphiIdentAccess
p623
(dp624
g426
S'notebook'
p625
sg428
(lp626
(idelphi
DelphiFieldEndAccess
p627
(dp628
g432
S'pageIndex'
p629
sbasbsS'simpleExpression2'
p630
(i__main__
DelphiIdentAccess
p631
(dp632
g426
S'kStartPage'
p633
sg428
(lp634
sbsS'relOp'
p635
S'>'
sbsg423
(i__main__
DelphiIdentAccess
p636
(dp637
g426
S'goBack'
p638
sg428
(lp639
(idelphi
DelphiFieldEndAccess
p640
(dp641
g432
S'enabled'
p642
sbasbsba(idelphi
DelphiIfStatement
p643
(dp644
S'expression'
p645
(idelphi
DelphiRelOp
p646
(dp647
g622
(i__main__
DelphiIdentAccess
p648
(dp649
g426
S'noteBook'
p650
sg428
(lp651
(idelphi
DelphiFieldEndAccess
p652
(dp653
g432
S'pageIndex'
p654
sbasbsg630
(i__main__
DelphiIdentAccess
p655
(dp656
g426
S'kFinishPage'
p657
sg428
(lp658
sbsg635
S'<>'
p659
sbsS'ifFalseStatement'
p660
(i__main__
DelphiAssignStatement
p661
(dp662
g422
(idelphi
DelphiStringAccess
p663
(dp664
g428
(lp665
sg441
(idelphi
DelphiStringValue
p666
(dp667
g441
S'&Finish'
p668
sbsbsg423
(i__main__
DelphiIdentAccess
p669
(dp670
g426
S'goNext'
p671
sg428
(lp672
(idelphi
DelphiFieldEndAccess
p673
(dp674
g432
S'caption'
p675
sbasbsbsS'ifTrueStatement'
p676
(i__main__
DelphiAssignStatement
p677
(dp678
g422
(idelphi
DelphiStringAccess
p679
(dp680
g428
(lp681
sg441
(idelphi
DelphiStringValue
p682
(dp683
g441
S'&Next >>'
p684
sbsbsg423
(i__main__
DelphiIdentAccess
p685
(dp686
g426
S'goNext'
p687
sg428
(lp688
(idelphi
DelphiFieldEndAccess
p689
(dp690
g432
S'caption'
p691
sbasbsbsbasbsg445
(lp692
sbsbsS'formclosequery'
p693
(i__main__
DelphiMethodImplementation
p694
(dp695
g391
g153
sg87
g155
sg95
(lp696
(i__main__
DelphiFormalParameter
p697
(dp698
g99
Nsg100
(lp699
S'Sender'
p700
asg103
(i__main__
DelphiNamedType
p701
(dp702
g106
S'TObject'
p703
sg108
g1
sg109
Nsbsg110
Nsba(i__main__
DelphiFormalParameter
p704
(dp705
g99
Nsg100
(lp706
S'CanClose'
p707
asg103
(i__main__
DelphiPrimitiveType
p708
(dp709
g106
g170
sbsg110
g171
sbasg400
(lp710
I1
asg402
(lp711
sg404
(lp712
g406
ag700
ag707
asg407
(dp713
g707
g708
sg700
g701
ssg111
S'TContextWizardForm'
p714
sg112
Nsg410
(lp715
g707
asg113
I0
sg114
g115
sg412
(i__main__
DelphiBlock
p716
(dp717
g415
(idelphi
DelphiCompoundStatement
p718
(dp719
g418
(lp720
(idelphi
DelphiIfStatement
p721
(dp722
g645
(i__main__
DelphiIdentAccess
p723
(dp724
g426
S'generated'
p725
sg428
(lp726
sbsg660
Nsg676
(i__main__
DelphiExitStatement
p727
(dp728
S'proceduralOrMethodImplementation'
p729
g694
sbsba(idelphi
DelphiIfStatement
p730
(dp731
g645
(idelphi
DelphiRelOp
p732
(dp733
g622
(i__main__
DelphiIdentAccess
p734
(dp735
g426
S'Trim'
p736
sg428
(lp737
(idelphi
DelphiFunctionEndAccess
p738
(dp739
g436
(lp740
(i__main__
DelphiIdentAccess
p741
(dp742
g426
S'NewContextsMemo'
p743
sg428
(lp744
(idelphi
DelphiFieldEndAccess
p745
(dp746
g432
S'text'
p747
sbasbasbasbsg630
(idelphi
DelphiStringAccess
p748
(dp749
g428
(lp750
sg441
(idelphi
DelphiStringValue
p751
(dp752
g441
S''
sbsbsg635
g659
sbsg660
Nsg676
(idelphi
DelphiCompoundStatement
p753
(dp754
g418
(lp755
(i__main__
DelphiAssignStatement
p756
(dp757
g422
(i__main__
DelphiIdentAccess
p758
(dp759
g426
S'MessageDlg'
p760
sg428
(lp761
(idelphi
DelphiFunctionEndAccess
p762
(dp763
g436
(lp764
(idelphi
DelphiAddOp
p765
(dp766
S'addOp'
p767
S'+'
sS'term2'
p768
(idelphi
DelphiStringAccess
p769
(dp770
g428
(lp771
sg441
(idelphi
DelphiStringValue
p772
(dp773
g441
S'Is this OK?'
p774
sbsbsS'term1'
p775
(idelphi
DelphiAddOp
p776
(dp777
g767
S'+'
sg768
(i__main__
DelphiIdentAccess
p778
(dp779
g426
S'chr'
p780
sg428
(lp781
(idelphi
DelphiFunctionEndAccess
p782
(dp783
g436
(lp784
(idelphi
DelphiIntegerValue
p785
(dp786
g441
S'13'
p787
sbasbasbsg775
(idelphi
DelphiAddOp
p788
(dp789
g767
S'+'
sg768
(i__main__
DelphiIdentAccess
p790
(dp791
g426
S'chr'
p792
sg428
(lp793
(idelphi
DelphiFunctionEndAccess
p794
(dp795
g436
(lp796
(idelphi
DelphiIntegerValue
p797
(dp798
g441
S'13'
p799
sbasbasbsg775
(idelphi
DelphiAddOp
p800
(dp801
g767
S'+'
sg768
(idelphi
DelphiStringAccess
p802
(dp803
g428
(lp804
sg441
(idelphi
DelphiStringValue
p805
(dp806
g441
S'and lose any work done with it.'
p807
sbsbsg775
(idelphi
DelphiAddOp
p808
(dp809
g767
S'+'
sg768
(i__main__
DelphiIdentAccess
p810
(dp811
g426
S'chr'
p812
sg428
(lp813
(idelphi
DelphiFunctionEndAccess
p814
(dp815
g436
(lp816
(idelphi
DelphiIntegerValue
p817
(dp818
g441
S'13'
p819
sbasbasbsg775
(idelphi
DelphiStringAccess
p820
(dp821
g428
(lp822
sg441
(idelphi
DelphiStringValue
p823
(dp824
g441
S'You are about to close this wizard'
p825
sbsbsbsbsbsbsba(i__main__
DelphiIdentAccess
p826
(dp827
g426
S'mtConfirmation'
p828
sg428
(lp829
sba(idelphi
DelphiSetConstructor
p830
(dp831
S'setElementList'
p832
(lp833
(i__main__
DelphiIdentAccess
p834
(dp835
g426
S'mbYes'
p836
sg428
(lp837
sba(i__main__
DelphiIdentAccess
p838
(dp839
g426
S'mbNo'
p840
sg428
(lp841
sbasba(idelphi
DelphiIntegerValue
p842
(dp843
g441
S'0'
sbasbasbsg423
(i__main__
DelphiIdentAccess
p844
(dp845
g426
S'result'
p846
sg428
(lp847
sbsba(idelphi
DelphiIfStatement
p848
(dp849
g645
(idelphi
DelphiRelOp
p850
(dp851
g622
(i__main__
DelphiIdentAccess
p852
(dp853
g426
S'result'
p854
sg428
(lp855
sbsg630
(i__main__
DelphiIdentAccess
p856
(dp857
g426
S'mrYes'
p858
sg428
(lp859
sbsg635
g659
sbsg660
Nsg676
(idelphi
DelphiCompoundStatement
p860
(dp861
g418
(lp862
(i__main__
DelphiAssignStatement
p863
(dp864
g422
(i__main__
DelphiIdentAccess
p865
(dp866
g426
S'false'
p867
sg428
(lp868
sbsg423
(i__main__
DelphiIdentAccess
p869
(dp870
g426
S'CanClose'
p871
sg428
(lp872
sbsba(i__main__
DelphiExitStatement
p873
(dp874
g729
g694
sbasbsba(i__main__
DelphiAssignStatement
p875
(dp876
g422
Nsg423
(i__main__
DelphiIdentAccess
p877
(dp878
g426
S'ChangeLogForm'
p879
sg428
(lp880
(idelphi
DelphiFieldEndAccess
p881
(dp882
g432
S'addToLog'
p883
sba(idelphi
DelphiFunctionEndAccess
p884
(dp885
g436
(lp886
(i__main__
DelphiIdentAccess
p887
(dp888
g426
S'NewContextsMemo'
p889
sg428
(lp890
(idelphi
DelphiFieldEndAccess
p891
(dp892
g432
S'Text'
p893
sbasbasbasbsbasbsbasbsg445
(lp894
(i__main__
DelphiVarSection
p895
(dp896
S'atTopLevel'
p897
I0
sS'varDeclList'
p898
(lp899
(idelphi
DelphiVarDecl
p900
(dp901
S'constExpression'
p902
NsS'identList'
p903
(lp904
S'result'
p905
asg103
(i__main__
DelphiPrimitiveType
p906
(dp907
g106
S'word'
p908
sbsbasbasbsg192
(lp909
S'\r'
aS'cave|You are in a big cave.\r'
p910
aS'forest|You are in a lively forest.\r'
p911
aS'spring|You are standing near a burbling spring.\r'
p912
aS''
aS'\r'
aS'well house|You are in a well house for a small spring.\r'
p913
aS'grate|You are standing above a grate.\r'
p914
aS'forest|You are wandering around in dense forest.\r'
p915
aS'glade|You are in a forest glade.\r'
p916
aS'stream|You are walking along a dry stream bed.\r'
p917
aS''
asbsS'gobackclick'
p918
(i__main__
DelphiMethodImplementation
p919
(dp920
g391
g173
sg87
g175
sg95
(lp921
(i__main__
DelphiFormalParameter
p922
(dp923
g99
Nsg100
(lp924
S'Sender'
p925
asg103
(i__main__
DelphiNamedType
p926
(dp927
g106
S'TObject'
p928
sg108
g1
sg109
Nsbsg110
Nsbasg400
(lp929
sg402
(lp930
sg404
(lp931
g406
ag925
asg407
(dp932
g925
g926
ssg111
S'TContextWizardForm'
p933
sg112
Nsg410
(lp934
sg113
I0
sg114
g115
sg412
(i__main__
DelphiBlock
p935
(dp936
g415
(idelphi
DelphiCompoundStatement
p937
(dp938
g418
(lp939
(idelphi
DelphiWithStatement
p940
(dp941
S'statement'
p942
(idelphi
DelphiIfStatement
p943
(dp944
g645
(idelphi
DelphiRelOp
p945
(dp946
g622
(i__main__
DelphiIdentAccess
p947
(dp948
g426
S'pageIndex'
p949
sg428
(lp950
sbsg630
(i__main__
DelphiIdentAccess
p951
(dp952
g426
S'kStartPage'
p953
sg428
(lp954
sbsg635
S'>'
sbsg660
Nsg676
(i__main__
DelphiAssignStatement
p955
(dp956
g422
(idelphi
DelphiAddOp
p957
(dp958
g767
S'-'
sg768
(idelphi
DelphiIntegerValue
p959
(dp960
g441
S'1'
sbsg775
(i__main__
DelphiIdentAccess
p961
(dp962
g426
S'pageIndex'
p963
sg428
(lp964
sbsbsg423
(i__main__
DelphiIdentAccess
p965
(dp966
g426
S'pageIndex'
p967
sg428
(lp968
sbsbsbsS'variableReferenceList'
p969
(lp970
(i__main__
DelphiIdentAccess
p971
(dp972
g426
S'notebook'
p973
sg428
(lp974
sbasbasbsg445
(lp975
sbsbsS'initialize'
p976
(i__main__
DelphiMethodImplementation
p977
(dp978
g391
g185
sg87
g187
sg95
(lp979
sg400
(lp980
sg402
(lp981
sg404
(lp982
g406
asg407
(dp983
sg111
S'TContextWizardForm'
p984
sg112
(i__main__
DelphiPrimitiveType
p985
(dp986
g106
g170
sbsg410
(lp987
sg113
I0
sg114
g191
sg412
(i__main__
DelphiBlock
p988
(dp989
g415
(idelphi
DelphiCompoundStatement
p990
(dp991
g418
(lp992
(i__main__
DelphiAssignStatement
p993
(dp994
g422
(i__main__
DelphiIdentAccess
p995
(dp996
g426
S'false'
p997
sg428
(lp998
sbsg423
(i__main__
DelphiIdentAccess
p999
(dp1000
g426
S'generated'
p1001
sg428
(lp1002
sbsba(i__main__
DelphiAssignStatement
p1003
(dp1004
g422
(i__main__
DelphiIdentAccess
p1005
(dp1006
g426
S'kStartPage'
p1007
sg428
(lp1008
sbsg423
(i__main__
DelphiIdentAccess
p1009
(dp1010
g426
S'notebook'
p1011
sg428
(lp1012
(idelphi
DelphiFieldEndAccess
p1013
(dp1014
g432
S'pageIndex'
p1015
sbasbsba(i__main__
DelphiAssignStatement
p1016
(dp1017
g422
(idelphi
DelphiStringAccess
p1018
(dp1019
g428
(lp1020
sg441
(idelphi
DelphiStringValue
p1021
(dp1022
g441
S''
sbsbsg423
(i__main__
DelphiIdentAccess
p1023
(dp1024
g426
S'NewContextsMemo'
p1025
sg428
(lp1026
(idelphi
DelphiFieldEndAccess
p1027
(dp1028
g432
S'Text'
p1029
sbasbsba(i__main__
DelphiAssignStatement
p1030
(dp1031
g422
(i__main__
DelphiIdentAccess
p1032
(dp1033
g426
S'true'
p1034
sg428
(lp1035
sbsg423
(i__main__
DelphiIdentAccess
p1036
(dp1037
g426
S'result'
p1038
sg428
(lp1039
sbsbasbsg445
(lp1040
sbsg192
g193
sbsS'gonextclick'
p1041
(i__main__
DelphiMethodImplementation
p1042
(dp1043
g391
g197
sg87
g199
sg95
(lp1044
(i__main__
DelphiFormalParameter
p1045
(dp1046
g99
Nsg100
(lp1047
S'Sender'
p1048
asg103
(i__main__
DelphiNamedType
p1049
(dp1050
g106
S'TObject'
p1051
sg108
g1
sg109
Nsbsg110
Nsbasg400
(lp1052
sg402
(lp1053
sg404
(lp1054
g406
ag1048
asg407
(dp1055
g1048
g1049
ssg111
S'TContextWizardForm'
p1056
sg112
Nsg410
(lp1057
sg113
I0
sg114
g115
sg412
(i__main__
DelphiBlock
p1058
(dp1059
g415
(idelphi
DelphiCompoundStatement
p1060
(dp1061
g418
(lp1062
(idelphi
DelphiIfStatement
p1063
(dp1064
g645
(idelphi
DelphiRelOp
p1065
(dp1066
g622
(i__main__
DelphiIdentAccess
p1067
(dp1068
g426
S'notebook'
p1069
sg428
(lp1070
(idelphi
DelphiFieldEndAccess
p1071
(dp1072
g432
S'pageIndex'
p1073
sbasbsg630
(i__main__
DelphiIdentAccess
p1074
(dp1075
g426
S'kFinishPage'
p1076
sg428
(lp1077
sbsg635
S'='
sbsg660
(idelphi
DelphiIfStatement
p1078
(dp1079
g645
(idelphi
DelphiRelOp
p1080
(dp1081
g622
(i__main__
DelphiIdentAccess
p1082
(dp1083
g426
S'notebook'
p1084
sg428
(lp1085
(idelphi
DelphiFieldEndAccess
p1086
(dp1087
g432
S'pageIndex'
p1088
sbasbsg630
(i__main__
DelphiIdentAccess
p1089
(dp1090
g426
S'kContextsPage'
p1091
sg428
(lp1092
sbsg635
S'='
sbsg660
(idelphi
DelphiIfStatement
p1093
(dp1094
g645
(idelphi
DelphiRelOp
p1095
(dp1096
g622
(i__main__
DelphiIdentAccess
p1097
(dp1098
g426
S'notebook'
p1099
sg428
(lp1100
(idelphi
DelphiFieldEndAccess
p1101
(dp1102
g432
S'pageIndex'
p1103
sbasbsg630
(i__main__
DelphiIdentAccess
p1104
(dp1105
g426
S'kDescriptionPage'
p1106
sg428
(lp1107
sbsg635
S'='
sbsg660
Nsg676
(idelphi
DelphiCompoundStatement
p1108
(dp1109
g418
(lp1110
(idelphi
DelphiIfStatement
p1111
(dp1112
g645
(idelphi
DelphiNestedExpressionListAccess
p1113
(dp1114
g428
(lp1115
sg436
(lp1116
(idelphi
DelphiRelOp
p1117
(dp1118
g622
(i__main__
DelphiIdentAccess
p1119
(dp1120
g426
S'Trim'
p1121
sg428
(lp1122
(idelphi
DelphiFunctionEndAccess
p1123
(dp1124
g436
(lp1125
(i__main__
DelphiIdentAccess
p1126
(dp1127
g426
S'DescribeEdit'
p1128
sg428
(lp1129
(idelphi
DelphiFieldEndAccess
p1130
(dp1131
g432
S'text'
p1132
sbasbasbasbsg630
(idelphi
DelphiStringAccess
p1133
(dp1134
g428
(lp1135
sg441
(idelphi
DelphiStringValue
p1136
(dp1137
g441
S''
sbsbsg635
S'='
sbasbsg660
Nsg676
(idelphi
DelphiCompoundStatement
p1138
(dp1139
g418
(lp1140
(i__main__
DelphiAssignStatement
p1141
(dp1142
g422
Nsg423
(i__main__
DelphiIdentAccess
p1143
(dp1144
g426
S'ShowMessage'
p1145
sg428
(lp1146
(idelphi
DelphiFunctionEndAccess
p1147
(dp1148
g436
(lp1149
(idelphi
DelphiStringAccess
p1150
(dp1151
g428
(lp1152
sg441
(idelphi
DelphiStringValue
p1153
(dp1154
g441
S'You must enter a command to be used to describe these contexts.'
p1155
sbsbasbasbsba(i__main__
DelphiExitStatement
p1156
(dp1157
g729
g1042
sbasbsbasbsbsg676
(idelphi
DelphiCompoundStatement
p1158
(dp1159
g418
(lp1160
(idelphi
DelphiIfStatement
p1161
(dp1162
g645
(idelphi
DelphiNestedExpressionListAccess
p1163
(dp1164
g428
(lp1165
sg436
(lp1166
(idelphi
DelphiRelOp
p1167
(dp1168
g622
(i__main__
DelphiIdentAccess
p1169
(dp1170
g426
S'Trim'
p1171
sg428
(lp1172
(idelphi
DelphiFunctionEndAccess
p1173
(dp1174
g436
(lp1175
(i__main__
DelphiIdentAccess
p1176
(dp1177
g426
S'NewContextsMemo'
p1178
sg428
(lp1179
(idelphi
DelphiFieldEndAccess
p1180
(dp1181
g432
S'text'
p1182
sbasbasbasbsg630
(idelphi
DelphiStringAccess
p1183
(dp1184
g428
(lp1185
sg441
(idelphi
DelphiStringValue
p1186
(dp1187
g441
S''
sbsbsg635
S'='
sbasbsg660
Nsg676
(idelphi
DelphiCompoundStatement
p1188
(dp1189
g418
(lp1190
(i__main__
DelphiAssignStatement
p1191
(dp1192
g422
Nsg423
(i__main__
DelphiIdentAccess
p1193
(dp1194
g426
S'ShowMessage'
p1195
sg428
(lp1196
(idelphi
DelphiFunctionEndAccess
p1197
(dp1198
g436
(lp1199
(idelphi
DelphiStringAccess
p1200
(dp1201
g428
(lp1202
sg441
(idelphi
DelphiStringValue
p1203
(dp1204
g441
S'You must enter one or more contexts to proceed.'
p1205
sbsbasbasbsba(i__main__
DelphiExitStatement
p1206
(dp1207
g729
g1042
sbasbsbasbsbsg676
(i__main__
DelphiAssignStatement
p1208
(dp1209
g422
Nsg423
(i__main__
DelphiIdentAccess
p1210
(dp1211
g426
S'self'
p1212
sg428
(lp1213
(idelphi
DelphiFieldEndAccess
p1214
(dp1215
g432
S'generateRules'
p1216
sbasbsbsba(idelphi
DelphiWithStatement
p1217
(dp1218
g942
(idelphi
DelphiIfStatement
p1219
(dp1220
g645
(idelphi
DelphiRelOp
p1221
(dp1222
g622
(i__main__
DelphiIdentAccess
p1223
(dp1224
g426
S'pageIndex'
p1225
sg428
(lp1226
sbsg630
(i__main__
DelphiIdentAccess
p1227
(dp1228
g426
S'kFinishPage'
p1229
sg428
(lp1230
sbsg635
S'<'
sbsg660
Nsg676
(i__main__
DelphiAssignStatement
p1231
(dp1232
g422
(idelphi
DelphiAddOp
p1233
(dp1234
g767
S'+'
sg768
(idelphi
DelphiIntegerValue
p1235
(dp1236
g441
S'1'
sbsg775
(i__main__
DelphiIdentAccess
p1237
(dp1238
g426
S'pageIndex'
p1239
sg428
(lp1240
sbsbsg423
(i__main__
DelphiIdentAccess
p1241
(dp1242
g426
S'pageIndex'
p1243
sg428
(lp1244
sbsbsbsg969
(lp1245
(i__main__
DelphiIdentAccess
p1246
(dp1247
g426
S'notebook'
p1248
sg428
(lp1249
sbasbasbsg445
(lp1250
sbsbsS'generaterules'
p1251
(i__main__
DelphiMethodImplementation
p1252
(dp1253
g391
g209
sg87
g211
sg95
(lp1254
sg400
(lp1255
sg402
(lp1256
sg404
(lp1257
g406
asg407
(dp1258
sg111
S'TContextWizardForm'
p1259
sg112
Nsg410
(lp1260
sg113
I0
sg114
g115
sg412
(i__main__
DelphiBlock
p1261
(dp1262
g415
(idelphi
DelphiCompoundStatement
p1263
(dp1264
g418
(lp1265
(i__main__
DelphiAssignStatement
p1266
(dp1267
g422
Nsg423
(i__main__
DelphiIdentAccess
p1268
(dp1269
g426
S'ChangeLogForm'
p1270
sg428
(lp1271
(idelphi
DelphiFieldEndAccess
p1272
(dp1273
g432
S'addToLog'
p1274
sba(idelphi
DelphiFunctionEndAccess
p1275
(dp1276
g436
(lp1277
(i__main__
DelphiIdentAccess
p1278
(dp1279
g426
S'NewContextsMemo'
p1280
sg428
(lp1281
(idelphi
DelphiFieldEndAccess
p1282
(dp1283
g432
S'Text'
p1284
sbasbasbasbsba(i__main__
DelphiAssignStatement
p1285
(dp1286
g422
(i__main__
DelphiIdentAccess
p1287
(dp1288
g426
S'RuleEditorForm'
p1289
sg428
(lp1290
(idelphi
DelphiFieldEndAccess
p1291
(dp1292
g432
S'goodPosition'
p1293
sbasbsg423
(i__main__
DelphiIdentAccess
p1294
(dp1295
g426
S'position'
p1296
sg428
(lp1297
sbsba(i__main__
DelphiAssignStatement
p1298
(dp1299
g422
(i__main__
DelphiIdentAccess
p1300
(dp1301
g426
S'TStringStream'
p1302
sg428
(lp1303
(idelphi
DelphiFieldEndAccess
p1304
(dp1305
g432
S'create'
p1306
sba(idelphi
DelphiFunctionEndAccess
p1307
(dp1308
g436
(lp1309
(i__main__
DelphiIdentAccess
p1310
(dp1311
g426
S'NewContextsMemo'
p1312
sg428
(lp1313
(idelphi
DelphiFieldEndAccess
p1314
(dp1315
g432
S'Text'
p1316
sbasbasbasbsg423
(i__main__
DelphiIdentAccess
p1317
(dp1318
g426
S'stream'
p1319
sg428
(lp1320
sbsba(i__main__
DelphiAssignStatement
p1321
(dp1322
g422
(idelphi
DelphiStringAccess
p1323
(dp1324
g428
(lp1325
sg441
(idelphi
DelphiStringValue
p1326
(dp1327
g441
S''
sbsbsg423
(i__main__
DelphiIdentAccess
p1328
(dp1329
g426
S'previousContext'
p1330
sg428
(lp1331
sbsba(i__main__
DelphiAssignStatement
p1332
(dp1333
g422
(i__main__
DelphiIdentAccess
p1334
(dp1335
g426
S'TSNewRulesCommand'
p1336
sg428
(lp1337
(idelphi
DelphiFieldEndAccess
p1338
(dp1339
g432
S'create'
p1340
sbasbsg423
(i__main__
DelphiIdentAccess
p1341
(dp1342
g426
S'newRulesCommand'
p1343
sg428
(lp1344
sbsba(i__main__
DelphiAssignStatement
p1345
(dp1346
g422
(idelphi
DelphiStringAccess
p1347
(dp1348
g428
(lp1349
sg441
(idelphi
DelphiStringValue
p1350
(dp1351
g441
S'new context wizard'
p1352
sbsbsg423
(i__main__
DelphiIdentAccess
p1353
(dp1354
g426
S'newRulesCommand'
p1355
sg428
(lp1356
(idelphi
DelphiFieldEndAccess
p1357
(dp1358
g432
S'creator'
p1359
sbasbsba(idelphi
DelphiTryFinallyStatement
p1360
(dp1361
S'tryStatements'
p1362
(lp1363
(i__main__
DelphiAssignStatement
p1364
(dp1365
g422
(i__main__
DelphiIdentAccess
p1366
(dp1367
g426
S'stream'
p1368
sg428
(lp1369
(idelphi
DelphiFieldEndAccess
p1370
(dp1371
g432
S'ReadString'
p1372
sba(idelphi
DelphiFunctionEndAccess
p1373
(dp1374
g436
(lp1375
(idelphi
DelphiIntegerValue
p1376
(dp1377
g441
S'1'
sbasbasbsg423
(i__main__
DelphiIdentAccess
p1378
(dp1379
g426
S'character'
p1380
sg428
(lp1381
sbsba(idelphi
DelphiWhileStatement
p1382
(dp1383
g942
(idelphi
DelphiCompoundStatement
p1384
(dp1385
g418
(lp1386
(i__main__
DelphiAssignStatement
p1387
(dp1388
g422
(idelphi
DelphiStringAccess
p1389
(dp1390
g428
(lp1391
sg441
(idelphi
DelphiStringValue
p1392
(dp1393
g441
S''
sbsbsg423
(i__main__
DelphiIdentAccess
p1394
(dp1395
g426
S'line'
p1396
sg428
(lp1397
sbsba(i__main__
DelphiAssignStatement
p1398
(dp1399
g422
(idelphi
DelphiStringAccess
p1400
(dp1401
g428
(lp1402
sg441
(idelphi
DelphiStringValue
p1403
(dp1404
g441
S''
sbsbsg423
(i__main__
DelphiIdentAccess
p1405
(dp1406
g426
S'contextName'
p1407
sg428
(lp1408
sbsba(i__main__
DelphiAssignStatement
p1409
(dp1410
g422
(idelphi
DelphiStringAccess
p1411
(dp1412
g428
(lp1413
sg441
(idelphi
DelphiStringValue
p1414
(dp1415
g441
S''
sbsbsg423
(i__main__
DelphiIdentAccess
p1416
(dp1417
g426
S'contextDescription'
p1418
sg428
(lp1419
sbsba(i__main__
DelphiAssignStatement
p1420
(dp1421
g422
(i__main__
DelphiIdentAccess
p1422
(dp1423
g426
S'false'
p1424
sg428
(lp1425
sbsg423
(i__main__
DelphiIdentAccess
p1426
(dp1427
g426
S'pipeRead'
p1428
sg428
(lp1429
sbsba(idelphi
DelphiWhileStatement
p1430
(dp1431
g942
(idelphi
DelphiCompoundStatement
p1432
(dp1433
g418
(lp1434
(i__main__
DelphiAssignStatement
p1435
(dp1436
g422
(idelphi
DelphiAddOp
p1437
(dp1438
g767
S'+'
sg768
(i__main__
DelphiIdentAccess
p1439
(dp1440
g426
S'character'
p1441
sg428
(lp1442
sbsg775
(i__main__
DelphiIdentAccess
p1443
(dp1444
g426
S'line'
p1445
sg428
(lp1446
sbsbsg423
(i__main__
DelphiIdentAccess
p1447
(dp1448
g426
S'line'
p1449
sg428
(lp1450
sbsba(idelphi
DelphiIfStatement
p1451
(dp1452
g645
(i__main__
DelphiIdentAccess
p1453
(dp1454
g426
S'pipeRead'
p1455
sg428
(lp1456
sbsg660
(idelphi
DelphiIfStatement
p1457
(dp1458
g645
(idelphi
DelphiRelOp
p1459
(dp1460
g622
(i__main__
DelphiIdentAccess
p1461
(dp1462
g426
S'character'
p1463
sg428
(lp1464
sbsg630
(idelphi
DelphiStringAccess
p1465
(dp1466
g428
(lp1467
sg441
(idelphi
DelphiStringValue
p1468
(dp1469
g441
S'|'
sbsbsg635
S'='
sbsg660
(i__main__
DelphiAssignStatement
p1470
(dp1471
g422
(idelphi
DelphiAddOp
p1472
(dp1473
g767
S'+'
sg768
(i__main__
DelphiIdentAccess
p1474
(dp1475
g426
S'character'
p1476
sg428
(lp1477
sbsg775
(i__main__
DelphiIdentAccess
p1478
(dp1479
g426
S'contextName'
p1480
sg428
(lp1481
sbsbsg423
(i__main__
DelphiIdentAccess
p1482
(dp1483
g426
S'contextName'
p1484
sg428
(lp1485
sbsbsg676
(i__main__
DelphiAssignStatement
p1486
(dp1487
g422
(i__main__
DelphiIdentAccess
p1488
(dp1489
g426
S'true'
p1490
sg428
(lp1491
sbsg423
(i__main__
DelphiIdentAccess
p1492
(dp1493
g426
S'pipeRead'
p1494
sg428
(lp1495
sbsbsbsg676
(i__main__
DelphiAssignStatement
p1496
(dp1497
g422
(idelphi
DelphiAddOp
p1498
(dp1499
g767
S'+'
sg768
(i__main__
DelphiIdentAccess
p1500
(dp1501
g426
S'character'
p1502
sg428
(lp1503
sbsg775
(i__main__
DelphiIdentAccess
p1504
(dp1505
g426
S'contextDescription'
p1506
sg428
(lp1507
sbsbsg423
(i__main__
DelphiIdentAccess
p1508
(dp1509
g426
S'contextDescription'
p1510
sg428
(lp1511
sbsbsba(i__main__
DelphiAssignStatement
p1512
(dp1513
g422
(i__main__
DelphiIdentAccess
p1514
(dp1515
g426
S'stream'
p1516
sg428
(lp1517
(idelphi
DelphiFieldEndAccess
p1518
(dp1519
g432
S'ReadString'
p1520
sba(idelphi
DelphiFunctionEndAccess
p1521
(dp1522
g436
(lp1523
(idelphi
DelphiIntegerValue
p1524
(dp1525
g441
S'1'
sbasbasbsg423
(i__main__
DelphiIdentAccess
p1526
(dp1527
g426
S'character'
p1528
sg428
(lp1529
sbsbasbsS'whileExpression'
p1530
(idelphi
DelphiNot
p1531
(dp1532
S'factor'
p1533
(idelphi
DelphiNestedExpressionListAccess
p1534
(dp1535
g428
(lp1536
sg436
(lp1537
(idelphi
DelphiAddOp
p1538
(dp1539
g767
S'or'
p1540
sg768
(idelphi
DelphiNestedExpressionListAccess
p1541
(dp1542
g428
(lp1543
sg436
(lp1544
(idelphi
DelphiRelOp
p1545
(dp1546
g622
(i__main__
DelphiIdentAccess
p1547
(dp1548
g426
S'character'
p1549
sg428
(lp1550
sbsg630
(idelphi
DelphiStringAccess
p1551
(dp1552
g428
(lp1553
sg441
(idelphi
DelphiStringValue
p1554
(dp1555
g441
S''
sbsbsg635
S'='
sbasbsg775
(idelphi
DelphiAddOp
p1556
(dp1557
g767
g1540
sg768
(idelphi
DelphiNestedExpressionListAccess
p1558
(dp1559
g428
(lp1560
sg436
(lp1561
(idelphi
DelphiRelOp
p1562
(dp1563
g622
(i__main__
DelphiIdentAccess
p1564
(dp1565
g426
S'character'
p1566
sg428
(lp1567
sbsg630
(idelphi
DelphiControlValue
p1568
(dp1569
g441
S'#10'
p1570
sbsg635
S'='
sbasbsg775
(idelphi
DelphiNestedExpressionListAccess
p1571
(dp1572
g428
(lp1573
sg436
(lp1574
(idelphi
DelphiRelOp
p1575
(dp1576
g622
(i__main__
DelphiIdentAccess
p1577
(dp1578
g426
S'character'
p1579
sg428
(lp1580
sbsg630
(idelphi
DelphiControlValue
p1581
(dp1582
g441
S'#13'
p1583
sbsg635
S'='
sbasbsbsbasbsbsba(idelphi
DelphiIfStatement
p1584
(dp1585
g645
(idelphi
DelphiRelOp
p1586
(dp1587
g622
(i__main__
DelphiIdentAccess
p1588
(dp1589
g426
S'Trim'
p1590
sg428
(lp1591
(idelphi
DelphiFunctionEndAccess
p1592
(dp1593
g436
(lp1594
(i__main__
DelphiIdentAccess
p1595
(dp1596
g426
S'contextName'
p1597
sg428
(lp1598
sbasbasbsg630
(idelphi
DelphiStringAccess
p1599
(dp1600
g428
(lp1601
sg441
(idelphi
DelphiStringValue
p1602
(dp1603
g441
S''
sbsbsg635
g659
sbsg660
Nsg676
(idelphi
DelphiCompoundStatement
p1604
(dp1605
g418
(lp1606
(idelphi
DelphiIfStatement
p1607
(dp1608
g645
(idelphi
DelphiNestedExpressionListAccess
p1609
(dp1610
g428
(lp1611
sg436
(lp1612
(idelphi
DelphiRelOp
p1613
(dp1614
g622
(i__main__
DelphiIdentAccess
p1615
(dp1616
g426
S'Trim'
p1617
sg428
(lp1618
(idelphi
DelphiFunctionEndAccess
p1619
(dp1620
g436
(lp1621
(i__main__
DelphiIdentAccess
p1622
(dp1623
g426
S'DescribeEdit'
p1624
sg428
(lp1625
(idelphi
DelphiFieldEndAccess
p1626
(dp1627
g432
S'text'
p1628
sbasbasbasbsg630
(idelphi
DelphiStringAccess
p1629
(dp1630
g428
(lp1631
sg441
(idelphi
DelphiStringValue
p1632
(dp1633
g441
S''
sbsbsg635
g659
sbasbsg660
Nsg676
(idelphi
DelphiCompoundStatement
p1634
(dp1635
g418
(lp1636
(i__main__
DelphiAssignStatement
p1637
(dp1638
g422
(i__main__
DelphiIdentAccess
p1639
(dp1640
g426
S'domain'
p1641
sg428
(lp1642
(idelphi
DelphiFieldEndAccess
p1643
(dp1644
g432
S'world'
p1645
sba(idelphi
DelphiFieldEndAccess
p1646
(dp1647
g432
S'newRule'
p1648
sbasbsg423
(i__main__
DelphiIdentAccess
p1649
(dp1650
g426
S'newRule'
p1651
sg428
(lp1652
sbsg192
(lp1653
S"ShowMessage('name: ' + contextName);\r"
p1654
aS"ShowMessage('description: ' + contextDescription);\r"
p1655
asba(i__main__
DelphiAssignStatement
p1656
(dp1657
g422
Nsg423
(i__main__
DelphiIdentAccess
p1658
(dp1659
g426
S'newRulesCommand'
p1660
sg428
(lp1661
(idelphi
DelphiFieldEndAccess
p1662
(dp1663
g432
S'addRule'
p1664
sba(idelphi
DelphiFunctionEndAccess
p1665
(dp1666
g436
(lp1667
(i__main__
DelphiIdentAccess
p1668
(dp1669
g426
S'newRule'
p1670
sg428
(lp1671
sbasbasbsba(i__main__
DelphiAssignStatement
p1672
(dp1673
g422
(i__main__
DelphiIdentAccess
p1674
(dp1675
g426
S'newRule'
p1676
sg428
(lp1677
sbsg423
(i__main__
DelphiIdentAccess
p1678
(dp1679
g426
S'RuleEditorForm'
p1680
sg428
(lp1681
(idelphi
DelphiFieldEndAccess
p1682
(dp1683
g432
S'lastChoice'
p1684
sbasbsba(i__main__
DelphiAssignStatement
p1685
(dp1686
g422
(i__main__
DelphiIdentAccess
p1687
(dp1688
g426
S'position'
p1689
sg428
(lp1690
sbsg423
(i__main__
DelphiIdentAccess
p1691
(dp1692
g426
S'newRule'
p1693
sg428
(lp1694
(idelphi
DelphiFieldEndAccess
p1695
(dp1696
g432
S'position'
p1697
sbasbsba(i__main__
DelphiAssignStatement
p1698
(dp1699
g422
Nsg423
(i__main__
DelphiIdentAccess
p1700
(dp1701
g426
S'newRule'
p1702
sg428
(lp1703
(idelphi
DelphiFieldEndAccess
p1704
(dp1705
g432
S'setContext'
p1706
sba(idelphi
DelphiFunctionEndAccess
p1707
(dp1708
g436
(lp1709
(i__main__
DelphiIdentAccess
p1710
(dp1711
g426
S'Trim'
p1712
sg428
(lp1713
(idelphi
DelphiFunctionEndAccess
p1714
(dp1715
g436
(lp1716
(i__main__
DelphiIdentAccess
p1717
(dp1718
g426
S'contextName'
p1719
sg428
(lp1720
sbasbasbasbasbsba(i__main__
DelphiAssignStatement
p1721
(dp1722
g422
Nsg423
(i__main__
DelphiIdentAccess
p1723
(dp1724
g426
S'newRule'
p1725
sg428
(lp1726
(idelphi
DelphiFieldEndAccess
p1727
(dp1728
g432
S'setCommand'
p1729
sba(idelphi
DelphiFunctionEndAccess
p1730
(dp1731
g436
(lp1732
(i__main__
DelphiIdentAccess
p1733
(dp1734
g426
S'Trim'
p1735
sg428
(lp1736
(idelphi
DelphiFunctionEndAccess
p1737
(dp1738
g436
(lp1739
(i__main__
DelphiIdentAccess
p1740
(dp1741
g426
S'DescribeEdit'
p1742
sg428
(lp1743
(idelphi
DelphiFieldEndAccess
p1744
(dp1745
g432
S'text'
p1746
sbasbasbasbasbasbsba(idelphi
DelphiIfStatement
p1747
(dp1748
g645
(idelphi
DelphiRelOp
p1749
(dp1750
g622
(i__main__
DelphiIdentAccess
p1751
(dp1752
g426
S'Trim'
p1753
sg428
(lp1754
(idelphi
DelphiFunctionEndAccess
p1755
(dp1756
g436
(lp1757
(i__main__
DelphiIdentAccess
p1758
(dp1759
g426
S'contextDescription'
p1760
sg428
(lp1761
sbasbasbsg630
(idelphi
DelphiStringAccess
p1762
(dp1763
g428
(lp1764
sg441
(idelphi
DelphiStringValue
p1765
(dp1766
g441
S''
sbsbsg635
g659
sbsg660
(i__main__
DelphiAssignStatement
p1767
(dp1768
g422
Nsg423
(i__main__
DelphiIdentAccess
p1769
(dp1770
g426
S'newRule'
p1771
sg428
(lp1772
(idelphi
DelphiFieldEndAccess
p1773
(dp1774
g432
S'setReply'
p1775
sba(idelphi
DelphiFunctionEndAccess
p1776
(dp1777
g436
(lp1778
(idelphi
DelphiStringAccess
p1779
(dp1780
g428
(lp1781
sg441
(idelphi
DelphiStringValue
p1782
(dp1783
g441
S'There is nothing of interest here.'
p1784
sbsbasbasbsbsg676
(i__main__
DelphiAssignStatement
p1785
(dp1786
g422
Nsg423
(i__main__
DelphiIdentAccess
p1787
(dp1788
g426
S'newRule'
p1789
sg428
(lp1790
(idelphi
DelphiFieldEndAccess
p1791
(dp1792
g432
S'setReply'
p1793
sba(idelphi
DelphiFunctionEndAccess
p1794
(dp1795
g436
(lp1796
(i__main__
DelphiIdentAccess
p1797
(dp1798
g426
S'Trim'
p1799
sg428
(lp1800
(idelphi
DelphiFunctionEndAccess
p1801
(dp1802
g436
(lp1803
(i__main__
DelphiIdentAccess
p1804
(dp1805
g426
S'contextDescription'
p1806
sg428
(lp1807
sbasbasbasbasbsbsbasbsba(i__main__
DelphiAssignStatement
p1808
(dp1809
g422
(i__main__
DelphiIdentAccess
p1810
(dp1811
g426
S'Trim'
p1812
sg428
(lp1813
(idelphi
DelphiFunctionEndAccess
p1814
(dp1815
g436
(lp1816
(i__main__
DelphiIdentAccess
p1817
(dp1818
g426
S'contextName'
p1819
sg428
(lp1820
sbasbasbsg423
(i__main__
DelphiIdentAccess
p1821
(dp1822
g426
S'previousContext'
p1823
sg428
(lp1824
sbsba(i__main__
DelphiAssignStatement
p1825
(dp1826
g422
(idelphi
DelphiAddOp
p1827
(dp1828
g767
S'+'
sg768
(idelphi
DelphiIntegerValue
p1829
(dp1830
g441
S'60'
p1831
sbsg775
(i__main__
DelphiIdentAccess
p1832
(dp1833
g426
S'position'
p1834
sg428
(lp1835
(idelphi
DelphiFieldEndAccess
p1836
(dp1837
g432
S'y'
sbasbsbsg423
(i__main__
DelphiIdentAccess
p1838
(dp1839
g426
S'position'
p1840
sg428
(lp1841
(idelphi
DelphiFieldEndAccess
p1842
(dp1843
g432
S'y'
sbasbsbasbsba(idelphi
DelphiWhileStatement
p1844
(dp1845
g942
(i__main__
DelphiAssignStatement
p1846
(dp1847
g422
(i__main__
DelphiIdentAccess
p1848
(dp1849
g426
S'stream'
p1850
sg428
(lp1851
(idelphi
DelphiFieldEndAccess
p1852
(dp1853
g432
S'ReadString'
p1854
sba(idelphi
DelphiFunctionEndAccess
p1855
(dp1856
g436
(lp1857
(idelphi
DelphiIntegerValue
p1858
(dp1859
g441
S'1'
sbasbasbsg423
(i__main__
DelphiIdentAccess
p1860
(dp1861
g426
S'character'
p1862
sg428
(lp1863
sbsbsg1530
(idelphi
DelphiAddOp
p1864
(dp1865
g767
g1540
sg768
(idelphi
DelphiNestedExpressionListAccess
p1866
(dp1867
g428
(lp1868
sg436
(lp1869
(idelphi
DelphiRelOp
p1870
(dp1871
g622
(i__main__
DelphiIdentAccess
p1872
(dp1873
g426
S'character'
p1874
sg428
(lp1875
sbsg630
(idelphi
DelphiControlValue
p1876
(dp1877
g441
S'#10'
p1878
sbsg635
S'='
sbasbsg775
(idelphi
DelphiNestedExpressionListAccess
p1879
(dp1880
g428
(lp1881
sg436
(lp1882
(idelphi
DelphiRelOp
p1883
(dp1884
g622
(i__main__
DelphiIdentAccess
p1885
(dp1886
g426
S'character'
p1887
sg428
(lp1888
sbsg630
(idelphi
DelphiControlValue
p1889
(dp1890
g441
S'#13'
p1891
sbsg635
S'='
sbasbsbsbasbsg1530
(idelphi
DelphiRelOp
p1892
(dp1893
g622
(i__main__
DelphiIdentAccess
p1894
(dp1895
g426
S'character'
p1896
sg428
(lp1897
sbsg630
(idelphi
DelphiStringAccess
p1898
(dp1899
g428
(lp1900
sg441
(idelphi
DelphiStringValue
p1901
(dp1902
g441
S''
sbsbsg635
g659
sbsbasS'finallyStatements'
p1903
(lp1904
(i__main__
DelphiAssignStatement
p1905
(dp1906
g422
Nsg423
(i__main__
DelphiIdentAccess
p1907
(dp1908
g426
S'stream'
p1909
sg428
(lp1910
(idelphi
DelphiFieldEndAccess
p1911
(dp1912
g432
S'free'
p1913
sbasbsbasba(idelphi
DelphiIfStatement
p1914
(dp1915
g645
(idelphi
DelphiRelOp
p1916
(dp1917
g622
(i__main__
DelphiIdentAccess
p1918
(dp1919
g426
S'newRulesCommand'
p1920
sg428
(lp1921
(idelphi
DelphiFieldEndAccess
p1922
(dp1923
g432
S'rules'
p1924
sba(idelphi
DelphiFieldEndAccess
p1925
(dp1926
g432
S'count'
p1927
sbasbsg630
(idelphi
DelphiIntegerValue
p1928
(dp1929
g441
S'0'
sbsg635
S'>'
sbsg660
(i__main__
DelphiAssignStatement
p1930
(dp1931
g422
Nsg423
(i__main__
DelphiIdentAccess
p1932
(dp1933
g426
S'newRulesCommand'
p1934
sg428
(lp1935
(idelphi
DelphiFieldEndAccess
p1936
(dp1937
g432
S'free'
p1938
sbasbsbsg676
(i__main__
DelphiAssignStatement
p1939
(dp1940
g422
Nsg423
(i__main__
DelphiIdentAccess
p1941
(dp1942
g426
S'domain'
p1943
sg428
(lp1944
(idelphi
DelphiFieldEndAccess
p1945
(dp1946
g432
S'worldCommandList'
p1947
sba(idelphi
DelphiFieldEndAccess
p1948
(dp1949
g432
S'doCommand'
p1950
sba(idelphi
DelphiFunctionEndAccess
p1951
(dp1952
g436
(lp1953
(i__main__
DelphiIdentAccess
p1954
(dp1955
g426
S'newRulesCommand'
p1956
sg428
(lp1957
sbasbasbsbsba(i__main__
DelphiAssignStatement
p1958
(dp1959
g422
Nsg423
(i__main__
DelphiIdentAccess
p1960
(dp1961
g426
S'RuleEditorForm'
p1962
sg428
(lp1963
(idelphi
DelphiFieldEndAccess
p1964
(dp1965
g432
S'updateForRuleChange'
p1966
sbasbsba(i__main__
DelphiAssignStatement
p1967
(dp1968
g422
Nsg423
(i__main__
DelphiIdentAccess
p1969
(dp1970
g426
S'RuleEditorForm'
p1971
sg428
(lp1972
(idelphi
DelphiFieldEndAccess
p1973
(dp1974
g432
S'adjustScrollBars'
p1975
sbasbsba(i__main__
DelphiAssignStatement
p1976
(dp1977
g422
(i__main__
DelphiIdentAccess
p1978
(dp1979
g426
S'mrOK'
p1980
sg428
(lp1981
sbsg423
(i__main__
DelphiIdentAccess
p1982
(dp1983
g426
S'self'
p1984
sg428
(lp1985
(idelphi
DelphiFieldEndAccess
p1986
(dp1987
g432
S'modalResult'
p1988
sbasbsba(i__main__
DelphiAssignStatement
p1989
(dp1990
g422
(i__main__
DelphiIdentAccess
p1991
(dp1992
g426
S'true'
p1993
sg428
(lp1994
sbsg423
(i__main__
DelphiIdentAccess
p1995
(dp1996
g426
S'generated'
p1997
sg428
(lp1998
sbsbasbsg445
(lp1999
(i__main__
DelphiVarSection
p2000
(dp2001
g897
I0
sg898
(lp2002
(idelphi
DelphiVarDecl
p2003
(dp2004
g902
Nsg903
(lp2005
S'stream'
p2006
asg103
(i__main__
DelphiNamedType
p2007
(dp2008
g106
S'TStringStream'
p2009
sg108
g1
sg109
Nsbsba(idelphi
DelphiVarDecl
p2010
(dp2011
g902
Nsg903
(lp2012
S'line'
p2013
aS'previousContext'
p2014
aS'contextName'
p2015
aS'contextDescription'
p2016
aS'character'
p2017
asg103
(i__main__
DelphiPrimitiveType
p2018
(dp2019
g106
g441
sbsba(idelphi
DelphiVarDecl
p2020
(dp2021
g902
Nsg903
(lp2022
S'pipeRead'
p2023
asg103
(i__main__
DelphiPrimitiveType
p2024
(dp2025
g106
g170
sbsba(idelphi
DelphiVarDecl
p2026
(dp2027
g902
Nsg903
(lp2028
S'newRule'
p2029
asg103
(i__main__
DelphiNamedType
p2030
(dp2031
g106
S'TSRule'
p2032
sg108
g1
sg109
Nsbsba(idelphi
DelphiVarDecl
p2033
(dp2034
g902
Nsg903
(lp2035
S'position'
p2036
asg103
(i__main__
DelphiNamedType
p2037
(dp2038
g106
S'TPoint'
p2039
sg108
g1
sg109
Nsbsba(idelphi
DelphiVarDecl
p2040
(dp2041
g902
Nsg903
(lp2042
S'newRulesCommand'
p2043
asg103
(i__main__
DelphiNamedType
p2044
(dp2045
g106
S'TSNewRulesCommand'
p2046
sg108
g1
sg109
NsbsbasbasbsbssS'propertyDeclarations'
p2047
(dp2048
sS'variableNamesInDeclaredOrder'
p2049
(lp2050
g48
ag16
ag18
ag34
ag66
ag36
ag50
ag52
ag56
ag58
ag64
ag62
ag72
ag80
ag70
ag28
ag54
ag84
ag78
ag20
ag30
ag12
ag60
ag44
ag76
ag22
ag68
ag14
ag74
ag42
ag86
ag10
ag38
ag46
ag24
ag40
ag32
ag26
ag82
asba(i__main__
DelphiVarSection
p2051
(dp2052
g897
I1
sg898
(lp2053
(idelphi
DelphiVarDecl
p2054
(dp2055
g902
Nsg903
(lp2056
S'ContextWizardForm'
p2057
asg103
(i__main__
DelphiNamedType
p2058
(dp2059
g106
S'TContextWizardForm'
p2060
sg108
g1
sg109
Nsbsbasba(i__main__
DelphiConstSection
p2061
(dp2062
S'constDeclList'
p2063
(lp2064
(idelphi
DelphiConstDeclaration
p2065
(dp2066
g902
(idelphi
DelphiIntegerValue
p2067
(dp2068
g441
S'0'
sbsg426
S'kStartPage'
p2069
sg103
(idelphi
DelphiPrimitiveType
p2070
(dp2071
g106
S'UNDEFINED_NEEDS_CALCULATION'
p2072
sbsba(idelphi
DelphiConstDeclaration
p2073
(dp2074
g902
(idelphi
DelphiIntegerValue
p2075
(dp2076
g441
S'1'
sbsg426
S'kContextsPage'
p2077
sg103
(idelphi
DelphiPrimitiveType
p2078
(dp2079
g106
g2072
sbsba(idelphi
DelphiConstDeclaration
p2080
(dp2081
g902
(idelphi
DelphiIntegerValue
p2082
(dp2083
g441
S'2'
sbsg426
S'kDescriptionPage'
p2084
sg103
(idelphi
DelphiPrimitiveType
p2085
(dp2086
g106
g2072
sbsba(idelphi
DelphiConstDeclaration
p2087
(dp2088
g902
(idelphi
DelphiIntegerValue
p2089
(dp2090
g441
S'3'
sbsg426
S'kFinishPage'
p2091
sg103
(idelphi
DelphiPrimitiveType
p2092
(dp2093
g106
g2072
sbsbasg897
I1
sbasS'includedUnits'
p2094
NsS'implementationUses'
p2095
(lp2096
S'USDomain'
p2097
aS'USWorld'
p2098
aS'USRuleEditorForm'
p2099
aS'USConsoleForm'
p2100
aS'USCommands'
p2101
aS'USChangeLog'
p2102
asg87
S'uscontextwizard'
p2103
sS'constSections'
p2104
(lp2105
g2061
asS'globalsInProperCase'
p2106
NsS'interfaceUses'
p2107
(lp2108
S'delphi_compatability'
p2109
aS'Windows'
p2110
aS'Messages'
p2111
aS'SysUtils'
p2112
aS'Classes'
p2113
aS'Graphics'
p2114
aS'Controls'
p2115
aS'Forms'
p2116
aS'Dialogs'
p2117
aS'StdCtrls'
p2118
aS'ExtCtrls'
p2119
asS'finalCommentToken'
p2120
(i__main__
PassStatement
p2121
(dp2122
g445
(lp2123
sg192
(lp2124
S'with forwardEdit do\r'
p2125
aS'  if enabled then color := clWindow else color := clBtnFace;\r'
p2126
asbsS'varSections'
p2127
(lp2128
g2051
asS'globals'
p2129
NsS'originalFileName'
p2130
S'../../storyharp-js/converted_source/uscontextwizard.pas'
p2131
sS'proceduralImplementations'
p2132
(dp2133
sS'fileName'
p2134
S'/home/pdfernhout/workspace/storyharp-js/converted_source/uscontextwizard.pas'
p2135
sS'proceduralDeclarations'
p2136
(dp2137
sS'types'
p2138
(dp2139
S'tcontextwizardform'
p2140
g5
ssb.