(i__main__
DelphiUnit
p1
(dp2
S'sectionsInOrderDefined'
p3
(lp4
(i__main__
DelphiRecord
p5
(dp6
S'variableNamesInDeclaredOrder'
p7
(lp8
S'extraMediaDirectory'
p9
aS'logFileName'
p10
aS'agentCharacterFileName'
p11
aS'mostRecentSession'
p12
aS'mostRecentWorld'
p13
aS'playerSpeak'
p14
aS'playerPlaySounds'
p15
aS'playerPlayMusic'
p16
aS'showTranscript'
p17
aS'showPictures'
p18
aS'sayOptionsAfterLook'
p19
aS'useVoiceToUndo'
p20
aS'useVoiceToRedo'
p21
aS'showVariables'
p22
aS'updateEditorAfterCommandDone'
p23
aS'playerFontSize'
p24
aS'playerFontName'
p25
aS'suppressAgentNotPresentWarning'
p26
aS'selectedItemColor'
p27
aS'selectedTextColor'
p28
aS'commandTextColorInMap'
p29
aS'showCommandsInMap'
p30
aS'showCommandPrefixInMap'
p31
aS'tableFontName'
p32
aS'mapFontName'
p33
aS'browserFontName'
p34
aS'tableFontSize'
p35
aS'mapFontSize'
p36
aS'browserFontSize'
p37
aS'showRuleEditor'
p38
aS'showButtonBar'
p39
aS'browseBy'
p40
aS'pageShowing'
p41
aS'buttonSymbols'
p42
aS'consoleWindowRect'
p43
aS'editorWindowRect'
p44
aS'logFileWindowRect'
p45
aS'consoleBottomHeight'
p46
aS'consoleRightWidth'
p47
aS'editorPanelEditorHeight'
p48
aS'editorPanelRequirementsChangesHeight'
p49
aS'editorPanelFirstListWidth'
p50
aS'pictureWindowRect'
p51
asS'variableNamesInProperCase'
p52
(dp53
S'playerplaysounds'
p54
g15
sS'editorpaneleditorheight'
p55
g48
sS'picturewindowrect'
p56
g51
sS'logfilewindowrect'
p57
g45
sS'consolewindowrect'
p58
g43
sS'showcommandprefixinmap'
p59
g31
sS'mapfontsize'
p60
g36
sS'logfilename'
p61
g10
sS'selecteditemcolor'
p62
g27
sS'consolerightwidth'
p63
g47
sS'extramediadirectory'
p64
g9
sS'showvariables'
p65
g22
sS'usevoicetoredo'
p66
g21
sS'tablefontname'
p67
g32
sS'buttonsymbols'
p68
g42
sS'editorpanelrequirementschangesheight'
p69
g49
sS'editorpanelfirstlistwidth'
p70
g50
sS'updateeditoraftercommanddone'
p71
g23
sS'editorwindowrect'
p72
g44
sS'suppressagentnotpresentwarning'
p73
g26
sS'consolebottomheight'
p74
g46
sS'usevoicetoundo'
p75
g20
sS'showpictures'
p76
g18
sS'commandtextcolorinmap'
p77
g29
sS'browseby'
p78
g40
sS'browserfontname'
p79
g34
sS'showcommandsinmap'
p80
g30
sS'showtranscript'
p81
g17
sS'agentcharacterfilename'
p82
g11
sS'playerplaymusic'
p83
g16
sS'mapfontname'
p84
g33
sS'sayoptionsafterlook'
p85
g19
sS'showbuttonbar'
p86
g39
sS'playerspeak'
p87
g14
sS'selectedtextcolor'
p88
g28
sS'playerfontname'
p89
g25
sS'tablefontsize'
p90
g35
sS'mostrecentworld'
p91
g13
sS'showruleeditor'
p92
g38
sS'mostrecentsession'
p93
g12
sS'browserfontsize'
p94
g37
sS'pageshowing'
p95
g41
sS'playerfontsize'
p96
g24
ssS'commentLinesBefore'
p97
(lp98
S' files\r'
p99
asS'name'
p100
S'DomainOptionsStructure'
p101
sS'variableNames'
p102
(dp103
S'playerplaysounds'
p104
(i__main__
DelphiPrimitiveType
p105
(dp106
S'typeName'
p107
S'boolean'
p108
sbsS'editorpaneleditorheight'
p109
(i__main__
DelphiPrimitiveType
p110
(dp111
g107
S'integer'
p112
sbsS'picturewindowrect'
p113
(i__main__
DelphiNamedType
p114
(dp115
g107
S'TRect'
p116
sS'unitDefinedIn'
p117
g1
sS'unitName'
p118
NsbsS'logfilewindowrect'
p119
(i__main__
DelphiNamedType
p120
(dp121
g107
S'TRect'
p122
sg117
g1
sg118
NsbsS'consolewindowrect'
p123
g120
sS'showcommandprefixinmap'
p124
(i__main__
DelphiPrimitiveType
p125
(dp126
g107
g108
sbsS'mapfontsize'
p127
(i__main__
DelphiPrimitiveType
p128
(dp129
g107
S'smallint'
p130
sbsS'logfilename'
p131
(i__main__
DelphiPrimitiveType
p132
(dp133
g107
S'string'
p134
sbsS'selecteditemcolor'
p135
(i__main__
DelphiNamedType
p136
(dp137
g107
S'TColor'
p138
sg117
g1
sg118
NsbsS'consolerightwidth'
p139
(i__main__
DelphiPrimitiveType
p140
(dp141
g107
g112
sbsS'extramediadirectory'
p142
g132
sS'showvariables'
p143
(i__main__
DelphiPrimitiveType
p144
(dp145
g107
g108
sbsS'usevoicetoredo'
p146
(i__main__
DelphiPrimitiveType
p147
(dp148
g107
g108
sbsS'tablefontname'
p149
(i__main__
DelphiPrimitiveType
p150
(dp151
g107
g134
sbsS'buttonsymbols'
p152
(i__main__
DelphiPrimitiveType
p153
(dp154
g107
g108
sbsS'editorpanelrequirementschangesheight'
p155
g110
sS'editorpanelfirstlistwidth'
p156
(i__main__
DelphiPrimitiveType
p157
(dp158
g107
g112
sbsS'updateeditoraftercommanddone'
p159
g144
sS'editorwindowrect'
p160
g120
sS'suppressagentnotpresentwarning'
p161
(i__main__
DelphiPrimitiveType
p162
(dp163
g107
g108
sbsS'consolebottomheight'
p164
g140
sS'usevoicetoundo'
p165
g147
sS'showpictures'
p166
g105
sS'commandtextcolorinmap'
p167
g136
sS'browseby'
p168
(i__main__
DelphiPrimitiveType
p169
(dp170
g107
g130
sbsS'browserfontname'
p171
g150
sS'showcommandsinmap'
p172
g125
sS'showtranscript'
p173
g105
sS'agentcharacterfilename'
p174
g132
sS'playerplaymusic'
p175
g105
sS'mapfontname'
p176
g150
sS'sayoptionsafterlook'
p177
g147
sS'showbuttonbar'
p178
(i__main__
DelphiPrimitiveType
p179
(dp180
g107
g108
sbsS'playerspeak'
p181
g105
sS'selectedtextcolor'
p182
g136
sS'playerfontname'
p183
(i__main__
DelphiPrimitiveType
p184
(dp185
g107
g134
sbsS'tablefontsize'
p186
g128
sS'mostrecentworld'
p187
(i__main__
DelphiPrimitiveType
p188
(dp189
g107
g134
sbsS'showruleeditor'
p190
g179
sS'mostrecentsession'
p191
g188
sS'browserfontsize'
p192
g128
sS'pageshowing'
p193
(i__main__
DelphiPrimitiveType
p194
(dp195
g107
g130
sbsS'playerfontsize'
p196
(i__main__
DelphiPrimitiveType
p197
(dp198
g107
g130
sbssba(i__main__
DelphiConstSection
p199
(dp200
S'constDeclList'
p201
(lp202
(idelphi
DelphiConstDeclaration
p203
(dp204
S'constExpression'
p205
(idelphi
DelphiIntegerValue
p206
(dp207
g134
S'40'
p208
sbsS'ident'
p209
S'kMinWidthOnScreen'
p210
sS'theType'
p211
(idelphi
DelphiPrimitiveType
p212
(dp213
g107
S'UNDEFINED_NEEDS_CALCULATION'
p214
sbsba(idelphi
DelphiConstDeclaration
p215
(dp216
g205
(idelphi
DelphiIntegerValue
p217
(dp218
g134
S'20'
p219
sbsg209
S'kMinHeightOnScreen'
p220
sg211
(idelphi
DelphiPrimitiveType
p221
(dp222
g107
g214
sbsba(idelphi
DelphiConstDeclaration
p223
(dp224
g205
(idelphi
DelphiStringAccess
p225
(dp226
S'endAccessList'
p227
(lp228
sg134
(idelphi
DelphiStringValue
p229
(dp230
g134
S'StoryHarp.log'
p231
sbsbsg209
S'kDefaultLogFileName'
p232
sg211
(idelphi
DelphiPrimitiveType
p233
(dp234
g107
g214
sbsba(idelphi
DelphiConstDeclaration
p235
(dp236
g205
(idelphi
DelphiIntegerValue
p237
(dp238
g134
S'0'
sbsg209
S'kPageTable'
p239
sg211
(idelphi
DelphiPrimitiveType
p240
(dp241
g107
g214
sbsba(idelphi
DelphiConstDeclaration
p242
(dp243
g205
(idelphi
DelphiIntegerValue
p244
(dp245
g134
S'1'
sbsg209
S'kPageMap'
p246
sg211
(idelphi
DelphiPrimitiveType
p247
(dp248
g107
g214
sbsba(idelphi
DelphiConstDeclaration
p249
(dp250
g205
(idelphi
DelphiIntegerValue
p251
(dp252
g134
S'2'
sbsg209
S'kPageBrowser'
p253
sg211
(idelphi
DelphiPrimitiveType
p254
(dp255
g107
g214
sbsba(idelphi
DelphiConstDeclaration
p256
(dp257
g205
(idelphi
DelphiStringAccess
p258
(dp259
g227
(lp260
sg134
(idelphi
DelphiStringValue
p261
(dp262
g134
S'StoryHarp.acs'
p263
sbsbsg209
S'kDefaultAgentCharacterFileName'
p264
sg211
(idelphi
DelphiPrimitiveType
p265
(dp266
g107
g214
sbsba(idelphi
DelphiConstDeclaration
p267
(dp268
g205
(idelphi
DelphiStringAccess
p269
(dp270
g227
(lp271
sg134
(idelphi
DelphiStringValue
p272
(dp273
g134
S'StoryHarp.ini'
p274
sbsbsg209
S'kDefaultIniFileName'
p275
sg211
(idelphi
DelphiPrimitiveType
p276
(dp277
g107
g214
sbsba(idelphi
DelphiConstDeclaration
p278
(dp279
g205
(idelphi
DelphiIntegerValue
p280
(dp281
g134
S'1'
sbsg209
S'kEncryptingMultiplierForAccumulatedUnregisteredTime'
p282
sg211
(idelphi
DelphiPrimitiveType
p283
(dp284
g107
g214
sbsba(idelphi
DelphiConstDeclaration
p285
(dp286
g205
(idelphi
DelphiStringAccess
p287
(dp288
g227
(lp289
sg134
(idelphi
DelphiStringValue
p290
(dp291
g134
S'Time scale fraction'
p292
sbsbsg209
S'kKeyForAccumulatedUnregisteredTime'
p293
sg211
(idelphi
DelphiPrimitiveType
p294
(dp295
g107
g214
sbsbasS'atTopLevel'
p296
I1
sba(i__main__
DelphiClass
p297
(dp298
g52
(dp299
S'accumulatedunregisteredtime'
p300
S'accumulatedUnregisteredTime'
p301
sS'sessionorworldstartupfilename'
p302
S'sessionOrWorldStartupFileName'
p303
sS'worldcommandlist'
p304
S'worldCommandList'
p305
sS'playeronly'
p306
S'playerOnly'
p307
sS'sessioncommandlist'
p308
S'sessionCommandList'
p309
sS'registered'
p310
S'registered'
p311
sS'justregistered'
p312
S'justRegistered'
p313
sS'starttimethissession'
p314
S'startTimeThisSession'
p315
sS'worldfilename'
p316
S'worldFileName'
p317
sS'useinifile'
p318
S'useIniFile'
p319
sS'isworldfileloaded'
p320
S'isWorldFileLoaded'
p321
sS'sessionchangecount'
p322
S'sessionChangeCount'
p323
sS'sessionfilename'
p324
S'sessionFileName'
p325
sS'registrationname'
p326
S'registrationName'
p327
sS'worldchangecount'
p328
S'worldChangeCount'
p329
sS'registrationcode'
p330
S'registrationCode'
p331
sS'world'
p332
S'world'
p333
sS'mapview'
p334
S'mapView'
p335
sS'options'
p336
S'options'
p337
sS'inifilename'
p338
S'iniFileName'
p339
sS'changelock'
p340
S'changeLock'
p341
ssg100
S'TSDomain'
p342
sS'methodDeclarations'
p343
(dp344
S'saveworld'
p345
(i__main__
DelphiMethodDeclaration
p346
(dp347
g100
S'saveWorld'
p348
sS'formalParameters'
p349
(lp350
(i__main__
DelphiFormalParameter
p351
(dp352
S'initialValue'
p353
NsS'names'
p354
(lp355
S'fileName'
p356
asg211
(i__main__
DelphiPrimitiveType
p357
(dp358
g107
g134
sbsS'parameterVariety'
p359
NsbasS'className'
p360
g342
sS'resultType'
p361
NsS'isClassMethod'
p362
I0
sS'methodType'
p363
S'procedure'
p364
sbsS'windowsdirectory'
p365
(i__main__
DelphiMethodDeclaration
p366
(dp367
g100
S'windowsDirectory'
p368
sg349
(lp369
sg360
g342
sg361
(i__main__
DelphiPrimitiveType
p370
(dp371
g107
g134
sbsg362
I0
sg363
S'function'
p372
sbsS'loadsession'
p373
(i__main__
DelphiMethodDeclaration
p374
(dp375
g100
S'loadSession'
p376
sg349
(lp377
(i__main__
DelphiFormalParameter
p378
(dp379
g353
Nsg354
(lp380
S'fileName'
p381
asg211
(i__main__
DelphiPrimitiveType
p382
(dp383
g107
g134
sbsg359
Nsbasg360
g342
sg361
Nsg362
I0
sg363
g364
sbsS'loadworld'
p384
(i__main__
DelphiMethodDeclaration
p385
(dp386
g100
S'loadWorld'
p387
sg349
(lp388
(i__main__
DelphiFormalParameter
p389
(dp390
g353
Nsg354
(lp391
S'fileName'
p392
asg211
(i__main__
DelphiPrimitiveType
p393
(dp394
g107
g134
sbsg359
Nsbasg360
g342
sg361
Nsg362
I0
sg363
g364
sbsS'worldchangedone'
p395
(i__main__
DelphiMethodDeclaration
p396
(dp397
g100
S'worldChangeDone'
p398
sg349
(lp399
sg360
g342
sg361
Nsg362
I0
sg363
g364
sbsS'storeprofileinformation'
p400
(i__main__
DelphiMethodDeclaration
p401
(dp402
g100
S'storeProfileInformation'
p403
sg349
(lp404
sg360
g342
sg361
Nsg362
I0
sg363
g364
sbsS'worldchangeundone'
p405
(i__main__
DelphiMethodDeclaration
p406
(dp407
g100
S'worldChangeUndone'
p408
sg349
(lp409
sg360
g342
sg361
Nsg362
I0
sg363
g364
sbsS'endupdate'
p410
(i__main__
DelphiMethodDeclaration
p411
(dp412
g100
S'endUpdate'
p413
sg349
(lp414
sg360
g342
sg361
Nsg362
I0
sg363
g364
sbsS'resetworldchangecount'
p415
(i__main__
DelphiMethodDeclaration
p416
(dp417
g100
S'resetWorldChangeCount'
p418
sg349
(lp419
sg360
g342
sg361
Nsg362
I0
sg363
g364
sbsS'create'
p420
(i__main__
DelphiMethodDeclaration
p421
(dp422
g100
S'create'
p423
sg349
(lp424
sg360
g342
sg361
Nsg362
I0
sg363
S'constructor'
p425
sbsS'newsession'
p426
(i__main__
DelphiMethodDeclaration
p427
(dp428
g100
S'newSession'
p429
sg349
(lp430
sg360
g342
sg361
Nsg362
I0
sg363
g364
sbsS'loadini'
p431
(i__main__
DelphiMethodDeclaration
p432
(dp433
g100
S'loadIni'
p434
sg349
(lp435
(i__main__
DelphiFormalParameter
p436
(dp437
g353
Nsg354
(lp438
S'section'
p439
asg211
(i__main__
DelphiPrimitiveType
p440
(dp441
g107
g134
sbsg359
S'const'
p442
sba(i__main__
DelphiFormalParameter
p443
(dp444
g353
Nsg354
(lp445
S'theField'
p446
asg211
(i__main__
DelphiPrimitiveType
p447
(dp448
g107
g134
sbsg359
g442
sba(i__main__
DelphiFormalParameter
p449
(dp450
g353
Nsg354
(lp451
S'theDefault'
p452
asg211
(i__main__
DelphiPrimitiveType
p453
(dp454
g107
g134
sbsg359
g442
sbasg360
g342
sg361
(i__main__
DelphiPrimitiveType
p455
(dp456
g107
g134
sbsg362
I0
sg363
g372
sbsS'savesession'
p457
(i__main__
DelphiMethodDeclaration
p458
(dp459
g100
S'saveSession'
p460
sg349
(lp461
(i__main__
DelphiFormalParameter
p462
(dp463
g353
Nsg354
(lp464
S'fileName'
p465
asg211
(i__main__
DelphiPrimitiveType
p466
(dp467
g107
g134
sbsg359
Nsbasg360
g342
sg361
Nsg362
I0
sg363
g364
sbsS'defaultoptions'
p468
(i__main__
DelphiMethodDeclaration
p469
(dp470
g100
S'defaultOptions'
p471
sg349
(lp472
sg360
g342
sg361
Nsg362
I0
sg363
g364
sbsS'loadfileatstartupandinitializeforms'
p473
(i__main__
DelphiMethodDeclaration
p474
(dp475
g100
S'loadFileAtStartupAndInitializeForms'
p476
sg349
(lp477
sg360
g342
sg361
Nsg362
I0
sg363
g364
sbsS'getprofileinformation'
p478
(i__main__
DelphiMethodDeclaration
p479
(dp480
g100
S'getProfileInformation'
p481
sg349
(lp482
sg360
g342
sg361
Nsg362
I0
sg363
g364
sbsS'isworldfilechanged'
p483
(i__main__
DelphiMethodDeclaration
p484
(dp485
g100
S'isWorldFileChanged'
p486
sg349
(lp487
sg360
g342
sg361
(i__main__
DelphiPrimitiveType
p488
(dp489
g107
g108
sbsg362
I0
sg363
g372
sbsS'destroy'
p490
(i__main__
DelphiMethodDeclaration
p491
(dp492
g100
S'destroy'
p493
sg349
(lp494
sg360
g342
sg361
Nsg362
I0
sg363
S'destructor'
p495
sbsS'readinifile'
p496
(i__main__
DelphiMethodDeclaration
p497
(dp498
g100
S'readIniFile'
p499
sg349
(lp500
sg360
g342
sg361
Nsg362
I0
sg363
g364
sbsS'beginupdate'
p501
(i__main__
DelphiMethodDeclaration
p502
(dp503
g100
S'beginUpdate'
p504
sg349
(lp505
sg360
g342
sg361
Nsg362
I0
sg363
g364
sbsS'readcommandline'
p506
(i__main__
DelphiMethodDeclaration
p507
(dp508
g100
S'readCommandLine'
p509
sg349
(lp510
sg360
g342
sg361
Nsg362
I0
sg363
g364
sbsS'newworld'
p511
(i__main__
DelphiMethodDeclaration
p512
(dp513
g100
S'newWorld'
p514
sg349
(lp515
sg360
g342
sg361
Nsg362
I0
sg363
g364
sbsS'ignorechanges'
p516
(i__main__
DelphiMethodDeclaration
p517
(dp518
g100
S'ignoreChanges'
p519
sg349
(lp520
sg360
g342
sg361
(i__main__
DelphiPrimitiveType
p521
(dp522
g107
g108
sbsg362
I0
sg363
g372
sbsS'mergeworld'
p523
(i__main__
DelphiMethodDeclaration
p524
(dp525
g100
S'mergeWorld'
p526
sg349
(lp527
(i__main__
DelphiFormalParameter
p528
(dp529
g353
Nsg354
(lp530
S'fileName'
p531
asg211
(i__main__
DelphiPrimitiveType
p532
(dp533
g107
g134
sbsg359
Nsbasg360
g342
sg361
Nsg362
I0
sg363
g364
sbsS'setformsize'
p534
(i__main__
DelphiMethodDeclaration
p535
(dp536
g100
S'setFormSize'
p537
sg349
(lp538
(i__main__
DelphiFormalParameter
p539
(dp540
g353
Nsg354
(lp541
S'aForm'
p542
asg211
(i__main__
DelphiNamedType
p543
(dp544
g107
S'TForm'
p545
sg117
g1
sg118
Nsbsg359
Nsba(i__main__
DelphiFormalParameter
p546
(dp547
g353
Nsg354
(lp548
S'newRect'
p549
asg211
(i__main__
DelphiNamedType
p550
(dp551
g107
S'TRect'
p552
sg117
g1
sg118
Nsbsg359
Nsbasg360
g342
sg361
Nsg362
I0
sg363
g364
sbsS'issessionfilechanged'
p553
(i__main__
DelphiMethodDeclaration
p554
(dp555
g100
S'isSessionFileChanged'
p556
sg349
(lp557
sg360
g342
sg361
(i__main__
DelphiPrimitiveType
p558
(dp559
g107
g108
sbsg362
I0
sg363
g372
sbssS'superclassNamedTypes'
p560
(lp561
(i__main__
DelphiNamedType
p562
(dp563
g107
S'TObject'
p564
sg117
g1
sg118
Nsbasg102
(dp565
S'accumulatedunregisteredtime'
p566
(i__main__
DelphiNamedType
p567
(dp568
g107
S'TDateTime'
p569
sg117
g1
sg118
NsbsS'sessionorworldstartupfilename'
p570
(i__main__
DelphiPrimitiveType
p571
(dp572
g107
g134
sbsS'worldcommandlist'
p573
(i__main__
DelphiNamedType
p574
(dp575
g107
S'TSCommandList'
p576
sg117
g1
sg118
NsbsS'playeronly'
p577
(i__main__
DelphiPrimitiveType
p578
(dp579
g107
g108
sbsS'sessioncommandlist'
p580
(i__main__
DelphiNamedType
p581
(dp582
g107
S'TSCommandList'
p583
sg117
g1
sg118
NsbsS'registered'
p584
(i__main__
DelphiPrimitiveType
p585
(dp586
g107
g108
sbsS'justregistered'
p587
(i__main__
DelphiPrimitiveType
p588
(dp589
g107
g108
sbsS'starttimethissession'
p590
(i__main__
DelphiNamedType
p591
(dp592
g107
S'TDateTime'
p593
sg117
g1
sg118
NsbsS'worldfilename'
p594
(i__main__
DelphiPrimitiveType
p595
(dp596
g107
g134
sbsS'useinifile'
p597
(i__main__
DelphiPrimitiveType
p598
(dp599
g107
g108
sbsS'isworldfileloaded'
p600
(i__main__
DelphiPrimitiveType
p601
(dp602
g107
g108
sbsS'sessionchangecount'
p603
(i__main__
DelphiPrimitiveType
p604
(dp605
g107
g112
sbsS'sessionfilename'
p606
(i__main__
DelphiPrimitiveType
p607
(dp608
g107
g134
sbsS'registrationname'
p609
(i__main__
DelphiPrimitiveType
p610
(dp611
g107
g134
sbsS'worldchangecount'
p612
(i__main__
DelphiPrimitiveType
p613
(dp614
g107
g112
sbsS'registrationcode'
p615
(i__main__
DelphiPrimitiveType
p616
(dp617
g107
g134
sbsS'world'
p618
(i__main__
DelphiNamedType
p619
(dp620
g107
S'TWorld'
p621
sg117
g1
sg118
NsbsS'mapview'
p622
(i__main__
DelphiNamedType
p623
(dp624
g107
S'TSMapView'
p625
sg117
g1
sg118
NsbsS'options'
p626
(i__main__
DelphiNamedType
p627
(dp628
g107
S'DomainOptionsStructure'
p629
sg117
g1
sg118
NsbsS'inifilename'
p630
(i__main__
DelphiPrimitiveType
p631
(dp632
g107
g134
sbsS'changelock'
p633
(i__main__
DelphiPrimitiveType
p634
(dp635
g107
g112
sbssS'methodNamesInDefinedOrder'
p636
(lp637
S'create'
p638
aS'destroy'
p639
aS'readcommandline'
p640
aS'readinifile'
p641
aS'loadfileatstartupandinitializeforms'
p642
aS'storeprofileinformation'
p643
aS'getprofileinformation'
p644
aS'defaultoptions'
p645
aS'windowsdirectory'
p646
aS'loadini'
p647
aS'setformsize'
p648
aS'newworld'
p649
aS'newsession'
p650
aS'loadsession'
p651
aS'savesession'
p652
aS'issessionfilechanged'
p653
aS'loadworld'
p654
aS'mergeworld'
p655
aS'saveworld'
p656
aS'isworldfilechanged'
p657
aS'beginupdate'
p658
aS'endupdate'
p659
aS'ignorechanges'
p660
aS'resetworldchangecount'
p661
aS'worldchangedone'
p662
aS'worldchangeundone'
p663
asS'methodImplementations'
p664
(dp665
S'windowsdirectory'
p666
(i__main__
DelphiMethodImplementation
p667
(dp668
S'originalDeclaration'
p669
g366
sg100
g368
sg349
(lp670
sS'varParamIndexes'
p671
(lp672
sS'varParamsSkipped'
p673
(lp674
sS'argNames'
p675
(lp676
S'self'
p677
asS'argTypes'
p678
(dp679
sg360
S'TSDomain'
p680
sg361
(i__main__
DelphiPrimitiveType
p681
(dp682
g107
g134
sbsS'varParamNames'
p683
(lp684
sg362
I0
sg363
g372
sS'block'
p685
(i__main__
DelphiBlock
p686
(dp687
S'compoundStatement'
p688
(idelphi
DelphiCompoundStatement
p689
(dp690
S'statements'
p691
(lp692
(i__main__
DelphiAssignStatement
p693
(dp694
S'newValueExpression'
p695
(idelphi
DelphiStringAccess
p696
(dp697
g227
(lp698
sg134
(idelphi
DelphiStringValue
p699
(dp700
g134
S''
sbsbsS'destinationExpression'
p701
(i__main__
DelphiIdentAccess
p702
(dp703
g209
S'result'
p704
sg227
(lp705
sbsba(i__main__
DelphiAssignStatement
p706
(dp707
g695
Nsg701
(i__main__
DelphiIdentAccess
p708
(dp709
g209
S'getWindowsDirectory'
p710
sg227
(lp711
(idelphi
DelphiFunctionEndAccess
p712
(dp713
S'expressionList'
p714
(lp715
(i__main__
DelphiIdentAccess
p716
(dp717
g209
S'cString'
p718
sg227
(lp719
sba(idelphi
DelphiIntegerValue
p720
(dp721
g134
S'256'
p722
sbasbasbsba(i__main__
DelphiAssignStatement
p723
(dp724
g695
(i__main__
DelphiIdentAccess
p725
(dp726
g209
S'strPas'
p727
sg227
(lp728
(idelphi
DelphiFunctionEndAccess
p729
(dp730
g714
(lp731
(i__main__
DelphiIdentAccess
p732
(dp733
g209
S'cString'
p734
sg227
(lp735
sbasbasbsg701
(i__main__
DelphiIdentAccess
p736
(dp737
g209
S'result'
p738
sg227
(lp739
sbsbasbsS'limitedDeclSectionList'
p740
(lp741
(i__main__
DelphiVarSection
p742
(dp743
g296
I0
sS'varDeclList'
p744
(lp745
(idelphi
DelphiVarDecl
p746
(dp747
g205
NsS'identList'
p748
(lp749
S'cString'
p750
asg211
(i__main__
DelphiArrayType
p751
(dp752
g211
(i__main__
DelphiPrimitiveType
p753
(dp754
g107
S'char'
p755
sbsS'sizes'
p756
(lp757
(idelphi
DelphiSubrange
p758
(dp759
S'high'
p760
(idelphi
DelphiIntegerValue
p761
(dp762
g134
S'255'
p763
sbsS'low'
p764
(idelphi
DelphiIntegerValue
p765
(dp766
g134
S'0'
sbsg100
S''
sbasbsbasbasbsbsS'saveworld'
p767
(i__main__
DelphiMethodImplementation
p768
(dp769
g669
g346
sg100
g348
sg349
(lp770
(i__main__
DelphiFormalParameter
p771
(dp772
g353
Nsg354
(lp773
S'fileName'
p774
asg211
(i__main__
DelphiPrimitiveType
p775
(dp776
g107
g134
sbsg359
Nsbasg671
(lp777
sg673
(lp778
sg675
(lp779
g677
ag774
asg678
(dp780
g774
g775
ssg360
S'TSDomain'
p781
sg361
Nsg683
(lp782
sg362
I0
sg363
g364
sg685
(i__main__
DelphiBlock
p783
(dp784
g688
(idelphi
DelphiCompoundStatement
p785
(dp786
g691
(lp787
(i__main__
DelphiAssignStatement
p788
(dp789
g695
Nsg701
(i__main__
DelphiIdentAccess
p790
(dp791
g209
S'world'
p792
sg227
(lp793
(idelphi
DelphiFieldEndAccess
p794
(dp795
S'field'
p796
S'saveWorldToFile'
p797
sba(idelphi
DelphiFunctionEndAccess
p798
(dp799
g714
(lp800
(i__main__
DelphiIdentAccess
p801
(dp802
g209
S'fileName'
p803
sg227
(lp804
sba(i__main__
DelphiIdentAccess
p805
(dp806
g209
S'kSaveAllRules'
p807
sg227
(lp808
sbasbasbsbasbsg740
(lp809
sbsbsS'loadsession'
p810
(i__main__
DelphiMethodImplementation
p811
(dp812
g669
g374
sg100
g376
sg349
(lp813
(i__main__
DelphiFormalParameter
p814
(dp815
g353
Nsg354
(lp816
S'fileName'
p817
asg211
(i__main__
DelphiPrimitiveType
p818
(dp819
g107
g134
sbsg359
Nsbasg671
(lp820
sg673
(lp821
sg675
(lp822
g677
ag817
asg678
(dp823
g817
g818
ssg360
S'TSDomain'
p824
sg361
Nsg683
(lp825
sg362
I0
sg363
g364
sg685
(i__main__
DelphiBlock
p826
(dp827
g688
(idelphi
DelphiCompoundStatement
p828
(dp829
g691
(lp830
(i__main__
DelphiAssignStatement
p831
(dp832
g695
Nsg701
(i__main__
DelphiIdentAccess
p833
(dp834
g209
S'sessionCommandList'
p835
sg227
(lp836
(idelphi
DelphiFieldEndAccess
p837
(dp838
g796
S'clear'
p839
sbasbsba(i__main__
DelphiAssignStatement
p840
(dp841
g695
(i__main__
DelphiIdentAccess
p842
(dp843
g209
S'fileName'
p844
sg227
(lp845
sbsg701
(i__main__
DelphiIdentAccess
p846
(dp847
g209
S'sessionFileName'
p848
sg227
(lp849
sbsba(i__main__
DelphiAssignStatement
p850
(dp851
g695
(idelphi
DelphiIntegerValue
p852
(dp853
g134
S'0'
sbsg701
(i__main__
DelphiIdentAccess
p854
(dp855
g209
S'sessionChangeCount'
p856
sg227
(lp857
sbsba(idelphi
DelphiIfStatement
p858
(dp859
S'expression'
p860
(i__main__
DelphiIdentAccess
p861
(dp862
g209
S'world'
p863
sg227
(lp864
(idelphi
DelphiFieldEndAccess
p865
(dp866
g796
S'loadSessionFromFile'
p867
sba(idelphi
DelphiFunctionEndAccess
p868
(dp869
g714
(lp870
(i__main__
DelphiIdentAccess
p871
(dp872
g209
S'fileName'
p873
sg227
(lp874
sba(i__main__
DelphiIdentAccess
p875
(dp876
g209
S'ExtractFileName'
p877
sg227
(lp878
(idelphi
DelphiFunctionEndAccess
p879
(dp880
g714
(lp881
(i__main__
DelphiIdentAccess
p882
(dp883
g209
S'worldfileName'
p884
sg227
(lp885
sbasbasbasbasbsS'ifFalseStatement'
p886
NsS'ifTrueStatement'
p887
(idelphi
DelphiCompoundStatement
p888
(dp889
g691
(lp890
(i__main__
DelphiAssignStatement
p891
(dp892
g695
(i__main__
DelphiIdentAccess
p893
(dp894
g209
S'worldfileName'
p895
sg227
(lp896
sbsg701
(i__main__
DelphiIdentAccess
p897
(dp898
g209
S'options'
p899
sg227
(lp900
(idelphi
DelphiFieldEndAccess
p901
(dp902
g796
S'mostRecentWorld'
p903
sbasbsba(i__main__
DelphiAssignStatement
p904
(dp905
g695
(i__main__
DelphiIdentAccess
p906
(dp907
g209
S'fileName'
p908
sg227
(lp909
sbsg701
(i__main__
DelphiIdentAccess
p910
(dp911
g209
S'options'
p912
sg227
(lp913
(idelphi
DelphiFieldEndAccess
p914
(dp915
g796
S'mostRecentSession'
p916
sbasbsbasbsbasbsg740
(lp917
sbsbsS'loadworld'
p918
(i__main__
DelphiMethodImplementation
p919
(dp920
g669
g385
sg100
g387
sg349
(lp921
(i__main__
DelphiFormalParameter
p922
(dp923
g353
Nsg354
(lp924
S'fileName'
p925
asg211
(i__main__
DelphiPrimitiveType
p926
(dp927
g107
g134
sbsg359
Nsbasg671
(lp928
sg673
(lp929
sg675
(lp930
g677
ag925
asg678
(dp931
g925
g926
ssg360
S'TSDomain'
p932
sg361
Nsg683
(lp933
sg362
I0
sg363
g364
sg685
(i__main__
DelphiBlock
p934
(dp935
g688
(idelphi
DelphiCompoundStatement
p936
(dp937
g691
(lp938
(i__main__
DelphiAssignStatement
p939
(dp940
g695
Nsg701
(i__main__
DelphiIdentAccess
p941
(dp942
g209
S'sessionCommandList'
p943
sg227
(lp944
(idelphi
DelphiFieldEndAccess
p945
(dp946
g796
S'clear'
p947
sbasbsba(i__main__
DelphiAssignStatement
p948
(dp949
g695
(idelphi
DelphiAddOp
p950
(dp951
S'addOp'
p952
S'+'
sS'term2'
p953
(i__main__
DelphiIdentAccess
p954
(dp955
g209
S'kSessionExtension'
p956
sg227
(lp957
sbsS'term1'
p958
(idelphi
DelphiAddOp
p959
(dp960
g952
S'+'
sg953
(idelphi
DelphiStringAccess
p961
(dp962
g227
(lp963
sg134
(idelphi
DelphiStringValue
p964
(dp965
g134
S'.'
sbsbsg958
(i__main__
DelphiIdentAccess
p966
(dp967
g209
S'kUnsavedSessionFileName'
p968
sg227
(lp969
sbsbsbsg701
(i__main__
DelphiIdentAccess
p970
(dp971
g209
S'sessionFileName'
p972
sg227
(lp973
sbsba(i__main__
DelphiAssignStatement
p974
(dp975
g695
(idelphi
DelphiIntegerValue
p976
(dp977
g134
S'0'
sbsg701
(i__main__
DelphiIdentAccess
p978
(dp979
g209
S'sessionChangeCount'
p980
sg227
(lp981
sbsba(i__main__
DelphiAssignStatement
p982
(dp983
g695
Nsg701
(i__main__
DelphiIdentAccess
p984
(dp985
g209
S'worldCommandList'
p986
sg227
(lp987
(idelphi
DelphiFieldEndAccess
p988
(dp989
g796
S'clear'
p990
sbasbsba(i__main__
DelphiAssignStatement
p991
(dp992
g695
(i__main__
DelphiIdentAccess
p993
(dp994
g209
S'fileName'
p995
sg227
(lp996
sbsg701
(i__main__
DelphiIdentAccess
p997
(dp998
g209
S'worldFileName'
p999
sg227
(lp1000
sbsba(i__main__
DelphiAssignStatement
p1001
(dp1002
g695
(idelphi
DelphiIntegerValue
p1003
(dp1004
g134
S'0'
sbsg701
(i__main__
DelphiIdentAccess
p1005
(dp1006
g209
S'worldChangeCount'
p1007
sg227
(lp1008
sbsba(i__main__
DelphiAssignStatement
p1009
(dp1010
g695
Nsg701
(i__main__
DelphiIdentAccess
p1011
(dp1012
g209
S'world'
p1013
sg227
(lp1014
(idelphi
DelphiFieldEndAccess
p1015
(dp1016
g796
S'resetVariablesAndRules'
p1017
sbasbsba(i__main__
DelphiAssignStatement
p1018
(dp1019
g695
(idelphi
DelphiNilValue
p1020
(dp1021
bsg701
(i__main__
DelphiIdentAccess
p1022
(dp1023
g209
S'world'
p1024
sg227
(lp1025
(idelphi
DelphiFieldEndAccess
p1026
(dp1027
g796
S'focus'
p1028
sbasbsba(i__main__
DelphiAssignStatement
p1029
(dp1030
g695
(idelphi
DelphiNilValue
p1031
(dp1032
bsg701
(i__main__
DelphiIdentAccess
p1033
(dp1034
g209
S'world'
p1035
sg227
(lp1036
(idelphi
DelphiFieldEndAccess
p1037
(dp1038
g796
S'previousFocus'
p1039
sbasbsba(i__main__
DelphiAssignStatement
p1040
(dp1041
g695
(idelphi
DelphiNilValue
p1042
(dp1043
bsg701
(i__main__
DelphiIdentAccess
p1044
(dp1045
g209
S'RuleEditorForm'
p1046
sg227
(lp1047
(idelphi
DelphiFieldEndAccess
p1048
(dp1049
g796
S'lastChoice'
p1050
sbasbsba(i__main__
DelphiAssignStatement
p1051
(dp1052
g695
(idelphi
DelphiNilValue
p1053
(dp1054
bsg701
(i__main__
DelphiIdentAccess
p1055
(dp1056
g209
S'RuleEditorForm'
p1057
sg227
(lp1058
(idelphi
DelphiFieldEndAccess
p1059
(dp1060
g796
S'previousChoice'
p1061
sbasbsba(idelphi
DelphiIfStatement
p1062
(dp1063
g860
(i__main__
DelphiIdentAccess
p1064
(dp1065
g209
S'world'
p1066
sg227
(lp1067
(idelphi
DelphiFieldEndAccess
p1068
(dp1069
g796
S'loadWorldFromFile'
p1070
sba(idelphi
DelphiFunctionEndAccess
p1071
(dp1072
g714
(lp1073
(i__main__
DelphiIdentAccess
p1074
(dp1075
g209
S'fileName'
p1076
sg227
(lp1077
sbasbasbsg886
Nsg887
(idelphi
DelphiCompoundStatement
p1078
(dp1079
g691
(lp1080
(i__main__
DelphiAssignStatement
p1081
(dp1082
g695
(i__main__
DelphiIdentAccess
p1083
(dp1084
g209
S'true'
p1085
sg227
(lp1086
sbsg701
(i__main__
DelphiIdentAccess
p1087
(dp1088
g209
S'isWorldFileLoaded'
p1089
sg227
(lp1090
sbsba(i__main__
DelphiAssignStatement
p1091
(dp1092
g695
(i__main__
DelphiIdentAccess
p1093
(dp1094
g209
S'worldfileName'
p1095
sg227
(lp1096
sbsg701
(i__main__
DelphiIdentAccess
p1097
(dp1098
g209
S'options'
p1099
sg227
(lp1100
(idelphi
DelphiFieldEndAccess
p1101
(dp1102
g796
S'mostRecentWorld'
p1103
sbasbsba(i__main__
DelphiAssignStatement
p1104
(dp1105
g695
(idelphi
DelphiStringAccess
p1106
(dp1107
g227
(lp1108
sg134
(idelphi
DelphiStringValue
p1109
(dp1110
g134
S''
sbsbsg701
(i__main__
DelphiIdentAccess
p1111
(dp1112
g209
S'options'
p1113
sg227
(lp1114
(idelphi
DelphiFieldEndAccess
p1115
(dp1116
g796
S'mostRecentSession'
p1117
sbasbsbasbsbasbsg740
(lp1118
sbsbsS'worldchangedone'
p1119
(i__main__
DelphiMethodImplementation
p1120
(dp1121
g669
g396
sg100
g398
sg349
(lp1122
sg671
(lp1123
sg673
(lp1124
sg675
(lp1125
g677
asg678
(dp1126
sg360
S'TSDomain'
p1127
sg361
Nsg683
(lp1128
sg362
I0
sg363
g364
sg685
(i__main__
DelphiBlock
p1129
(dp1130
g688
(idelphi
DelphiCompoundStatement
p1131
(dp1132
g691
(lp1133
(i__main__
DelphiIncOrDecStatement
p1134
(dp1135
S'incOrDecString'
p1136
S'inc'
p1137
sS'incrementExpression'
p1138
Nsg701
(i__main__
DelphiIdentAccess
p1139
(dp1140
g209
S'worldChangeCount'
p1141
sg227
(lp1142
sbsba(i__main__
DelphiAssignStatement
p1143
(dp1144
g695
Nsg701
(i__main__
DelphiIdentAccess
p1145
(dp1146
g209
S'RuleEditorForm'
p1147
sg227
(lp1148
(idelphi
DelphiFieldEndAccess
p1149
(dp1150
g796
S'updateMenus'
p1151
sbasbsbasbsg740
(lp1152
sbsbsS'storeprofileinformation'
p1153
(i__main__
DelphiMethodImplementation
p1154
(dp1155
g669
g401
sg100
g403
sg349
(lp1156
sg671
(lp1157
sg673
(lp1158
sg675
(lp1159
g677
asg678
(dp1160
sg360
S'TSDomain'
p1161
sg361
Nsg683
(lp1162
sg362
I0
sg363
g364
sg685
(i__main__
DelphiBlock
p1163
(dp1164
g688
(idelphi
DelphiCompoundStatement
p1165
(dp1166
g691
(lp1167
(i__main__
DelphiAssignStatement
p1168
(dp1169
g695
(i__main__
DelphiIdentAccess
p1170
(dp1171
g209
S'TIniFile'
p1172
sg227
(lp1173
(idelphi
DelphiFieldEndAccess
p1174
(dp1175
g796
S'create'
p1176
sba(idelphi
DelphiFunctionEndAccess
p1177
(dp1178
g714
(lp1179
(i__main__
DelphiIdentAccess
p1180
(dp1181
g209
S'iniFileName'
p1182
sg227
(lp1183
sbasbasbsg701
(i__main__
DelphiIdentAccess
p1184
(dp1185
g209
S'iniFile'
p1186
sg227
(lp1187
sbsba(idelphi
DelphiTryFinallyStatement
p1188
(dp1189
S'tryStatements'
p1190
(lp1191
(idelphi
DelphiWithStatement
p1192
(dp1193
S'statement'
p1194
(idelphi
DelphiCompoundStatement
p1195
(dp1196
g691
(lp1197
(i__main__
DelphiAssignStatement
p1198
(dp1199
g695
(idelphi
DelphiStringAccess
p1200
(dp1201
g227
(lp1202
sg134
(idelphi
DelphiStringValue
p1203
(dp1204
g134
S'Files'
p1205
sbsbsg701
(i__main__
DelphiIdentAccess
p1206
(dp1207
g209
S'section'
p1208
sg227
(lp1209
sbsg97
(lp1210
S' files\r'
p1211
asba(i__main__
DelphiAssignStatement
p1212
(dp1213
g695
Nsg701
(i__main__
DelphiIdentAccess
p1214
(dp1215
g209
S'writeString'
p1216
sg227
(lp1217
(idelphi
DelphiFunctionEndAccess
p1218
(dp1219
g714
(lp1220
(i__main__
DelphiIdentAccess
p1221
(dp1222
g209
S'section'
p1223
sg227
(lp1224
sba(idelphi
DelphiStringAccess
p1225
(dp1226
g227
(lp1227
sg134
(idelphi
DelphiStringValue
p1228
(dp1229
g134
S'Log file'
p1230
sbsba(i__main__
DelphiIdentAccess
p1231
(dp1232
g209
S'logFileName'
p1233
sg227
(lp1234
sbasbasbsba(i__main__
DelphiAssignStatement
p1235
(dp1236
g695
Nsg701
(i__main__
DelphiIdentAccess
p1237
(dp1238
g209
S'writeString'
p1239
sg227
(lp1240
(idelphi
DelphiFunctionEndAccess
p1241
(dp1242
g714
(lp1243
(i__main__
DelphiIdentAccess
p1244
(dp1245
g209
S'section'
p1246
sg227
(lp1247
sba(idelphi
DelphiStringAccess
p1248
(dp1249
g227
(lp1250
sg134
(idelphi
DelphiStringValue
p1251
(dp1252
g134
S'Agent character file'
p1253
sbsba(i__main__
DelphiIdentAccess
p1254
(dp1255
g209
S'agentCharacterFileName'
p1256
sg227
(lp1257
sbasbasbsba(i__main__
DelphiAssignStatement
p1258
(dp1259
g695
Nsg701
(i__main__
DelphiIdentAccess
p1260
(dp1261
g209
S'writeString'
p1262
sg227
(lp1263
(idelphi
DelphiFunctionEndAccess
p1264
(dp1265
g714
(lp1266
(i__main__
DelphiIdentAccess
p1267
(dp1268
g209
S'section'
p1269
sg227
(lp1270
sba(idelphi
DelphiStringAccess
p1271
(dp1272
g227
(lp1273
sg134
(idelphi
DelphiStringValue
p1274
(dp1275
g134
S'Extra media directory'
p1276
sbsba(i__main__
DelphiIdentAccess
p1277
(dp1278
g209
S'extraMediaDirectory'
p1279
sg227
(lp1280
sbasbasbsba(i__main__
DelphiAssignStatement
p1281
(dp1282
g695
Nsg701
(i__main__
DelphiIdentAccess
p1283
(dp1284
g209
S'writeString'
p1285
sg227
(lp1286
(idelphi
DelphiFunctionEndAccess
p1287
(dp1288
g714
(lp1289
(i__main__
DelphiIdentAccess
p1290
(dp1291
g209
S'section'
p1292
sg227
(lp1293
sba(idelphi
DelphiStringAccess
p1294
(dp1295
g227
(lp1296
sg134
(idelphi
DelphiStringValue
p1297
(dp1298
g134
S'Most recent session'
p1299
sbsba(i__main__
DelphiIdentAccess
p1300
(dp1301
g209
S'mostRecentSession'
p1302
sg227
(lp1303
sbasbasbsba(i__main__
DelphiAssignStatement
p1304
(dp1305
g695
Nsg701
(i__main__
DelphiIdentAccess
p1306
(dp1307
g209
S'writeString'
p1308
sg227
(lp1309
(idelphi
DelphiFunctionEndAccess
p1310
(dp1311
g714
(lp1312
(i__main__
DelphiIdentAccess
p1313
(dp1314
g209
S'section'
p1315
sg227
(lp1316
sba(idelphi
DelphiStringAccess
p1317
(dp1318
g227
(lp1319
sg134
(idelphi
DelphiStringValue
p1320
(dp1321
g134
S'Most recent world'
p1322
sbsba(i__main__
DelphiIdentAccess
p1323
(dp1324
g209
S'mostRecentWorld'
p1325
sg227
(lp1326
sbasbasbsba(i__main__
DelphiAssignStatement
p1327
(dp1328
g695
(idelphi
DelphiStringAccess
p1329
(dp1330
g227
(lp1331
sg134
(idelphi
DelphiStringValue
p1332
(dp1333
g134
S'Player'
p1334
sbsbsg701
(i__main__
DelphiIdentAccess
p1335
(dp1336
g209
S'section'
p1337
sg227
(lp1338
sbsg97
(lp1339
S' player options\r'
p1340
asba(i__main__
DelphiAssignStatement
p1341
(dp1342
g695
Nsg701
(i__main__
DelphiIdentAccess
p1343
(dp1344
g209
S'writeString'
p1345
sg227
(lp1346
(idelphi
DelphiFunctionEndAccess
p1347
(dp1348
g714
(lp1349
(i__main__
DelphiIdentAccess
p1350
(dp1351
g209
S'section'
p1352
sg227
(lp1353
sba(idelphi
DelphiStringAccess
p1354
(dp1355
g227
(lp1356
sg134
(idelphi
DelphiStringValue
p1357
(dp1358
g134
S'Speak'
p1359
sbsba(i__main__
DelphiIdentAccess
p1360
(dp1361
g209
S'boolToStr'
p1362
sg227
(lp1363
(idelphi
DelphiFunctionEndAccess
p1364
(dp1365
g714
(lp1366
(i__main__
DelphiIdentAccess
p1367
(dp1368
g209
S'playerSpeak'
p1369
sg227
(lp1370
sbasbasbasbasbsba(i__main__
DelphiAssignStatement
p1371
(dp1372
g695
Nsg701
(i__main__
DelphiIdentAccess
p1373
(dp1374
g209
S'writeString'
p1375
sg227
(lp1376
(idelphi
DelphiFunctionEndAccess
p1377
(dp1378
g714
(lp1379
(i__main__
DelphiIdentAccess
p1380
(dp1381
g209
S'section'
p1382
sg227
(lp1383
sba(idelphi
DelphiStringAccess
p1384
(dp1385
g227
(lp1386
sg134
(idelphi
DelphiStringValue
p1387
(dp1388
g134
S'Play sounds'
p1389
sbsba(i__main__
DelphiIdentAccess
p1390
(dp1391
g209
S'boolToStr'
p1392
sg227
(lp1393
(idelphi
DelphiFunctionEndAccess
p1394
(dp1395
g714
(lp1396
(i__main__
DelphiIdentAccess
p1397
(dp1398
g209
S'playerPlaySounds'
p1399
sg227
(lp1400
sbasbasbasbasbsba(i__main__
DelphiAssignStatement
p1401
(dp1402
g695
Nsg701
(i__main__
DelphiIdentAccess
p1403
(dp1404
g209
S'writeString'
p1405
sg227
(lp1406
(idelphi
DelphiFunctionEndAccess
p1407
(dp1408
g714
(lp1409
(i__main__
DelphiIdentAccess
p1410
(dp1411
g209
S'section'
p1412
sg227
(lp1413
sba(idelphi
DelphiStringAccess
p1414
(dp1415
g227
(lp1416
sg134
(idelphi
DelphiStringValue
p1417
(dp1418
g134
S'Play music'
p1419
sbsba(i__main__
DelphiIdentAccess
p1420
(dp1421
g209
S'boolToStr'
p1422
sg227
(lp1423
(idelphi
DelphiFunctionEndAccess
p1424
(dp1425
g714
(lp1426
(i__main__
DelphiIdentAccess
p1427
(dp1428
g209
S'playerPlayMusic'
p1429
sg227
(lp1430
sbasbasbasbasbsba(i__main__
DelphiAssignStatement
p1431
(dp1432
g695
Nsg701
(i__main__
DelphiIdentAccess
p1433
(dp1434
g209
S'writeString'
p1435
sg227
(lp1436
(idelphi
DelphiFunctionEndAccess
p1437
(dp1438
g714
(lp1439
(i__main__
DelphiIdentAccess
p1440
(dp1441
g209
S'section'
p1442
sg227
(lp1443
sba(idelphi
DelphiStringAccess
p1444
(dp1445
g227
(lp1446
sg134
(idelphi
DelphiStringValue
p1447
(dp1448
g134
S'Show transcript'
p1449
sbsba(i__main__
DelphiIdentAccess
p1450
(dp1451
g209
S'boolToStr'
p1452
sg227
(lp1453
(idelphi
DelphiFunctionEndAccess
p1454
(dp1455
g714
(lp1456
(i__main__
DelphiIdentAccess
p1457
(dp1458
g209
S'showTranscript'
p1459
sg227
(lp1460
sbasbasbasbasbsba(i__main__
DelphiAssignStatement
p1461
(dp1462
g695
Nsg701
(i__main__
DelphiIdentAccess
p1463
(dp1464
g209
S'writeString'
p1465
sg227
(lp1466
(idelphi
DelphiFunctionEndAccess
p1467
(dp1468
g714
(lp1469
(i__main__
DelphiIdentAccess
p1470
(dp1471
g209
S'section'
p1472
sg227
(lp1473
sba(idelphi
DelphiStringAccess
p1474
(dp1475
g227
(lp1476
sg134
(idelphi
DelphiStringValue
p1477
(dp1478
g134
S'Show pictures'
p1479
sbsba(i__main__
DelphiIdentAccess
p1480
(dp1481
g209
S'boolToStr'
p1482
sg227
(lp1483
(idelphi
DelphiFunctionEndAccess
p1484
(dp1485
g714
(lp1486
(i__main__
DelphiIdentAccess
p1487
(dp1488
g209
S'showPictures'
p1489
sg227
(lp1490
sbasbasbasbasbsba(i__main__
DelphiAssignStatement
p1491
(dp1492
g695
Nsg701
(i__main__
DelphiIdentAccess
p1493
(dp1494
g209
S'writeString'
p1495
sg227
(lp1496
(idelphi
DelphiFunctionEndAccess
p1497
(dp1498
g714
(lp1499
(i__main__
DelphiIdentAccess
p1500
(dp1501
g209
S'section'
p1502
sg227
(lp1503
sba(idelphi
DelphiStringAccess
p1504
(dp1505
g227
(lp1506
sg134
(idelphi
DelphiStringValue
p1507
(dp1508
g134
S'Say options after look'
p1509
sbsba(i__main__
DelphiIdentAccess
p1510
(dp1511
g209
S'boolToStr'
p1512
sg227
(lp1513
(idelphi
DelphiFunctionEndAccess
p1514
(dp1515
g714
(lp1516
(i__main__
DelphiIdentAccess
p1517
(dp1518
g209
S'sayOptionsAfterLook'
p1519
sg227
(lp1520
sbasbasbasbasbsba(i__main__
DelphiAssignStatement
p1521
(dp1522
g695
Nsg701
(i__main__
DelphiIdentAccess
p1523
(dp1524
g209
S'writeString'
p1525
sg227
(lp1526
(idelphi
DelphiFunctionEndAccess
p1527
(dp1528
g714
(lp1529
(i__main__
DelphiIdentAccess
p1530
(dp1531
g209
S'section'
p1532
sg227
(lp1533
sba(idelphi
DelphiStringAccess
p1534
(dp1535
g227
(lp1536
sg134
(idelphi
DelphiStringValue
p1537
(dp1538
g134
S'Use voice to undo'
p1539
sbsba(i__main__
DelphiIdentAccess
p1540
(dp1541
g209
S'boolToStr'
p1542
sg227
(lp1543
(idelphi
DelphiFunctionEndAccess
p1544
(dp1545
g714
(lp1546
(i__main__
DelphiIdentAccess
p1547
(dp1548
g209
S'useVoiceToUndo'
p1549
sg227
(lp1550
sbasbasbasbasbsba(i__main__
DelphiAssignStatement
p1551
(dp1552
g695
Nsg701
(i__main__
DelphiIdentAccess
p1553
(dp1554
g209
S'writeString'
p1555
sg227
(lp1556
(idelphi
DelphiFunctionEndAccess
p1557
(dp1558
g714
(lp1559
(i__main__
DelphiIdentAccess
p1560
(dp1561
g209
S'section'
p1562
sg227
(lp1563
sba(idelphi
DelphiStringAccess
p1564
(dp1565
g227
(lp1566
sg134
(idelphi
DelphiStringValue
p1567
(dp1568
g134
S'Use voice to redo'
p1569
sbsba(i__main__
DelphiIdentAccess
p1570
(dp1571
g209
S'boolToStr'
p1572
sg227
(lp1573
(idelphi
DelphiFunctionEndAccess
p1574
(dp1575
g714
(lp1576
(i__main__
DelphiIdentAccess
p1577
(dp1578
g209
S'useVoiceToRedo'
p1579
sg227
(lp1580
sbasbasbasbasbsba(i__main__
DelphiAssignStatement
p1581
(dp1582
g695
Nsg701
(i__main__
DelphiIdentAccess
p1583
(dp1584
g209
S'writeString'
p1585
sg227
(lp1586
(idelphi
DelphiFunctionEndAccess
p1587
(dp1588
g714
(lp1589
(i__main__
DelphiIdentAccess
p1590
(dp1591
g209
S'section'
p1592
sg227
(lp1593
sba(idelphi
DelphiStringAccess
p1594
(dp1595
g227
(lp1596
sg134
(idelphi
DelphiStringValue
p1597
(dp1598
g134
S'Show variables'
p1599
sbsba(i__main__
DelphiIdentAccess
p1600
(dp1601
g209
S'boolToStr'
p1602
sg227
(lp1603
(idelphi
DelphiFunctionEndAccess
p1604
(dp1605
g714
(lp1606
(i__main__
DelphiIdentAccess
p1607
(dp1608
g209
S'showVariables'
p1609
sg227
(lp1610
sbasbasbasbasbsba(i__main__
DelphiAssignStatement
p1611
(dp1612
g695
Nsg701
(i__main__
DelphiIdentAccess
p1613
(dp1614
g209
S'writeString'
p1615
sg227
(lp1616
(idelphi
DelphiFunctionEndAccess
p1617
(dp1618
g714
(lp1619
(i__main__
DelphiIdentAccess
p1620
(dp1621
g209
S'section'
p1622
sg227
(lp1623
sba(idelphi
DelphiStringAccess
p1624
(dp1625
g227
(lp1626
sg134
(idelphi
DelphiStringValue
p1627
(dp1628
g134
S'Update editor after command done'
p1629
sbsba(i__main__
DelphiIdentAccess
p1630
(dp1631
g209
S'boolToStr'
p1632
sg227
(lp1633
(idelphi
DelphiFunctionEndAccess
p1634
(dp1635
g714
(lp1636
(i__main__
DelphiIdentAccess
p1637
(dp1638
g209
S'updateEditorAfterCommandDone'
p1639
sg227
(lp1640
sbasbasbasbasbsba(i__main__
DelphiAssignStatement
p1641
(dp1642
g695
Nsg701
(i__main__
DelphiIdentAccess
p1643
(dp1644
g209
S'writeString'
p1645
sg227
(lp1646
(idelphi
DelphiFunctionEndAccess
p1647
(dp1648
g714
(lp1649
(i__main__
DelphiIdentAccess
p1650
(dp1651
g209
S'section'
p1652
sg227
(lp1653
sba(idelphi
DelphiStringAccess
p1654
(dp1655
g227
(lp1656
sg134
(idelphi
DelphiStringValue
p1657
(dp1658
g134
S'Suppress agent not present warning'
p1659
sbsba(i__main__
DelphiIdentAccess
p1660
(dp1661
g209
S'boolToStr'
p1662
sg227
(lp1663
(idelphi
DelphiFunctionEndAccess
p1664
(dp1665
g714
(lp1666
(i__main__
DelphiIdentAccess
p1667
(dp1668
g209
S'suppressAgentNotPresentWarning'
p1669
sg227
(lp1670
sbasbasbasbasbsba(i__main__
DelphiAssignStatement
p1671
(dp1672
g695
Nsg701
(i__main__
DelphiIdentAccess
p1673
(dp1674
g209
S'writeString'
p1675
sg227
(lp1676
(idelphi
DelphiFunctionEndAccess
p1677
(dp1678
g714
(lp1679
(i__main__
DelphiIdentAccess
p1680
(dp1681
g209
S'section'
p1682
sg227
(lp1683
sba(idelphi
DelphiStringAccess
p1684
(dp1685
g227
(lp1686
sg134
(idelphi
DelphiStringValue
p1687
(dp1688
g134
S'Player font size'
p1689
sbsba(i__main__
DelphiIdentAccess
p1690
(dp1691
g209
S'intToStr'
p1692
sg227
(lp1693
(idelphi
DelphiFunctionEndAccess
p1694
(dp1695
g714
(lp1696
(i__main__
DelphiIdentAccess
p1697
(dp1698
g209
S'playerFontSize'
p1699
sg227
(lp1700
sbasbasbasbasbsba(i__main__
DelphiAssignStatement
p1701
(dp1702
g695
Nsg701
(i__main__
DelphiIdentAccess
p1703
(dp1704
g209
S'writeString'
p1705
sg227
(lp1706
(idelphi
DelphiFunctionEndAccess
p1707
(dp1708
g714
(lp1709
(i__main__
DelphiIdentAccess
p1710
(dp1711
g209
S'section'
p1712
sg227
(lp1713
sba(idelphi
DelphiStringAccess
p1714
(dp1715
g227
(lp1716
sg134
(idelphi
DelphiStringValue
p1717
(dp1718
g134
S'Player font name'
p1719
sbsba(i__main__
DelphiIdentAccess
p1720
(dp1721
g209
S'playerFontName'
p1722
sg227
(lp1723
sbasbasbsba(i__main__
DelphiAssignStatement
p1724
(dp1725
g695
(idelphi
DelphiStringAccess
p1726
(dp1727
g227
(lp1728
sg134
(idelphi
DelphiStringValue
p1729
(dp1730
g134
S'Editor'
p1731
sbsbsg701
(i__main__
DelphiIdentAccess
p1732
(dp1733
g209
S'section'
p1734
sg227
(lp1735
sbsg97
(lp1736
S' editor options\r'
p1737
asba(i__main__
DelphiAssignStatement
p1738
(dp1739
g695
Nsg701
(i__main__
DelphiIdentAccess
p1740
(dp1741
g209
S'writeString'
p1742
sg227
(lp1743
(idelphi
DelphiFunctionEndAccess
p1744
(dp1745
g714
(lp1746
(i__main__
DelphiIdentAccess
p1747
(dp1748
g209
S'section'
p1749
sg227
(lp1750
sba(idelphi
DelphiStringAccess
p1751
(dp1752
g227
(lp1753
sg134
(idelphi
DelphiStringValue
p1754
(dp1755
g134
S'Background color for selected items'
p1756
sbsba(i__main__
DelphiIdentAccess
p1757
(dp1758
g209
S'intToStr'
p1759
sg227
(lp1760
(idelphi
DelphiFunctionEndAccess
p1761
(dp1762
g714
(lp1763
(i__main__
DelphiIdentAccess
p1764
(dp1765
g209
S'selectedItemColor'
p1766
sg227
(lp1767
sbasbasbasbasbsba(i__main__
DelphiAssignStatement
p1768
(dp1769
g695
Nsg701
(i__main__
DelphiIdentAccess
p1770
(dp1771
g209
S'writeString'
p1772
sg227
(lp1773
(idelphi
DelphiFunctionEndAccess
p1774
(dp1775
g714
(lp1776
(i__main__
DelphiIdentAccess
p1777
(dp1778
g209
S'section'
p1779
sg227
(lp1780
sba(idelphi
DelphiStringAccess
p1781
(dp1782
g227
(lp1783
sg134
(idelphi
DelphiStringValue
p1784
(dp1785
g134
S'Text color for selected items'
p1786
sbsba(i__main__
DelphiIdentAccess
p1787
(dp1788
g209
S'intToStr'
p1789
sg227
(lp1790
(idelphi
DelphiFunctionEndAccess
p1791
(dp1792
g714
(lp1793
(i__main__
DelphiIdentAccess
p1794
(dp1795
g209
S'selectedTextColor'
p1796
sg227
(lp1797
sbasbasbasbasbsba(i__main__
DelphiAssignStatement
p1798
(dp1799
g695
Nsg701
(i__main__
DelphiIdentAccess
p1800
(dp1801
g209
S'writeString'
p1802
sg227
(lp1803
(idelphi
DelphiFunctionEndAccess
p1804
(dp1805
g714
(lp1806
(i__main__
DelphiIdentAccess
p1807
(dp1808
g209
S'section'
p1809
sg227
(lp1810
sba(idelphi
DelphiStringAccess
p1811
(dp1812
g227
(lp1813
sg134
(idelphi
DelphiStringValue
p1814
(dp1815
g134
S'Text color for commands in map'
p1816
sbsba(i__main__
DelphiIdentAccess
p1817
(dp1818
g209
S'intToStr'
p1819
sg227
(lp1820
(idelphi
DelphiFunctionEndAccess
p1821
(dp1822
g714
(lp1823
(i__main__
DelphiIdentAccess
p1824
(dp1825
g209
S'commandTextColorInMap'
p1826
sg227
(lp1827
sbasbasbasbasbsba(i__main__
DelphiAssignStatement
p1828
(dp1829
g695
Nsg701
(i__main__
DelphiIdentAccess
p1830
(dp1831
g209
S'writeString'
p1832
sg227
(lp1833
(idelphi
DelphiFunctionEndAccess
p1834
(dp1835
g714
(lp1836
(i__main__
DelphiIdentAccess
p1837
(dp1838
g209
S'section'
p1839
sg227
(lp1840
sba(idelphi
DelphiStringAccess
p1841
(dp1842
g227
(lp1843
sg134
(idelphi
DelphiStringValue
p1844
(dp1845
g134
S'Show commands in map'
p1846
sbsba(i__main__
DelphiIdentAccess
p1847
(dp1848
g209
S'boolToStr'
p1849
sg227
(lp1850
(idelphi
DelphiFunctionEndAccess
p1851
(dp1852
g714
(lp1853
(i__main__
DelphiIdentAccess
p1854
(dp1855
g209
S'showCommandsInMap'
p1856
sg227
(lp1857
sbasbasbasbasbsba(i__main__
DelphiAssignStatement
p1858
(dp1859
g695
Nsg701
(i__main__
DelphiIdentAccess
p1860
(dp1861
g209
S'writeString'
p1862
sg227
(lp1863
(idelphi
DelphiFunctionEndAccess
p1864
(dp1865
g714
(lp1866
(i__main__
DelphiIdentAccess
p1867
(dp1868
g209
S'section'
p1869
sg227
(lp1870
sba(idelphi
DelphiStringAccess
p1871
(dp1872
g227
(lp1873
sg134
(idelphi
DelphiStringValue
p1874
(dp1875
g134
S'Show command prefix in map'
p1876
sbsba(i__main__
DelphiIdentAccess
p1877
(dp1878
g209
S'boolToStr'
p1879
sg227
(lp1880
(idelphi
DelphiFunctionEndAccess
p1881
(dp1882
g714
(lp1883
(i__main__
DelphiIdentAccess
p1884
(dp1885
g209
S'showCommandPrefixInMap'
p1886
sg227
(lp1887
sbasbasbasbasbsba(i__main__
DelphiAssignStatement
p1888
(dp1889
g695
Nsg701
(i__main__
DelphiIdentAccess
p1890
(dp1891
g209
S'writeString'
p1892
sg227
(lp1893
(idelphi
DelphiFunctionEndAccess
p1894
(dp1895
g714
(lp1896
(i__main__
DelphiIdentAccess
p1897
(dp1898
g209
S'section'
p1899
sg227
(lp1900
sba(idelphi
DelphiStringAccess
p1901
(dp1902
g227
(lp1903
sg134
(idelphi
DelphiStringValue
p1904
(dp1905
g134
S'Table font name'
p1906
sbsba(i__main__
DelphiIdentAccess
p1907
(dp1908
g209
S'tableFontName'
p1909
sg227
(lp1910
sbasbasbsba(i__main__
DelphiAssignStatement
p1911
(dp1912
g695
Nsg701
(i__main__
DelphiIdentAccess
p1913
(dp1914
g209
S'writeString'
p1915
sg227
(lp1916
(idelphi
DelphiFunctionEndAccess
p1917
(dp1918
g714
(lp1919
(i__main__
DelphiIdentAccess
p1920
(dp1921
g209
S'section'
p1922
sg227
(lp1923
sba(idelphi
DelphiStringAccess
p1924
(dp1925
g227
(lp1926
sg134
(idelphi
DelphiStringValue
p1927
(dp1928
g134
S'Table font size'
p1929
sbsba(i__main__
DelphiIdentAccess
p1930
(dp1931
g209
S'intToStr'
p1932
sg227
(lp1933
(idelphi
DelphiFunctionEndAccess
p1934
(dp1935
g714
(lp1936
(i__main__
DelphiIdentAccess
p1937
(dp1938
g209
S'tableFontSize'
p1939
sg227
(lp1940
sbasbasbasbasbsba(i__main__
DelphiAssignStatement
p1941
(dp1942
g695
Nsg701
(i__main__
DelphiIdentAccess
p1943
(dp1944
g209
S'writeString'
p1945
sg227
(lp1946
(idelphi
DelphiFunctionEndAccess
p1947
(dp1948
g714
(lp1949
(i__main__
DelphiIdentAccess
p1950
(dp1951
g209
S'section'
p1952
sg227
(lp1953
sba(idelphi
DelphiStringAccess
p1954
(dp1955
g227
(lp1956
sg134
(idelphi
DelphiStringValue
p1957
(dp1958
g134
S'Map font name'
p1959
sbsba(i__main__
DelphiIdentAccess
p1960
(dp1961
g209
S'mapFontName'
p1962
sg227
(lp1963
sbasbasbsba(i__main__
DelphiAssignStatement
p1964
(dp1965
g695
Nsg701
(i__main__
DelphiIdentAccess
p1966
(dp1967
g209
S'writeString'
p1968
sg227
(lp1969
(idelphi
DelphiFunctionEndAccess
p1970
(dp1971
g714
(lp1972
(i__main__
DelphiIdentAccess
p1973
(dp1974
g209
S'section'
p1975
sg227
(lp1976
sba(idelphi
DelphiStringAccess
p1977
(dp1978
g227
(lp1979
sg134
(idelphi
DelphiStringValue
p1980
(dp1981
g134
S'Map font size'
p1982
sbsba(i__main__
DelphiIdentAccess
p1983
(dp1984
g209
S'intToStr'
p1985
sg227
(lp1986
(idelphi
DelphiFunctionEndAccess
p1987
(dp1988
g714
(lp1989
(i__main__
DelphiIdentAccess
p1990
(dp1991
g209
S'mapFontSize'
p1992
sg227
(lp1993
sbasbasbasbasbsba(i__main__
DelphiAssignStatement
p1994
(dp1995
g695
Nsg701
(i__main__
DelphiIdentAccess
p1996
(dp1997
g209
S'writeString'
p1998
sg227
(lp1999
(idelphi
DelphiFunctionEndAccess
p2000
(dp2001
g714
(lp2002
(i__main__
DelphiIdentAccess
p2003
(dp2004
g209
S'section'
p2005
sg227
(lp2006
sba(idelphi
DelphiStringAccess
p2007
(dp2008
g227
(lp2009
sg134
(idelphi
DelphiStringValue
p2010
(dp2011
g134
S'Browser font name'
p2012
sbsba(i__main__
DelphiIdentAccess
p2013
(dp2014
g209
S'browserFontName'
p2015
sg227
(lp2016
sbasbasbsba(i__main__
DelphiAssignStatement
p2017
(dp2018
g695
Nsg701
(i__main__
DelphiIdentAccess
p2019
(dp2020
g209
S'writeString'
p2021
sg227
(lp2022
(idelphi
DelphiFunctionEndAccess
p2023
(dp2024
g714
(lp2025
(i__main__
DelphiIdentAccess
p2026
(dp2027
g209
S'section'
p2028
sg227
(lp2029
sba(idelphi
DelphiStringAccess
p2030
(dp2031
g227
(lp2032
sg134
(idelphi
DelphiStringValue
p2033
(dp2034
g134
S'Browser font size'
p2035
sbsba(i__main__
DelphiIdentAccess
p2036
(dp2037
g209
S'intToStr'
p2038
sg227
(lp2039
(idelphi
DelphiFunctionEndAccess
p2040
(dp2041
g714
(lp2042
(i__main__
DelphiIdentAccess
p2043
(dp2044
g209
S'browserFontSize'
p2045
sg227
(lp2046
sbasbasbasbasbsba(i__main__
DelphiAssignStatement
p2047
(dp2048
g695
Nsg701
(i__main__
DelphiIdentAccess
p2049
(dp2050
g209
S'writeString'
p2051
sg227
(lp2052
(idelphi
DelphiFunctionEndAccess
p2053
(dp2054
g714
(lp2055
(i__main__
DelphiIdentAccess
p2056
(dp2057
g209
S'section'
p2058
sg227
(lp2059
sba(idelphi
DelphiStringAccess
p2060
(dp2061
g227
(lp2062
sg134
(idelphi
DelphiStringValue
p2063
(dp2064
g134
S'Show rule editor'
p2065
sbsba(i__main__
DelphiIdentAccess
p2066
(dp2067
g209
S'boolToStr'
p2068
sg227
(lp2069
(idelphi
DelphiFunctionEndAccess
p2070
(dp2071
g714
(lp2072
(i__main__
DelphiIdentAccess
p2073
(dp2074
g209
S'showRuleEditor'
p2075
sg227
(lp2076
sbasbasbasbasbsba(i__main__
DelphiAssignStatement
p2077
(dp2078
g695
Nsg701
(i__main__
DelphiIdentAccess
p2079
(dp2080
g209
S'writeString'
p2081
sg227
(lp2082
(idelphi
DelphiFunctionEndAccess
p2083
(dp2084
g714
(lp2085
(i__main__
DelphiIdentAccess
p2086
(dp2087
g209
S'section'
p2088
sg227
(lp2089
sba(idelphi
DelphiStringAccess
p2090
(dp2091
g227
(lp2092
sg134
(idelphi
DelphiStringValue
p2093
(dp2094
g134
S'Show button bar'
p2095
sbsba(i__main__
DelphiIdentAccess
p2096
(dp2097
g209
S'boolToStr'
p2098
sg227
(lp2099
(idelphi
DelphiFunctionEndAccess
p2100
(dp2101
g714
(lp2102
(i__main__
DelphiIdentAccess
p2103
(dp2104
g209
S'showButtonBar'
p2105
sg227
(lp2106
sbasbasbasbasbsba(i__main__
DelphiAssignStatement
p2107
(dp2108
g695
Nsg701
(i__main__
DelphiIdentAccess
p2109
(dp2110
g209
S'writeString'
p2111
sg227
(lp2112
(idelphi
DelphiFunctionEndAccess
p2113
(dp2114
g714
(lp2115
(i__main__
DelphiIdentAccess
p2116
(dp2117
g209
S'section'
p2118
sg227
(lp2119
sba(idelphi
DelphiStringAccess
p2120
(dp2121
g227
(lp2122
sg134
(idelphi
DelphiStringValue
p2123
(dp2124
g134
S'Browse by (context, rule, reply, move, requirements, changes)'
p2125
sbsba(i__main__
DelphiIdentAccess
p2126
(dp2127
g209
S'intToStr'
p2128
sg227
(lp2129
(idelphi
DelphiFunctionEndAccess
p2130
(dp2131
g714
(lp2132
(i__main__
DelphiIdentAccess
p2133
(dp2134
g209
S'browseBy'
p2135
sg227
(lp2136
sbasbasbasbasbsba(i__main__
DelphiAssignStatement
p2137
(dp2138
g695
Nsg701
(i__main__
DelphiIdentAccess
p2139
(dp2140
g209
S'writeString'
p2141
sg227
(lp2142
(idelphi
DelphiFunctionEndAccess
p2143
(dp2144
g714
(lp2145
(i__main__
DelphiIdentAccess
p2146
(dp2147
g209
S'section'
p2148
sg227
(lp2149
sba(idelphi
DelphiStringAccess
p2150
(dp2151
g227
(lp2152
sg134
(idelphi
DelphiStringValue
p2153
(dp2154
g134
S'Page showing (table, map, browser)'
p2155
sbsba(i__main__
DelphiIdentAccess
p2156
(dp2157
g209
S'intToStr'
p2158
sg227
(lp2159
(idelphi
DelphiFunctionEndAccess
p2160
(dp2161
g714
(lp2162
(i__main__
DelphiIdentAccess
p2163
(dp2164
g209
S'pageShowing'
p2165
sg227
(lp2166
sbasbasbasbasbsba(i__main__
DelphiAssignStatement
p2167
(dp2168
g695
Nsg701
(i__main__
DelphiIdentAccess
p2169
(dp2170
g209
S'writeString'
p2171
sg227
(lp2172
(idelphi
DelphiFunctionEndAccess
p2173
(dp2174
g714
(lp2175
(i__main__
DelphiIdentAccess
p2176
(dp2177
g209
S'section'
p2178
sg227
(lp2179
sba(idelphi
DelphiStringAccess
p2180
(dp2181
g227
(lp2182
sg134
(idelphi
DelphiStringValue
p2183
(dp2184
g134
S'Button symbols'
p2185
sbsba(i__main__
DelphiIdentAccess
p2186
(dp2187
g209
S'boolToStr'
p2188
sg227
(lp2189
(idelphi
DelphiFunctionEndAccess
p2190
(dp2191
g714
(lp2192
(i__main__
DelphiIdentAccess
p2193
(dp2194
g209
S'buttonSymbols'
p2195
sg227
(lp2196
sbasbasbasbasbsba(idelphi
DelphiIfStatement
p2197
(dp2198
g860
(i__main__
DelphiIdentAccess
p2199
(dp2200
g209
S'justRegistered'
p2201
sg227
(lp2202
sbsg886
Nsg887
(idelphi
DelphiCompoundStatement
p2203
(dp2204
g691
(lp2205
(i__main__
DelphiAssignStatement
p2206
(dp2207
g695
(idelphi
DelphiStringAccess
p2208
(dp2209
g227
(lp2210
sg134
(idelphi
DelphiStringValue
p2211
(dp2212
g134
S'Registration'
p2213
sbsbsg701
(i__main__
DelphiIdentAccess
p2214
(dp2215
g209
S'section'
p2216
sg227
(lp2217
sbsg97
(lp2218
S' registration, embedded here to hide time scale fraction\r'
p2219
aS' always track useage\r'
p2220
asba(i__main__
DelphiAssignStatement
p2221
(dp2222
g695
Nsg701
(i__main__
DelphiIdentAccess
p2223
(dp2224
g209
S'writeString'
p2225
sg227
(lp2226
(idelphi
DelphiFunctionEndAccess
p2227
(dp2228
g714
(lp2229
(i__main__
DelphiIdentAccess
p2230
(dp2231
g209
S'section'
p2232
sg227
(lp2233
sba(idelphi
DelphiStringAccess
p2234
(dp2235
g227
(lp2236
sg134
(idelphi
DelphiStringValue
p2237
(dp2238
g134
S'R1'
p2239
sbsba(idelphi
DelphiStringAccess
p2240
(dp2241
g227
(lp2242
sg134
(idelphi
DelphiStringValue
p2243
(dp2244
g134
S'BQRESTYUBSHQYIBLJHSD'
p2245
sbsbasbasbsba(i__main__
DelphiAssignStatement
p2246
(dp2247
g695
Nsg701
(i__main__
DelphiIdentAccess
p2248
(dp2249
g209
S'writeString'
p2250
sg227
(lp2251
(idelphi
DelphiFunctionEndAccess
p2252
(dp2253
g714
(lp2254
(i__main__
DelphiIdentAccess
p2255
(dp2256
g209
S'section'
p2257
sg227
(lp2258
sba(idelphi
DelphiStringAccess
p2259
(dp2260
g227
(lp2261
sg134
(idelphi
DelphiStringValue
p2262
(dp2263
g134
S'R2'
p2264
sbsba(idelphi
DelphiStringAccess
p2265
(dp2266
g227
(lp2267
sg134
(idelphi
DelphiStringValue
p2268
(dp2269
g134
S'BTBTBYBUOBTRST'
p2270
sbsbasbasbsba(i__main__
DelphiAssignStatement
p2271
(dp2272
g695
Nsg701
(i__main__
DelphiIdentAccess
p2273
(dp2274
g209
S'writeString'
p2275
sg227
(lp2276
(idelphi
DelphiFunctionEndAccess
p2277
(dp2278
g714
(lp2279
(i__main__
DelphiIdentAccess
p2280
(dp2281
g209
S'section'
p2282
sg227
(lp2283
sba(idelphi
DelphiStringAccess
p2284
(dp2285
g227
(lp2286
sg134
(idelphi
DelphiStringValue
p2287
(dp2288
g134
S'R3'
p2289
sbsba(i__main__
DelphiIdentAccess
p2290
(dp2291
g209
S'hexEncode'
p2292
sg227
(lp2293
(idelphi
DelphiFunctionEndAccess
p2294
(dp2295
g714
(lp2296
(i__main__
DelphiIdentAccess
p2297
(dp2298
g209
S'registrationCode'
p2299
sg227
(lp2300
sbasbasbasbasbsba(i__main__
DelphiAssignStatement
p2301
(dp2302
g695
Nsg701
(i__main__
DelphiIdentAccess
p2303
(dp2304
g209
S'writeString'
p2305
sg227
(lp2306
(idelphi
DelphiFunctionEndAccess
p2307
(dp2308
g714
(lp2309
(i__main__
DelphiIdentAccess
p2310
(dp2311
g209
S'section'
p2312
sg227
(lp2313
sba(idelphi
DelphiStringAccess
p2314
(dp2315
g227
(lp2316
sg134
(idelphi
DelphiStringValue
p2317
(dp2318
g134
S'R4'
p2319
sbsba(i__main__
DelphiIdentAccess
p2320
(dp2321
g209
S'hexEncode'
p2322
sg227
(lp2323
(idelphi
DelphiFunctionEndAccess
p2324
(dp2325
g714
(lp2326
(i__main__
DelphiIdentAccess
p2327
(dp2328
g209
S'registrationName'
p2329
sg227
(lp2330
sbasbasbasbasbsbasbsba(idelphi
DelphiIfStatement
p2331
(dp2332
g860
(idelphi
DelphiMulOp
p2333
(dp2334
S'signedFactor2'
p2335
(idelphi
DelphiNestedExpressionListAccess
p2336
(dp2337
g227
(lp2338
sg714
(lp2339
(idelphi
DelphiNot
p2340
(dp2341
S'factor'
p2342
(i__main__
DelphiIdentAccess
p2343
(dp2344
g209
S'self'
p2345
sg227
(lp2346
(idelphi
DelphiFieldEndAccess
p2347
(dp2348
g796
S'playerOnly'
p2349
sbasbsbasbsS'mulOp'
p2350
S'and'
p2351
sS'signedFactor1'
p2352
(idelphi
DelphiNestedExpressionListAccess
p2353
(dp2354
g227
(lp2355
sg714
(lp2356
(idelphi
DelphiNot
p2357
(dp2358
g2342
(i__main__
DelphiIdentAccess
p2359
(dp2360
g209
S'registered'
p2361
sg227
(lp2362
sbsbasbsbsg886
Nsg887
(idelphi
DelphiCompoundStatement
p2363
(dp2364
g691
(lp2365
(i__main__
DelphiAssignStatement
p2366
(dp2367
g695
(idelphi
DelphiStringAccess
p2368
(dp2369
g227
(lp2370
sg134
(idelphi
DelphiStringValue
p2371
(dp2372
g134
S'Editor'
p2373
sbsbsg701
(i__main__
DelphiIdentAccess
p2374
(dp2375
g209
S'section'
p2376
sg227
(lp2377
sbsba(i__main__
DelphiAssignStatement
p2378
(dp2379
g695
(idelphi
DelphiAddOp
p2380
(dp2381
g952
S'+'
sg953
(i__main__
DelphiIdentAccess
p2382
(dp2383
g209
S'max'
p2384
sg227
(lp2385
(idelphi
DelphiFunctionEndAccess
p2386
(dp2387
g714
(lp2388
(idelphi
DelphiNestedExpressionListAccess
p2389
(dp2390
g227
(lp2391
sg714
(lp2392
(idelphi
DelphiAddOp
p2393
(dp2394
g952
S'-'
sg953
(i__main__
DelphiIdentAccess
p2395
(dp2396
g209
S'startTimeThisSession'
p2397
sg227
(lp2398
sbsg958
(i__main__
DelphiIdentAccess
p2399
(dp2400
g209
S'now'
p2401
sg227
(lp2402
sbsbasba(idelphi
DelphiIntegerValue
p2403
(dp2404
g134
S'0'
sbasbasbsg958
(i__main__
DelphiIdentAccess
p2405
(dp2406
g209
S'accumulatedUnregisteredTime'
p2407
sg227
(lp2408
sbsbsg701
(i__main__
DelphiIdentAccess
p2409
(dp2410
g209
S'accumulatedUnregisteredTime'
p2411
sg227
(lp2412
sbsba(i__main__
DelphiAssignStatement
p2413
(dp2414
g695
(idelphi
DelphiMulOp
p2415
(dp2416
g2335
(i__main__
DelphiIdentAccess
p2417
(dp2418
g209
S'kEncryptingMultiplierForAccumulatedUnregisteredTime'
p2419
sg227
(lp2420
sbsg2350
S'*'
sg2352
(i__main__
DelphiIdentAccess
p2421
(dp2422
g209
S'accumulatedUnregisteredTime'
p2423
sg227
(lp2424
sbsbsg701
(i__main__
DelphiIdentAccess
p2425
(dp2426
g209
S'saveNumber'
p2427
sg227
(lp2428
sbsba(i__main__
DelphiAssignStatement
p2429
(dp2430
g695
Nsg701
(i__main__
DelphiIdentAccess
p2431
(dp2432
g209
S'writeString'
p2433
sg227
(lp2434
(idelphi
DelphiFunctionEndAccess
p2435
(dp2436
g714
(lp2437
(i__main__
DelphiIdentAccess
p2438
(dp2439
g209
S'section'
p2440
sg227
(lp2441
sba(i__main__
DelphiIdentAccess
p2442
(dp2443
g209
S'kKeyForAccumulatedUnregisteredTime'
p2444
sg227
(lp2445
sba(i__main__
DelphiIdentAccess
p2446
(dp2447
g209
S'floatToStr'
p2448
sg227
(lp2449
(idelphi
DelphiFunctionEndAccess
p2450
(dp2451
g714
(lp2452
(i__main__
DelphiIdentAccess
p2453
(dp2454
g209
S'saveNumber'
p2455
sg227
(lp2456
sbasbasbasbasbsbasbsba(i__main__
DelphiAssignStatement
p2457
(dp2458
g695
(idelphi
DelphiStringAccess
p2459
(dp2460
g227
(lp2461
sg134
(idelphi
DelphiStringValue
p2462
(dp2463
g134
S'Windows'
p2464
sbsbsg701
(i__main__
DelphiIdentAccess
p2465
(dp2466
g209
S'section'
p2467
sg227
(lp2468
sbsg97
(lp2469
S' windows\r'
p2470
asba(i__main__
DelphiAssignStatement
p2471
(dp2472
g695
Nsg701
(i__main__
DelphiIdentAccess
p2473
(dp2474
g209
S'writeString'
p2475
sg227
(lp2476
(idelphi
DelphiFunctionEndAccess
p2477
(dp2478
g714
(lp2479
(i__main__
DelphiIdentAccess
p2480
(dp2481
g209
S'section'
p2482
sg227
(lp2483
sba(idelphi
DelphiStringAccess
p2484
(dp2485
g227
(lp2486
sg134
(idelphi
DelphiStringValue
p2487
(dp2488
g134
S'Player window position'
p2489
sbsba(i__main__
DelphiIdentAccess
p2490
(dp2491
g209
S'rectToString'
p2492
sg227
(lp2493
(idelphi
DelphiFunctionEndAccess
p2494
(dp2495
g714
(lp2496
(i__main__
DelphiIdentAccess
p2497
(dp2498
g209
S'consoleWindowRect'
p2499
sg227
(lp2500
sbasbasbasbasbsba(i__main__
DelphiAssignStatement
p2501
(dp2502
g695
Nsg701
(i__main__
DelphiIdentAccess
p2503
(dp2504
g209
S'writeString'
p2505
sg227
(lp2506
(idelphi
DelphiFunctionEndAccess
p2507
(dp2508
g714
(lp2509
(i__main__
DelphiIdentAccess
p2510
(dp2511
g209
S'section'
p2512
sg227
(lp2513
sba(idelphi
DelphiStringAccess
p2514
(dp2515
g227
(lp2516
sg134
(idelphi
DelphiStringValue
p2517
(dp2518
g134
S'Editor window position'
p2519
sbsba(i__main__
DelphiIdentAccess
p2520
(dp2521
g209
S'rectToString'
p2522
sg227
(lp2523
(idelphi
DelphiFunctionEndAccess
p2524
(dp2525
g714
(lp2526
(i__main__
DelphiIdentAccess
p2527
(dp2528
g209
S'editorWindowRect'
p2529
sg227
(lp2530
sbasbasbasbasbsba(i__main__
DelphiAssignStatement
p2531
(dp2532
g695
Nsg701
(i__main__
DelphiIdentAccess
p2533
(dp2534
g209
S'writeString'
p2535
sg227
(lp2536
(idelphi
DelphiFunctionEndAccess
p2537
(dp2538
g714
(lp2539
(i__main__
DelphiIdentAccess
p2540
(dp2541
g209
S'section'
p2542
sg227
(lp2543
sba(idelphi
DelphiStringAccess
p2544
(dp2545
g227
(lp2546
sg134
(idelphi
DelphiStringValue
p2547
(dp2548
g134
S'Log file window position'
p2549
sbsba(i__main__
DelphiIdentAccess
p2550
(dp2551
g209
S'rectToString'
p2552
sg227
(lp2553
(idelphi
DelphiFunctionEndAccess
p2554
(dp2555
g714
(lp2556
(i__main__
DelphiIdentAccess
p2557
(dp2558
g209
S'logFileWindowRect'
p2559
sg227
(lp2560
sbasbasbasbasbsba(i__main__
DelphiAssignStatement
p2561
(dp2562
g695
Nsg701
(i__main__
DelphiIdentAccess
p2563
(dp2564
g209
S'writeString'
p2565
sg227
(lp2566
(idelphi
DelphiFunctionEndAccess
p2567
(dp2568
g714
(lp2569
(i__main__
DelphiIdentAccess
p2570
(dp2571
g209
S'section'
p2572
sg227
(lp2573
sba(idelphi
DelphiStringAccess
p2574
(dp2575
g227
(lp2576
sg134
(idelphi
DelphiStringValue
p2577
(dp2578
g134
S'Player horizontal splitter'
p2579
sbsba(i__main__
DelphiIdentAccess
p2580
(dp2581
g209
S'intToStr'
p2582
sg227
(lp2583
(idelphi
DelphiFunctionEndAccess
p2584
(dp2585
g714
(lp2586
(i__main__
DelphiIdentAccess
p2587
(dp2588
g209
S'consoleBottomHeight'
p2589
sg227
(lp2590
sbasbasbasbasbsba(i__main__
DelphiAssignStatement
p2591
(dp2592
g695
Nsg701
(i__main__
DelphiIdentAccess
p2593
(dp2594
g209
S'writeString'
p2595
sg227
(lp2596
(idelphi
DelphiFunctionEndAccess
p2597
(dp2598
g714
(lp2599
(i__main__
DelphiIdentAccess
p2600
(dp2601
g209
S'section'
p2602
sg227
(lp2603
sba(idelphi
DelphiStringAccess
p2604
(dp2605
g227
(lp2606
sg134
(idelphi
DelphiStringValue
p2607
(dp2608
g134
S'Player vertical splitter'
p2609
sbsba(i__main__
DelphiIdentAccess
p2610
(dp2611
g209
S'intToStr'
p2612
sg227
(lp2613
(idelphi
DelphiFunctionEndAccess
p2614
(dp2615
g714
(lp2616
(i__main__
DelphiIdentAccess
p2617
(dp2618
g209
S'consoleRightWidth'
p2619
sg227
(lp2620
sbasbasbasbasbsba(i__main__
DelphiAssignStatement
p2621
(dp2622
g695
Nsg701
(i__main__
DelphiIdentAccess
p2623
(dp2624
g209
S'writeString'
p2625
sg227
(lp2626
(idelphi
DelphiFunctionEndAccess
p2627
(dp2628
g714
(lp2629
(i__main__
DelphiIdentAccess
p2630
(dp2631
g209
S'section'
p2632
sg227
(lp2633
sba(idelphi
DelphiStringAccess
p2634
(dp2635
g227
(lp2636
sg134
(idelphi
DelphiStringValue
p2637
(dp2638
g134
S'Editor top splitter'
p2639
sbsba(i__main__
DelphiIdentAccess
p2640
(dp2641
g209
S'intToStr'
p2642
sg227
(lp2643
(idelphi
DelphiFunctionEndAccess
p2644
(dp2645
g714
(lp2646
(i__main__
DelphiIdentAccess
p2647
(dp2648
g209
S'editorPanelEditorHeight'
p2649
sg227
(lp2650
sbasbasbasbasbsba(i__main__
DelphiAssignStatement
p2651
(dp2652
g695
Nsg701
(i__main__
DelphiIdentAccess
p2653
(dp2654
g209
S'writeString'
p2655
sg227
(lp2656
(idelphi
DelphiFunctionEndAccess
p2657
(dp2658
g714
(lp2659
(i__main__
DelphiIdentAccess
p2660
(dp2661
g209
S'section'
p2662
sg227
(lp2663
sba(idelphi
DelphiStringAccess
p2664
(dp2665
g227
(lp2666
sg134
(idelphi
DelphiStringValue
p2667
(dp2668
g134
S'Editor bottom splitter'
p2669
sbsba(i__main__
DelphiIdentAccess
p2670
(dp2671
g209
S'intToStr'
p2672
sg227
(lp2673
(idelphi
DelphiFunctionEndAccess
p2674
(dp2675
g714
(lp2676
(i__main__
DelphiIdentAccess
p2677
(dp2678
g209
S'editorPanelRequirementsChangesHeight'
p2679
sg227
(lp2680
sbasbasbasbasbsba(i__main__
DelphiAssignStatement
p2681
(dp2682
g695
Nsg701
(i__main__
DelphiIdentAccess
p2683
(dp2684
g209
S'writeString'
p2685
sg227
(lp2686
(idelphi
DelphiFunctionEndAccess
p2687
(dp2688
g714
(lp2689
(i__main__
DelphiIdentAccess
p2690
(dp2691
g209
S'section'
p2692
sg227
(lp2693
sba(idelphi
DelphiStringAccess
p2694
(dp2695
g227
(lp2696
sg134
(idelphi
DelphiStringValue
p2697
(dp2698
g134
S'Editor browser splitter'
p2699
sbsba(i__main__
DelphiIdentAccess
p2700
(dp2701
g209
S'intToStr'
p2702
sg227
(lp2703
(idelphi
DelphiFunctionEndAccess
p2704
(dp2705
g714
(lp2706
(i__main__
DelphiIdentAccess
p2707
(dp2708
g209
S'editorPanelFirstListWidth'
p2709
sg227
(lp2710
sbasbasbasbasbsba(i__main__
DelphiAssignStatement
p2711
(dp2712
g695
Nsg701
(i__main__
DelphiIdentAccess
p2713
(dp2714
g209
S'writeString'
p2715
sg227
(lp2716
(idelphi
DelphiFunctionEndAccess
p2717
(dp2718
g714
(lp2719
(i__main__
DelphiIdentAccess
p2720
(dp2721
g209
S'section'
p2722
sg227
(lp2723
sba(idelphi
DelphiStringAccess
p2724
(dp2725
g227
(lp2726
sg134
(idelphi
DelphiStringValue
p2727
(dp2728
g134
S'Picture window position'
p2729
sbsba(i__main__
DelphiIdentAccess
p2730
(dp2731
g209
S'rectToString'
p2732
sg227
(lp2733
(idelphi
DelphiFunctionEndAccess
p2734
(dp2735
g714
(lp2736
(i__main__
DelphiIdentAccess
p2737
(dp2738
g209
S'pictureWindowRect'
p2739
sg227
(lp2740
sbasbasbasbasbsbasbsS'variableReferenceList'
p2741
(lp2742
(i__main__
DelphiIdentAccess
p2743
(dp2744
g209
S'iniFile'
p2745
sg227
(lp2746
sba(i__main__
DelphiIdentAccess
p2747
(dp2748
g209
S'options'
p2749
sg227
(lp2750
sbasbasS'finallyStatements'
p2751
(lp2752
(i__main__
DelphiAssignStatement
p2753
(dp2754
g695
Nsg701
(i__main__
DelphiIdentAccess
p2755
(dp2756
g209
S'iniFile'
p2757
sg227
(lp2758
(idelphi
DelphiFieldEndAccess
p2759
(dp2760
g796
S'free'
p2761
sbasbsbasbasbsg740
(lp2762
(i__main__
DelphiVarSection
p2763
(dp2764
g296
I0
sg744
(lp2765
(idelphi
DelphiVarDecl
p2766
(dp2767
g205
Nsg748
(lp2768
S'section'
p2769
asg211
(i__main__
DelphiPrimitiveType
p2770
(dp2771
g107
g134
sbsba(idelphi
DelphiVarDecl
p2772
(dp2773
g205
Nsg748
(lp2774
S'iniFile'
p2775
asg211
(i__main__
DelphiNamedType
p2776
(dp2777
g107
S'TIniFile'
p2778
sg117
g1
sg118
Nsbsba(idelphi
DelphiVarDecl
p2779
(dp2780
g205
Nsg748
(lp2781
S'saveNumber'
p2782
asg211
(i__main__
DelphiPrimitiveType
p2783
(dp2784
g107
S'single'
p2785
sbsbasbasbsbsS'worldchangeundone'
p2786
(i__main__
DelphiMethodImplementation
p2787
(dp2788
g669
g406
sg100
g408
sg349
(lp2789
sg671
(lp2790
sg673
(lp2791
sg675
(lp2792
g677
asg678
(dp2793
sg360
S'TSDomain'
p2794
sg361
Nsg683
(lp2795
sg362
I0
sg363
g364
sg685
(i__main__
DelphiBlock
p2796
(dp2797
g688
(idelphi
DelphiCompoundStatement
p2798
(dp2799
g691
(lp2800
(i__main__
DelphiIncOrDecStatement
p2801
(dp2802
g1136
S'dec'
p2803
sg1138
Nsg701
(i__main__
DelphiIdentAccess
p2804
(dp2805
g209
S'worldChangeCount'
p2806
sg227
(lp2807
sbsba(i__main__
DelphiAssignStatement
p2808
(dp2809
g695
Nsg701
(i__main__
DelphiIdentAccess
p2810
(dp2811
g209
S'RuleEditorForm'
p2812
sg227
(lp2813
(idelphi
DelphiFieldEndAccess
p2814
(dp2815
g796
S'updateMenus'
p2816
sbasbsbasbsg740
(lp2817
sbsbsS'endupdate'
p2818
(i__main__
DelphiMethodImplementation
p2819
(dp2820
g669
g411
sg100
g413
sg349
(lp2821
sg671
(lp2822
sg673
(lp2823
sg675
(lp2824
g677
asg678
(dp2825
sg360
S'TSDomain'
p2826
sg361
Nsg683
(lp2827
sg362
I0
sg363
g364
sg685
(i__main__
DelphiBlock
p2828
(dp2829
g688
(idelphi
DelphiCompoundStatement
p2830
(dp2831
g691
(lp2832
(i__main__
DelphiIncOrDecStatement
p2833
(dp2834
g1136
g2803
sg1138
Nsg701
(i__main__
DelphiIdentAccess
p2835
(dp2836
g209
S'changeLock'
p2837
sg227
(lp2838
sbsbasbsg740
(lp2839
sbsbsS'resetworldchangecount'
p2840
(i__main__
DelphiMethodImplementation
p2841
(dp2842
g669
g416
sg100
g418
sg349
(lp2843
sg671
(lp2844
sg673
(lp2845
sg675
(lp2846
g677
asg678
(dp2847
sg360
S'TSDomain'
p2848
sg361
Nsg683
(lp2849
sg362
I0
sg363
g364
sg685
(i__main__
DelphiBlock
p2850
(dp2851
g688
(idelphi
DelphiCompoundStatement
p2852
(dp2853
g691
(lp2854
(i__main__
DelphiAssignStatement
p2855
(dp2856
g695
(idelphi
DelphiIntegerValue
p2857
(dp2858
g134
S'0'
sbsg701
(i__main__
DelphiIdentAccess
p2859
(dp2860
g209
S'worldChangeCount'
p2861
sg227
(lp2862
sbsbasbsg740
(lp2863
sbsbsS'create'
p2864
(i__main__
DelphiMethodImplementation
p2865
(dp2866
g669
g421
sg100
g423
sg349
(lp2867
sg671
(lp2868
sg673
(lp2869
sg675
(lp2870
g677
asg678
(dp2871
sg360
S'TSDomain'
p2872
sg361
Nsg683
(lp2873
sg362
I0
sg363
g425
sg685
(i__main__
DelphiBlock
p2874
(dp2875
g688
(idelphi
DelphiCompoundStatement
p2876
(dp2877
g691
(lp2878
(i__main__
DelphiAssignStatement
p2879
(dp2880
g695
Nsg701
(idelphi
DelphiInheritedCall
p2881
(dp2882
g209
S'create'
p2883
sg714
Nsbsba(i__main__
DelphiAssignStatement
p2884
(dp2885
g695
(i__main__
DelphiIdentAccess
p2886
(dp2887
g209
S'TWorld'
p2888
sg227
(lp2889
(idelphi
DelphiFieldEndAccess
p2890
(dp2891
g796
S'create'
p2892
sbasbsg701
(i__main__
DelphiIdentAccess
p2893
(dp2894
g209
S'world'
p2895
sg227
(lp2896
sbsba(i__main__
DelphiAssignStatement
p2897
(dp2898
g695
(i__main__
DelphiIdentAccess
p2899
(dp2900
g209
S'TSCommandList'
p2901
sg227
(lp2902
(idelphi
DelphiFieldEndAccess
p2903
(dp2904
g796
S'create'
p2905
sbasbsg701
(i__main__
DelphiIdentAccess
p2906
(dp2907
g209
S'sessionCommandList'
p2908
sg227
(lp2909
sbsba(i__main__
DelphiAssignStatement
p2910
(dp2911
g695
Nsg701
(i__main__
DelphiIdentAccess
p2912
(dp2913
g209
S'sessionCommandList'
p2914
sg227
(lp2915
(idelphi
DelphiFieldEndAccess
p2916
(dp2917
g796
S'setNewUndoLimit'
p2918
sba(idelphi
DelphiFunctionEndAccess
p2919
(dp2920
g714
(lp2921
(idelphi
DelphiIntegerValue
p2922
(dp2923
g134
S'1000'
p2924
sbasbasbsba(i__main__
DelphiAssignStatement
p2925
(dp2926
g695
(i__main__
DelphiIdentAccess
p2927
(dp2928
g209
S'TSCommandList'
p2929
sg227
(lp2930
(idelphi
DelphiFieldEndAccess
p2931
(dp2932
g796
S'create'
p2933
sbasbsg701
(i__main__
DelphiIdentAccess
p2934
(dp2935
g209
S'worldCommandList'
p2936
sg227
(lp2937
sbsba(i__main__
DelphiAssignStatement
p2938
(dp2939
g695
Nsg701
(i__main__
DelphiIdentAccess
p2940
(dp2941
g209
S'worldCommandList'
p2942
sg227
(lp2943
(idelphi
DelphiFieldEndAccess
p2944
(dp2945
g796
S'setNewUndoLimit'
p2946
sba(idelphi
DelphiFunctionEndAccess
p2947
(dp2948
g714
(lp2949
(idelphi
DelphiIntegerValue
p2950
(dp2951
g134
S'1000'
p2952
sbasbasbsba(i__main__
DelphiAssignStatement
p2953
(dp2954
g695
(idelphi
DelphiAddOp
p2955
(dp2956
g952
S'+'
sg953
(i__main__
DelphiIdentAccess
p2957
(dp2958
g209
S'kWorldExtension'
p2959
sg227
(lp2960
sbsg958
(idelphi
DelphiAddOp
p2961
(dp2962
g952
S'+'
sg953
(idelphi
DelphiStringAccess
p2963
(dp2964
g227
(lp2965
sg134
(idelphi
DelphiStringValue
p2966
(dp2967
g134
S'.'
sbsbsg958
(i__main__
DelphiIdentAccess
p2968
(dp2969
g209
S'kUnsavedWorldFileName'
p2970
sg227
(lp2971
sbsbsbsg701
(i__main__
DelphiIdentAccess
p2972
(dp2973
g209
S'worldFileName'
p2974
sg227
(lp2975
sbsba(i__main__
DelphiAssignStatement
p2976
(dp2977
g695
(idelphi
DelphiAddOp
p2978
(dp2979
g952
S'+'
sg953
(i__main__
DelphiIdentAccess
p2980
(dp2981
g209
S'kSessionExtension'
p2982
sg227
(lp2983
sbsg958
(idelphi
DelphiAddOp
p2984
(dp2985
g952
S'+'
sg953
(idelphi
DelphiStringAccess
p2986
(dp2987
g227
(lp2988
sg134
(idelphi
DelphiStringValue
p2989
(dp2990
g134
S'.'
sbsbsg958
(i__main__
DelphiIdentAccess
p2991
(dp2992
g209
S'kUnsavedSessionFileName'
p2993
sg227
(lp2994
sbsbsbsg701
(i__main__
DelphiIdentAccess
p2995
(dp2996
g209
S'sessionFileName'
p2997
sg227
(lp2998
sbsba(i__main__
DelphiAssignStatement
p2999
(dp3000
g695
(idelphi
DelphiIntegerValue
p3001
(dp3002
g134
S'0'
sbsg701
(i__main__
DelphiIdentAccess
p3003
(dp3004
g209
S'sessionChangeCount'
p3005
sg227
(lp3006
sbsba(i__main__
DelphiAssignStatement
p3007
(dp3008
g695
(idelphi
DelphiIntegerValue
p3009
(dp3010
g134
S'0'
sbsg701
(i__main__
DelphiIdentAccess
p3011
(dp3012
g209
S'worldChangeCount'
p3013
sg227
(lp3014
sbsba(i__main__
DelphiAssignStatement
p3015
(dp3016
g695
(i__main__
DelphiIdentAccess
p3017
(dp3018
g209
S'false'
p3019
sg227
(lp3020
sbsg701
(i__main__
DelphiIdentAccess
p3021
(dp3022
g209
S'isWorldFileLoaded'
p3023
sg227
(lp3024
sbsba(i__main__
DelphiAssignStatement
p3025
(dp3026
g695
(i__main__
DelphiIdentAccess
p3027
(dp3028
g209
S'TSMapView'
p3029
sg227
(lp3030
(idelphi
DelphiFieldEndAccess
p3031
(dp3032
g796
S'create'
p3033
sbasbsg701
(i__main__
DelphiIdentAccess
p3034
(dp3035
g209
S'mapView'
p3036
sg227
(lp3037
sbsba(i__main__
DelphiAssignStatement
p3038
(dp3039
g695
(idelphi
DelphiStringAccess
p3040
(dp3041
g227
(lp3042
sg134
(idelphi
DelphiStringValue
p3043
(dp3044
g134
S''
sbsbsg701
(i__main__
DelphiIdentAccess
p3045
(dp3046
g209
S'sessionOrWorldStartupFileName'
p3047
sg227
(lp3048
sbsba(i__main__
DelphiAssignStatement
p3049
(dp3050
g695
(i__main__
DelphiIdentAccess
p3051
(dp3052
g209
S'false'
p3053
sg227
(lp3054
sbsg701
(i__main__
DelphiIdentAccess
p3055
(dp3056
g209
S'playerOnly'
p3057
sg227
(lp3058
sbsba(i__main__
DelphiAssignStatement
p3059
(dp3060
g695
(i__main__
DelphiIdentAccess
p3061
(dp3062
g209
S'true'
p3063
sg227
(lp3064
sbsg701
(i__main__
DelphiIdentAccess
p3065
(dp3066
g209
S'useIniFile'
p3067
sg227
(lp3068
sbsba(i__main__
DelphiAssignStatement
p3069
(dp3070
g695
(i__main__
DelphiIdentAccess
p3071
(dp3072
g209
S'kDefaultIniFileName'
p3073
sg227
(lp3074
sbsg701
(i__main__
DelphiIdentAccess
p3075
(dp3076
g209
S'iniFileName'
p3077
sg227
(lp3078
sbsba(i__main__
DelphiAssignStatement
p3079
(dp3080
g695
Nsg701
(i__main__
DelphiIdentAccess
p3081
(dp3082
g209
S'self'
p3083
sg227
(lp3084
(idelphi
DelphiFieldEndAccess
p3085
(dp3086
g796
S'readCommandLine'
p3087
sbasbsba(i__main__
DelphiAssignStatement
p3088
(dp3089
g695
Nsg701
(i__main__
DelphiIdentAccess
p3090
(dp3091
g209
S'self'
p3092
sg227
(lp3093
(idelphi
DelphiFieldEndAccess
p3094
(dp3095
g796
S'readIniFile'
p3096
sbasbsba(i__main__
DelphiAssignStatement
p3097
(dp3098
g695
(i__main__
DelphiIdentAccess
p3099
(dp3100
g209
S'Now'
p3101
sg227
(lp3102
sbsg701
(i__main__
DelphiIdentAccess
p3103
(dp3104
g209
S'startTimeThisSession'
p3105
sg227
(lp3106
sbsg97
(lp3107
S' if not registered then  // registration stored in ini file\r'
p3108
asba(i__main__
DelphiAssignStatement
p3109
(dp3110
g695
(i__main__
DelphiIdentAccess
p3111
(dp3112
g209
S'false'
p3113
sg227
(lp3114
sbsg701
(i__main__
DelphiIdentAccess
p3115
(dp3116
g209
S'justRegistered'
p3117
sg227
(lp3118
sbsbasbsg740
(lp3119
sbsbsS'newsession'
p3120
(i__main__
DelphiMethodImplementation
p3121
(dp3122
g669
g427
sg100
g429
sg349
(lp3123
sg671
(lp3124
sg673
(lp3125
sg675
(lp3126
g677
asg678
(dp3127
sg360
S'TSDomain'
p3128
sg361
Nsg683
(lp3129
sg362
I0
sg363
g364
sg685
(i__main__
DelphiBlock
p3130
(dp3131
g688
(idelphi
DelphiCompoundStatement
p3132
(dp3133
g691
(lp3134
(i__main__
DelphiAssignStatement
p3135
(dp3136
g695
Nsg701
(i__main__
DelphiIdentAccess
p3137
(dp3138
g209
S'sessionCommandList'
p3139
sg227
(lp3140
(idelphi
DelphiFieldEndAccess
p3141
(dp3142
g796
S'clear'
p3143
sbasbsba(i__main__
DelphiAssignStatement
p3144
(dp3145
g695
(idelphi
DelphiAddOp
p3146
(dp3147
g952
S'+'
sg953
(i__main__
DelphiIdentAccess
p3148
(dp3149
g209
S'kSessionExtension'
p3150
sg227
(lp3151
sbsg958
(idelphi
DelphiAddOp
p3152
(dp3153
g952
S'+'
sg953
(idelphi
DelphiStringAccess
p3154
(dp3155
g227
(lp3156
sg134
(idelphi
DelphiStringValue
p3157
(dp3158
g134
S'.'
sbsbsg958
(i__main__
DelphiIdentAccess
p3159
(dp3160
g209
S'kUnsavedSessionFileName'
p3161
sg227
(lp3162
sbsbsbsg701
(i__main__
DelphiIdentAccess
p3163
(dp3164
g209
S'sessionFileName'
p3165
sg227
(lp3166
sbsba(i__main__
DelphiAssignStatement
p3167
(dp3168
g695
(idelphi
DelphiIntegerValue
p3169
(dp3170
g134
S'0'
sbsg701
(i__main__
DelphiIdentAccess
p3171
(dp3172
g209
S'sessionChangeCount'
p3173
sg227
(lp3174
sbsba(i__main__
DelphiAssignStatement
p3175
(dp3176
g695
Nsg701
(i__main__
DelphiIdentAccess
p3177
(dp3178
g209
S'world'
p3179
sg227
(lp3180
(idelphi
DelphiFieldEndAccess
p3181
(dp3182
g796
S'newSession'
p3183
sbasbsbasbsg740
(lp3184
sbsbsS'loadini'
p3185
(i__main__
DelphiMethodImplementation
p3186
(dp3187
g669
g432
sg100
g434
sg349
(lp3188
(i__main__
DelphiFormalParameter
p3189
(dp3190
g353
Nsg354
(lp3191
S'section'
p3192
asg211
(i__main__
DelphiPrimitiveType
p3193
(dp3194
g107
g134
sbsg359
g442
sba(i__main__
DelphiFormalParameter
p3195
(dp3196
g353
Nsg354
(lp3197
S'theField'
p3198
asg211
(i__main__
DelphiPrimitiveType
p3199
(dp3200
g107
g134
sbsg359
g442
sba(i__main__
DelphiFormalParameter
p3201
(dp3202
g353
Nsg354
(lp3203
S'theDefault'
p3204
asg211
(i__main__
DelphiPrimitiveType
p3205
(dp3206
g107
g134
sbsg359
g442
sbasg671
(lp3207
sg673
(lp3208
sg675
(lp3209
g677
ag3192
ag3198
ag3204
asg678
(dp3210
g3192
g3193
sg3204
g3205
sg3198
g3199
ssg360
S'TSDomain'
p3211
sg361
(i__main__
DelphiPrimitiveType
p3212
(dp3213
g107
g134
sbsg683
(lp3214
sg362
I0
sg363
g372
sg685
(i__main__
DelphiBlock
p3215
(dp3216
g688
(idelphi
DelphiCompoundStatement
p3217
(dp3218
g691
(lp3219
(i__main__
DelphiAssignStatement
p3220
(dp3221
g695
(i__main__
DelphiIdentAccess
p3222
(dp3223
g209
S'TIniFile'
p3224
sg227
(lp3225
(idelphi
DelphiFieldEndAccess
p3226
(dp3227
g796
S'create'
p3228
sba(idelphi
DelphiFunctionEndAccess
p3229
(dp3230
g714
(lp3231
(i__main__
DelphiIdentAccess
p3232
(dp3233
g209
S'iniFileName'
p3234
sg227
(lp3235
sbasbasbsg701
(i__main__
DelphiIdentAccess
p3236
(dp3237
g209
S'iniFile'
p3238
sg227
(lp3239
sbsba(idelphi
DelphiTryFinallyStatement
p3240
(dp3241
g1190
(lp3242
(i__main__
DelphiAssignStatement
p3243
(dp3244
g695
(i__main__
DelphiIdentAccess
p3245
(dp3246
g209
S'iniFile'
p3247
sg227
(lp3248
(idelphi
DelphiFieldEndAccess
p3249
(dp3250
g796
S'ReadString'
p3251
sba(idelphi
DelphiFunctionEndAccess
p3252
(dp3253
g714
(lp3254
(i__main__
DelphiIdentAccess
p3255
(dp3256
g209
S'section'
p3257
sg227
(lp3258
sba(i__main__
DelphiIdentAccess
p3259
(dp3260
g209
S'theField'
p3261
sg227
(lp3262
sba(i__main__
DelphiIdentAccess
p3263
(dp3264
g209
S'theDefault'
p3265
sg227
(lp3266
sbasbasbsg701
(i__main__
DelphiIdentAccess
p3267
(dp3268
g209
S'result'
p3269
sg227
(lp3270
sbsbasg2751
(lp3271
(i__main__
DelphiAssignStatement
p3272
(dp3273
g695
Nsg701
(i__main__
DelphiIdentAccess
p3274
(dp3275
g209
S'iniFile'
p3276
sg227
(lp3277
(idelphi
DelphiFieldEndAccess
p3278
(dp3279
g796
S'free'
p3280
sbasbsbasbasbsg740
(lp3281
(i__main__
DelphiVarSection
p3282
(dp3283
g296
I0
sg744
(lp3284
(idelphi
DelphiVarDecl
p3285
(dp3286
g205
Nsg748
(lp3287
S'iniFile'
p3288
asg211
(i__main__
DelphiNamedType
p3289
(dp3290
g107
S'TIniFile'
p3291
sg117
g1
sg118
NsbsbasbasbsbsS'savesession'
p3292
(i__main__
DelphiMethodImplementation
p3293
(dp3294
g669
g458
sg100
g460
sg349
(lp3295
(i__main__
DelphiFormalParameter
p3296
(dp3297
g353
Nsg354
(lp3298
S'fileName'
p3299
asg211
(i__main__
DelphiPrimitiveType
p3300
(dp3301
g107
g134
sbsg359
Nsbasg671
(lp3302
sg673
(lp3303
sg675
(lp3304
g677
ag3299
asg678
(dp3305
g3299
g3300
ssg360
S'TSDomain'
p3306
sg361
Nsg683
(lp3307
sg362
I0
sg363
g364
sg685
(i__main__
DelphiBlock
p3308
(dp3309
g688
(idelphi
DelphiCompoundStatement
p3310
(dp3311
g691
(lp3312
(i__main__
DelphiAssignStatement
p3313
(dp3314
g695
Nsg701
(i__main__
DelphiIdentAccess
p3315
(dp3316
g209
S'world'
p3317
sg227
(lp3318
(idelphi
DelphiFieldEndAccess
p3319
(dp3320
g796
S'saveSessionToFile'
p3321
sba(idelphi
DelphiFunctionEndAccess
p3322
(dp3323
g714
(lp3324
(i__main__
DelphiIdentAccess
p3325
(dp3326
g209
S'fileName'
p3327
sg227
(lp3328
sba(i__main__
DelphiIdentAccess
p3329
(dp3330
g209
S'ExtractFileName'
p3331
sg227
(lp3332
(idelphi
DelphiFunctionEndAccess
p3333
(dp3334
g714
(lp3335
(i__main__
DelphiIdentAccess
p3336
(dp3337
g209
S'worldfileName'
p3338
sg227
(lp3339
sbasbasbasbasbsba(i__main__
DelphiAssignStatement
p3340
(dp3341
g695
(i__main__
DelphiIdentAccess
p3342
(dp3343
g209
S'worldfileName'
p3344
sg227
(lp3345
sbsg701
(i__main__
DelphiIdentAccess
p3346
(dp3347
g209
S'options'
p3348
sg227
(lp3349
(idelphi
DelphiFieldEndAccess
p3350
(dp3351
g796
S'mostRecentWorld'
p3352
sbasbsbasbsg740
(lp3353
sbsbsS'defaultoptions'
p3354
(i__main__
DelphiMethodImplementation
p3355
(dp3356
g669
g469
sg100
g471
sg349
(lp3357
sg671
(lp3358
sg673
(lp3359
sg675
(lp3360
g677
asg678
(dp3361
sg360
S'TSDomain'
p3362
sg361
Nsg683
(lp3363
sg362
I0
sg363
g364
sg685
(i__main__
DelphiBlock
p3364
(dp3365
g688
(idelphi
DelphiCompoundStatement
p3366
(dp3367
g691
(lp3368
(idelphi
DelphiWithStatement
p3369
(dp3370
g1194
(idelphi
DelphiCompoundStatement
p3371
(dp3372
g691
(lp3373
(i__main__
DelphiAssignStatement
p3374
(dp3375
g695
(idelphi
DelphiAddOp
p3376
(dp3377
g952
S'+'
sg953
(i__main__
DelphiIdentAccess
p3378
(dp3379
g209
S'kDefaultLogFileName'
p3380
sg227
(lp3381
sbsg958
(i__main__
DelphiIdentAccess
p3382
(dp3383
g209
S'ExtractFilePath'
p3384
sg227
(lp3385
(idelphi
DelphiFunctionEndAccess
p3386
(dp3387
g714
(lp3388
(i__main__
DelphiIdentAccess
p3389
(dp3390
g209
S'Application'
p3391
sg227
(lp3392
(idelphi
DelphiFieldEndAccess
p3393
(dp3394
g796
S'exeName'
p3395
sbasbasbasbsbsg701
(i__main__
DelphiIdentAccess
p3396
(dp3397
g209
S'logFileName'
p3398
sg227
(lp3399
sbsg97
(lp3400
S' this is for first-time use, when there is no ini file\r'
p3401
aS' files\r'
p3402
asba(i__main__
DelphiAssignStatement
p3403
(dp3404
g695
(idelphi
DelphiAddOp
p3405
(dp3406
g952
S'+'
sg953
(i__main__
DelphiIdentAccess
p3407
(dp3408
g209
S'kDefaultAgentCharacterFileName'
p3409
sg227
(lp3410
sbsg958
(i__main__
DelphiIdentAccess
p3411
(dp3412
g209
S'ExtractFilePath'
p3413
sg227
(lp3414
(idelphi
DelphiFunctionEndAccess
p3415
(dp3416
g714
(lp3417
(i__main__
DelphiIdentAccess
p3418
(dp3419
g209
S'Application'
p3420
sg227
(lp3421
(idelphi
DelphiFieldEndAccess
p3422
(dp3423
g796
S'exeName'
p3424
sbasbasbasbsbsg701
(i__main__
DelphiIdentAccess
p3425
(dp3426
g209
S'agentCharacterFileName'
p3427
sg227
(lp3428
sbsba(i__main__
DelphiAssignStatement
p3429
(dp3430
g695
(idelphi
DelphiStringAccess
p3431
(dp3432
g227
(lp3433
sg134
(idelphi
DelphiStringValue
p3434
(dp3435
g134
S''
sbsbsg701
(i__main__
DelphiIdentAccess
p3436
(dp3437
g209
S'extraMediaDirectory'
p3438
sg227
(lp3439
sbsba(i__main__
DelphiAssignStatement
p3440
(dp3441
g695
(idelphi
DelphiStringAccess
p3442
(dp3443
g227
(lp3444
sg134
(idelphi
DelphiStringValue
p3445
(dp3446
g134
S''
sbsbsg701
(i__main__
DelphiIdentAccess
p3447
(dp3448
g209
S'mostRecentSession'
p3449
sg227
(lp3450
sbsba(i__main__
DelphiAssignStatement
p3451
(dp3452
g695
(idelphi
DelphiStringAccess
p3453
(dp3454
g227
(lp3455
sg134
(idelphi
DelphiStringValue
p3456
(dp3457
g134
S''
sbsbsg701
(i__main__
DelphiIdentAccess
p3458
(dp3459
g209
S'mostRecentWorld'
p3460
sg227
(lp3461
sbsba(i__main__
DelphiAssignStatement
p3462
(dp3463
g695
(i__main__
DelphiIdentAccess
p3464
(dp3465
g209
S'true'
p3466
sg227
(lp3467
sbsg701
(i__main__
DelphiIdentAccess
p3468
(dp3469
g209
S'playerSpeak'
p3470
sg227
(lp3471
sbsg97
(lp3472
S' player options\r'
p3473
asba(i__main__
DelphiAssignStatement
p3474
(dp3475
g695
(i__main__
DelphiIdentAccess
p3476
(dp3477
g209
S'true'
p3478
sg227
(lp3479
sbsg701
(i__main__
DelphiIdentAccess
p3480
(dp3481
g209
S'playerPlaySounds'
p3482
sg227
(lp3483
sbsba(i__main__
DelphiAssignStatement
p3484
(dp3485
g695
(i__main__
DelphiIdentAccess
p3486
(dp3487
g209
S'true'
p3488
sg227
(lp3489
sbsg701
(i__main__
DelphiIdentAccess
p3490
(dp3491
g209
S'playerPlayMusic'
p3492
sg227
(lp3493
sbsba(i__main__
DelphiAssignStatement
p3494
(dp3495
g695
(i__main__
DelphiIdentAccess
p3496
(dp3497
g209
S'true'
p3498
sg227
(lp3499
sbsg701
(i__main__
DelphiIdentAccess
p3500
(dp3501
g209
S'showTranscript'
p3502
sg227
(lp3503
sbsba(i__main__
DelphiAssignStatement
p3504
(dp3505
g695
(i__main__
DelphiIdentAccess
p3506
(dp3507
g209
S'true'
p3508
sg227
(lp3509
sbsg701
(i__main__
DelphiIdentAccess
p3510
(dp3511
g209
S'showPictures'
p3512
sg227
(lp3513
sbsba(i__main__
DelphiAssignStatement
p3514
(dp3515
g695
(i__main__
DelphiIdentAccess
p3516
(dp3517
g209
S'true'
p3518
sg227
(lp3519
sbsg701
(i__main__
DelphiIdentAccess
p3520
(dp3521
g209
S'sayOptionsAfterLook'
p3522
sg227
(lp3523
sbsba(i__main__
DelphiAssignStatement
p3524
(dp3525
g695
(i__main__
DelphiIdentAccess
p3526
(dp3527
g209
S'false'
p3528
sg227
(lp3529
sbsg701
(i__main__
DelphiIdentAccess
p3530
(dp3531
g209
S'useVoiceToUndo'
p3532
sg227
(lp3533
sbsba(i__main__
DelphiAssignStatement
p3534
(dp3535
g695
(i__main__
DelphiIdentAccess
p3536
(dp3537
g209
S'false'
p3538
sg227
(lp3539
sbsg701
(i__main__
DelphiIdentAccess
p3540
(dp3541
g209
S'useVoiceToRedo'
p3542
sg227
(lp3543
sbsba(i__main__
DelphiAssignStatement
p3544
(dp3545
g695
(i__main__
DelphiIdentAccess
p3546
(dp3547
g209
S'false'
p3548
sg227
(lp3549
sbsg701
(i__main__
DelphiIdentAccess
p3550
(dp3551
g209
S'showVariables'
p3552
sg227
(lp3553
sbsba(i__main__
DelphiAssignStatement
p3554
(dp3555
g695
(i__main__
DelphiIdentAccess
p3556
(dp3557
g209
S'true'
p3558
sg227
(lp3559
sbsg701
(i__main__
DelphiIdentAccess
p3560
(dp3561
g209
S'updateEditorAfterCommandDone'
p3562
sg227
(lp3563
sbsba(i__main__
DelphiAssignStatement
p3564
(dp3565
g695
(i__main__
DelphiIdentAccess
p3566
(dp3567
g209
S'false'
p3568
sg227
(lp3569
sbsg701
(i__main__
DelphiIdentAccess
p3570
(dp3571
g209
S'suppressAgentNotPresentWarning'
p3572
sg227
(lp3573
sbsba(i__main__
DelphiAssignStatement
p3574
(dp3575
g695
(idelphi
DelphiIntegerValue
p3576
(dp3577
g134
S'8'
sbsg701
(i__main__
DelphiIdentAccess
p3578
(dp3579
g209
S'playerFontSize'
p3580
sg227
(lp3581
sbsba(i__main__
DelphiAssignStatement
p3582
(dp3583
g695
(idelphi
DelphiStringAccess
p3584
(dp3585
g227
(lp3586
sg134
(idelphi
DelphiStringValue
p3587
(dp3588
g134
S'Arial'
p3589
sbsbsg701
(i__main__
DelphiIdentAccess
p3590
(dp3591
g209
S'playerFontName'
p3592
sg227
(lp3593
sbsba(i__main__
DelphiAssignStatement
p3594
(dp3595
g695
(i__main__
DelphiIdentAccess
p3596
(dp3597
g209
S'clYellow'
p3598
sg227
(lp3599
sbsg701
(i__main__
DelphiIdentAccess
p3600
(dp3601
g209
S'selectedItemColor'
p3602
sg227
(lp3603
sbsg97
(lp3604
S' editor options\r'
p3605
asba(i__main__
DelphiAssignStatement
p3606
(dp3607
g695
(i__main__
DelphiIdentAccess
p3608
(dp3609
g209
S'clBlack'
p3610
sg227
(lp3611
sbsg701
(i__main__
DelphiIdentAccess
p3612
(dp3613
g209
S'selectedTextColor'
p3614
sg227
(lp3615
sbsba(i__main__
DelphiAssignStatement
p3616
(dp3617
g695
(i__main__
DelphiIdentAccess
p3618
(dp3619
g209
S'clBlue'
p3620
sg227
(lp3621
sbsg701
(i__main__
DelphiIdentAccess
p3622
(dp3623
g209
S'commandTextColorInMap'
p3624
sg227
(lp3625
sbsba(i__main__
DelphiAssignStatement
p3626
(dp3627
g695
(i__main__
DelphiIdentAccess
p3628
(dp3629
g209
S'true'
p3630
sg227
(lp3631
sbsg701
(i__main__
DelphiIdentAccess
p3632
(dp3633
g209
S'showCommandsInMap'
p3634
sg227
(lp3635
sbsba(i__main__
DelphiAssignStatement
p3636
(dp3637
g695
(i__main__
DelphiIdentAccess
p3638
(dp3639
g209
S'false'
p3640
sg227
(lp3641
sbsg701
(i__main__
DelphiIdentAccess
p3642
(dp3643
g209
S'showCommandPrefixInMap'
p3644
sg227
(lp3645
sbsba(i__main__
DelphiAssignStatement
p3646
(dp3647
g695
(idelphi
DelphiStringAccess
p3648
(dp3649
g227
(lp3650
sg134
(idelphi
DelphiStringValue
p3651
(dp3652
g134
S'Arial'
p3653
sbsbsg701
(i__main__
DelphiIdentAccess
p3654
(dp3655
g209
S'tableFontName'
p3656
sg227
(lp3657
sbsba(i__main__
DelphiAssignStatement
p3658
(dp3659
g695
(idelphi
DelphiIntegerValue
p3660
(dp3661
g134
S'8'
sbsg701
(i__main__
DelphiIdentAccess
p3662
(dp3663
g209
S'tableFontSize'
p3664
sg227
(lp3665
sbsba(i__main__
DelphiAssignStatement
p3666
(dp3667
g695
(idelphi
DelphiStringAccess
p3668
(dp3669
g227
(lp3670
sg134
(idelphi
DelphiStringValue
p3671
(dp3672
g134
S'Arial'
p3673
sbsbsg701
(i__main__
DelphiIdentAccess
p3674
(dp3675
g209
S'mapFontName'
p3676
sg227
(lp3677
sbsba(i__main__
DelphiAssignStatement
p3678
(dp3679
g695
(idelphi
DelphiIntegerValue
p3680
(dp3681
g134
S'8'
sbsg701
(i__main__
DelphiIdentAccess
p3682
(dp3683
g209
S'mapFontSize'
p3684
sg227
(lp3685
sbsba(i__main__
DelphiAssignStatement
p3686
(dp3687
g695
(idelphi
DelphiStringAccess
p3688
(dp3689
g227
(lp3690
sg134
(idelphi
DelphiStringValue
p3691
(dp3692
g134
S'Arial'
p3693
sbsbsg701
(i__main__
DelphiIdentAccess
p3694
(dp3695
g209
S'browserFontName'
p3696
sg227
(lp3697
sbsba(i__main__
DelphiAssignStatement
p3698
(dp3699
g695
(idelphi
DelphiIntegerValue
p3700
(dp3701
g134
S'8'
sbsg701
(i__main__
DelphiIdentAccess
p3702
(dp3703
g209
S'browserFontSize'
p3704
sg227
(lp3705
sbsba(i__main__
DelphiAssignStatement
p3706
(dp3707
g695
(i__main__
DelphiIdentAccess
p3708
(dp3709
g209
S'true'
p3710
sg227
(lp3711
sbsg701
(i__main__
DelphiIdentAccess
p3712
(dp3713
g209
S'showRuleEditor'
p3714
sg227
(lp3715
sbsba(i__main__
DelphiAssignStatement
p3716
(dp3717
g695
(i__main__
DelphiIdentAccess
p3718
(dp3719
g209
S'true'
p3720
sg227
(lp3721
sbsg701
(i__main__
DelphiIdentAccess
p3722
(dp3723
g209
S'showButtonBar'
p3724
sg227
(lp3725
sbsba(i__main__
DelphiAssignStatement
p3726
(dp3727
g695
(i__main__
DelphiIdentAccess
p3728
(dp3729
g209
S'kRuleContext'
p3730
sg227
(lp3731
sbsg701
(i__main__
DelphiIdentAccess
p3732
(dp3733
g209
S'browseBy'
p3734
sg227
(lp3735
sbsba(i__main__
DelphiAssignStatement
p3736
(dp3737
g695
(idelphi
DelphiIntegerValue
p3738
(dp3739
g134
S'0'
sbsg701
(i__main__
DelphiIdentAccess
p3740
(dp3741
g209
S'pageShowing'
p3742
sg227
(lp3743
sbsba(i__main__
DelphiAssignStatement
p3744
(dp3745
g695
(i__main__
DelphiIdentAccess
p3746
(dp3747
g209
S'false'
p3748
sg227
(lp3749
sbsg701
(i__main__
DelphiIdentAccess
p3750
(dp3751
g209
S'buttonSymbols'
p3752
sg227
(lp3753
sbsba(i__main__
DelphiAssignStatement
p3754
(dp3755
g695
(i__main__
DelphiIdentAccess
p3756
(dp3757
g209
S'Rect'
p3758
sg227
(lp3759
(idelphi
DelphiFunctionEndAccess
p3760
(dp3761
g714
(lp3762
(idelphi
DelphiIntegerValue
p3763
(dp3764
g134
S'150'
p3765
sba(idelphi
DelphiIntegerValue
p3766
(dp3767
g134
S'20'
p3768
sba(idelphi
DelphiIntegerValue
p3769
(dp3770
g134
S'200'
p3771
sba(idelphi
DelphiIntegerValue
p3772
(dp3773
g134
S'420'
p3774
sbasbasbsg701
(i__main__
DelphiIdentAccess
p3775
(dp3776
g209
S'consoleWindowRect'
p3777
sg227
(lp3778
sbsg97
(lp3779
S' windows\r'
p3780
asba(i__main__
DelphiAssignStatement
p3781
(dp3782
g695
(i__main__
DelphiIdentAccess
p3783
(dp3784
g209
S'Rect'
p3785
sg227
(lp3786
(idelphi
DelphiFunctionEndAccess
p3787
(dp3788
g714
(lp3789
(idelphi
DelphiIntegerValue
p3790
(dp3791
g134
S'40'
p3792
sba(idelphi
DelphiIntegerValue
p3793
(dp3794
g134
S'30'
p3795
sba(idelphi
DelphiIntegerValue
p3796
(dp3797
g134
S'560'
p3798
sba(idelphi
DelphiIntegerValue
p3799
(dp3800
g134
S'400'
p3801
sbasbasbsg701
(i__main__
DelphiIdentAccess
p3802
(dp3803
g209
S'editorWindowRect'
p3804
sg227
(lp3805
sbsba(i__main__
DelphiAssignStatement
p3806
(dp3807
g695
(i__main__
DelphiIdentAccess
p3808
(dp3809
g209
S'Rect'
p3810
sg227
(lp3811
(idelphi
DelphiFunctionEndAccess
p3812
(dp3813
g714
(lp3814
(idelphi
DelphiIntegerValue
p3815
(dp3816
g134
S'50'
p3817
sba(idelphi
DelphiIntegerValue
p3818
(dp3819
g134
S'50'
p3820
sba(idelphi
DelphiIntegerValue
p3821
(dp3822
g134
S'550'
p3823
sba(idelphi
DelphiIntegerValue
p3824
(dp3825
g134
S'400'
p3826
sbasbasbsg701
(i__main__
DelphiIdentAccess
p3827
(dp3828
g209
S'logFileWindowRect'
p3829
sg227
(lp3830
sbsba(i__main__
DelphiAssignStatement
p3831
(dp3832
g695
(idelphi
DelphiIntegerValue
p3833
(dp3834
g134
S'200'
p3835
sbsg701
(i__main__
DelphiIdentAccess
p3836
(dp3837
g209
S'consoleBottomHeight'
p3838
sg227
(lp3839
sbsba(i__main__
DelphiAssignStatement
p3840
(dp3841
g695
(idelphi
DelphiIntegerValue
p3842
(dp3843
g134
S'200'
p3844
sbsg701
(i__main__
DelphiIdentAccess
p3845
(dp3846
g209
S'consoleRightWidth'
p3847
sg227
(lp3848
sbsba(i__main__
DelphiAssignStatement
p3849
(dp3850
g695
(idelphi
DelphiIntegerValue
p3851
(dp3852
g134
S'150'
p3853
sbsg701
(i__main__
DelphiIdentAccess
p3854
(dp3855
g209
S'editorPanelEditorHeight'
p3856
sg227
(lp3857
sbsba(i__main__
DelphiAssignStatement
p3858
(dp3859
g695
(idelphi
DelphiIntegerValue
p3860
(dp3861
g134
S'100'
p3862
sbsg701
(i__main__
DelphiIdentAccess
p3863
(dp3864
g209
S'editorPanelRequirementsChangesHeight'
p3865
sg227
(lp3866
sbsba(i__main__
DelphiAssignStatement
p3867
(dp3868
g695
(idelphi
DelphiIntegerValue
p3869
(dp3870
g134
S'200'
p3871
sbsg701
(i__main__
DelphiIdentAccess
p3872
(dp3873
g209
S'editorPanelFirstListWidth'
p3874
sg227
(lp3875
sbsba(i__main__
DelphiAssignStatement
p3876
(dp3877
g695
(i__main__
DelphiIdentAccess
p3878
(dp3879
g209
S'Rect'
p3880
sg227
(lp3881
(idelphi
DelphiFunctionEndAccess
p3882
(dp3883
g714
(lp3884
(idelphi
DelphiIntegerValue
p3885
(dp3886
g134
S'200'
p3887
sba(idelphi
DelphiIntegerValue
p3888
(dp3889
g134
S'200'
p3890
sba(idelphi
DelphiIntegerValue
p3891
(dp3892
g134
S'200'
p3893
sba(idelphi
DelphiIntegerValue
p3894
(dp3895
g134
S'200'
p3896
sbasbasbsg701
(i__main__
DelphiIdentAccess
p3897
(dp3898
g209
S'pictureWindowRect'
p3899
sg227
(lp3900
sbsbasbsg2741
(lp3901
(i__main__
DelphiIdentAccess
p3902
(dp3903
g209
S'options'
p3904
sg227
(lp3905
sbasbasbsg740
(lp3906
sbsbsS'loadfileatstartupandinitializeforms'
p3907
(i__main__
DelphiMethodImplementation
p3908
(dp3909
g669
g474
sg100
g476
sg349
(lp3910
sg671
(lp3911
sg673
(lp3912
sg675
(lp3913
g677
asg678
(dp3914
sg360
S'TSDomain'
p3915
sg361
Nsg683
(lp3916
sg362
I0
sg363
g364
sg685
(i__main__
DelphiBlock
p3917
(dp3918
g688
(idelphi
DelphiCompoundStatement
p3919
(dp3920
g691
(lp3921
(idelphi
DelphiIfStatement
p3922
(dp3923
g860
(idelphi
DelphiRelOp
p3924
(dp3925
S'simpleExpression1'
p3926
(i__main__
DelphiIdentAccess
p3927
(dp3928
g209
S'sessionOrWorldStartupFileName'
p3929
sg227
(lp3930
sbsS'simpleExpression2'
p3931
(idelphi
DelphiStringAccess
p3932
(dp3933
g227
(lp3934
sg134
(idelphi
DelphiStringValue
p3935
(dp3936
g134
S''
sbsbsS'relOp'
p3937
S'<>'
p3938
sbsg886
(idelphi
DelphiCompoundStatement
p3939
(dp3940
g691
(lp3941
(idelphi
DelphiIfStatement
p3942
(dp3943
g860
(idelphi
DelphiMulOp
p3944
(dp3945
g2335
(idelphi
DelphiNestedExpressionListAccess
p3946
(dp3947
g227
(lp3948
sg714
(lp3949
(i__main__
DelphiIdentAccess
p3950
(dp3951
g209
S'fileExists'
p3952
sg227
(lp3953
(idelphi
DelphiFunctionEndAccess
p3954
(dp3955
g714
(lp3956
(i__main__
DelphiIdentAccess
p3957
(dp3958
g209
S'options'
p3959
sg227
(lp3960
(idelphi
DelphiFieldEndAccess
p3961
(dp3962
g796
S'mostRecentSession'
p3963
sbasbasbasbasbsg2350
g2351
sg2352
(idelphi
DelphiNestedExpressionListAccess
p3964
(dp3965
g227
(lp3966
sg714
(lp3967
(idelphi
DelphiRelOp
p3968
(dp3969
g3926
(i__main__
DelphiIdentAccess
p3970
(dp3971
g209
S'options'
p3972
sg227
(lp3973
(idelphi
DelphiFieldEndAccess
p3974
(dp3975
g796
S'mostRecentSession'
p3976
sbasbsg3931
(idelphi
DelphiStringAccess
p3977
(dp3978
g227
(lp3979
sg134
(idelphi
DelphiStringValue
p3980
(dp3981
g134
S''
sbsbsg3937
g3938
sbasbsbsg886
(idelphi
DelphiIfStatement
p3982
(dp3983
g860
(idelphi
DelphiMulOp
p3984
(dp3985
g2335
(idelphi
DelphiNestedExpressionListAccess
p3986
(dp3987
g227
(lp3988
sg714
(lp3989
(i__main__
DelphiIdentAccess
p3990
(dp3991
g209
S'fileExists'
p3992
sg227
(lp3993
(idelphi
DelphiFunctionEndAccess
p3994
(dp3995
g714
(lp3996
(i__main__
DelphiIdentAccess
p3997
(dp3998
g209
S'options'
p3999
sg227
(lp4000
(idelphi
DelphiFieldEndAccess
p4001
(dp4002
g796
S'mostRecentWorld'
p4003
sbasbasbasbasbsg2350
g2351
sg2352
(idelphi
DelphiNestedExpressionListAccess
p4004
(dp4005
g227
(lp4006
sg714
(lp4007
(idelphi
DelphiRelOp
p4008
(dp4009
g3926
(i__main__
DelphiIdentAccess
p4010
(dp4011
g209
S'options'
p4012
sg227
(lp4013
(idelphi
DelphiFieldEndAccess
p4014
(dp4015
g796
S'mostRecentWorld'
p4016
sbasbsg3931
(idelphi
DelphiStringAccess
p4017
(dp4018
g227
(lp4019
sg134
(idelphi
DelphiStringValue
p4020
(dp4021
g134
S''
sbsbsg3937
g3938
sbasbsbsg886
Nsg887
(i__main__
DelphiAssignStatement
p4022
(dp4023
g695
Nsg701
(i__main__
DelphiIdentAccess
p4024
(dp4025
g209
S'ConsoleForm'
p4026
sg227
(lp4027
(idelphi
DelphiFieldEndAccess
p4028
(dp4029
g796
S'openSessionOrWorldFile'
p4030
sba(idelphi
DelphiFunctionEndAccess
p4031
(dp4032
g714
(lp4033
(i__main__
DelphiIdentAccess
p4034
(dp4035
g209
S'options'
p4036
sg227
(lp4037
(idelphi
DelphiFieldEndAccess
p4038
(dp4039
g796
S'mostRecentWorld'
p4040
sbasbasbasbsbsbsg887
(i__main__
DelphiAssignStatement
p4041
(dp4042
g695
Nsg701
(i__main__
DelphiIdentAccess
p4043
(dp4044
g209
S'ConsoleForm'
p4045
sg227
(lp4046
(idelphi
DelphiFieldEndAccess
p4047
(dp4048
g796
S'openSessionOrWorldFile'
p4049
sba(idelphi
DelphiFunctionEndAccess
p4050
(dp4051
g714
(lp4052
(i__main__
DelphiIdentAccess
p4053
(dp4054
g209
S'options'
p4055
sg227
(lp4056
(idelphi
DelphiFieldEndAccess
p4057
(dp4058
g796
S'mostRecentSession'
p4059
sbasbasbasbsbsbasbsg887
(i__main__
DelphiAssignStatement
p4060
(dp4061
g695
Nsg701
(i__main__
DelphiIdentAccess
p4062
(dp4063
g209
S'ConsoleForm'
p4064
sg227
(lp4065
(idelphi
DelphiFieldEndAccess
p4066
(dp4067
g796
S'openSessionOrWorldFile'
p4068
sba(idelphi
DelphiFunctionEndAccess
p4069
(dp4070
g714
(lp4071
(i__main__
DelphiIdentAccess
p4072
(dp4073
g209
S'ParamStr'
p4074
sg227
(lp4075
(idelphi
DelphiFunctionEndAccess
p4076
(dp4077
g714
(lp4078
(idelphi
DelphiIntegerValue
p4079
(dp4080
g134
S'1'
sbasbasbasbasbsbsba(idelphi
DelphiIfStatement
p4081
(dp4082
g860
(i__main__
DelphiIdentAccess
p4083
(dp4084
g209
S'playerOnly'
p4085
sg227
(lp4086
sbsg886
Nsg887
(i__main__
DelphiAssignStatement
p4087
(dp4088
g695
Nsg701
(i__main__
DelphiIdentAccess
p4089
(dp4090
g209
S'ConsoleForm'
p4091
sg227
(lp4092
(idelphi
DelphiFieldEndAccess
p4093
(dp4094
g796
S'playerOnly'
p4095
sbasbsbsba(i__main__
DelphiAssignStatement
p4096
(dp4097
g695
Nsg701
(i__main__
DelphiIdentAccess
p4098
(dp4099
g209
S'ConsoleForm'
p4100
sg227
(lp4101
(idelphi
DelphiFieldEndAccess
p4102
(dp4103
g796
S'updateForRegistrationChange'
p4104
sbasbsba(i__main__
DelphiAssignStatement
p4105
(dp4106
g695
Nsg701
(i__main__
DelphiIdentAccess
p4107
(dp4108
g209
S'ConsoleForm'
p4109
sg227
(lp4110
(idelphi
DelphiFieldEndAccess
p4111
(dp4112
g796
S'updateTitles'
p4113
sbasbsba(i__main__
DelphiAssignStatement
p4114
(dp4115
g695
Nsg701
(i__main__
DelphiIdentAccess
p4116
(dp4117
g209
S'RuleEditorForm'
p4118
sg227
(lp4119
(idelphi
DelphiFieldEndAccess
p4120
(dp4121
g796
S'updateForRuleChange'
p4122
sbasbsba(i__main__
DelphiAssignStatement
p4123
(dp4124
g695
Nsg701
(i__main__
DelphiIdentAccess
p4125
(dp4126
g209
S'RuleEditorForm'
p4127
sg227
(lp4128
(idelphi
DelphiFieldEndAccess
p4129
(dp4130
g796
S'MapPaintBoxChanged'
p4131
sbasbsba(i__main__
DelphiAssignStatement
p4132
(dp4133
g695
Nsg701
(i__main__
DelphiIdentAccess
p4134
(dp4135
g209
S'RuleEditorForm'
p4136
sg227
(lp4137
(idelphi
DelphiFieldEndAccess
p4138
(dp4139
g796
S'adjustScrollBars'
p4140
sbasbsba(i__main__
DelphiAssignStatement
p4141
(dp4142
g695
Nsg701
(i__main__
DelphiIdentAccess
p4143
(dp4144
g209
S'RuleEditorForm'
p4145
sg227
(lp4146
(idelphi
DelphiFieldEndAccess
p4147
(dp4148
g796
S'updateViews'
p4149
sbasbsba(i__main__
DelphiAssignStatement
p4150
(dp4151
g695
Nsg701
(i__main__
DelphiIdentAccess
p4152
(dp4153
g209
S'RuleEditorForm'
p4154
sg227
(lp4155
(idelphi
DelphiFieldEndAccess
p4156
(dp4157
g796
S'editRule'
p4158
sba(idelphi
DelphiFunctionEndAccess
p4159
(dp4160
g714
(lp4161
(idelphi
DelphiNilValue
p4162
(dp4163
basbasbsba(i__main__
DelphiAssignStatement
p4164
(dp4165
g695
Nsg701
(i__main__
DelphiIdentAccess
p4166
(dp4167
g209
S'DecodeDate'
p4168
sg227
(lp4169
(idelphi
DelphiFunctionEndAccess
p4170
(dp4171
g714
(lp4172
(i__main__
DelphiIdentAccess
p4173
(dp4174
g209
S'Now'
p4175
sg227
(lp4176
sba(i__main__
DelphiIdentAccess
p4177
(dp4178
g209
S'Year'
p4179
sg227
(lp4180
sba(i__main__
DelphiIdentAccess
p4181
(dp4182
g209
S'Month'
p4183
sg227
(lp4184
sba(i__main__
DelphiIdentAccess
p4185
(dp4186
g209
S'Day'
p4187
sg227
(lp4188
sbasbasbsba(idelphi
DelphiIfStatement
p4189
(dp4190
g860
(idelphi
DelphiMulOp
p4191
(dp4192
g2335
(idelphi
DelphiNestedExpressionListAccess
p4193
(dp4194
g227
(lp4195
sg714
(lp4196
(idelphi
DelphiRelOp
p4197
(dp4198
g3926
(i__main__
DelphiIdentAccess
p4199
(dp4200
g209
S'Year'
p4201
sg227
(lp4202
sbsg3931
(idelphi
DelphiIntegerValue
p4203
(dp4204
g134
S'2000'
p4205
sbsg3937
S'>='
p4206
sbasbsg2350
g2351
sg2352
(idelphi
DelphiNestedExpressionListAccess
p4207
(dp4208
g227
(lp4209
sg714
(lp4210
(idelphi
DelphiNot
p4211
(dp4212
g2342
(i__main__
DelphiIdentAccess
p4213
(dp4214
g209
S'registered'
p4215
sg227
(lp4216
sbsbasbsbsg886
Nsg887
(i__main__
DelphiAssignStatement
p4217
(dp4218
g695
Nsg701
(i__main__
DelphiIdentAccess
p4219
(dp4220
g209
S'MessageDlg'
p4221
sg227
(lp4222
(idelphi
DelphiFunctionEndAccess
p4223
(dp4224
g714
(lp4225
(idelphi
DelphiAddOp
p4226
(dp4227
g952
S'+'
sg953
(idelphi
DelphiStringAccess
p4228
(dp4229
g227
(lp4230
sg134
(idelphi
DelphiStringValue
p4231
(dp4232
g134
S'This message will disappear when the product is registered.'
p4233
sbsbsg958
(idelphi
DelphiAddOp
p4234
(dp4235
g952
S'+'
sg953
(i__main__
DelphiValueTypecastAccess
p4236
(dp4237
S'valueTypecast'
p4238
(i__main__
DelphiValueTypecast
p4239
(dp4240
g860
(idelphi
DelphiIntegerValue
p4241
(dp4242
g134
S'13'
p4243
sbsS'typeIdentPredefined'
p4244
(i__main__
DelphiPrimitiveType
p4245
(dp4246
g107
g755
sbsbsg227
(lp4247
sbsg958
(idelphi
DelphiAddOp
p4248
(dp4249
g952
S'+'
sg953
(idelphi
DelphiStringAccess
p4250
(dp4251
g227
(lp4252
sg134
(idelphi
DelphiStringValue
p4253
(dp4254
g134
S'The web site may also have updated pricing information.'
p4255
sbsbsg958
(idelphi
DelphiAddOp
p4256
(dp4257
g952
S'+'
sg953
(i__main__
DelphiValueTypecastAccess
p4258
(dp4259
g4238
(i__main__
DelphiValueTypecast
p4260
(dp4261
g860
(idelphi
DelphiIntegerValue
p4262
(dp4263
g134
S'13'
p4264
sbsg4244
(i__main__
DelphiPrimitiveType
p4265
(dp4266
g107
g755
sbsbsg227
(lp4267
sbsg958
(idelphi
DelphiAddOp
p4268
(dp4269
g952
S'+'
sg953
(i__main__
DelphiValueTypecastAccess
p4270
(dp4271
g4238
(i__main__
DelphiValueTypecast
p4272
(dp4273
g860
(idelphi
DelphiIntegerValue
p4274
(dp4275
g134
S'13'
p4276
sbsg4244
(i__main__
DelphiPrimitiveType
p4277
(dp4278
g107
g755
sbsbsg227
(lp4279
sbsg958
(idelphi
DelphiAddOp
p4280
(dp4281
g952
S'+'
sg953
(idelphi
DelphiStringAccess
p4282
(dp4283
g227
(lp4284
sg134
(idelphi
DelphiStringValue
p4285
(dp4286
g134
S'http://www.kurtz-fernhout.com'
p4287
sbsbsg958
(idelphi
DelphiAddOp
p4288
(dp4289
g952
S'+'
sg953
(i__main__
DelphiValueTypecastAccess
p4290
(dp4291
g4238
(i__main__
DelphiValueTypecast
p4292
(dp4293
g860
(idelphi
DelphiIntegerValue
p4294
(dp4295
g134
S'13'
p4296
sbsg4244
(i__main__
DelphiPrimitiveType
p4297
(dp4298
g107
g755
sbsbsg227
(lp4299
sbsg958
(idelphi
DelphiAddOp
p4300
(dp4301
g952
S'+'
sg953
(idelphi
DelphiStringAccess
p4302
(dp4303
g227
(lp4304
sg134
(idelphi
DelphiStringValue
p4305
(dp4306
g134
S'Please check for an updated evaluation version at:'
p4307
sbsbsg958
(idelphi
DelphiAddOp
p4308
(dp4309
g952
S'+'
sg953
(i__main__
DelphiValueTypecastAccess
p4310
(dp4311
g4238
(i__main__
DelphiValueTypecast
p4312
(dp4313
g860
(idelphi
DelphiIntegerValue
p4314
(dp4315
g134
S'13'
p4316
sbsg4244
(i__main__
DelphiPrimitiveType
p4317
(dp4318
g107
g755
sbsbsg227
(lp4319
sbsg958
(idelphi
DelphiAddOp
p4320
(dp4321
g952
S'+'
sg953
(i__main__
DelphiValueTypecastAccess
p4322
(dp4323
g4238
(i__main__
DelphiValueTypecast
p4324
(dp4325
g860
(idelphi
DelphiIntegerValue
p4326
(dp4327
g134
S'13'
p4328
sbsg4244
(i__main__
DelphiPrimitiveType
p4329
(dp4330
g107
g755
sbsbsg227
(lp4331
sbsg958
(idelphi
DelphiStringAccess
p4332
(dp4333
g227
(lp4334
sg134
(idelphi
DelphiStringValue
p4335
(dp4336
g134
S'This evaluation copy of StoryHarp is out of date.'
p4337
sbsbsbsbsbsbsbsbsbsbsbsba(i__main__
DelphiIdentAccess
p4338
(dp4339
g209
S'mtInformation'
p4340
sg227
(lp4341
sba(idelphi
DelphiSetConstructor
p4342
(dp4343
S'setElementList'
p4344
(lp4345
(i__main__
DelphiIdentAccess
p4346
(dp4347
g209
S'mbOK'
p4348
sg227
(lp4349
sbasba(idelphi
DelphiIntegerValue
p4350
(dp4351
g134
S'0'
sbasbasbsbsbasbsg740
(lp4352
(i__main__
DelphiVarSection
p4353
(dp4354
g296
I0
sg744
(lp4355
(idelphi
DelphiVarDecl
p4356
(dp4357
g205
Nsg748
(lp4358
S'Year'
p4359
aS'Month'
p4360
aS'Day'
p4361
asg211
(i__main__
DelphiPrimitiveType
p4362
(dp4363
g107
S'word'
p4364
sbsbasbasbsbsS'getprofileinformation'
p4365
(i__main__
DelphiMethodImplementation
p4366
(dp4367
g669
g479
sg100
g481
sg349
(lp4368
sg671
(lp4369
sg673
(lp4370
sg675
(lp4371
g677
asg678
(dp4372
sg360
S'TSDomain'
p4373
sg361
Nsg683
(lp4374
sg362
I0
sg363
g364
sg685
(i__main__
DelphiBlock
p4375
(dp4376
g688
(idelphi
DelphiCompoundStatement
p4377
(dp4378
g691
(lp4379
(i__main__
DelphiAssignStatement
p4380
(dp4381
g695
(i__main__
DelphiIdentAccess
p4382
(dp4383
g209
S'TIniFile'
p4384
sg227
(lp4385
(idelphi
DelphiFieldEndAccess
p4386
(dp4387
g796
S'create'
p4388
sba(idelphi
DelphiFunctionEndAccess
p4389
(dp4390
g714
(lp4391
(i__main__
DelphiIdentAccess
p4392
(dp4393
g209
S'iniFileName'
p4394
sg227
(lp4395
sbasbasbsg701
(i__main__
DelphiIdentAccess
p4396
(dp4397
g209
S'iniFile'
p4398
sg227
(lp4399
sbsba(idelphi
DelphiTryFinallyStatement
p4400
(dp4401
g1190
(lp4402
(idelphi
DelphiWithStatement
p4403
(dp4404
g1194
(idelphi
DelphiCompoundStatement
p4405
(dp4406
g691
(lp4407
(i__main__
DelphiAssignStatement
p4408
(dp4409
g695
(idelphi
DelphiStringAccess
p4410
(dp4411
g227
(lp4412
sg134
(idelphi
DelphiStringValue
p4413
(dp4414
g134
S'Files'
p4415
sbsbsg701
(i__main__
DelphiIdentAccess
p4416
(dp4417
g209
S'section'
p4418
sg227
(lp4419
sbsg97
(lp4420
S' files\r'
p4421
asba(i__main__
DelphiAssignStatement
p4422
(dp4423
g695
(i__main__
DelphiIdentAccess
p4424
(dp4425
g209
S'readString'
p4426
sg227
(lp4427
(idelphi
DelphiFunctionEndAccess
p4428
(dp4429
g714
(lp4430
(i__main__
DelphiIdentAccess
p4431
(dp4432
g209
S'section'
p4433
sg227
(lp4434
sba(idelphi
DelphiStringAccess
p4435
(dp4436
g227
(lp4437
sg134
(idelphi
DelphiStringValue
p4438
(dp4439
g134
S'Log file'
p4440
sbsba(idelphi
DelphiAddOp
p4441
(dp4442
g952
S'+'
sg953
(i__main__
DelphiIdentAccess
p4443
(dp4444
g209
S'kDefaultLogFileName'
p4445
sg227
(lp4446
sbsg958
(i__main__
DelphiIdentAccess
p4447
(dp4448
g209
S'ExtractFilePath'
p4449
sg227
(lp4450
(idelphi
DelphiFunctionEndAccess
p4451
(dp4452
g714
(lp4453
(i__main__
DelphiIdentAccess
p4454
(dp4455
g209
S'Application'
p4456
sg227
(lp4457
(idelphi
DelphiFieldEndAccess
p4458
(dp4459
g796
S'exeName'
p4460
sbasbasbasbsbasbasbsg701
(i__main__
DelphiIdentAccess
p4461
(dp4462
g209
S'logFileName'
p4463
sg227
(lp4464
sbsba(i__main__
DelphiAssignStatement
p4465
(dp4466
g695
(i__main__
DelphiIdentAccess
p4467
(dp4468
g209
S'readString'
p4469
sg227
(lp4470
(idelphi
DelphiFunctionEndAccess
p4471
(dp4472
g714
(lp4473
(i__main__
DelphiIdentAccess
p4474
(dp4475
g209
S'section'
p4476
sg227
(lp4477
sba(idelphi
DelphiStringAccess
p4478
(dp4479
g227
(lp4480
sg134
(idelphi
DelphiStringValue
p4481
(dp4482
g134
S'Agent character file'
p4483
sbsba(idelphi
DelphiAddOp
p4484
(dp4485
g952
S'+'
sg953
(i__main__
DelphiIdentAccess
p4486
(dp4487
g209
S'kDefaultAgentCharacterFileName'
p4488
sg227
(lp4489
sbsg958
(i__main__
DelphiIdentAccess
p4490
(dp4491
g209
S'ExtractFilePath'
p4492
sg227
(lp4493
(idelphi
DelphiFunctionEndAccess
p4494
(dp4495
g714
(lp4496
(i__main__
DelphiIdentAccess
p4497
(dp4498
g209
S'Application'
p4499
sg227
(lp4500
(idelphi
DelphiFieldEndAccess
p4501
(dp4502
g796
S'exeName'
p4503
sbasbasbasbsbasbasbsg701
(i__main__
DelphiIdentAccess
p4504
(dp4505
g209
S'agentCharacterFileName'
p4506
sg227
(lp4507
sbsba(i__main__
DelphiAssignStatement
p4508
(dp4509
g695
(i__main__
DelphiIdentAccess
p4510
(dp4511
g209
S'readString'
p4512
sg227
(lp4513
(idelphi
DelphiFunctionEndAccess
p4514
(dp4515
g714
(lp4516
(i__main__
DelphiIdentAccess
p4517
(dp4518
g209
S'section'
p4519
sg227
(lp4520
sba(idelphi
DelphiStringAccess
p4521
(dp4522
g227
(lp4523
sg134
(idelphi
DelphiStringValue
p4524
(dp4525
g134
S'Extra media directory'
p4526
sbsba(idelphi
DelphiStringAccess
p4527
(dp4528
g227
(lp4529
sg134
(idelphi
DelphiStringValue
p4530
(dp4531
g134
S''
sbsbasbasbsg701
(i__main__
DelphiIdentAccess
p4532
(dp4533
g209
S'extraMediaDirectory'
p4534
sg227
(lp4535
sbsba(i__main__
DelphiAssignStatement
p4536
(dp4537
g695
(i__main__
DelphiIdentAccess
p4538
(dp4539
g209
S'readString'
p4540
sg227
(lp4541
(idelphi
DelphiFunctionEndAccess
p4542
(dp4543
g714
(lp4544
(i__main__
DelphiIdentAccess
p4545
(dp4546
g209
S'section'
p4547
sg227
(lp4548
sba(idelphi
DelphiStringAccess
p4549
(dp4550
g227
(lp4551
sg134
(idelphi
DelphiStringValue
p4552
(dp4553
g134
S'Most recent session'
p4554
sbsba(idelphi
DelphiStringAccess
p4555
(dp4556
g227
(lp4557
sg134
(idelphi
DelphiStringValue
p4558
(dp4559
g134
S''
sbsbasbasbsg701
(i__main__
DelphiIdentAccess
p4560
(dp4561
g209
S'mostRecentSession'
p4562
sg227
(lp4563
sbsba(i__main__
DelphiAssignStatement
p4564
(dp4565
g695
(i__main__
DelphiIdentAccess
p4566
(dp4567
g209
S'readString'
p4568
sg227
(lp4569
(idelphi
DelphiFunctionEndAccess
p4570
(dp4571
g714
(lp4572
(i__main__
DelphiIdentAccess
p4573
(dp4574
g209
S'section'
p4575
sg227
(lp4576
sba(idelphi
DelphiStringAccess
p4577
(dp4578
g227
(lp4579
sg134
(idelphi
DelphiStringValue
p4580
(dp4581
g134
S'Most recent world'
p4582
sbsba(idelphi
DelphiStringAccess
p4583
(dp4584
g227
(lp4585
sg134
(idelphi
DelphiStringValue
p4586
(dp4587
g134
S''
sbsbasbasbsg701
(i__main__
DelphiIdentAccess
p4588
(dp4589
g209
S'mostRecentWorld'
p4590
sg227
(lp4591
sbsba(i__main__
DelphiAssignStatement
p4592
(dp4593
g695
(idelphi
DelphiStringAccess
p4594
(dp4595
g227
(lp4596
sg134
(idelphi
DelphiStringValue
p4597
(dp4598
g134
S'Player'
p4599
sbsbsg701
(i__main__
DelphiIdentAccess
p4600
(dp4601
g209
S'section'
p4602
sg227
(lp4603
sbsg97
(lp4604
S' player options\r'
p4605
asba(i__main__
DelphiAssignStatement
p4606
(dp4607
g695
(i__main__
DelphiIdentAccess
p4608
(dp4609
g209
S'strToBool'
p4610
sg227
(lp4611
(idelphi
DelphiFunctionEndAccess
p4612
(dp4613
g714
(lp4614
(i__main__
DelphiIdentAccess
p4615
(dp4616
g209
S'readString'
p4617
sg227
(lp4618
(idelphi
DelphiFunctionEndAccess
p4619
(dp4620
g714
(lp4621
(i__main__
DelphiIdentAccess
p4622
(dp4623
g209
S'section'
p4624
sg227
(lp4625
sba(idelphi
DelphiStringAccess
p4626
(dp4627
g227
(lp4628
sg134
(idelphi
DelphiStringValue
p4629
(dp4630
g134
S'Speak'
p4631
sbsba(idelphi
DelphiStringAccess
p4632
(dp4633
g227
(lp4634
sg134
(idelphi
DelphiStringValue
p4635
(dp4636
g134
S'true'
p4637
sbsbasbasbasbasbsg701
(i__main__
DelphiIdentAccess
p4638
(dp4639
g209
S'playerSpeak'
p4640
sg227
(lp4641
sbsba(i__main__
DelphiAssignStatement
p4642
(dp4643
g695
(i__main__
DelphiIdentAccess
p4644
(dp4645
g209
S'strToBool'
p4646
sg227
(lp4647
(idelphi
DelphiFunctionEndAccess
p4648
(dp4649
g714
(lp4650
(i__main__
DelphiIdentAccess
p4651
(dp4652
g209
S'readString'
p4653
sg227
(lp4654
(idelphi
DelphiFunctionEndAccess
p4655
(dp4656
g714
(lp4657
(i__main__
DelphiIdentAccess
p4658
(dp4659
g209
S'section'
p4660
sg227
(lp4661
sba(idelphi
DelphiStringAccess
p4662
(dp4663
g227
(lp4664
sg134
(idelphi
DelphiStringValue
p4665
(dp4666
g134
S'Play sounds'
p4667
sbsba(idelphi
DelphiStringAccess
p4668
(dp4669
g227
(lp4670
sg134
(idelphi
DelphiStringValue
p4671
(dp4672
g134
S'true'
p4673
sbsbasbasbasbasbsg701
(i__main__
DelphiIdentAccess
p4674
(dp4675
g209
S'playerPlaySounds'
p4676
sg227
(lp4677
sbsba(i__main__
DelphiAssignStatement
p4678
(dp4679
g695
(i__main__
DelphiIdentAccess
p4680
(dp4681
g209
S'strToBool'
p4682
sg227
(lp4683
(idelphi
DelphiFunctionEndAccess
p4684
(dp4685
g714
(lp4686
(i__main__
DelphiIdentAccess
p4687
(dp4688
g209
S'readString'
p4689
sg227
(lp4690
(idelphi
DelphiFunctionEndAccess
p4691
(dp4692
g714
(lp4693
(i__main__
DelphiIdentAccess
p4694
(dp4695
g209
S'section'
p4696
sg227
(lp4697
sba(idelphi
DelphiStringAccess
p4698
(dp4699
g227
(lp4700
sg134
(idelphi
DelphiStringValue
p4701
(dp4702
g134
S'Play music'
p4703
sbsba(idelphi
DelphiStringAccess
p4704
(dp4705
g227
(lp4706
sg134
(idelphi
DelphiStringValue
p4707
(dp4708
g134
S'true'
p4709
sbsbasbasbasbasbsg701
(i__main__
DelphiIdentAccess
p4710
(dp4711
g209
S'playerPlayMusic'
p4712
sg227
(lp4713
sbsba(i__main__
DelphiAssignStatement
p4714
(dp4715
g695
(i__main__
DelphiIdentAccess
p4716
(dp4717
g209
S'strToBool'
p4718
sg227
(lp4719
(idelphi
DelphiFunctionEndAccess
p4720
(dp4721
g714
(lp4722
(i__main__
DelphiIdentAccess
p4723
(dp4724
g209
S'readString'
p4725
sg227
(lp4726
(idelphi
DelphiFunctionEndAccess
p4727
(dp4728
g714
(lp4729
(i__main__
DelphiIdentAccess
p4730
(dp4731
g209
S'section'
p4732
sg227
(lp4733
sba(idelphi
DelphiStringAccess
p4734
(dp4735
g227
(lp4736
sg134
(idelphi
DelphiStringValue
p4737
(dp4738
g134
S'Show transcript'
p4739
sbsba(idelphi
DelphiStringAccess
p4740
(dp4741
g227
(lp4742
sg134
(idelphi
DelphiStringValue
p4743
(dp4744
g134
S'true'
p4745
sbsbasbasbasbasbsg701
(i__main__
DelphiIdentAccess
p4746
(dp4747
g209
S'showTranscript'
p4748
sg227
(lp4749
sbsba(i__main__
DelphiAssignStatement
p4750
(dp4751
g695
(i__main__
DelphiIdentAccess
p4752
(dp4753
g209
S'strToBool'
p4754
sg227
(lp4755
(idelphi
DelphiFunctionEndAccess
p4756
(dp4757
g714
(lp4758
(i__main__
DelphiIdentAccess
p4759
(dp4760
g209
S'readString'
p4761
sg227
(lp4762
(idelphi
DelphiFunctionEndAccess
p4763
(dp4764
g714
(lp4765
(i__main__
DelphiIdentAccess
p4766
(dp4767
g209
S'section'
p4768
sg227
(lp4769
sba(idelphi
DelphiStringAccess
p4770
(dp4771
g227
(lp4772
sg134
(idelphi
DelphiStringValue
p4773
(dp4774
g134
S'Show pictures'
p4775
sbsba(idelphi
DelphiStringAccess
p4776
(dp4777
g227
(lp4778
sg134
(idelphi
DelphiStringValue
p4779
(dp4780
g134
S'true'
p4781
sbsbasbasbasbasbsg701
(i__main__
DelphiIdentAccess
p4782
(dp4783
g209
S'showPictures'
p4784
sg227
(lp4785
sbsba(i__main__
DelphiAssignStatement
p4786
(dp4787
g695
(i__main__
DelphiIdentAccess
p4788
(dp4789
g209
S'strToBool'
p4790
sg227
(lp4791
(idelphi
DelphiFunctionEndAccess
p4792
(dp4793
g714
(lp4794
(i__main__
DelphiIdentAccess
p4795
(dp4796
g209
S'readString'
p4797
sg227
(lp4798
(idelphi
DelphiFunctionEndAccess
p4799
(dp4800
g714
(lp4801
(i__main__
DelphiIdentAccess
p4802
(dp4803
g209
S'section'
p4804
sg227
(lp4805
sba(idelphi
DelphiStringAccess
p4806
(dp4807
g227
(lp4808
sg134
(idelphi
DelphiStringValue
p4809
(dp4810
g134
S'Say options after look'
p4811
sbsba(idelphi
DelphiStringAccess
p4812
(dp4813
g227
(lp4814
sg134
(idelphi
DelphiStringValue
p4815
(dp4816
g134
S'true'
p4817
sbsbasbasbasbasbsg701
(i__main__
DelphiIdentAccess
p4818
(dp4819
g209
S'sayOptionsAfterLook'
p4820
sg227
(lp4821
sbsba(i__main__
DelphiAssignStatement
p4822
(dp4823
g695
(i__main__
DelphiIdentAccess
p4824
(dp4825
g209
S'strToBool'
p4826
sg227
(lp4827
(idelphi
DelphiFunctionEndAccess
p4828
(dp4829
g714
(lp4830
(i__main__
DelphiIdentAccess
p4831
(dp4832
g209
S'readString'
p4833
sg227
(lp4834
(idelphi
DelphiFunctionEndAccess
p4835
(dp4836
g714
(lp4837
(i__main__
DelphiIdentAccess
p4838
(dp4839
g209
S'section'
p4840
sg227
(lp4841
sba(idelphi
DelphiStringAccess
p4842
(dp4843
g227
(lp4844
sg134
(idelphi
DelphiStringValue
p4845
(dp4846
g134
S'Use voice to undo'
p4847
sbsba(idelphi
DelphiStringAccess
p4848
(dp4849
g227
(lp4850
sg134
(idelphi
DelphiStringValue
p4851
(dp4852
g134
S'false'
p4853
sbsbasbasbasbasbsg701
(i__main__
DelphiIdentAccess
p4854
(dp4855
g209
S'useVoiceToUndo'
p4856
sg227
(lp4857
sbsba(i__main__
DelphiAssignStatement
p4858
(dp4859
g695
(i__main__
DelphiIdentAccess
p4860
(dp4861
g209
S'strToBool'
p4862
sg227
(lp4863
(idelphi
DelphiFunctionEndAccess
p4864
(dp4865
g714
(lp4866
(i__main__
DelphiIdentAccess
p4867
(dp4868
g209
S'readString'
p4869
sg227
(lp4870
(idelphi
DelphiFunctionEndAccess
p4871
(dp4872
g714
(lp4873
(i__main__
DelphiIdentAccess
p4874
(dp4875
g209
S'section'
p4876
sg227
(lp4877
sba(idelphi
DelphiStringAccess
p4878
(dp4879
g227
(lp4880
sg134
(idelphi
DelphiStringValue
p4881
(dp4882
g134
S'Use voice to redo'
p4883
sbsba(idelphi
DelphiStringAccess
p4884
(dp4885
g227
(lp4886
sg134
(idelphi
DelphiStringValue
p4887
(dp4888
g134
S'false'
p4889
sbsbasbasbasbasbsg701
(i__main__
DelphiIdentAccess
p4890
(dp4891
g209
S'useVoiceToRedo'
p4892
sg227
(lp4893
sbsba(i__main__
DelphiAssignStatement
p4894
(dp4895
g695
(i__main__
DelphiIdentAccess
p4896
(dp4897
g209
S'strToBool'
p4898
sg227
(lp4899
(idelphi
DelphiFunctionEndAccess
p4900
(dp4901
g714
(lp4902
(i__main__
DelphiIdentAccess
p4903
(dp4904
g209
S'readString'
p4905
sg227
(lp4906
(idelphi
DelphiFunctionEndAccess
p4907
(dp4908
g714
(lp4909
(i__main__
DelphiIdentAccess
p4910
(dp4911
g209
S'section'
p4912
sg227
(lp4913
sba(idelphi
DelphiStringAccess
p4914
(dp4915
g227
(lp4916
sg134
(idelphi
DelphiStringValue
p4917
(dp4918
g134
S'Show variables'
p4919
sbsba(idelphi
DelphiStringAccess
p4920
(dp4921
g227
(lp4922
sg134
(idelphi
DelphiStringValue
p4923
(dp4924
g134
S'false'
p4925
sbsbasbasbasbasbsg701
(i__main__
DelphiIdentAccess
p4926
(dp4927
g209
S'showVariables'
p4928
sg227
(lp4929
sbsba(i__main__
DelphiAssignStatement
p4930
(dp4931
g695
(i__main__
DelphiIdentAccess
p4932
(dp4933
g209
S'strToBool'
p4934
sg227
(lp4935
(idelphi
DelphiFunctionEndAccess
p4936
(dp4937
g714
(lp4938
(i__main__
DelphiIdentAccess
p4939
(dp4940
g209
S'readString'
p4941
sg227
(lp4942
(idelphi
DelphiFunctionEndAccess
p4943
(dp4944
g714
(lp4945
(i__main__
DelphiIdentAccess
p4946
(dp4947
g209
S'section'
p4948
sg227
(lp4949
sba(idelphi
DelphiStringAccess
p4950
(dp4951
g227
(lp4952
sg134
(idelphi
DelphiStringValue
p4953
(dp4954
g134
S'Update editor after command done'
p4955
sbsba(idelphi
DelphiStringAccess
p4956
(dp4957
g227
(lp4958
sg134
(idelphi
DelphiStringValue
p4959
(dp4960
g134
S'true'
p4961
sbsbasbasbasbasbsg701
(i__main__
DelphiIdentAccess
p4962
(dp4963
g209
S'updateEditorAfterCommandDone'
p4964
sg227
(lp4965
sbsba(i__main__
DelphiAssignStatement
p4966
(dp4967
g695
(i__main__
DelphiIdentAccess
p4968
(dp4969
g209
S'strToBool'
p4970
sg227
(lp4971
(idelphi
DelphiFunctionEndAccess
p4972
(dp4973
g714
(lp4974
(i__main__
DelphiIdentAccess
p4975
(dp4976
g209
S'readString'
p4977
sg227
(lp4978
(idelphi
DelphiFunctionEndAccess
p4979
(dp4980
g714
(lp4981
(i__main__
DelphiIdentAccess
p4982
(dp4983
g209
S'section'
p4984
sg227
(lp4985
sba(idelphi
DelphiStringAccess
p4986
(dp4987
g227
(lp4988
sg134
(idelphi
DelphiStringValue
p4989
(dp4990
g134
S'Suppress agent not present warning'
p4991
sbsba(idelphi
DelphiStringAccess
p4992
(dp4993
g227
(lp4994
sg134
(idelphi
DelphiStringValue
p4995
(dp4996
g134
S'false'
p4997
sbsbasbasbasbasbsg701
(i__main__
DelphiIdentAccess
p4998
(dp4999
g209
S'suppressAgentNotPresentWarning'
p5000
sg227
(lp5001
sbsba(i__main__
DelphiAssignStatement
p5002
(dp5003
g695
(i__main__
DelphiIdentAccess
p5004
(dp5005
g209
S'strToInt'
p5006
sg227
(lp5007
(idelphi
DelphiFunctionEndAccess
p5008
(dp5009
g714
(lp5010
(i__main__
DelphiIdentAccess
p5011
(dp5012
g209
S'readString'
p5013
sg227
(lp5014
(idelphi
DelphiFunctionEndAccess
p5015
(dp5016
g714
(lp5017
(i__main__
DelphiIdentAccess
p5018
(dp5019
g209
S'section'
p5020
sg227
(lp5021
sba(idelphi
DelphiStringAccess
p5022
(dp5023
g227
(lp5024
sg134
(idelphi
DelphiStringValue
p5025
(dp5026
g134
S'Player font size'
p5027
sbsba(idelphi
DelphiStringAccess
p5028
(dp5029
g227
(lp5030
sg134
(idelphi
DelphiStringValue
p5031
(dp5032
g134
S'8'
sbsbasbasbasbasbsg701
(i__main__
DelphiIdentAccess
p5033
(dp5034
g209
S'playerFontSize'
p5035
sg227
(lp5036
sbsba(i__main__
DelphiAssignStatement
p5037
(dp5038
g695
(i__main__
DelphiIdentAccess
p5039
(dp5040
g209
S'readString'
p5041
sg227
(lp5042
(idelphi
DelphiFunctionEndAccess
p5043
(dp5044
g714
(lp5045
(i__main__
DelphiIdentAccess
p5046
(dp5047
g209
S'section'
p5048
sg227
(lp5049
sba(idelphi
DelphiStringAccess
p5050
(dp5051
g227
(lp5052
sg134
(idelphi
DelphiStringValue
p5053
(dp5054
g134
S'Player font name'
p5055
sbsba(idelphi
DelphiStringAccess
p5056
(dp5057
g227
(lp5058
sg134
(idelphi
DelphiStringValue
p5059
(dp5060
g134
S'Arial'
p5061
sbsbasbasbsg701
(i__main__
DelphiIdentAccess
p5062
(dp5063
g209
S'playerFontName'
p5064
sg227
(lp5065
sbsba(i__main__
DelphiAssignStatement
p5066
(dp5067
g695
(idelphi
DelphiStringAccess
p5068
(dp5069
g227
(lp5070
sg134
(idelphi
DelphiStringValue
p5071
(dp5072
g134
S'Editor'
p5073
sbsbsg701
(i__main__
DelphiIdentAccess
p5074
(dp5075
g209
S'section'
p5076
sg227
(lp5077
sbsg97
(lp5078
S' editor options\r'
p5079
asba(i__main__
DelphiAssignStatement
p5080
(dp5081
g695
(i__main__
DelphiIdentAccess
p5082
(dp5083
g209
S'strToInt'
p5084
sg227
(lp5085
(idelphi
DelphiFunctionEndAccess
p5086
(dp5087
g714
(lp5088
(i__main__
DelphiIdentAccess
p5089
(dp5090
g209
S'readString'
p5091
sg227
(lp5092
(idelphi
DelphiFunctionEndAccess
p5093
(dp5094
g714
(lp5095
(i__main__
DelphiIdentAccess
p5096
(dp5097
g209
S'section'
p5098
sg227
(lp5099
sba(idelphi
DelphiStringAccess
p5100
(dp5101
g227
(lp5102
sg134
(idelphi
DelphiStringValue
p5103
(dp5104
g134
S'Background color for selected items'
p5105
sbsba(i__main__
DelphiIdentAccess
p5106
(dp5107
g209
S'intToStr'
p5108
sg227
(lp5109
(idelphi
DelphiFunctionEndAccess
p5110
(dp5111
g714
(lp5112
(i__main__
DelphiIdentAccess
p5113
(dp5114
g209
S'clYellow'
p5115
sg227
(lp5116
sbasbasbasbasbasbasbsg701
(i__main__
DelphiIdentAccess
p5117
(dp5118
g209
S'selectedItemColor'
p5119
sg227
(lp5120
sbsba(i__main__
DelphiAssignStatement
p5121
(dp5122
g695
(i__main__
DelphiIdentAccess
p5123
(dp5124
g209
S'strToInt'
p5125
sg227
(lp5126
(idelphi
DelphiFunctionEndAccess
p5127
(dp5128
g714
(lp5129
(i__main__
DelphiIdentAccess
p5130
(dp5131
g209
S'readString'
p5132
sg227
(lp5133
(idelphi
DelphiFunctionEndAccess
p5134
(dp5135
g714
(lp5136
(i__main__
DelphiIdentAccess
p5137
(dp5138
g209
S'section'
p5139
sg227
(lp5140
sba(idelphi
DelphiStringAccess
p5141
(dp5142
g227
(lp5143
sg134
(idelphi
DelphiStringValue
p5144
(dp5145
g134
S'Text color for selected items'
p5146
sbsba(i__main__
DelphiIdentAccess
p5147
(dp5148
g209
S'intToStr'
p5149
sg227
(lp5150
(idelphi
DelphiFunctionEndAccess
p5151
(dp5152
g714
(lp5153
(i__main__
DelphiIdentAccess
p5154
(dp5155
g209
S'clBlack'
p5156
sg227
(lp5157
sbasbasbasbasbasbasbsg701
(i__main__
DelphiIdentAccess
p5158
(dp5159
g209
S'selectedTextColor'
p5160
sg227
(lp5161
sbsba(i__main__
DelphiAssignStatement
p5162
(dp5163
g695
(i__main__
DelphiIdentAccess
p5164
(dp5165
g209
S'strToInt'
p5166
sg227
(lp5167
(idelphi
DelphiFunctionEndAccess
p5168
(dp5169
g714
(lp5170
(i__main__
DelphiIdentAccess
p5171
(dp5172
g209
S'readString'
p5173
sg227
(lp5174
(idelphi
DelphiFunctionEndAccess
p5175
(dp5176
g714
(lp5177
(i__main__
DelphiIdentAccess
p5178
(dp5179
g209
S'section'
p5180
sg227
(lp5181
sba(idelphi
DelphiStringAccess
p5182
(dp5183
g227
(lp5184
sg134
(idelphi
DelphiStringValue
p5185
(dp5186
g134
S'Text color for commands in map'
p5187
sbsba(i__main__
DelphiIdentAccess
p5188
(dp5189
g209
S'intToStr'
p5190
sg227
(lp5191
(idelphi
DelphiFunctionEndAccess
p5192
(dp5193
g714
(lp5194
(i__main__
DelphiIdentAccess
p5195
(dp5196
g209
S'clBlue'
p5197
sg227
(lp5198
sbasbasbasbasbasbasbsg701
(i__main__
DelphiIdentAccess
p5199
(dp5200
g209
S'commandTextColorInMap'
p5201
sg227
(lp5202
sbsba(i__main__
DelphiAssignStatement
p5203
(dp5204
g695
(i__main__
DelphiIdentAccess
p5205
(dp5206
g209
S'strToBool'
p5207
sg227
(lp5208
(idelphi
DelphiFunctionEndAccess
p5209
(dp5210
g714
(lp5211
(i__main__
DelphiIdentAccess
p5212
(dp5213
g209
S'readString'
p5214
sg227
(lp5215
(idelphi
DelphiFunctionEndAccess
p5216
(dp5217
g714
(lp5218
(i__main__
DelphiIdentAccess
p5219
(dp5220
g209
S'section'
p5221
sg227
(lp5222
sba(idelphi
DelphiStringAccess
p5223
(dp5224
g227
(lp5225
sg134
(idelphi
DelphiStringValue
p5226
(dp5227
g134
S'Show commands in map'
p5228
sbsba(idelphi
DelphiStringAccess
p5229
(dp5230
g227
(lp5231
sg134
(idelphi
DelphiStringValue
p5232
(dp5233
g134
S'true'
p5234
sbsbasbasbasbasbsg701
(i__main__
DelphiIdentAccess
p5235
(dp5236
g209
S'showCommandsInMap'
p5237
sg227
(lp5238
sbsba(i__main__
DelphiAssignStatement
p5239
(dp5240
g695
(i__main__
DelphiIdentAccess
p5241
(dp5242
g209
S'strToBool'
p5243
sg227
(lp5244
(idelphi
DelphiFunctionEndAccess
p5245
(dp5246
g714
(lp5247
(i__main__
DelphiIdentAccess
p5248
(dp5249
g209
S'readString'
p5250
sg227
(lp5251
(idelphi
DelphiFunctionEndAccess
p5252
(dp5253
g714
(lp5254
(i__main__
DelphiIdentAccess
p5255
(dp5256
g209
S'section'
p5257
sg227
(lp5258
sba(idelphi
DelphiStringAccess
p5259
(dp5260
g227
(lp5261
sg134
(idelphi
DelphiStringValue
p5262
(dp5263
g134
S'Show command prefix in map'
p5264
sbsba(idelphi
DelphiStringAccess
p5265
(dp5266
g227
(lp5267
sg134
(idelphi
DelphiStringValue
p5268
(dp5269
g134
S'false'
p5270
sbsbasbasbasbasbsg701
(i__main__
DelphiIdentAccess
p5271
(dp5272
g209
S'showCommandPrefixInMap'
p5273
sg227
(lp5274
sbsba(i__main__
DelphiAssignStatement
p5275
(dp5276
g695
(i__main__
DelphiIdentAccess
p5277
(dp5278
g209
S'readString'
p5279
sg227
(lp5280
(idelphi
DelphiFunctionEndAccess
p5281
(dp5282
g714
(lp5283
(i__main__
DelphiIdentAccess
p5284
(dp5285
g209
S'section'
p5286
sg227
(lp5287
sba(idelphi
DelphiStringAccess
p5288
(dp5289
g227
(lp5290
sg134
(idelphi
DelphiStringValue
p5291
(dp5292
g134
S'Table font name'
p5293
sbsba(idelphi
DelphiStringAccess
p5294
(dp5295
g227
(lp5296
sg134
(idelphi
DelphiStringValue
p5297
(dp5298
g134
S'Arial'
p5299
sbsbasbasbsg701
(i__main__
DelphiIdentAccess
p5300
(dp5301
g209
S'tableFontName'
p5302
sg227
(lp5303
sbsba(i__main__
DelphiAssignStatement
p5304
(dp5305
g695
(i__main__
DelphiIdentAccess
p5306
(dp5307
g209
S'strToInt'
p5308
sg227
(lp5309
(idelphi
DelphiFunctionEndAccess
p5310
(dp5311
g714
(lp5312
(i__main__
DelphiIdentAccess
p5313
(dp5314
g209
S'readString'
p5315
sg227
(lp5316
(idelphi
DelphiFunctionEndAccess
p5317
(dp5318
g714
(lp5319
(i__main__
DelphiIdentAccess
p5320
(dp5321
g209
S'section'
p5322
sg227
(lp5323
sba(idelphi
DelphiStringAccess
p5324
(dp5325
g227
(lp5326
sg134
(idelphi
DelphiStringValue
p5327
(dp5328
g134
S'Table font size'
p5329
sbsba(idelphi
DelphiStringAccess
p5330
(dp5331
g227
(lp5332
sg134
(idelphi
DelphiStringValue
p5333
(dp5334
g134
S'8'
sbsbasbasbasbasbsg701
(i__main__
DelphiIdentAccess
p5335
(dp5336
g209
S'tableFontSize'
p5337
sg227
(lp5338
sbsba(i__main__
DelphiAssignStatement
p5339
(dp5340
g695
(i__main__
DelphiIdentAccess
p5341
(dp5342
g209
S'readString'
p5343
sg227
(lp5344
(idelphi
DelphiFunctionEndAccess
p5345
(dp5346
g714
(lp5347
(i__main__
DelphiIdentAccess
p5348
(dp5349
g209
S'section'
p5350
sg227
(lp5351
sba(idelphi
DelphiStringAccess
p5352
(dp5353
g227
(lp5354
sg134
(idelphi
DelphiStringValue
p5355
(dp5356
g134
S'Map font name'
p5357
sbsba(idelphi
DelphiStringAccess
p5358
(dp5359
g227
(lp5360
sg134
(idelphi
DelphiStringValue
p5361
(dp5362
g134
S'Arial'
p5363
sbsbasbasbsg701
(i__main__
DelphiIdentAccess
p5364
(dp5365
g209
S'mapFontName'
p5366
sg227
(lp5367
sbsba(i__main__
DelphiAssignStatement
p5368
(dp5369
g695
(i__main__
DelphiIdentAccess
p5370
(dp5371
g209
S'strToInt'
p5372
sg227
(lp5373
(idelphi
DelphiFunctionEndAccess
p5374
(dp5375
g714
(lp5376
(i__main__
DelphiIdentAccess
p5377
(dp5378
g209
S'readString'
p5379
sg227
(lp5380
(idelphi
DelphiFunctionEndAccess
p5381
(dp5382
g714
(lp5383
(i__main__
DelphiIdentAccess
p5384
(dp5385
g209
S'section'
p5386
sg227
(lp5387
sba(idelphi
DelphiStringAccess
p5388
(dp5389
g227
(lp5390
sg134
(idelphi
DelphiStringValue
p5391
(dp5392
g134
S'Map font size'
p5393
sbsba(idelphi
DelphiStringAccess
p5394
(dp5395
g227
(lp5396
sg134
(idelphi
DelphiStringValue
p5397
(dp5398
g134
S'8'
sbsbasbasbasbasbsg701
(i__main__
DelphiIdentAccess
p5399
(dp5400
g209
S'mapFontSize'
p5401
sg227
(lp5402
sbsba(i__main__
DelphiAssignStatement
p5403
(dp5404
g695
(i__main__
DelphiIdentAccess
p5405
(dp5406
g209
S'readString'
p5407
sg227
(lp5408
(idelphi
DelphiFunctionEndAccess
p5409
(dp5410
g714
(lp5411
(i__main__
DelphiIdentAccess
p5412
(dp5413
g209
S'section'
p5414
sg227
(lp5415
sba(idelphi
DelphiStringAccess
p5416
(dp5417
g227
(lp5418
sg134
(idelphi
DelphiStringValue
p5419
(dp5420
g134
S'Browser font name'
p5421
sbsba(idelphi
DelphiStringAccess
p5422
(dp5423
g227
(lp5424
sg134
(idelphi
DelphiStringValue
p5425
(dp5426
g134
S'Arial'
p5427
sbsbasbasbsg701
(i__main__
DelphiIdentAccess
p5428
(dp5429
g209
S'browserFontName'
p5430
sg227
(lp5431
sbsba(i__main__
DelphiAssignStatement
p5432
(dp5433
g695
(i__main__
DelphiIdentAccess
p5434
(dp5435
g209
S'strToInt'
p5436
sg227
(lp5437
(idelphi
DelphiFunctionEndAccess
p5438
(dp5439
g714
(lp5440
(i__main__
DelphiIdentAccess
p5441
(dp5442
g209
S'readString'
p5443
sg227
(lp5444
(idelphi
DelphiFunctionEndAccess
p5445
(dp5446
g714
(lp5447
(i__main__
DelphiIdentAccess
p5448
(dp5449
g209
S'section'
p5450
sg227
(lp5451
sba(idelphi
DelphiStringAccess
p5452
(dp5453
g227
(lp5454
sg134
(idelphi
DelphiStringValue
p5455
(dp5456
g134
S'Browser font size'
p5457
sbsba(idelphi
DelphiStringAccess
p5458
(dp5459
g227
(lp5460
sg134
(idelphi
DelphiStringValue
p5461
(dp5462
g134
S'8'
sbsbasbasbasbasbsg701
(i__main__
DelphiIdentAccess
p5463
(dp5464
g209
S'browserFontSize'
p5465
sg227
(lp5466
sbsba(i__main__
DelphiAssignStatement
p5467
(dp5468
g695
(i__main__
DelphiIdentAccess
p5469
(dp5470
g209
S'strToBool'
p5471
sg227
(lp5472
(idelphi
DelphiFunctionEndAccess
p5473
(dp5474
g714
(lp5475
(i__main__
DelphiIdentAccess
p5476
(dp5477
g209
S'readString'
p5478
sg227
(lp5479
(idelphi
DelphiFunctionEndAccess
p5480
(dp5481
g714
(lp5482
(i__main__
DelphiIdentAccess
p5483
(dp5484
g209
S'section'
p5485
sg227
(lp5486
sba(idelphi
DelphiStringAccess
p5487
(dp5488
g227
(lp5489
sg134
(idelphi
DelphiStringValue
p5490
(dp5491
g134
S'Show rule editor'
p5492
sbsba(idelphi
DelphiStringAccess
p5493
(dp5494
g227
(lp5495
sg134
(idelphi
DelphiStringValue
p5496
(dp5497
g134
S'true'
p5498
sbsbasbasbasbasbsg701
(i__main__
DelphiIdentAccess
p5499
(dp5500
g209
S'showRuleEditor'
p5501
sg227
(lp5502
sbsba(i__main__
DelphiAssignStatement
p5503
(dp5504
g695
(i__main__
DelphiIdentAccess
p5505
(dp5506
g209
S'strToBool'
p5507
sg227
(lp5508
(idelphi
DelphiFunctionEndAccess
p5509
(dp5510
g714
(lp5511
(i__main__
DelphiIdentAccess
p5512
(dp5513
g209
S'readString'
p5514
sg227
(lp5515
(idelphi
DelphiFunctionEndAccess
p5516
(dp5517
g714
(lp5518
(i__main__
DelphiIdentAccess
p5519
(dp5520
g209
S'section'
p5521
sg227
(lp5522
sba(idelphi
DelphiStringAccess
p5523
(dp5524
g227
(lp5525
sg134
(idelphi
DelphiStringValue
p5526
(dp5527
g134
S'Show button bar'
p5528
sbsba(idelphi
DelphiStringAccess
p5529
(dp5530
g227
(lp5531
sg134
(idelphi
DelphiStringValue
p5532
(dp5533
g134
S'true'
p5534
sbsbasbasbasbasbsg701
(i__main__
DelphiIdentAccess
p5535
(dp5536
g209
S'showButtonBar'
p5537
sg227
(lp5538
sbsba(i__main__
DelphiAssignStatement
p5539
(dp5540
g695
(i__main__
DelphiIdentAccess
p5541
(dp5542
g209
S'strToInt'
p5543
sg227
(lp5544
(idelphi
DelphiFunctionEndAccess
p5545
(dp5546
g714
(lp5547
(i__main__
DelphiIdentAccess
p5548
(dp5549
g209
S'readString'
p5550
sg227
(lp5551
(idelphi
DelphiFunctionEndAccess
p5552
(dp5553
g714
(lp5554
(i__main__
DelphiIdentAccess
p5555
(dp5556
g209
S'section'
p5557
sg227
(lp5558
sba(idelphi
DelphiStringAccess
p5559
(dp5560
g227
(lp5561
sg134
(idelphi
DelphiStringValue
p5562
(dp5563
g134
S'Browse by (context, rule, reply, move, requirements, changes)'
p5564
sbsba(idelphi
DelphiStringAccess
p5565
(dp5566
g227
(lp5567
sg134
(idelphi
DelphiStringValue
p5568
(dp5569
g134
S'0'
sbsbasbasbasbasbsg701
(i__main__
DelphiIdentAccess
p5570
(dp5571
g209
S'browseBy'
p5572
sg227
(lp5573
sbsba(i__main__
DelphiAssignStatement
p5574
(dp5575
g695
(i__main__
DelphiIdentAccess
p5576
(dp5577
g209
S'strToInt'
p5578
sg227
(lp5579
(idelphi
DelphiFunctionEndAccess
p5580
(dp5581
g714
(lp5582
(i__main__
DelphiIdentAccess
p5583
(dp5584
g209
S'readString'
p5585
sg227
(lp5586
(idelphi
DelphiFunctionEndAccess
p5587
(dp5588
g714
(lp5589
(i__main__
DelphiIdentAccess
p5590
(dp5591
g209
S'section'
p5592
sg227
(lp5593
sba(idelphi
DelphiStringAccess
p5594
(dp5595
g227
(lp5596
sg134
(idelphi
DelphiStringValue
p5597
(dp5598
g134
S'Page showing (table, map, browser)'
p5599
sbsba(idelphi
DelphiStringAccess
p5600
(dp5601
g227
(lp5602
sg134
(idelphi
DelphiStringValue
p5603
(dp5604
g134
S'0'
sbsbasbasbasbasbsg701
(i__main__
DelphiIdentAccess
p5605
(dp5606
g209
S'pageShowing'
p5607
sg227
(lp5608
sbsba(i__main__
DelphiAssignStatement
p5609
(dp5610
g695
(i__main__
DelphiIdentAccess
p5611
(dp5612
g209
S'strToBool'
p5613
sg227
(lp5614
(idelphi
DelphiFunctionEndAccess
p5615
(dp5616
g714
(lp5617
(i__main__
DelphiIdentAccess
p5618
(dp5619
g209
S'readString'
p5620
sg227
(lp5621
(idelphi
DelphiFunctionEndAccess
p5622
(dp5623
g714
(lp5624
(i__main__
DelphiIdentAccess
p5625
(dp5626
g209
S'section'
p5627
sg227
(lp5628
sba(idelphi
DelphiStringAccess
p5629
(dp5630
g227
(lp5631
sg134
(idelphi
DelphiStringValue
p5632
(dp5633
g134
S'Button symbols'
p5634
sbsba(idelphi
DelphiStringAccess
p5635
(dp5636
g227
(lp5637
sg134
(idelphi
DelphiStringValue
p5638
(dp5639
g134
S'true'
p5640
sbsbasbasbasbasbsg701
(i__main__
DelphiIdentAccess
p5641
(dp5642
g209
S'buttonSymbols'
p5643
sg227
(lp5644
sbsba(i__main__
DelphiAssignStatement
p5645
(dp5646
g695
(idelphi
DelphiStringAccess
p5647
(dp5648
g227
(lp5649
sg134
(idelphi
DelphiStringValue
p5650
(dp5651
g134
S'Windows'
p5652
sbsbsg701
(i__main__
DelphiIdentAccess
p5653
(dp5654
g209
S'section'
p5655
sg227
(lp5656
sbsg97
(lp5657
S' windows\r'
p5658
asba(i__main__
DelphiAssignStatement
p5659
(dp5660
g695
(i__main__
DelphiIdentAccess
p5661
(dp5662
g209
S'stringToRect'
p5663
sg227
(lp5664
(idelphi
DelphiFunctionEndAccess
p5665
(dp5666
g714
(lp5667
(i__main__
DelphiIdentAccess
p5668
(dp5669
g209
S'readString'
p5670
sg227
(lp5671
(idelphi
DelphiFunctionEndAccess
p5672
(dp5673
g714
(lp5674
(i__main__
DelphiIdentAccess
p5675
(dp5676
g209
S'section'
p5677
sg227
(lp5678
sba(idelphi
DelphiStringAccess
p5679
(dp5680
g227
(lp5681
sg134
(idelphi
DelphiStringValue
p5682
(dp5683
g134
S'Player window position'
p5684
sbsba(idelphi
DelphiStringAccess
p5685
(dp5686
g227
(lp5687
sg134
(idelphi
DelphiStringValue
p5688
(dp5689
g134
S'150 20 200 420'
p5690
sbsbasbasbasbasbsg701
(i__main__
DelphiIdentAccess
p5691
(dp5692
g209
S'consoleWindowRect'
p5693
sg227
(lp5694
sbsba(i__main__
DelphiAssignStatement
p5695
(dp5696
g695
(i__main__
DelphiIdentAccess
p5697
(dp5698
g209
S'stringToRect'
p5699
sg227
(lp5700
(idelphi
DelphiFunctionEndAccess
p5701
(dp5702
g714
(lp5703
(i__main__
DelphiIdentAccess
p5704
(dp5705
g209
S'readString'
p5706
sg227
(lp5707
(idelphi
DelphiFunctionEndAccess
p5708
(dp5709
g714
(lp5710
(i__main__
DelphiIdentAccess
p5711
(dp5712
g209
S'section'
p5713
sg227
(lp5714
sba(idelphi
DelphiStringAccess
p5715
(dp5716
g227
(lp5717
sg134
(idelphi
DelphiStringValue
p5718
(dp5719
g134
S'Editor window position'
p5720
sbsba(idelphi
DelphiStringAccess
p5721
(dp5722
g227
(lp5723
sg134
(idelphi
DelphiStringValue
p5724
(dp5725
g134
S'40 30 560 400'
p5726
sbsbasbasbasbasbsg701
(i__main__
DelphiIdentAccess
p5727
(dp5728
g209
S'editorWindowRect'
p5729
sg227
(lp5730
sbsba(i__main__
DelphiAssignStatement
p5731
(dp5732
g695
(i__main__
DelphiIdentAccess
p5733
(dp5734
g209
S'stringToRect'
p5735
sg227
(lp5736
(idelphi
DelphiFunctionEndAccess
p5737
(dp5738
g714
(lp5739
(i__main__
DelphiIdentAccess
p5740
(dp5741
g209
S'readString'
p5742
sg227
(lp5743
(idelphi
DelphiFunctionEndAccess
p5744
(dp5745
g714
(lp5746
(i__main__
DelphiIdentAccess
p5747
(dp5748
g209
S'section'
p5749
sg227
(lp5750
sba(idelphi
DelphiStringAccess
p5751
(dp5752
g227
(lp5753
sg134
(idelphi
DelphiStringValue
p5754
(dp5755
g134
S'Log file window position'
p5756
sbsba(idelphi
DelphiStringAccess
p5757
(dp5758
g227
(lp5759
sg134
(idelphi
DelphiStringValue
p5760
(dp5761
g134
S'50 50 550 400'
p5762
sbsbasbasbasbasbsg701
(i__main__
DelphiIdentAccess
p5763
(dp5764
g209
S'logFileWindowRect'
p5765
sg227
(lp5766
sbsba(i__main__
DelphiAssignStatement
p5767
(dp5768
g695
(i__main__
DelphiIdentAccess
p5769
(dp5770
g209
S'strToInt'
p5771
sg227
(lp5772
(idelphi
DelphiFunctionEndAccess
p5773
(dp5774
g714
(lp5775
(i__main__
DelphiIdentAccess
p5776
(dp5777
g209
S'readString'
p5778
sg227
(lp5779
(idelphi
DelphiFunctionEndAccess
p5780
(dp5781
g714
(lp5782
(i__main__
DelphiIdentAccess
p5783
(dp5784
g209
S'section'
p5785
sg227
(lp5786
sba(idelphi
DelphiStringAccess
p5787
(dp5788
g227
(lp5789
sg134
(idelphi
DelphiStringValue
p5790
(dp5791
g134
S'Player horizontal splitter'
p5792
sbsba(idelphi
DelphiStringAccess
p5793
(dp5794
g227
(lp5795
sg134
(idelphi
DelphiStringValue
p5796
(dp5797
g134
S'200'
p5798
sbsbasbasbasbasbsg701
(i__main__
DelphiIdentAccess
p5799
(dp5800
g209
S'consoleBottomHeight'
p5801
sg227
(lp5802
sbsba(i__main__
DelphiAssignStatement
p5803
(dp5804
g695
(i__main__
DelphiIdentAccess
p5805
(dp5806
g209
S'strToInt'
p5807
sg227
(lp5808
(idelphi
DelphiFunctionEndAccess
p5809
(dp5810
g714
(lp5811
(i__main__
DelphiIdentAccess
p5812
(dp5813
g209
S'readString'
p5814
sg227
(lp5815
(idelphi
DelphiFunctionEndAccess
p5816
(dp5817
g714
(lp5818
(i__main__
DelphiIdentAccess
p5819
(dp5820
g209
S'section'
p5821
sg227
(lp5822
sba(idelphi
DelphiStringAccess
p5823
(dp5824
g227
(lp5825
sg134
(idelphi
DelphiStringValue
p5826
(dp5827
g134
S'Player vertical splitter'
p5828
sbsba(idelphi
DelphiStringAccess
p5829
(dp5830
g227
(lp5831
sg134
(idelphi
DelphiStringValue
p5832
(dp5833
g134
S'200'
p5834
sbsbasbasbasbasbsg701
(i__main__
DelphiIdentAccess
p5835
(dp5836
g209
S'consoleRightWidth'
p5837
sg227
(lp5838
sbsba(i__main__
DelphiAssignStatement
p5839
(dp5840
g695
(i__main__
DelphiIdentAccess
p5841
(dp5842
g209
S'strToInt'
p5843
sg227
(lp5844
(idelphi
DelphiFunctionEndAccess
p5845
(dp5846
g714
(lp5847
(i__main__
DelphiIdentAccess
p5848
(dp5849
g209
S'readString'
p5850
sg227
(lp5851
(idelphi
DelphiFunctionEndAccess
p5852
(dp5853
g714
(lp5854
(i__main__
DelphiIdentAccess
p5855
(dp5856
g209
S'section'
p5857
sg227
(lp5858
sba(idelphi
DelphiStringAccess
p5859
(dp5860
g227
(lp5861
sg134
(idelphi
DelphiStringValue
p5862
(dp5863
g134
S'Editor top splitter'
p5864
sbsba(idelphi
DelphiStringAccess
p5865
(dp5866
g227
(lp5867
sg134
(idelphi
DelphiStringValue
p5868
(dp5869
g134
S'150'
p5870
sbsbasbasbasbasbsg701
(i__main__
DelphiIdentAccess
p5871
(dp5872
g209
S'editorPanelEditorHeight'
p5873
sg227
(lp5874
sbsba(i__main__
DelphiAssignStatement
p5875
(dp5876
g695
(i__main__
DelphiIdentAccess
p5877
(dp5878
g209
S'strToInt'
p5879
sg227
(lp5880
(idelphi
DelphiFunctionEndAccess
p5881
(dp5882
g714
(lp5883
(i__main__
DelphiIdentAccess
p5884
(dp5885
g209
S'readString'
p5886
sg227
(lp5887
(idelphi
DelphiFunctionEndAccess
p5888
(dp5889
g714
(lp5890
(i__main__
DelphiIdentAccess
p5891
(dp5892
g209
S'section'
p5893
sg227
(lp5894
sba(idelphi
DelphiStringAccess
p5895
(dp5896
g227
(lp5897
sg134
(idelphi
DelphiStringValue
p5898
(dp5899
g134
S'Editor bottom splitter'
p5900
sbsba(idelphi
DelphiStringAccess
p5901
(dp5902
g227
(lp5903
sg134
(idelphi
DelphiStringValue
p5904
(dp5905
g134
S'100'
p5906
sbsbasbasbasbasbsg701
(i__main__
DelphiIdentAccess
p5907
(dp5908
g209
S'editorPanelRequirementsChangesHeight'
p5909
sg227
(lp5910
sbsba(i__main__
DelphiAssignStatement
p5911
(dp5912
g695
(i__main__
DelphiIdentAccess
p5913
(dp5914
g209
S'strToInt'
p5915
sg227
(lp5916
(idelphi
DelphiFunctionEndAccess
p5917
(dp5918
g714
(lp5919
(i__main__
DelphiIdentAccess
p5920
(dp5921
g209
S'readString'
p5922
sg227
(lp5923
(idelphi
DelphiFunctionEndAccess
p5924
(dp5925
g714
(lp5926
(i__main__
DelphiIdentAccess
p5927
(dp5928
g209
S'section'
p5929
sg227
(lp5930
sba(idelphi
DelphiStringAccess
p5931
(dp5932
g227
(lp5933
sg134
(idelphi
DelphiStringValue
p5934
(dp5935
g134
S'Editor browser splitter'
p5936
sbsba(idelphi
DelphiStringAccess
p5937
(dp5938
g227
(lp5939
sg134
(idelphi
DelphiStringValue
p5940
(dp5941
g134
S'200'
p5942
sbsbasbasbasbasbsg701
(i__main__
DelphiIdentAccess
p5943
(dp5944
g209
S'editorPanelFirstListWidth'
p5945
sg227
(lp5946
sbsba(i__main__
DelphiAssignStatement
p5947
(dp5948
g695
(i__main__
DelphiIdentAccess
p5949
(dp5950
g209
S'stringToRect'
p5951
sg227
(lp5952
(idelphi
DelphiFunctionEndAccess
p5953
(dp5954
g714
(lp5955
(i__main__
DelphiIdentAccess
p5956
(dp5957
g209
S'readString'
p5958
sg227
(lp5959
(idelphi
DelphiFunctionEndAccess
p5960
(dp5961
g714
(lp5962
(i__main__
DelphiIdentAccess
p5963
(dp5964
g209
S'section'
p5965
sg227
(lp5966
sba(idelphi
DelphiStringAccess
p5967
(dp5968
g227
(lp5969
sg134
(idelphi
DelphiStringValue
p5970
(dp5971
g134
S'Picture window position'
p5972
sbsba(idelphi
DelphiStringAccess
p5973
(dp5974
g227
(lp5975
sg134
(idelphi
DelphiStringValue
p5976
(dp5977
g134
S'200 200 200 200'
p5978
sbsbasbasbasbasbsg701
(i__main__
DelphiIdentAccess
p5979
(dp5980
g209
S'pictureWindowRect'
p5981
sg227
(lp5982
sbsba(i__main__
DelphiAssignStatement
p5983
(dp5984
g695
(idelphi
DelphiStringAccess
p5985
(dp5986
g227
(lp5987
sg134
(idelphi
DelphiStringValue
p5988
(dp5989
g134
S'Registration'
p5990
sbsbsg701
(i__main__
DelphiIdentAccess
p5991
(dp5992
g209
S'section'
p5993
sg227
(lp5994
sbsg97
(lp5995
S' registration\r'
p5996
asba(i__main__
DelphiAssignStatement
p5997
(dp5998
g695
(i__main__
DelphiIdentAccess
p5999
(dp6000
g209
S'readString'
p6001
sg227
(lp6002
(idelphi
DelphiFunctionEndAccess
p6003
(dp6004
g714
(lp6005
(i__main__
DelphiIdentAccess
p6006
(dp6007
g209
S'section'
p6008
sg227
(lp6009
sba(idelphi
DelphiStringAccess
p6010
(dp6011
g227
(lp6012
sg134
(idelphi
DelphiStringValue
p6013
(dp6014
g134
S'R4'
p6015
sbsba(idelphi
DelphiStringAccess
p6016
(dp6017
g227
(lp6018
sg134
(idelphi
DelphiStringValue
p6019
(dp6020
g134
S''
sbsbasbasbsg701
(i__main__
DelphiIdentAccess
p6021
(dp6022
g209
S'registrationName'
p6023
sg227
(lp6024
sbsba(i__main__
DelphiAssignStatement
p6025
(dp6026
g695
(i__main__
DelphiIdentAccess
p6027
(dp6028
g209
S'hexUnencode'
p6029
sg227
(lp6030
(idelphi
DelphiFunctionEndAccess
p6031
(dp6032
g714
(lp6033
(i__main__
DelphiIdentAccess
p6034
(dp6035
g209
S'registrationName'
p6036
sg227
(lp6037
sbasbasbsg701
(i__main__
DelphiIdentAccess
p6038
(dp6039
g209
S'registrationName'
p6040
sg227
(lp6041
sbsba(i__main__
DelphiAssignStatement
p6042
(dp6043
g695
(i__main__
DelphiIdentAccess
p6044
(dp6045
g209
S'readString'
p6046
sg227
(lp6047
(idelphi
DelphiFunctionEndAccess
p6048
(dp6049
g714
(lp6050
(i__main__
DelphiIdentAccess
p6051
(dp6052
g209
S'section'
p6053
sg227
(lp6054
sba(idelphi
DelphiStringAccess
p6055
(dp6056
g227
(lp6057
sg134
(idelphi
DelphiStringValue
p6058
(dp6059
g134
S'R3'
p6060
sbsba(idelphi
DelphiStringAccess
p6061
(dp6062
g227
(lp6063
sg134
(idelphi
DelphiStringValue
p6064
(dp6065
g134
S''
sbsbasbasbsg701
(i__main__
DelphiIdentAccess
p6066
(dp6067
g209
S'registrationCode'
p6068
sg227
(lp6069
sbsba(i__main__
DelphiAssignStatement
p6070
(dp6071
g695
(i__main__
DelphiIdentAccess
p6072
(dp6073
g209
S'hexUnencode'
p6074
sg227
(lp6075
(idelphi
DelphiFunctionEndAccess
p6076
(dp6077
g714
(lp6078
(i__main__
DelphiIdentAccess
p6079
(dp6080
g209
S'registrationCode'
p6081
sg227
(lp6082
sbasbasbsg701
(i__main__
DelphiIdentAccess
p6083
(dp6084
g209
S'registrationCode'
p6085
sg227
(lp6086
sbsba(i__main__
DelphiAssignStatement
p6087
(dp6088
g695
(i__main__
DelphiIdentAccess
p6089
(dp6090
g209
S'RegistrationMatch'
p6091
sg227
(lp6092
(idelphi
DelphiFunctionEndAccess
p6093
(dp6094
g714
(lp6095
(i__main__
DelphiIdentAccess
p6096
(dp6097
g209
S'registrationName'
p6098
sg227
(lp6099
sba(i__main__
DelphiIdentAccess
p6100
(dp6101
g209
S'registrationCode'
p6102
sg227
(lp6103
sbasbasbsg701
(i__main__
DelphiIdentAccess
p6104
(dp6105
g209
S'registered'
p6106
sg227
(lp6107
sbsba(idelphi
DelphiIfStatement
p6108
(dp6109
g860
(idelphi
DelphiNot
p6110
(dp6111
g2342
(i__main__
DelphiIdentAccess
p6112
(dp6113
g209
S'registered'
p6114
sg227
(lp6115
sbsbsg886
Nsg887
(idelphi
DelphiCompoundStatement
p6116
(dp6117
g691
(lp6118
(i__main__
DelphiAssignStatement
p6119
(dp6120
g695
(idelphi
DelphiStringAccess
p6121
(dp6122
g227
(lp6123
sg134
(idelphi
DelphiStringValue
p6124
(dp6125
g134
S'Editor'
p6126
sbsbsg701
(i__main__
DelphiIdentAccess
p6127
(dp6128
g209
S'section'
p6129
sg227
(lp6130
sbsba(i__main__
DelphiAssignStatement
p6131
(dp6132
g695
(i__main__
DelphiIdentAccess
p6133
(dp6134
g209
S'readString'
p6135
sg227
(lp6136
(idelphi
DelphiFunctionEndAccess
p6137
(dp6138
g714
(lp6139
(i__main__
DelphiIdentAccess
p6140
(dp6141
g209
S'section'
p6142
sg227
(lp6143
sba(i__main__
DelphiIdentAccess
p6144
(dp6145
g209
S'kKeyForAccumulatedUnregisteredTime'
p6146
sg227
(lp6147
sba(idelphi
DelphiStringAccess
p6148
(dp6149
g227
(lp6150
sg134
(idelphi
DelphiStringValue
p6151
(dp6152
g134
S'0'
sbsbasbasbsg701
(i__main__
DelphiIdentAccess
p6153
(dp6154
g209
S'timeString'
p6155
sg227
(lp6156
sbsba(i__main__
DelphiAssignStatement
p6157
(dp6158
g695
(i__main__
DelphiIdentAccess
p6159
(dp6160
g209
S'max'
p6161
sg227
(lp6162
(idelphi
DelphiFunctionEndAccess
p6163
(dp6164
g714
(lp6165
(i__main__
DelphiIdentAccess
p6166
(dp6167
g209
S'strToFloat'
p6168
sg227
(lp6169
(idelphi
DelphiFunctionEndAccess
p6170
(dp6171
g714
(lp6172
(i__main__
DelphiIdentAccess
p6173
(dp6174
g209
S'timeString'
p6175
sg227
(lp6176
sbasbasba(idelphi
DelphiIntegerValue
p6177
(dp6178
g134
S'0'
sbasbasbsg701
(i__main__
DelphiIdentAccess
p6179
(dp6180
g209
S'readNumber'
p6181
sg227
(lp6182
sbsba(i__main__
DelphiAssignStatement
p6183
(dp6184
g695
(idelphi
DelphiMulOp
p6185
(dp6186
g2335
(i__main__
DelphiIdentAccess
p6187
(dp6188
g209
S'kEncryptingMultiplierForAccumulatedUnregisteredTime'
p6189
sg227
(lp6190
sbsg2350
S'/'
sg2352
(i__main__
DelphiIdentAccess
p6191
(dp6192
g209
S'readNumber'
p6193
sg227
(lp6194
sbsbsg701
(i__main__
DelphiIdentAccess
p6195
(dp6196
g209
S'accumulatedUnregisteredTime'
p6197
sg227
(lp6198
sbsbasbsbasbsg2741
(lp6199
(i__main__
DelphiIdentAccess
p6200
(dp6201
g209
S'iniFile'
p6202
sg227
(lp6203
sba(i__main__
DelphiIdentAccess
p6204
(dp6205
g209
S'options'
p6206
sg227
(lp6207
sbasbasg2751
(lp6208
(i__main__
DelphiAssignStatement
p6209
(dp6210
g695
Nsg701
(i__main__
DelphiIdentAccess
p6211
(dp6212
g209
S'iniFile'
p6213
sg227
(lp6214
(idelphi
DelphiFieldEndAccess
p6215
(dp6216
g796
S'free'
p6217
sbasbsbasbasbsg740
(lp6218
(i__main__
DelphiVarSection
p6219
(dp6220
g296
I0
sg744
(lp6221
(idelphi
DelphiVarDecl
p6222
(dp6223
g205
Nsg748
(lp6224
S'section'
p6225
asg211
(i__main__
DelphiPrimitiveType
p6226
(dp6227
g107
g134
sbsba(idelphi
DelphiVarDecl
p6228
(dp6229
g205
Nsg748
(lp6230
S'iniFile'
p6231
asg211
(i__main__
DelphiNamedType
p6232
(dp6233
g107
S'TIniFile'
p6234
sg117
g1
sg118
Nsbsba(idelphi
DelphiVarDecl
p6235
(dp6236
g205
Nsg748
(lp6237
S'timeString'
p6238
asg211
(i__main__
DelphiPrimitiveType
p6239
(dp6240
g107
g134
sbsba(idelphi
DelphiVarDecl
p6241
(dp6242
g205
Nsg748
(lp6243
S'readNumber'
p6244
asg211
(i__main__
DelphiPrimitiveType
p6245
(dp6246
g107
g2785
sbsbasbasbsbsS'isworldfilechanged'
p6247
(i__main__
DelphiMethodImplementation
p6248
(dp6249
g669
g484
sg100
g486
sg349
(lp6250
sg671
(lp6251
sg673
(lp6252
sg675
(lp6253
g677
asg678
(dp6254
sg360
S'TSDomain'
p6255
sg361
(i__main__
DelphiPrimitiveType
p6256
(dp6257
g107
g108
sbsg683
(lp6258
sg362
I0
sg363
g372
sg685
(i__main__
DelphiBlock
p6259
(dp6260
g688
(idelphi
DelphiCompoundStatement
p6261
(dp6262
g691
(lp6263
(i__main__
DelphiAssignStatement
p6264
(dp6265
g695
(idelphi
DelphiRelOp
p6266
(dp6267
g3926
(i__main__
DelphiIdentAccess
p6268
(dp6269
g209
S'worldChangeCount'
p6270
sg227
(lp6271
sbsg3931
(idelphi
DelphiIntegerValue
p6272
(dp6273
g134
S'0'
sbsg3937
g3938
sbsg701
(i__main__
DelphiIdentAccess
p6274
(dp6275
g209
S'result'
p6276
sg227
(lp6277
sbsbasbsg740
(lp6278
sbsbsS'destroy'
p6279
(i__main__
DelphiMethodImplementation
p6280
(dp6281
g669
g491
sg100
g493
sg349
(lp6282
sg671
(lp6283
sg673
(lp6284
sg675
(lp6285
g677
asg678
(dp6286
sg360
S'TSDomain'
p6287
sg361
Nsg683
(lp6288
sg362
I0
sg363
g495
sg685
(i__main__
DelphiBlock
p6289
(dp6290
g688
(idelphi
DelphiCompoundStatement
p6291
(dp6292
g691
(lp6293
(i__main__
DelphiAssignStatement
p6294
(dp6295
g695
Nsg701
(i__main__
DelphiIdentAccess
p6296
(dp6297
g209
S'mapView'
p6298
sg227
(lp6299
(idelphi
DelphiFieldEndAccess
p6300
(dp6301
g796
S'free'
p6302
sbasbsba(i__main__
DelphiAssignStatement
p6303
(dp6304
g695
(idelphi
DelphiNilValue
p6305
(dp6306
bsg701
(i__main__
DelphiIdentAccess
p6307
(dp6308
g209
S'mapView'
p6309
sg227
(lp6310
sbsba(i__main__
DelphiAssignStatement
p6311
(dp6312
g695
Nsg701
(i__main__
DelphiIdentAccess
p6313
(dp6314
g209
S'sessionCommandList'
p6315
sg227
(lp6316
(idelphi
DelphiFieldEndAccess
p6317
(dp6318
g796
S'free'
p6319
sbasbsba(i__main__
DelphiAssignStatement
p6320
(dp6321
g695
(idelphi
DelphiNilValue
p6322
(dp6323
bsg701
(i__main__
DelphiIdentAccess
p6324
(dp6325
g209
S'sessionCommandList'
p6326
sg227
(lp6327
sbsba(i__main__
DelphiAssignStatement
p6328
(dp6329
g695
Nsg701
(i__main__
DelphiIdentAccess
p6330
(dp6331
g209
S'worldCommandList'
p6332
sg227
(lp6333
(idelphi
DelphiFieldEndAccess
p6334
(dp6335
g796
S'free'
p6336
sbasbsba(i__main__
DelphiAssignStatement
p6337
(dp6338
g695
(idelphi
DelphiNilValue
p6339
(dp6340
bsg701
(i__main__
DelphiIdentAccess
p6341
(dp6342
g209
S'worldCommandList'
p6343
sg227
(lp6344
sbsba(i__main__
DelphiAssignStatement
p6345
(dp6346
g695
Nsg701
(i__main__
DelphiIdentAccess
p6347
(dp6348
g209
S'world'
p6349
sg227
(lp6350
(idelphi
DelphiFieldEndAccess
p6351
(dp6352
g796
S'free'
p6353
sbasbsba(i__main__
DelphiAssignStatement
p6354
(dp6355
g695
(idelphi
DelphiNilValue
p6356
(dp6357
bsg701
(i__main__
DelphiIdentAccess
p6358
(dp6359
g209
S'world'
p6360
sg227
(lp6361
sbsba(i__main__
DelphiAssignStatement
p6362
(dp6363
g695
Nsg701
(idelphi
DelphiInheritedCall
p6364
(dp6365
g209
S'destroy'
p6366
sg714
Nsbsbasbsg740
(lp6367
sbsbsS'readinifile'
p6368
(i__main__
DelphiMethodImplementation
p6369
(dp6370
g669
g497
sg100
g499
sg349
(lp6371
sg671
(lp6372
sg673
(lp6373
sg675
(lp6374
g677
asg678
(dp6375
sg360
S'TSDomain'
p6376
sg361
Nsg683
(lp6377
sg362
I0
sg363
g364
sg685
(i__main__
DelphiBlock
p6378
(dp6379
g688
(idelphi
DelphiCompoundStatement
p6380
(dp6381
g691
(lp6382
(idelphi
DelphiIfStatement
p6383
(dp6384
g860
(idelphi
DelphiNot
p6385
(dp6386
g2342
(i__main__
DelphiIdentAccess
p6387
(dp6388
g209
S'useIniFile'
p6389
sg227
(lp6390
sbsbsg886
Nsg887
(idelphi
DelphiCompoundStatement
p6391
(dp6392
g691
(lp6393
(i__main__
DelphiAssignStatement
p6394
(dp6395
g695
Nsg701
(i__main__
DelphiIdentAccess
p6396
(dp6397
g209
S'self'
p6398
sg227
(lp6399
(idelphi
DelphiFieldEndAccess
p6400
(dp6401
g796
S'defaultOptions'
p6402
sbasbsba(i__main__
DelphiExitStatement
p6403
(dp6404
S'proceduralOrMethodImplementation'
p6405
g6369
sbasbsba(idelphi
DelphiIfStatement
p6406
(dp6407
g860
(idelphi
DelphiRelOp
p6408
(dp6409
g3926
(i__main__
DelphiIdentAccess
p6410
(dp6411
g209
S'extractFilePath'
p6412
sg227
(lp6413
(idelphi
DelphiFunctionEndAccess
p6414
(dp6415
g714
(lp6416
(i__main__
DelphiIdentAccess
p6417
(dp6418
g209
S'iniFileName'
p6419
sg227
(lp6420
sbasbasbsg3931
(idelphi
DelphiStringAccess
p6421
(dp6422
g227
(lp6423
sg134
(idelphi
DelphiStringValue
p6424
(dp6425
g134
S''
sbsbsg3937
g3938
sbsg886
(idelphi
DelphiCompoundStatement
p6426
(dp6427
g691
(lp6428
(i__main__
DelphiAssignStatement
p6429
(dp6430
g695
(i__main__
DelphiIdentAccess
p6431
(dp6432
g209
S'fileExists'
p6433
sg227
(lp6434
(idelphi
DelphiFunctionEndAccess
p6435
(dp6436
g714
(lp6437
(idelphi
DelphiAddOp
p6438
(dp6439
g952
S'+'
sg953
(i__main__
DelphiIdentAccess
p6440
(dp6441
g209
S'iniFileName'
p6442
sg227
(lp6443
sbsg958
(idelphi
DelphiAddOp
p6444
(dp6445
g952
S'+'
sg953
(idelphi
DelphiStringAccess
p6446
(dp6447
g227
(lp6448
sg134
(idelphi
DelphiStringValue
p6449
(dp6450
g134
S'\\'
sbsbsg958
(i__main__
DelphiIdentAccess
p6451
(dp6452
g209
S'windowsDirectory'
p6453
sg227
(lp6454
sbsbsbasbasbsg701
(i__main__
DelphiIdentAccess
p6455
(dp6456
g209
S'iniFileFound'
p6457
sg227
(lp6458
sbsba(i__main__
DelphiAssignStatement
p6459
(dp6460
g695
(idelphi
DelphiAddOp
p6461
(dp6462
g952
S'+'
sg953
(i__main__
DelphiIdentAccess
p6463
(dp6464
g209
S'iniFileName'
p6465
sg227
(lp6466
sbsg958
(idelphi
DelphiAddOp
p6467
(dp6468
g952
S'+'
sg953
(idelphi
DelphiStringAccess
p6469
(dp6470
g227
(lp6471
sg134
(idelphi
DelphiStringValue
p6472
(dp6473
g134
S'\\'
sbsbsg958
(i__main__
DelphiIdentAccess
p6474
(dp6475
g209
S'windowsDirectory'
p6476
sg227
(lp6477
sbsbsbsg701
(i__main__
DelphiIdentAccess
p6478
(dp6479
g209
S'iniFileName'
p6480
sg227
(lp6481
sbsbasbsg887
(idelphi
DelphiCompoundStatement
p6482
(dp6483
g691
(lp6484
(i__main__
DelphiAssignStatement
p6485
(dp6486
g695
(i__main__
DelphiIdentAccess
p6487
(dp6488
g209
S'fileExists'
p6489
sg227
(lp6490
(idelphi
DelphiFunctionEndAccess
p6491
(dp6492
g714
(lp6493
(i__main__
DelphiIdentAccess
p6494
(dp6495
g209
S'iniFileName'
p6496
sg227
(lp6497
sbasbasbsg701
(i__main__
DelphiIdentAccess
p6498
(dp6499
g209
S'iniFileFound'
p6500
sg227
(lp6501
sbsg97
(lp6502
S' ini file name has path\r'
p6503
aS' alternate ini file must exist before user uses it\r'
p6504
asba(idelphi
DelphiIfStatement
p6505
(dp6506
g860
(idelphi
DelphiNot
p6507
(dp6508
g2342
(i__main__
DelphiIdentAccess
p6509
(dp6510
g209
S'iniFileFound'
p6511
sg227
(lp6512
sbsbsg886
Nsg887
(idelphi
DelphiCompoundStatement
p6513
(dp6514
g691
(lp6515
(i__main__
DelphiAssignStatement
p6516
(dp6517
g695
Nsg701
(i__main__
DelphiIdentAccess
p6518
(dp6519
g209
S'ShowMessage'
p6520
sg227
(lp6521
(idelphi
DelphiFunctionEndAccess
p6522
(dp6523
g714
(lp6524
(idelphi
DelphiAddOp
p6525
(dp6526
g952
S'+'
sg953
(idelphi
DelphiStringAccess
p6527
(dp6528
g227
(lp6529
sg134
(idelphi
DelphiStringValue
p6530
(dp6531
g134
S'Using standard settings file in Windows directory instead.'
p6532
sbsbsg958
(idelphi
DelphiAddOp
p6533
(dp6534
g952
S'+'
sg953
(i__main__
DelphiIdentAccess
p6535
(dp6536
g209
S'chr'
p6537
sg227
(lp6538
(idelphi
DelphiFunctionEndAccess
p6539
(dp6540
g714
(lp6541
(idelphi
DelphiIntegerValue
p6542
(dp6543
g134
S'13'
p6544
sbasbasbsg958
(idelphi
DelphiAddOp
p6545
(dp6546
g952
S'+'
sg953
(i__main__
DelphiIdentAccess
p6547
(dp6548
g209
S'chr'
p6549
sg227
(lp6550
(idelphi
DelphiFunctionEndAccess
p6551
(dp6552
g714
(lp6553
(idelphi
DelphiIntegerValue
p6554
(dp6555
g134
S'13'
p6556
sbasbasbsg958
(idelphi
DelphiAddOp
p6557
(dp6558
g952
S'+'
sg953
(i__main__
DelphiIdentAccess
p6559
(dp6560
g209
S'iniFileName'
p6561
sg227
(lp6562
sbsg958
(idelphi
DelphiAddOp
p6563
(dp6564
g952
S'+'
sg953
(idelphi
DelphiStringAccess
p6565
(dp6566
g227
(lp6567
sg134
(idelphi
DelphiStringValue
p6568
(dp6569
g134
S'  '
p6570
sbsbsg958
(idelphi
DelphiAddOp
p6571
(dp6572
g952
S'+'
sg953
(i__main__
DelphiIdentAccess
p6573
(dp6574
g209
S'chr'
p6575
sg227
(lp6576
(idelphi
DelphiFunctionEndAccess
p6577
(dp6578
g714
(lp6579
(idelphi
DelphiIntegerValue
p6580
(dp6581
g134
S'13'
p6582
sbasbasbsg958
(idelphi
DelphiAddOp
p6583
(dp6584
g952
S'+'
sg953
(i__main__
DelphiIdentAccess
p6585
(dp6586
g209
S'chr'
p6587
sg227
(lp6588
(idelphi
DelphiFunctionEndAccess
p6589
(dp6590
g714
(lp6591
(idelphi
DelphiIntegerValue
p6592
(dp6593
g134
S'13'
p6594
sbasbasbsg958
(idelphi
DelphiStringAccess
p6595
(dp6596
g227
(lp6597
sg134
(idelphi
DelphiStringValue
p6598
(dp6599
g134
S'Could not find alternate settings file '
p6600
sbsbsbsbsbsbsbsbsbasbasbsba(i__main__
DelphiAssignStatement
p6601
(dp6602
g695
(i__main__
DelphiIdentAccess
p6603
(dp6604
g209
S'kDefaultIniFileName'
p6605
sg227
(lp6606
sbsg701
(i__main__
DelphiIdentAccess
p6607
(dp6608
g209
S'iniFileName'
p6609
sg227
(lp6610
sbsba(i__main__
DelphiAssignStatement
p6611
(dp6612
g695
(i__main__
DelphiIdentAccess
p6613
(dp6614
g209
S'fileExists'
p6615
sg227
(lp6616
(idelphi
DelphiFunctionEndAccess
p6617
(dp6618
g714
(lp6619
(idelphi
DelphiAddOp
p6620
(dp6621
g952
S'+'
sg953
(i__main__
DelphiIdentAccess
p6622
(dp6623
g209
S'iniFileName'
p6624
sg227
(lp6625
sbsg958
(idelphi
DelphiAddOp
p6626
(dp6627
g952
S'+'
sg953
(idelphi
DelphiStringAccess
p6628
(dp6629
g227
(lp6630
sg134
(idelphi
DelphiStringValue
p6631
(dp6632
g134
S'\\'
sbsbsg958
(i__main__
DelphiIdentAccess
p6633
(dp6634
g209
S'windowsDirectory'
p6635
sg227
(lp6636
sbsbsbasbasbsg701
(i__main__
DelphiIdentAccess
p6637
(dp6638
g209
S'iniFileFound'
p6639
sg227
(lp6640
sbsba(i__main__
DelphiAssignStatement
p6641
(dp6642
g695
(idelphi
DelphiAddOp
p6643
(dp6644
g952
S'+'
sg953
(i__main__
DelphiIdentAccess
p6645
(dp6646
g209
S'iniFileName'
p6647
sg227
(lp6648
sbsg958
(idelphi
DelphiAddOp
p6649
(dp6650
g952
S'+'
sg953
(idelphi
DelphiStringAccess
p6651
(dp6652
g227
(lp6653
sg134
(idelphi
DelphiStringValue
p6654
(dp6655
g134
S'\\'
sbsbsg958
(i__main__
DelphiIdentAccess
p6656
(dp6657
g209
S'windowsDirectory'
p6658
sg227
(lp6659
sbsbsbsg701
(i__main__
DelphiIdentAccess
p6660
(dp6661
g209
S'iniFileName'
p6662
sg227
(lp6663
sbsbasbsbasbsba(idelphi
DelphiIfStatement
p6664
(dp6665
g860
(idelphi
DelphiMulOp
p6666
(dp6667
g2335
(i__main__
DelphiIdentAccess
p6668
(dp6669
g209
S'useIniFile'
p6670
sg227
(lp6671
sbsg2350
g2351
sg2352
(i__main__
DelphiIdentAccess
p6672
(dp6673
g209
S'iniFileFound'
p6674
sg227
(lp6675
sbsbsg886
(i__main__
DelphiAssignStatement
p6676
(dp6677
g695
Nsg701
(i__main__
DelphiIdentAccess
p6678
(dp6679
g209
S'self'
p6680
sg227
(lp6681
(idelphi
DelphiFieldEndAccess
p6682
(dp6683
g796
S'defaultOptions'
p6684
sbasbsbsg887
(i__main__
DelphiAssignStatement
p6685
(dp6686
g695
Nsg701
(i__main__
DelphiIdentAccess
p6687
(dp6688
g209
S'self'
p6689
sg227
(lp6690
(idelphi
DelphiFieldEndAccess
p6691
(dp6692
g796
S'getProfileInformation'
p6693
sbasbsbsbasbsg740
(lp6694
(i__main__
DelphiVarSection
p6695
(dp6696
g296
I0
sg744
(lp6697
(idelphi
DelphiVarDecl
p6698
(dp6699
g205
Nsg748
(lp6700
S'iniFileFound'
p6701
asg211
(i__main__
DelphiPrimitiveType
p6702
(dp6703
g107
g108
sbsbasbasbsbsS'beginupdate'
p6704
(i__main__
DelphiMethodImplementation
p6705
(dp6706
g669
g502
sg100
g504
sg349
(lp6707
sg671
(lp6708
sg673
(lp6709
sg675
(lp6710
g677
asg678
(dp6711
sg360
S'TSDomain'
p6712
sg361
Nsg683
(lp6713
sg362
I0
sg363
g364
sg685
(i__main__
DelphiBlock
p6714
(dp6715
g688
(idelphi
DelphiCompoundStatement
p6716
(dp6717
g691
(lp6718
(i__main__
DelphiIncOrDecStatement
p6719
(dp6720
g1136
g1137
sg1138
Nsg701
(i__main__
DelphiIdentAccess
p6721
(dp6722
g209
S'changeLock'
p6723
sg227
(lp6724
sbsbasbsg740
(lp6725
sbsbsS'readcommandline'
p6726
(i__main__
DelphiMethodImplementation
p6727
(dp6728
g669
g507
sg100
g509
sg349
(lp6729
sg671
(lp6730
sg673
(lp6731
sg675
(lp6732
g677
asg678
(dp6733
sg360
S'TSDomain'
p6734
sg361
Nsg683
(lp6735
sg362
I0
sg363
g364
sg685
(i__main__
DelphiBlock
p6736
(dp6737
g688
(idelphi
DelphiCompoundStatement
p6738
(dp6739
g691
(lp6740
(idelphi
DelphiIfStatement
p6741
(dp6742
g860
(idelphi
DelphiRelOp
p6743
(dp6744
g3926
(i__main__
DelphiIdentAccess
p6745
(dp6746
g209
S'ParamCount'
p6747
sg227
(lp6748
sbsg3931
(idelphi
DelphiIntegerValue
p6749
(dp6750
g134
S'0'
sbsg3937
S'>'
sbsg886
Nsg887
(idelphi
DelphiCompoundStatement
p6751
(dp6752
g691
(lp6753
(idelphi
DelphiForStatement
p6754
(dp6755
S'variable'
p6756
S'i'
sS'finalValue'
p6757
(i__main__
DelphiIdentAccess
p6758
(dp6759
g209
S'ParamCount'
p6760
sg227
(lp6761
sbsS'direction'
p6762
S'to'
p6763
sg353
(idelphi
DelphiIntegerValue
p6764
(dp6765
g134
S'1'
sbsg1194
(idelphi
DelphiIfStatement
p6766
(dp6767
g860
(idelphi
DelphiRelOp
p6768
(dp6769
g3926
(i__main__
DelphiIdentAccess
p6770
(dp6771
g209
S'uppercase'
p6772
sg227
(lp6773
(idelphi
DelphiFunctionEndAccess
p6774
(dp6775
g714
(lp6776
(i__main__
DelphiIdentAccess
p6777
(dp6778
g209
S'ParamStr'
p6779
sg227
(lp6780
(idelphi
DelphiFunctionEndAccess
p6781
(dp6782
g714
(lp6783
(i__main__
DelphiIdentAccess
p6784
(dp6785
g209
S'i'
sg227
(lp6786
sbasbasbasbasbsg3931
(idelphi
DelphiStringAccess
p6787
(dp6788
g227
(lp6789
sg134
(idelphi
DelphiStringValue
p6790
(dp6791
g134
S'/I='
p6792
sbsbsg3937
S'='
sbsg886
(idelphi
DelphiIfStatement
p6793
(dp6794
g860
(idelphi
DelphiRelOp
p6795
(dp6796
g3926
(i__main__
DelphiIdentAccess
p6797
(dp6798
g209
S'uppercase'
p6799
sg227
(lp6800
(idelphi
DelphiFunctionEndAccess
p6801
(dp6802
g714
(lp6803
(i__main__
DelphiIdentAccess
p6804
(dp6805
g209
S'ParamStr'
p6806
sg227
(lp6807
(idelphi
DelphiFunctionEndAccess
p6808
(dp6809
g714
(lp6810
(i__main__
DelphiIdentAccess
p6811
(dp6812
g209
S'i'
sg227
(lp6813
sbasbasbasbasbsg3931
(idelphi
DelphiStringAccess
p6814
(dp6815
g227
(lp6816
sg134
(idelphi
DelphiStringValue
p6817
(dp6818
g134
S'/I'
p6819
sbsbsg3937
S'='
sbsg886
(idelphi
DelphiIfStatement
p6820
(dp6821
g860
(idelphi
DelphiRelOp
p6822
(dp6823
g3926
(i__main__
DelphiIdentAccess
p6824
(dp6825
g209
S'pos'
p6826
sg227
(lp6827
(idelphi
DelphiFunctionEndAccess
p6828
(dp6829
g714
(lp6830
(idelphi
DelphiStringAccess
p6831
(dp6832
g227
(lp6833
sg134
(idelphi
DelphiStringValue
p6834
(dp6835
g134
S'/I='
p6836
sbsba(i__main__
DelphiIdentAccess
p6837
(dp6838
g209
S'uppercase'
p6839
sg227
(lp6840
(idelphi
DelphiFunctionEndAccess
p6841
(dp6842
g714
(lp6843
(i__main__
DelphiIdentAccess
p6844
(dp6845
g209
S'ParamStr'
p6846
sg227
(lp6847
(idelphi
DelphiFunctionEndAccess
p6848
(dp6849
g714
(lp6850
(i__main__
DelphiIdentAccess
p6851
(dp6852
g209
S'i'
sg227
(lp6853
sbasbasbasbasbasbasbsg3931
(idelphi
DelphiIntegerValue
p6854
(dp6855
g134
S'1'
sbsg3937
S'='
sbsg886
(idelphi
DelphiIfStatement
p6856
(dp6857
g860
(idelphi
DelphiRelOp
p6858
(dp6859
g3926
(i__main__
DelphiIdentAccess
p6860
(dp6861
g209
S'pos'
p6862
sg227
(lp6863
(idelphi
DelphiFunctionEndAccess
p6864
(dp6865
g714
(lp6866
(idelphi
DelphiStringAccess
p6867
(dp6868
g227
(lp6869
sg134
(idelphi
DelphiStringValue
p6870
(dp6871
g134
S'/I'
p6872
sbsba(i__main__
DelphiIdentAccess
p6873
(dp6874
g209
S'uppercase'
p6875
sg227
(lp6876
(idelphi
DelphiFunctionEndAccess
p6877
(dp6878
g714
(lp6879
(i__main__
DelphiIdentAccess
p6880
(dp6881
g209
S'ParamStr'
p6882
sg227
(lp6883
(idelphi
DelphiFunctionEndAccess
p6884
(dp6885
g714
(lp6886
(i__main__
DelphiIdentAccess
p6887
(dp6888
g209
S'i'
sg227
(lp6889
sbasbasbasbasbasbasbsg3931
(idelphi
DelphiIntegerValue
p6890
(dp6891
g134
S'1'
sbsg3937
S'='
sbsg886
(idelphi
DelphiIfStatement
p6892
(dp6893
g860
(idelphi
DelphiRelOp
p6894
(dp6895
g3926
(i__main__
DelphiIdentAccess
p6896
(dp6897
g209
S'pos'
p6898
sg227
(lp6899
(idelphi
DelphiFunctionEndAccess
p6900
(dp6901
g714
(lp6902
(idelphi
DelphiStringAccess
p6903
(dp6904
g227
(lp6905
sg134
(idelphi
DelphiStringValue
p6906
(dp6907
g134
S'/P'
p6908
sbsba(i__main__
DelphiIdentAccess
p6909
(dp6910
g209
S'uppercase'
p6911
sg227
(lp6912
(idelphi
DelphiFunctionEndAccess
p6913
(dp6914
g714
(lp6915
(i__main__
DelphiIdentAccess
p6916
(dp6917
g209
S'ParamStr'
p6918
sg227
(lp6919
(idelphi
DelphiFunctionEndAccess
p6920
(dp6921
g714
(lp6922
(i__main__
DelphiIdentAccess
p6923
(dp6924
g209
S'i'
sg227
(lp6925
sbasbasbasbasbasbasbsg3931
(idelphi
DelphiIntegerValue
p6926
(dp6927
g134
S'1'
sbsg3937
S'='
sbsg886
(idelphi
DelphiIfStatement
p6928
(dp6929
g860
(idelphi
DelphiMulOp
p6930
(dp6931
g2335
(idelphi
DelphiNestedExpressionListAccess
p6932
(dp6933
g227
(lp6934
sg714
(lp6935
(idelphi
DelphiRelOp
p6936
(dp6937
g3926
(i__main__
DelphiIdentAccess
p6938
(dp6939
g209
S'pos'
p6940
sg227
(lp6941
(idelphi
DelphiFunctionEndAccess
p6942
(dp6943
g714
(lp6944
(idelphi
DelphiStringAccess
p6945
(dp6946
g227
(lp6947
sg134
(idelphi
DelphiStringValue
p6948
(dp6949
g134
S'/'
sbsba(i__main__
DelphiIdentAccess
p6950
(dp6951
g209
S'uppercase'
p6952
sg227
(lp6953
(idelphi
DelphiFunctionEndAccess
p6954
(dp6955
g714
(lp6956
(i__main__
DelphiIdentAccess
p6957
(dp6958
g209
S'ParamStr'
p6959
sg227
(lp6960
(idelphi
DelphiFunctionEndAccess
p6961
(dp6962
g714
(lp6963
(i__main__
DelphiIdentAccess
p6964
(dp6965
g209
S'i'
sg227
(lp6966
sbasbasbasbasbasbasbsg3931
(idelphi
DelphiIntegerValue
p6967
(dp6968
g134
S'1'
sbsg3937
g3938
sbasbsg2350
g2351
sg2352
(idelphi
DelphiNestedExpressionListAccess
p6969
(dp6970
g227
(lp6971
sg714
(lp6972
(idelphi
DelphiRelOp
p6973
(dp6974
g3926
(i__main__
DelphiIdentAccess
p6975
(dp6976
g209
S'sessionOrWorldStartupFileName'
p6977
sg227
(lp6978
sbsg3931
(idelphi
DelphiStringAccess
p6979
(dp6980
g227
(lp6981
sg134
(idelphi
DelphiStringValue
p6982
(dp6983
g134
S''
sbsbsg3937
S'='
sbasbsbsg886
(i__main__
DelphiAssignStatement
p6984
(dp6985
g695
Nsg701
(i__main__
DelphiIdentAccess
p6986
(dp6987
g209
S'ShowMessage'
p6988
sg227
(lp6989
(idelphi
DelphiFunctionEndAccess
p6990
(dp6991
g714
(lp6992
(idelphi
DelphiAddOp
p6993
(dp6994
g952
S'+'
sg953
(i__main__
DelphiIdentAccess
p6995
(dp6996
g209
S'ParamStr'
p6997
sg227
(lp6998
(idelphi
DelphiFunctionEndAccess
p6999
(dp7000
g714
(lp7001
(i__main__
DelphiIdentAccess
p7002
(dp7003
g209
S'i'
sg227
(lp7004
sbasbasbsg958
(idelphi
DelphiStringAccess
p7005
(dp7006
g227
(lp7007
sg134
(idelphi
DelphiStringValue
p7008
(dp7009
g134
S'Improper parameter string '
p7010
sbsbsbasbasbsbsg887
(i__main__
DelphiAssignStatement
p7011
(dp7012
g695
(i__main__
DelphiIdentAccess
p7013
(dp7014
g209
S'ParamStr'
p7015
sg227
(lp7016
(idelphi
DelphiFunctionEndAccess
p7017
(dp7018
g714
(lp7019
(i__main__
DelphiIdentAccess
p7020
(dp7021
g209
S'i'
sg227
(lp7022
sbasbasbsg701
(i__main__
DelphiIdentAccess
p7023
(dp7024
g209
S'sessionOrWorldStartupFileName'
p7025
sg227
(lp7026
sbsbsbsg887
(i__main__
DelphiAssignStatement
p7027
(dp7028
g695
(i__main__
DelphiIdentAccess
p7029
(dp7030
g209
S'true'
p7031
sg227
(lp7032
sbsg701
(i__main__
DelphiIdentAccess
p7033
(dp7034
g209
S'self'
p7035
sg227
(lp7036
(idelphi
DelphiFieldEndAccess
p7037
(dp7038
g796
S'playerOnly'
p7039
sbasbsbsbsg887
(i__main__
DelphiAssignStatement
p7040
(dp7041
g695
(i__main__
DelphiIdentAccess
p7042
(dp7043
g209
S'copy'
p7044
sg227
(lp7045
(idelphi
DelphiFunctionEndAccess
p7046
(dp7047
g714
(lp7048
(i__main__
DelphiIdentAccess
p7049
(dp7050
g209
S'ParamStr'
p7051
sg227
(lp7052
(idelphi
DelphiFunctionEndAccess
p7053
(dp7054
g714
(lp7055
(i__main__
DelphiIdentAccess
p7056
(dp7057
g209
S'i'
sg227
(lp7058
sbasbasba(idelphi
DelphiIntegerValue
p7059
(dp7060
g134
S'3'
sba(i__main__
DelphiIdentAccess
p7061
(dp7062
g209
S'length'
p7063
sg227
(lp7064
(idelphi
DelphiFunctionEndAccess
p7065
(dp7066
g714
(lp7067
(i__main__
DelphiIdentAccess
p7068
(dp7069
g209
S'ParamStr'
p7070
sg227
(lp7071
(idelphi
DelphiFunctionEndAccess
p7072
(dp7073
g714
(lp7074
(i__main__
DelphiIdentAccess
p7075
(dp7076
g209
S'i'
sg227
(lp7077
sbasbasbasbasbasbasbsg701
(i__main__
DelphiIdentAccess
p7078
(dp7079
g209
S'iniFileName'
p7080
sg227
(lp7081
sbsbsbsg887
(i__main__
DelphiAssignStatement
p7082
(dp7083
g695
(i__main__
DelphiIdentAccess
p7084
(dp7085
g209
S'copy'
p7086
sg227
(lp7087
(idelphi
DelphiFunctionEndAccess
p7088
(dp7089
g714
(lp7090
(i__main__
DelphiIdentAccess
p7091
(dp7092
g209
S'ParamStr'
p7093
sg227
(lp7094
(idelphi
DelphiFunctionEndAccess
p7095
(dp7096
g714
(lp7097
(i__main__
DelphiIdentAccess
p7098
(dp7099
g209
S'i'
sg227
(lp7100
sbasbasba(idelphi
DelphiIntegerValue
p7101
(dp7102
g134
S'4'
sba(i__main__
DelphiIdentAccess
p7103
(dp7104
g209
S'length'
p7105
sg227
(lp7106
(idelphi
DelphiFunctionEndAccess
p7107
(dp7108
g714
(lp7109
(i__main__
DelphiIdentAccess
p7110
(dp7111
g209
S'ParamStr'
p7112
sg227
(lp7113
(idelphi
DelphiFunctionEndAccess
p7114
(dp7115
g714
(lp7116
(i__main__
DelphiIdentAccess
p7117
(dp7118
g209
S'i'
sg227
(lp7119
sbasbasbasbasbasbasbsg701
(i__main__
DelphiIdentAccess
p7120
(dp7121
g209
S'iniFileName'
p7122
sg227
(lp7123
sbsbsbsg887
(i__main__
DelphiAssignStatement
p7124
(dp7125
g695
(i__main__
DelphiIdentAccess
p7126
(dp7127
g209
S'false'
p7128
sg227
(lp7129
sbsg701
(i__main__
DelphiIdentAccess
p7130
(dp7131
g209
S'useIniFile'
p7132
sg227
(lp7133
sbsbsbsg887
(i__main__
DelphiAssignStatement
p7134
(dp7135
g695
(i__main__
DelphiIdentAccess
p7136
(dp7137
g209
S'false'
p7138
sg227
(lp7139
sbsg701
(i__main__
DelphiIdentAccess
p7140
(dp7141
g209
S'useIniFile'
p7142
sg227
(lp7143
sbsbsbsbasbsbasbsg740
(lp7144
(i__main__
DelphiVarSection
p7145
(dp7146
g296
I0
sg744
(lp7147
(idelphi
DelphiVarDecl
p7148
(dp7149
g205
Nsg748
(lp7150
S'i'
asg211
(i__main__
DelphiPrimitiveType
p7151
(dp7152
g107
g112
sbsbasbasbsbsS'newworld'
p7153
(i__main__
DelphiMethodImplementation
p7154
(dp7155
g669
g512
sg100
g514
sg349
(lp7156
sg671
(lp7157
sg673
(lp7158
sg675
(lp7159
g677
asg678
(dp7160
sg360
S'TSDomain'
p7161
sg361
Nsg683
(lp7162
sg362
I0
sg363
g364
sg685
(i__main__
DelphiBlock
p7163
(dp7164
g688
(idelphi
DelphiCompoundStatement
p7165
(dp7166
g691
(lp7167
(i__main__
DelphiAssignStatement
p7168
(dp7169
g695
Nsg701
(i__main__
DelphiIdentAccess
p7170
(dp7171
g209
S'sessionCommandList'
p7172
sg227
(lp7173
(idelphi
DelphiFieldEndAccess
p7174
(dp7175
g796
S'clear'
p7176
sbasbsba(i__main__
DelphiAssignStatement
p7177
(dp7178
g695
(idelphi
DelphiAddOp
p7179
(dp7180
g952
S'+'
sg953
(i__main__
DelphiIdentAccess
p7181
(dp7182
g209
S'kSessionExtension'
p7183
sg227
(lp7184
sbsg958
(idelphi
DelphiAddOp
p7185
(dp7186
g952
S'+'
sg953
(idelphi
DelphiStringAccess
p7187
(dp7188
g227
(lp7189
sg134
(idelphi
DelphiStringValue
p7190
(dp7191
g134
S'.'
sbsbsg958
(i__main__
DelphiIdentAccess
p7192
(dp7193
g209
S'kUnsavedSessionFileName'
p7194
sg227
(lp7195
sbsbsbsg701
(i__main__
DelphiIdentAccess
p7196
(dp7197
g209
S'sessionFileName'
p7198
sg227
(lp7199
sbsba(i__main__
DelphiAssignStatement
p7200
(dp7201
g695
(idelphi
DelphiIntegerValue
p7202
(dp7203
g134
S'0'
sbsg701
(i__main__
DelphiIdentAccess
p7204
(dp7205
g209
S'sessionChangeCount'
p7206
sg227
(lp7207
sbsba(i__main__
DelphiAssignStatement
p7208
(dp7209
g695
Nsg701
(i__main__
DelphiIdentAccess
p7210
(dp7211
g209
S'worldCommandList'
p7212
sg227
(lp7213
(idelphi
DelphiFieldEndAccess
p7214
(dp7215
g796
S'clear'
p7216
sbasbsba(i__main__
DelphiAssignStatement
p7217
(dp7218
g695
(idelphi
DelphiAddOp
p7219
(dp7220
g952
S'+'
sg953
(i__main__
DelphiIdentAccess
p7221
(dp7222
g209
S'kWorldExtension'
p7223
sg227
(lp7224
sbsg958
(idelphi
DelphiAddOp
p7225
(dp7226
g952
S'+'
sg953
(idelphi
DelphiStringAccess
p7227
(dp7228
g227
(lp7229
sg134
(idelphi
DelphiStringValue
p7230
(dp7231
g134
S'.'
sbsbsg958
(i__main__
DelphiIdentAccess
p7232
(dp7233
g209
S'kUnsavedWorldFileName'
p7234
sg227
(lp7235
sbsbsbsg701
(i__main__
DelphiIdentAccess
p7236
(dp7237
g209
S'worldFileName'
p7238
sg227
(lp7239
sbsba(i__main__
DelphiAssignStatement
p7240
(dp7241
g695
(idelphi
DelphiIntegerValue
p7242
(dp7243
g134
S'0'
sbsg701
(i__main__
DelphiIdentAccess
p7244
(dp7245
g209
S'worldChangeCount'
p7246
sg227
(lp7247
sbsba(i__main__
DelphiAssignStatement
p7248
(dp7249
g695
(i__main__
DelphiIdentAccess
p7250
(dp7251
g209
S'false'
p7252
sg227
(lp7253
sbsg701
(i__main__
DelphiIdentAccess
p7254
(dp7255
g209
S'isWorldFileLoaded'
p7256
sg227
(lp7257
sbsba(i__main__
DelphiAssignStatement
p7258
(dp7259
g695
Nsg701
(i__main__
DelphiIdentAccess
p7260
(dp7261
g209
S'world'
p7262
sg227
(lp7263
(idelphi
DelphiFieldEndAccess
p7264
(dp7265
g796
S'newWorld'
p7266
sbasbsbasbsg740
(lp7267
sbsbsS'ignorechanges'
p7268
(i__main__
DelphiMethodImplementation
p7269
(dp7270
g669
g517
sg100
g519
sg349
(lp7271
sg671
(lp7272
sg673
(lp7273
sg675
(lp7274
g677
asg678
(dp7275
sg360
S'TSDomain'
p7276
sg361
(i__main__
DelphiPrimitiveType
p7277
(dp7278
g107
g108
sbsg683
(lp7279
sg362
I0
sg363
g372
sg685
(i__main__
DelphiBlock
p7280
(dp7281
g688
(idelphi
DelphiCompoundStatement
p7282
(dp7283
g691
(lp7284
(i__main__
DelphiAssignStatement
p7285
(dp7286
g695
(idelphi
DelphiRelOp
p7287
(dp7288
g3926
(i__main__
DelphiIdentAccess
p7289
(dp7290
g209
S'changeLock'
p7291
sg227
(lp7292
sbsg3931
(idelphi
DelphiIntegerValue
p7293
(dp7294
g134
S'0'
sbsg3937
g3938
sbsg701
(i__main__
DelphiIdentAccess
p7295
(dp7296
g209
S'result'
p7297
sg227
(lp7298
sbsbasbsg740
(lp7299
sbsbsS'mergeworld'
p7300
(i__main__
DelphiMethodImplementation
p7301
(dp7302
g669
g524
sg100
g526
sg349
(lp7303
(i__main__
DelphiFormalParameter
p7304
(dp7305
g353
Nsg354
(lp7306
S'fileName'
p7307
asg211
(i__main__
DelphiPrimitiveType
p7308
(dp7309
g107
g134
sbsg359
Nsbasg671
(lp7310
sg673
(lp7311
sg675
(lp7312
g677
ag7307
asg678
(dp7313
g7307
g7308
ssg360
S'TSDomain'
p7314
sg361
Nsg683
(lp7315
sg362
I0
sg363
g364
sg685
(i__main__
DelphiBlock
p7316
(dp7317
g688
(idelphi
DelphiCompoundStatement
p7318
(dp7319
g691
(lp7320
(i__main__
DelphiAssignStatement
p7321
(dp7322
g695
Nsg701
(i__main__
DelphiIdentAccess
p7323
(dp7324
g209
S'world'
p7325
sg227
(lp7326
(idelphi
DelphiFieldEndAccess
p7327
(dp7328
g796
S'loadWorldFromFile'
p7329
sba(idelphi
DelphiFunctionEndAccess
p7330
(dp7331
g714
(lp7332
(i__main__
DelphiIdentAccess
p7333
(dp7334
g209
S'fileName'
p7335
sg227
(lp7336
sbasbasbsg97
(lp7337
S" don't clear things\r"
p7338
asba(i__main__
DelphiIncOrDecStatement
p7339
(dp7340
g1136
g1137
sg1138
Nsg701
(i__main__
DelphiIdentAccess
p7341
(dp7342
g209
S'worldChangeCount'
p7343
sg227
(lp7344
sbsbasbsg740
(lp7345
sbsbsS'setformsize'
p7346
(i__main__
DelphiMethodImplementation
p7347
(dp7348
g669
g535
sg100
g537
sg349
(lp7349
(i__main__
DelphiFormalParameter
p7350
(dp7351
g353
Nsg354
(lp7352
S'aForm'
p7353
asg211
(i__main__
DelphiNamedType
p7354
(dp7355
g107
S'TForm'
p7356
sg117
g1
sg118
Nsbsg359
Nsba(i__main__
DelphiFormalParameter
p7357
(dp7358
g353
Nsg354
(lp7359
S'newRect'
p7360
asg211
(i__main__
DelphiNamedType
p7361
(dp7362
g107
S'TRect'
p7363
sg117
g1
sg118
Nsbsg359
Nsbasg671
(lp7364
sg673
(lp7365
sg675
(lp7366
g677
ag7353
ag7360
asg678
(dp7367
g7360
g7361
sg7353
g7354
ssg360
S'TSDomain'
p7368
sg361
Nsg683
(lp7369
sg362
I0
sg363
g364
sg685
(i__main__
DelphiBlock
p7370
(dp7371
g688
(idelphi
DelphiCompoundStatement
p7372
(dp7373
g691
(lp7374
(idelphi
DelphiIfStatement
p7375
(dp7376
g860
(idelphi
DelphiRelOp
p7377
(dp7378
g3926
(i__main__
DelphiIdentAccess
p7379
(dp7380
g209
S'aForm'
p7381
sg227
(lp7382
sbsg3931
(idelphi
DelphiNilValue
p7383
(dp7384
bsg3937
S'='
sbsg886
Nsg887
(i__main__
DelphiExitStatement
p7385
(dp7386
g6405
g7347
sbsba(idelphi
DelphiWithStatement
p7387
(dp7388
g1194
(idelphi
DelphiIfStatement
p7389
(dp7390
g860
(idelphi
DelphiAddOp
p7391
(dp7392
g952
S'or'
p7393
sg953
(idelphi
DelphiNestedExpressionListAccess
p7394
(dp7395
g227
(lp7396
sg714
(lp7397
(idelphi
DelphiRelOp
p7398
(dp7399
g3926
(i__main__
DelphiIdentAccess
p7400
(dp7401
g209
S'bottom'
p7402
sg227
(lp7403
sbsg3931
(idelphi
DelphiIntegerValue
p7404
(dp7405
g134
S'0'
sbsg3937
g3938
sbasbsg958
(idelphi
DelphiAddOp
p7406
(dp7407
g952
g7393
sg953
(idelphi
DelphiNestedExpressionListAccess
p7408
(dp7409
g227
(lp7410
sg714
(lp7411
(idelphi
DelphiRelOp
p7412
(dp7413
g3926
(i__main__
DelphiIdentAccess
p7414
(dp7415
g209
S'top'
p7416
sg227
(lp7417
sbsg3931
(idelphi
DelphiIntegerValue
p7418
(dp7419
g134
S'0'
sbsg3937
g3938
sbasbsg958
(idelphi
DelphiAddOp
p7420
(dp7421
g952
g7393
sg953
(idelphi
DelphiNestedExpressionListAccess
p7422
(dp7423
g227
(lp7424
sg714
(lp7425
(idelphi
DelphiRelOp
p7426
(dp7427
g3926
(i__main__
DelphiIdentAccess
p7428
(dp7429
g209
S'right'
p7430
sg227
(lp7431
sbsg3931
(idelphi
DelphiIntegerValue
p7432
(dp7433
g134
S'0'
sbsg3937
g3938
sbasbsg958
(idelphi
DelphiNestedExpressionListAccess
p7434
(dp7435
g227
(lp7436
sg714
(lp7437
(idelphi
DelphiRelOp
p7438
(dp7439
g3926
(i__main__
DelphiIdentAccess
p7440
(dp7441
g209
S'left'
p7442
sg227
(lp7443
sbsg3931
(idelphi
DelphiIntegerValue
p7444
(dp7445
g134
S'0'
sbsg3937
g3938
sbasbsbsbsbsg886
Nsg887
(idelphi
DelphiCompoundStatement
p7446
(dp7447
g691
(lp7448
(idelphi
DelphiIfStatement
p7449
(dp7450
g860
(idelphi
DelphiRelOp
p7451
(dp7452
g3926
(i__main__
DelphiIdentAccess
p7453
(dp7454
g209
S'left'
p7455
sg227
(lp7456
sbsg3931
(idelphi
DelphiAddOp
p7457
(dp7458
g952
S'-'
sg953
(i__main__
DelphiIdentAccess
p7459
(dp7460
g209
S'kMinWidthOnScreen'
p7461
sg227
(lp7462
sbsg958
(i__main__
DelphiIdentAccess
p7463
(dp7464
g209
S'screen'
p7465
sg227
(lp7466
(idelphi
DelphiFieldEndAccess
p7467
(dp7468
g796
S'width'
p7469
sbasbsbsg3937
S'>'
sbsg886
Nsg887
(i__main__
DelphiAssignStatement
p7470
(dp7471
g695
(idelphi
DelphiAddOp
p7472
(dp7473
g952
S'-'
sg953
(i__main__
DelphiIdentAccess
p7474
(dp7475
g209
S'kMinWidthOnScreen'
p7476
sg227
(lp7477
sbsg958
(i__main__
DelphiIdentAccess
p7478
(dp7479
g209
S'screen'
p7480
sg227
(lp7481
(idelphi
DelphiFieldEndAccess
p7482
(dp7483
g796
S'width'
p7484
sbasbsbsg701
(i__main__
DelphiIdentAccess
p7485
(dp7486
g209
S'left'
p7487
sg227
(lp7488
sbsbsba(idelphi
DelphiIfStatement
p7489
(dp7490
g860
(idelphi
DelphiRelOp
p7491
(dp7492
g3926
(i__main__
DelphiIdentAccess
p7493
(dp7494
g209
S'top'
p7495
sg227
(lp7496
sbsg3931
(idelphi
DelphiAddOp
p7497
(dp7498
g952
S'-'
sg953
(i__main__
DelphiIdentAccess
p7499
(dp7500
g209
S'kMinHeightOnScreen'
p7501
sg227
(lp7502
sbsg958
(i__main__
DelphiIdentAccess
p7503
(dp7504
g209
S'screen'
p7505
sg227
(lp7506
(idelphi
DelphiFieldEndAccess
p7507
(dp7508
g796
S'height'
p7509
sbasbsbsg3937
S'>'
sbsg886
Nsg887
(i__main__
DelphiAssignStatement
p7510
(dp7511
g695
(idelphi
DelphiAddOp
p7512
(dp7513
g952
S'-'
sg953
(i__main__
DelphiIdentAccess
p7514
(dp7515
g209
S'kMinHeightOnScreen'
p7516
sg227
(lp7517
sbsg958
(i__main__
DelphiIdentAccess
p7518
(dp7519
g209
S'screen'
p7520
sg227
(lp7521
(idelphi
DelphiFieldEndAccess
p7522
(dp7523
g796
S'height'
p7524
sbasbsbsg701
(i__main__
DelphiIdentAccess
p7525
(dp7526
g209
S'top'
p7527
sg227
(lp7528
sbsbsba(i__main__
DelphiAssignStatement
p7529
(dp7530
g695
(i__main__
DelphiIdentAccess
p7531
(dp7532
g209
S'poDesigned'
p7533
sg227
(lp7534
sbsg701
(i__main__
DelphiIdentAccess
p7535
(dp7536
g209
S'aForm'
p7537
sg227
(lp7538
(idelphi
DelphiFieldEndAccess
p7539
(dp7540
g796
S'position'
p7541
sbasbsba(i__main__
DelphiAssignStatement
p7542
(dp7543
g695
Nsg701
(i__main__
DelphiIdentAccess
p7544
(dp7545
g209
S'aForm'
p7546
sg227
(lp7547
(idelphi
DelphiFieldEndAccess
p7548
(dp7549
g796
S'setBounds'
p7550
sba(idelphi
DelphiFunctionEndAccess
p7551
(dp7552
g714
(lp7553
(i__main__
DelphiIdentAccess
p7554
(dp7555
g209
S'left'
p7556
sg227
(lp7557
sba(i__main__
DelphiIdentAccess
p7558
(dp7559
g209
S'top'
p7560
sg227
(lp7561
sba(i__main__
DelphiIdentAccess
p7562
(dp7563
g209
S'right'
p7564
sg227
(lp7565
sba(i__main__
DelphiIdentAccess
p7566
(dp7567
g209
S'bottom'
p7568
sg227
(lp7569
sbasbasbsbasbsbsg2741
(lp7570
(i__main__
DelphiIdentAccess
p7571
(dp7572
g209
S'newRect'
p7573
sg227
(lp7574
sbasbasbsg740
(lp7575
sbsbsS'issessionfilechanged'
p7576
(i__main__
DelphiMethodImplementation
p7577
(dp7578
g669
g554
sg100
g556
sg349
(lp7579
sg671
(lp7580
sg673
(lp7581
sg675
(lp7582
g677
asg678
(dp7583
sg360
S'TSDomain'
p7584
sg361
(i__main__
DelphiPrimitiveType
p7585
(dp7586
g107
g108
sbsg683
(lp7587
sg362
I0
sg363
g372
sg685
(i__main__
DelphiBlock
p7588
(dp7589
g688
(idelphi
DelphiCompoundStatement
p7590
(dp7591
g691
(lp7592
(i__main__
DelphiAssignStatement
p7593
(dp7594
g695
(idelphi
DelphiRelOp
p7595
(dp7596
g3926
(i__main__
DelphiIdentAccess
p7597
(dp7598
g209
S'sessionChangeCount'
p7599
sg227
(lp7600
sbsg3931
(idelphi
DelphiIntegerValue
p7601
(dp7602
g134
S'0'
sbsg3937
g3938
sbsg701
(i__main__
DelphiIdentAccess
p7603
(dp7604
g209
S'result'
p7605
sg227
(lp7606
sbsbasbsg740
(lp7607
sbsbssS'propertyDeclarations'
p7608
(dp7609
sg7
(lp7610
g333
ag309
ag305
ag325
ag317
ag323
ag329
ag321
ag335
ag341
ag337
ag339
ag303
ag307
ag319
ag327
ag331
ag311
ag315
ag301
ag313
asg97
(lp7611
S' player\r'
p7612
aS' Agent\r'
p7613
aS' editor\r'
p7614
aS' windows\r'
p7615
asba(i__main__
DelphiVarSection
p7616
(dp7617
g296
I1
sg744
(lp7618
(idelphi
DelphiVarDecl
p7619
(dp7620
g205
Nsg748
(lp7621
S'domain'
p7622
asg211
(i__main__
DelphiNamedType
p7623
(dp7624
g107
S'TSDomain'
p7625
sg117
g1
sg118
Nsbsbasba(i__main__
DelphiConstSection
p7626
(dp7627
g201
(lp7628
(idelphi
DelphiConstDeclaration
p7629
(dp7630
g205
(idelphi
DelphiStringAccess
p7631
(dp7632
g227
(lp7633
sg134
(idelphi
DelphiStringValue
p7634
(dp7635
g134
S'untitled'
p7636
sbsbsg209
S'kUnsavedWorldFileName'
p7637
sg211
(idelphi
DelphiPrimitiveType
p7638
(dp7639
g107
g214
sbsbasg296
I1
sba(i__main__
DelphiConstSection
p7640
(dp7641
g201
(lp7642
(idelphi
DelphiConstDeclaration
p7643
(dp7644
g205
(idelphi
DelphiStringAccess
p7645
(dp7646
g227
(lp7647
sg134
(idelphi
DelphiStringValue
p7648
(dp7649
g134
S'untitled'
p7650
sbsbsg209
S'kUnsavedSessionFileName'
p7651
sg211
(idelphi
DelphiPrimitiveType
p7652
(dp7653
g107
g214
sbsbasg296
I1
sba(i__main__
DelphiConstSection
p7654
(dp7655
g201
(lp7656
(idelphi
DelphiConstDeclaration
p7657
(dp7658
g205
(idelphi
DelphiStringAccess
p7659
(dp7660
g227
(lp7661
sg134
(idelphi
DelphiStringValue
p7662
(dp7663
g134
S'wld'
p7664
sbsbsg209
S'kWorldExtension'
p7665
sg211
(idelphi
DelphiPrimitiveType
p7666
(dp7667
g107
g214
sbsbasg296
I1
sba(i__main__
DelphiConstSection
p7668
(dp7669
g201
(lp7670
(idelphi
DelphiConstDeclaration
p7671
(dp7672
g205
(idelphi
DelphiStringAccess
p7673
(dp7674
g227
(lp7675
sg134
(idelphi
DelphiStringValue
p7676
(dp7677
g134
S'ses'
p7678
sbsbsg209
S'kSessionExtension'
p7679
sg211
(idelphi
DelphiPrimitiveType
p7680
(dp7681
g107
g214
sbsbasg296
I1
sba(i__main__
DelphiProceduralImplementation
p7682
(dp7683
g669
(i__main__
DelphiProceduralDeclaration
p7684
(dp7685
g349
(lp7686
(i__main__
DelphiFormalParameter
p7687
(dp7688
g353
Nsg354
(lp7689
S'a'
asg211
(i__main__
DelphiPrimitiveType
p7690
(dp7691
g107
g2785
sbsg359
Nsba(i__main__
DelphiFormalParameter
p7692
(dp7693
g353
Nsg354
(lp7694
S'b'
asg211
(i__main__
DelphiPrimitiveType
p7695
(dp7696
g107
g2785
sbsg359
Nsbasg100
S'min'
p7697
sg361
(i__main__
DelphiPrimitiveType
p7698
(dp7699
g107
g2785
sbsbsg100
g7697
sg361
(i__main__
DelphiPrimitiveType
p7700
(dp7701
g107
g2785
sbsg671
(lp7702
sg673
(lp7703
sg675
(lp7704
S'a'
aS'b'
asg678
(dp7705
S'a'
(i__main__
DelphiPrimitiveType
p7706
(dp7707
g107
g2785
sbsS'b'
(i__main__
DelphiPrimitiveType
p7708
(dp7709
g107
g2785
sbssg349
(lp7710
(i__main__
DelphiFormalParameter
p7711
(dp7712
g353
Nsg354
(lp7713
S'a'
asg211
g7706
sg359
Nsba(i__main__
DelphiFormalParameter
p7714
(dp7715
g353
Nsg354
(lp7716
S'b'
asg211
g7708
sg359
Nsbasg683
(lp7717
sg685
(i__main__
DelphiBlock
p7718
(dp7719
g688
(idelphi
DelphiCompoundStatement
p7720
(dp7721
g691
(lp7722
(idelphi
DelphiIfStatement
p7723
(dp7724
g860
(idelphi
DelphiNestedExpressionListAccess
p7725
(dp7726
g227
(lp7727
sg714
(lp7728
(idelphi
DelphiRelOp
p7729
(dp7730
g3926
(i__main__
DelphiIdentAccess
p7731
(dp7732
g209
S'a'
sg227
(lp7733
sbsg3931
(i__main__
DelphiIdentAccess
p7734
(dp7735
g209
S'b'
sg227
(lp7736
sbsg3937
S'<'
sbasbsg886
(i__main__
DelphiAssignStatement
p7737
(dp7738
g695
(i__main__
DelphiIdentAccess
p7739
(dp7740
g209
S'b'
sg227
(lp7741
sbsg701
(i__main__
DelphiIdentAccess
p7742
(dp7743
g209
S'result'
p7744
sg227
(lp7745
sbsbsg887
(i__main__
DelphiAssignStatement
p7746
(dp7747
g695
(i__main__
DelphiIdentAccess
p7748
(dp7749
g209
S'a'
sg227
(lp7750
sbsg701
(i__main__
DelphiIdentAccess
p7751
(dp7752
g209
S'result'
p7753
sg227
(lp7754
sbsbsbasbsg740
(lp7755
sbsba(i__main__
DelphiProceduralImplementation
p7756
(dp7757
g669
(i__main__
DelphiProceduralDeclaration
p7758
(dp7759
g349
(lp7760
(i__main__
DelphiFormalParameter
p7761
(dp7762
g353
Nsg354
(lp7763
S'a'
asg211
(i__main__
DelphiPrimitiveType
p7764
(dp7765
g107
g2785
sbsg359
Nsba(i__main__
DelphiFormalParameter
p7766
(dp7767
g353
Nsg354
(lp7768
S'b'
asg211
(i__main__
DelphiPrimitiveType
p7769
(dp7770
g107
g2785
sbsg359
Nsbasg100
S'max'
p7771
sg361
(i__main__
DelphiPrimitiveType
p7772
(dp7773
g107
g2785
sbsbsg100
g7771
sg361
(i__main__
DelphiPrimitiveType
p7774
(dp7775
g107
g2785
sbsg671
(lp7776
sg673
(lp7777
sg675
(lp7778
S'a'
aS'b'
asg678
(dp7779
S'a'
(i__main__
DelphiPrimitiveType
p7780
(dp7781
g107
g2785
sbsS'b'
(i__main__
DelphiPrimitiveType
p7782
(dp7783
g107
g2785
sbssg349
(lp7784
(i__main__
DelphiFormalParameter
p7785
(dp7786
g353
Nsg354
(lp7787
S'a'
asg211
g7780
sg359
Nsba(i__main__
DelphiFormalParameter
p7788
(dp7789
g353
Nsg354
(lp7790
S'b'
asg211
g7782
sg359
Nsbasg683
(lp7791
sg685
(i__main__
DelphiBlock
p7792
(dp7793
g688
(idelphi
DelphiCompoundStatement
p7794
(dp7795
g691
(lp7796
(idelphi
DelphiIfStatement
p7797
(dp7798
g860
(idelphi
DelphiNestedExpressionListAccess
p7799
(dp7800
g227
(lp7801
sg714
(lp7802
(idelphi
DelphiRelOp
p7803
(dp7804
g3926
(i__main__
DelphiIdentAccess
p7805
(dp7806
g209
S'a'
sg227
(lp7807
sbsg3931
(i__main__
DelphiIdentAccess
p7808
(dp7809
g209
S'b'
sg227
(lp7810
sbsg3937
S'>'
sbasbsg886
(i__main__
DelphiAssignStatement
p7811
(dp7812
g695
(i__main__
DelphiIdentAccess
p7813
(dp7814
g209
S'b'
sg227
(lp7815
sbsg701
(i__main__
DelphiIdentAccess
p7816
(dp7817
g209
S'result'
p7818
sg227
(lp7819
sbsbsg887
(i__main__
DelphiAssignStatement
p7820
(dp7821
g695
(i__main__
DelphiIdentAccess
p7822
(dp7823
g209
S'a'
sg227
(lp7824
sbsg701
(i__main__
DelphiIdentAccess
p7825
(dp7826
g209
S'result'
p7827
sg227
(lp7828
sbsbsbasbsg740
(lp7829
sbsba(i__main__
DelphiProceduralImplementation
p7830
(dp7831
g669
g7830
sg100
S'hexEncode'
p7832
sg361
(i__main__
DelphiPrimitiveType
p7833
(dp7834
g107
g134
sbsg671
(lp7835
sg673
(lp7836
sg675
(lp7837
S'aString'
p7838
asg678
(dp7839
g7838
(i__main__
DelphiPrimitiveType
p7840
(dp7841
g107
g134
sbssg349
(lp7842
(i__main__
DelphiFormalParameter
p7843
(dp7844
g353
Nsg354
(lp7845
g7838
asg211
g7840
sg359
g442
sbasg683
(lp7846
sg685
(i__main__
DelphiBlock
p7847
(dp7848
g688
(idelphi
DelphiCompoundStatement
p7849
(dp7850
g691
(lp7851
(i__main__
DelphiAssignStatement
p7852
(dp7853
g695
(idelphi
DelphiStringAccess
p7854
(dp7855
g227
(lp7856
sg134
(idelphi
DelphiStringValue
p7857
(dp7858
g134
S''
sbsbsg701
(i__main__
DelphiIdentAccess
p7859
(dp7860
g209
S'result'
p7861
sg227
(lp7862
sbsba(idelphi
DelphiForStatement
p7863
(dp7864
g6756
S'i'
sg6757
(idelphi
DelphiAddOp
p7865
(dp7866
g952
S'-'
sg953
(idelphi
DelphiIntegerValue
p7867
(dp7868
g134
S'1'
sbsg958
(i__main__
DelphiIdentAccess
p7869
(dp7870
g209
S'length'
p7871
sg227
(lp7872
(idelphi
DelphiFunctionEndAccess
p7873
(dp7874
g714
(lp7875
(i__main__
DelphiIdentAccess
p7876
(dp7877
g209
S'aString'
p7878
sg227
(lp7879
sbasbasbsbsg6762
g6763
sg353
(idelphi
DelphiIntegerValue
p7880
(dp7881
g134
S'0'
sbsg1194
(idelphi
DelphiCompoundStatement
p7882
(dp7883
g691
(lp7884
(i__main__
DelphiAssignStatement
p7885
(dp7886
g695
(i__main__
DelphiIdentAccess
p7887
(dp7888
g209
S'aString'
p7889
sg227
(lp7890
(idelphi
DelphiArrayEndAccess
p7891
(dp7892
g714
(lp7893
(idelphi
DelphiAddOp
p7894
(dp7895
g952
S'+'
sg953
(idelphi
DelphiIntegerValue
p7896
(dp7897
g134
S'1'
sbsg958
(i__main__
DelphiIdentAccess
p7898
(dp7899
g209
S'i'
sg227
(lp7900
sbsbasbasbsg701
(i__main__
DelphiIdentAccess
p7901
(dp7902
g209
S'letter'
p7903
sg227
(lp7904
sbsg97
(lp7905
S' ((i+4) mod length(aString))\r'
p7906
asba(i__main__
DelphiAssignStatement
p7907
(dp7908
g695
(idelphi
DelphiAddOp
p7909
(dp7910
g952
S'+'
sg953
(i__main__
DelphiIdentAccess
p7911
(dp7912
g209
S'chr'
p7913
sg227
(lp7914
(idelphi
DelphiFunctionEndAccess
p7915
(dp7916
g714
(lp7917
(idelphi
DelphiAddOp
p7918
(dp7919
g952
S'+'
sg953
(idelphi
DelphiNestedExpressionListAccess
p7920
(dp7921
g227
(lp7922
sg714
(lp7923
(idelphi
DelphiMulOp
p7924
(dp7925
g2335
(idelphi
DelphiIntegerValue
p7926
(dp7927
g134
S'32'
p7928
sbsg2350
S'div'
p7929
sg2352
(i__main__
DelphiIdentAccess
p7930
(dp7931
g209
S'ord'
p7932
sg227
(lp7933
(idelphi
DelphiFunctionEndAccess
p7934
(dp7935
g714
(lp7936
(i__main__
DelphiIdentAccess
p7937
(dp7938
g209
S'letter'
p7939
sg227
(lp7940
sbasbasbsbasbsg958
(i__main__
DelphiIdentAccess
p7941
(dp7942
g209
S'ord'
p7943
sg227
(lp7944
(idelphi
DelphiFunctionEndAccess
p7945
(dp7946
g714
(lp7947
(idelphi
DelphiStringAccess
p7948
(dp7949
g227
(lp7950
sg134
(idelphi
DelphiStringValue
p7951
(dp7952
g134
S'A'
sbsbasbasbsbasbasbsg958
(i__main__
DelphiIdentAccess
p7953
(dp7954
g209
S'result'
p7955
sg227
(lp7956
sbsbsg701
(i__main__
DelphiIdentAccess
p7957
(dp7958
g209
S'result'
p7959
sg227
(lp7960
sbsba(i__main__
DelphiAssignStatement
p7961
(dp7962
g695
(idelphi
DelphiAddOp
p7963
(dp7964
g952
S'+'
sg953
(i__main__
DelphiIdentAccess
p7965
(dp7966
g209
S'chr'
p7967
sg227
(lp7968
(idelphi
DelphiFunctionEndAccess
p7969
(dp7970
g714
(lp7971
(idelphi
DelphiAddOp
p7972
(dp7973
g952
S'+'
sg953
(idelphi
DelphiNestedExpressionListAccess
p7974
(dp7975
g227
(lp7976
sg714
(lp7977
(idelphi
DelphiMulOp
p7978
(dp7979
g2335
(idelphi
DelphiIntegerValue
p7980
(dp7981
g134
S'32'
p7982
sbsg2350
S'mod'
p7983
sg2352
(i__main__
DelphiIdentAccess
p7984
(dp7985
g209
S'ord'
p7986
sg227
(lp7987
(idelphi
DelphiFunctionEndAccess
p7988
(dp7989
g714
(lp7990
(i__main__
DelphiIdentAccess
p7991
(dp7992
g209
S'letter'
p7993
sg227
(lp7994
sbasbasbsbasbsg958
(i__main__
DelphiIdentAccess
p7995
(dp7996
g209
S'ord'
p7997
sg227
(lp7998
(idelphi
DelphiFunctionEndAccess
p7999
(dp8000
g714
(lp8001
(idelphi
DelphiStringAccess
p8002
(dp8003
g227
(lp8004
sg134
(idelphi
DelphiStringValue
p8005
(dp8006
g134
S'A'
sbsbasbasbsbasbasbsg958
(i__main__
DelphiIdentAccess
p8007
(dp8008
g209
S'result'
p8009
sg227
(lp8010
sbsbsg701
(i__main__
DelphiIdentAccess
p8011
(dp8012
g209
S'result'
p8013
sg227
(lp8014
sbsbasbsbasbsg740
(lp8015
(i__main__
DelphiVarSection
p8016
(dp8017
g296
I0
sg744
(lp8018
(idelphi
DelphiVarDecl
p8019
(dp8020
g205
Nsg748
(lp8021
S'i'
asg211
(i__main__
DelphiPrimitiveType
p8022
(dp8023
g107
g112
sbsba(idelphi
DelphiVarDecl
p8024
(dp8025
g205
Nsg748
(lp8026
S'letter'
p8027
asg211
(i__main__
DelphiPrimitiveType
p8028
(dp8029
g107
g755
sbsbasbasbsba(i__main__
DelphiProceduralImplementation
p8030
(dp8031
g669
g8030
sg100
S'hexUnencode'
p8032
sg361
(i__main__
DelphiPrimitiveType
p8033
(dp8034
g107
g134
sbsg671
(lp8035
sg673
(lp8036
sg675
(lp8037
S'encodedString'
p8038
asg678
(dp8039
g8038
(i__main__
DelphiPrimitiveType
p8040
(dp8041
g107
g134
sbssg349
(lp8042
(i__main__
DelphiFormalParameter
p8043
(dp8044
g353
Nsg354
(lp8045
g8038
asg211
g8040
sg359
g442
sbasg683
(lp8046
sg685
(i__main__
DelphiBlock
p8047
(dp8048
g688
(idelphi
DelphiCompoundStatement
p8049
(dp8050
g691
(lp8051
(i__main__
DelphiAssignStatement
p8052
(dp8053
g695
(idelphi
DelphiStringAccess
p8054
(dp8055
g227
(lp8056
sg134
(idelphi
DelphiStringValue
p8057
(dp8058
g134
S''
sbsbsg701
(i__main__
DelphiIdentAccess
p8059
(dp8060
g209
S'result'
p8061
sg227
(lp8062
sbsba(i__main__
DelphiAssignStatement
p8063
(dp8064
g695
(idelphi
DelphiIntegerValue
p8065
(dp8066
g134
S'0'
sbsg701
(i__main__
DelphiIdentAccess
p8067
(dp8068
g209
S'value'
p8069
sg227
(lp8070
sbsba(idelphi
DelphiForStatement
p8071
(dp8072
g6756
S'i'
sg6757
(idelphi
DelphiAddOp
p8073
(dp8074
g952
S'-'
sg953
(idelphi
DelphiIntegerValue
p8075
(dp8076
g134
S'1'
sbsg958
(i__main__
DelphiIdentAccess
p8077
(dp8078
g209
S'length'
p8079
sg227
(lp8080
(idelphi
DelphiFunctionEndAccess
p8081
(dp8082
g714
(lp8083
(i__main__
DelphiIdentAccess
p8084
(dp8085
g209
S'encodedString'
p8086
sg227
(lp8087
sbasbasbsbsg6762
g6763
sg353
(idelphi
DelphiIntegerValue
p8088
(dp8089
g134
S'0'
sbsg1194
(idelphi
DelphiCompoundStatement
p8090
(dp8091
g691
(lp8092
(i__main__
DelphiAssignStatement
p8093
(dp8094
g695
(i__main__
DelphiIdentAccess
p8095
(dp8096
g209
S'encodedString'
p8097
sg227
(lp8098
(idelphi
DelphiArrayEndAccess
p8099
(dp8100
g714
(lp8101
(idelphi
DelphiAddOp
p8102
(dp8103
g952
S'+'
sg953
(idelphi
DelphiIntegerValue
p8104
(dp8105
g134
S'1'
sbsg958
(i__main__
DelphiIdentAccess
p8106
(dp8107
g209
S'i'
sg227
(lp8108
sbsbasbasbsg701
(i__main__
DelphiIdentAccess
p8109
(dp8110
g209
S'letter'
p8111
sg227
(lp8112
sbsba(idelphi
DelphiIfStatement
p8113
(dp8114
g860
(idelphi
DelphiRelOp
p8115
(dp8116
g3926
(idelphi
DelphiMulOp
p8117
(dp8118
g2335
(idelphi
DelphiIntegerValue
p8119
(dp8120
g134
S'2'
sbsg2350
g7983
sg2352
(i__main__
DelphiIdentAccess
p8121
(dp8122
g209
S'i'
sg227
(lp8123
sbsbsg3931
(idelphi
DelphiIntegerValue
p8124
(dp8125
g134
S'0'
sbsg3937
S'='
sbsg886
(idelphi
DelphiCompoundStatement
p8126
(dp8127
g691
(lp8128
(i__main__
DelphiAssignStatement
p8129
(dp8130
g695
(idelphi
DelphiAddOp
p8131
(dp8132
g952
S'+'
sg953
(idelphi
DelphiNestedExpressionListAccess
p8133
(dp8134
g227
(lp8135
sg714
(lp8136
(idelphi
DelphiAddOp
p8137
(dp8138
g952
S'-'
sg953
(i__main__
DelphiIdentAccess
p8139
(dp8140
g209
S'ord'
p8141
sg227
(lp8142
(idelphi
DelphiFunctionEndAccess
p8143
(dp8144
g714
(lp8145
(idelphi
DelphiStringAccess
p8146
(dp8147
g227
(lp8148
sg134
(idelphi
DelphiStringValue
p8149
(dp8150
g134
S'A'
sbsbasbasbsg958
(i__main__
DelphiIdentAccess
p8151
(dp8152
g209
S'ord'
p8153
sg227
(lp8154
(idelphi
DelphiFunctionEndAccess
p8155
(dp8156
g714
(lp8157
(i__main__
DelphiIdentAccess
p8158
(dp8159
g209
S'letter'
p8160
sg227
(lp8161
sbasbasbsbasbsg958
(i__main__
DelphiIdentAccess
p8162
(dp8163
g209
S'value'
p8164
sg227
(lp8165
sbsbsg701
(i__main__
DelphiIdentAccess
p8166
(dp8167
g209
S'value'
p8168
sg227
(lp8169
sbsba(i__main__
DelphiAssignStatement
p8170
(dp8171
g695
(idelphi
DelphiAddOp
p8172
(dp8173
g952
S'+'
sg953
(i__main__
DelphiIdentAccess
p8174
(dp8175
g209
S'chr'
p8176
sg227
(lp8177
(idelphi
DelphiFunctionEndAccess
p8178
(dp8179
g714
(lp8180
(i__main__
DelphiIdentAccess
p8181
(dp8182
g209
S'value'
p8183
sg227
(lp8184
sbasbasbsg958
(i__main__
DelphiIdentAccess
p8185
(dp8186
g209
S'result'
p8187
sg227
(lp8188
sbsbsg701
(i__main__
DelphiIdentAccess
p8189
(dp8190
g209
S'result'
p8191
sg227
(lp8192
sbsbasbsg887
(i__main__
DelphiAssignStatement
p8193
(dp8194
g695
(idelphi
DelphiMulOp
p8195
(dp8196
g2335
(idelphi
DelphiIntegerValue
p8197
(dp8198
g134
S'32'
p8199
sbsg2350
S'*'
sg2352
(idelphi
DelphiNestedExpressionListAccess
p8200
(dp8201
g227
(lp8202
sg714
(lp8203
(idelphi
DelphiAddOp
p8204
(dp8205
g952
S'-'
sg953
(i__main__
DelphiIdentAccess
p8206
(dp8207
g209
S'ord'
p8208
sg227
(lp8209
(idelphi
DelphiFunctionEndAccess
p8210
(dp8211
g714
(lp8212
(idelphi
DelphiStringAccess
p8213
(dp8214
g227
(lp8215
sg134
(idelphi
DelphiStringValue
p8216
(dp8217
g134
S'A'
sbsbasbasbsg958
(i__main__
DelphiIdentAccess
p8218
(dp8219
g209
S'ord'
p8220
sg227
(lp8221
(idelphi
DelphiFunctionEndAccess
p8222
(dp8223
g714
(lp8224
(i__main__
DelphiIdentAccess
p8225
(dp8226
g209
S'letter'
p8227
sg227
(lp8228
sbasbasbsbasbsbsg701
(i__main__
DelphiIdentAccess
p8229
(dp8230
g209
S'value'
p8231
sg227
(lp8232
sbsbsbasbsbasbsg740
(lp8233
(i__main__
DelphiVarSection
p8234
(dp8235
g296
I0
sg744
(lp8236
(idelphi
DelphiVarDecl
p8237
(dp8238
g205
Nsg748
(lp8239
S'i'
asg211
(i__main__
DelphiPrimitiveType
p8240
(dp8241
g107
g112
sbsba(idelphi
DelphiVarDecl
p8242
(dp8243
g205
Nsg748
(lp8244
S'letter'
p8245
asg211
(i__main__
DelphiPrimitiveType
p8246
(dp8247
g107
g755
sbsba(idelphi
DelphiVarDecl
p8248
(dp8249
g205
Nsg748
(lp8250
S'value'
p8251
asg211
(i__main__
DelphiPrimitiveType
p8252
(dp8253
g107
g112
sbsbasbasbsbasS'includedUnits'
p8254
NsS'implementationUses'
p8255
(lp8256
S'SysUtils'
p8257
aS'IniFiles'
p8258
aS'USConsoleForm'
p8259
aS'USRuleEditorForm'
p8260
aS'UFileSupport'
p8261
aS'Dialogs'
p8262
aS'URegisterSupport'
p8263
asg100
S'usdomain'
p8264
sS'constSections'
p8265
(lp8266
g199
ag7626
ag7640
ag7654
ag7668
asS'globalsInProperCase'
p8267
NsS'interfaceUses'
p8268
(lp8269
S'delphi_compatability'
p8270
aS'Windows'
p8271
aS'Graphics'
p8272
aS'Forms'
p8273
aS'Classes'
p8274
aS'USWorld'
p8275
aS'USCommands'
p8276
aS'USMapView'
p8277
asS'finalCommentToken'
p8278
(i__main__
PassStatement
p8279
(dp8280
g740
(lp8281
sbsS'varSections'
p8282
(lp8283
g7616
asS'globals'
p8284
NsS'originalFileName'
p8285
S'../../storyharp-js/converted_source/usdomain.pas'
p8286
sS'proceduralImplementations'
p8287
(dp8288
S'max'
p8289
g7756
sS'hexunencode'
p8290
g8030
sS'hexencode'
p8291
g7830
sS'min'
p8292
g7682
ssS'fileName'
p8293
S'/home/pdfernhout/workspace/storyharp-js/converted_source/usdomain.pas'
p8294
sS'proceduralDeclarations'
p8295
(dp8296
S'max'
p8297
g7758
sS'min'
p8298
g7684
ssS'types'
p8299
(dp8300
S'tsdomain'
p8301
g297
sS'domainoptionsstructure'
p8302
g5
ssb.