(i__main__
DelphiUnit
p1
(dp2
S'sectionsInOrderDefined'
p3
(lp4
(i__main__
DelphiClass
p5
(dp6
S'variableNamesInProperCase'
p7
(dp8
S'javafile'
p9
S'javaFile'
p10
ssS'name'
p11
S'TSJavaWriter'
p12
sS'methodDeclarations'
p13
(dp14
S'java'
p15
(i__main__
DelphiMethodDeclaration
p16
(dp17
g11
S'java'
p18
sS'formalParameters'
p19
(lp20
(i__main__
DelphiFormalParameter
p21
(dp22
S'initialValue'
p23
NsS'names'
p24
(lp25
S'line'
p26
asS'theType'
p27
(i__main__
DelphiPrimitiveType
p28
(dp29
S'typeName'
p30
S'string'
p31
sbsS'parameterVariety'
p32
NsbasS'className'
p33
g12
sS'resultType'
p34
NsS'isClassMethod'
p35
I0
sS'methodType'
p36
S'procedure'
p37
sbsS'writejavaprogram'
p38
(i__main__
DelphiMethodDeclaration
p39
(dp40
g11
S'writeJavaProgram'
p41
sg19
(lp42
(i__main__
DelphiFormalParameter
p43
(dp44
g23
Nsg24
(lp45
S'filename'
p46
asg27
(i__main__
DelphiPrimitiveType
p47
(dp48
g30
g31
sbsg32
Nsbasg33
g12
sg34
Nsg35
I0
sg36
g37
sbsS'writechangesforrule'
p49
(i__main__
DelphiMethodDeclaration
p50
(dp51
g11
S'writeChangesForRule'
p52
sg19
(lp53
(i__main__
DelphiFormalParameter
p54
(dp55
g23
Nsg24
(lp56
S'rule'
p57
asg27
(i__main__
DelphiNamedType
p58
(dp59
g30
S'TSRule'
p60
sS'unitDefinedIn'
p61
g1
sS'unitName'
p62
Nsbsg32
Nsbasg33
g12
sg34
(i__main__
DelphiPrimitiveType
p63
(dp64
g30
g31
sbsg35
I0
sg36
S'function'
p65
sbsS'specialhandlingforreply'
p66
(i__main__
DelphiMethodDeclaration
p67
(dp68
g11
S'specialHandlingForReply'
p69
sg19
(lp70
(i__main__
DelphiFormalParameter
p71
(dp72
g23
Nsg24
(lp73
S'reply'
p74
asg27
(i__main__
DelphiPrimitiveType
p75
(dp76
g30
g31
sbsg32
Nsbasg33
g12
sg34
(i__main__
DelphiPrimitiveType
p77
(dp78
g30
g31
sbsg35
I0
sg36
g65
sbsS'writestoryfunctions'
p79
(i__main__
DelphiMethodDeclaration
p80
(dp81
g11
S'writeStoryFunctions'
p82
sg19
(lp83
sg33
g12
sg34
Nsg35
I0
sg36
g37
sbsS'logicalstatementforrule'
p84
(i__main__
DelphiMethodDeclaration
p85
(dp86
g11
S'logicalStatementForRule'
p87
sg19
(lp88
(i__main__
DelphiFormalParameter
p89
(dp90
g23
Nsg24
(lp91
S'rule'
p92
asg27
(i__main__
DelphiNamedType
p93
(dp94
g30
S'TSRule'
p95
sg61
g1
sg62
Nsbsg32
Nsbasg33
g12
sg34
(i__main__
DelphiPrimitiveType
p96
(dp97
g30
g31
sbsg35
I0
sg36
g65
sbssS'superclassNamedTypes'
p98
(lp99
(i__main__
DelphiNamedType
p100
(dp101
g30
S'TObject'
p102
sg61
g1
sg62
NsbasS'variableNames'
p103
(dp104
S'javafile'
p105
(i__main__
DelphiNamedType
p106
(dp107
g30
S'TextFile'
p108
sg61
g1
sg62
NsbssS'methodNamesInDefinedOrder'
p109
(lp110
S'java'
p111
aS'logicalstatementforrule'
p112
aS'writechangesforrule'
p113
aS'specialhandlingforreply'
p114
aS'writestoryfunctions'
p115
aS'writejavaprogram'
p116
asS'methodImplementations'
p117
(dp118
S'java'
p119
(i__main__
DelphiMethodImplementation
p120
(dp121
S'originalDeclaration'
p122
g16
sg11
g18
sg19
(lp123
(i__main__
DelphiFormalParameter
p124
(dp125
g23
Nsg24
(lp126
S'line'
p127
asg27
(i__main__
DelphiPrimitiveType
p128
(dp129
g30
g31
sbsg32
NsbasS'varParamIndexes'
p130
(lp131
sS'varParamsSkipped'
p132
(lp133
sS'argNames'
p134
(lp135
S'self'
p136
ag127
asS'argTypes'
p137
(dp138
g127
g128
ssg33
S'TSJavaWriter'
p139
sg34
NsS'varParamNames'
p140
(lp141
sg35
I0
sg36
g37
sS'block'
p142
(i__main__
DelphiBlock
p143
(dp144
S'compoundStatement'
p145
(idelphi
DelphiCompoundStatement
p146
(dp147
S'statements'
p148
(lp149
(i__main__
DelphiAssignStatement
p150
(dp151
S'newValueExpression'
p152
NsS'destinationExpression'
p153
(i__main__
DelphiIdentAccess
p154
(dp155
S'ident'
p156
S'writeln'
p157
sS'endAccessList'
p158
(lp159
(idelphi
DelphiFunctionEndAccess
p160
(dp161
S'expressionList'
p162
(lp163
(i__main__
DelphiIdentAccess
p164
(dp165
g156
S'javaFile'
p166
sg158
(lp167
sba(i__main__
DelphiIdentAccess
p168
(dp169
g156
S'line'
p170
sg158
(lp171
sbasbasbsbasbsS'limitedDeclSectionList'
p172
(lp173
sbsbsS'writejavaprogram'
p174
(i__main__
DelphiMethodImplementation
p175
(dp176
g122
g39
sg11
g41
sg19
(lp177
(i__main__
DelphiFormalParameter
p178
(dp179
g23
Nsg24
(lp180
S'filename'
p181
asg27
(i__main__
DelphiPrimitiveType
p182
(dp183
g30
g31
sbsg32
Nsbasg130
(lp184
sg132
(lp185
sg134
(lp186
g136
ag181
asg137
(dp187
g181
g182
ssg33
S'TSJavaWriter'
p188
sg34
Nsg140
(lp189
sg35
I0
sg36
g37
sg142
(i__main__
DelphiBlock
p190
(dp191
g145
(idelphi
DelphiCompoundStatement
p192
(dp193
g148
(lp194
(idelphi
DelphiIfStatement
p195
(dp196
S'expression'
p197
(idelphi
DelphiAddOp
p198
(dp199
S'addOp'
p200
S'or'
p201
sS'term2'
p202
(idelphi
DelphiNestedExpressionListAccess
p203
(dp204
g158
(lp205
sg162
(lp206
(idelphi
DelphiRelOp
p207
(dp208
S'simpleExpression1'
p209
(i__main__
DelphiIdentAccess
p210
(dp211
g156
S'domain'
p212
sg158
(lp213
(idelphi
DelphiFieldEndAccess
p214
(dp215
S'field'
p216
S'world'
p217
sba(idelphi
DelphiFieldEndAccess
p218
(dp219
g216
S'variables'
p220
sba(idelphi
DelphiFieldEndAccess
p221
(dp222
g216
S'count'
p223
sbasbsS'simpleExpression2'
p224
(idelphi
DelphiIntegerValue
p225
(dp226
g31
S'1'
sbsS'relOp'
p227
S'<'
sbasbsS'term1'
p228
(idelphi
DelphiNestedExpressionListAccess
p229
(dp230
g158
(lp231
sg162
(lp232
(idelphi
DelphiRelOp
p233
(dp234
g209
(i__main__
DelphiIdentAccess
p235
(dp236
g156
S'domain'
p237
sg158
(lp238
(idelphi
DelphiFieldEndAccess
p239
(dp240
g216
S'world'
p241
sba(idelphi
DelphiFieldEndAccess
p242
(dp243
g216
S'rules'
p244
sba(idelphi
DelphiFieldEndAccess
p245
(dp246
g216
S'count'
p247
sbasbsg224
(idelphi
DelphiIntegerValue
p248
(dp249
g31
S'1'
sbsg227
S'<'
sbasbsbsS'ifFalseStatement'
p250
NsS'ifTrueStatement'
p251
(idelphi
DelphiCompoundStatement
p252
(dp253
g148
(lp254
(i__main__
DelphiAssignStatement
p255
(dp256
g152
Nsg153
(i__main__
DelphiIdentAccess
p257
(dp258
g156
S'ShowMessage'
p259
sg158
(lp260
(idelphi
DelphiFunctionEndAccess
p261
(dp262
g162
(lp263
(idelphi
DelphiStringAccess
p264
(dp265
g158
(lp266
sg31
(idelphi
DelphiStringValue
p267
(dp268
g31
S'Some rules and contexts must be defined first'
p269
sbsbasbasbsba(i__main__
DelphiExitStatement
p270
(dp271
S'proceduralOrMethodImplementation'
p272
g175
sbasbsba(i__main__
DelphiAssignStatement
p273
(dp274
g152
Nsg153
(i__main__
DelphiIdentAccess
p275
(dp276
g156
S'AssignFile'
p277
sg158
(lp278
(idelphi
DelphiFunctionEndAccess
p279
(dp280
g162
(lp281
(i__main__
DelphiIdentAccess
p282
(dp283
g156
S'javaTemplate'
p284
sg158
(lp285
sba(idelphi
DelphiAddOp
p286
(dp287
g200
S'+'
sg202
(idelphi
DelphiStringAccess
p288
(dp289
g158
(lp290
sg31
(idelphi
DelphiStringValue
p291
(dp292
g31
S'Template.java'
p293
sbsbsg228
(i__main__
DelphiIdentAccess
p294
(dp295
g156
S'ExtractFilePath'
p296
sg158
(lp297
(idelphi
DelphiFunctionEndAccess
p298
(dp299
g162
(lp300
(i__main__
DelphiIdentAccess
p301
(dp302
g156
S'Application'
p303
sg158
(lp304
(idelphi
DelphiFieldEndAccess
p305
(dp306
g216
S'exeName'
p307
sbasbasbasbsbasbasbsba(idelphi
DelphiTryFinallyStatement
p308
(dp309
S'tryStatements'
p310
(lp311
(i__main__
DelphiAssignStatement
p312
(dp313
g152
Nsg153
(i__main__
DelphiIdentAccess
p314
(dp315
g156
S'Reset'
p316
sg158
(lp317
(idelphi
DelphiFunctionEndAccess
p318
(dp319
g162
(lp320
(i__main__
DelphiIdentAccess
p321
(dp322
g156
S'javaTemplate'
p323
sg158
(lp324
sbasbasbsba(i__main__
DelphiAssignStatement
p325
(dp326
g152
Nsg153
(i__main__
DelphiIdentAccess
p327
(dp328
g156
S'AssignFile'
p329
sg158
(lp330
(idelphi
DelphiFunctionEndAccess
p331
(dp332
g162
(lp333
(i__main__
DelphiIdentAccess
p334
(dp335
g156
S'javaFile'
p336
sg158
(lp337
sba(i__main__
DelphiIdentAccess
p338
(dp339
g156
S'filename'
p340
sg158
(lp341
sbasbasbsba(idelphi
DelphiTryFinallyStatement
p342
(dp343
g310
(lp344
(i__main__
DelphiAssignStatement
p345
(dp346
g152
Nsg153
(i__main__
DelphiIdentAccess
p347
(dp348
g156
S'Rewrite'
p349
sg158
(lp350
(idelphi
DelphiFunctionEndAccess
p351
(dp352
g162
(lp353
(i__main__
DelphiIdentAccess
p354
(dp355
g156
S'javaFile'
p356
sg158
(lp357
sbasbasbsba(i__main__
DelphiAssignStatement
p358
(dp359
g152
Nsg153
(i__main__
DelphiIdentAccess
p360
(dp361
g156
S'domain'
p362
sg158
(lp363
(idelphi
DelphiFieldEndAccess
p364
(dp365
g216
S'world'
p366
sba(idelphi
DelphiFieldEndAccess
p367
(dp368
g216
S'updateVariablesForIndexInVariables'
p369
sbasbsba(idelphi
DelphiWhileStatement
p370
(dp371
S'statement'
p372
(idelphi
DelphiCompoundStatement
p373
(dp374
g148
(lp375
(i__main__
DelphiAssignStatement
p376
(dp377
g152
Nsg153
(i__main__
DelphiIdentAccess
p378
(dp379
g156
S'readln'
p380
sg158
(lp381
(idelphi
DelphiFunctionEndAccess
p382
(dp383
g162
(lp384
(i__main__
DelphiIdentAccess
p385
(dp386
g156
S'javaTemplate'
p387
sg158
(lp388
sba(i__main__
DelphiIdentAccess
p389
(dp390
g156
S'line'
p391
sg158
(lp392
sbasbasbsba(i__main__
DelphiAssignStatement
p393
(dp394
g152
Nsg153
(i__main__
DelphiIdentAccess
p395
(dp396
g156
S'java'
p397
sg158
(lp398
(idelphi
DelphiFunctionEndAccess
p399
(dp400
g162
(lp401
(i__main__
DelphiIdentAccess
p402
(dp403
g156
S'line'
p404
sg158
(lp405
sbasbasbsbasbsS'whileExpression'
p406
(idelphi
DelphiNot
p407
(dp408
S'factor'
p409
(i__main__
DelphiIdentAccess
p410
(dp411
g156
S'eof'
p412
sg158
(lp413
(idelphi
DelphiFunctionEndAccess
p414
(dp415
g162
(lp416
(i__main__
DelphiIdentAccess
p417
(dp418
g156
S'javaTemplate'
p419
sg158
(lp420
sbasbasbsbsba(i__main__
DelphiAssignStatement
p421
(dp422
g152
Nsg153
(i__main__
DelphiIdentAccess
p423
(dp424
g156
S'writeStoryFunctions'
p425
sg158
(lp426
sbsba(i__main__
DelphiAssignStatement
p427
(dp428
g152
Nsg153
(i__main__
DelphiIdentAccess
p429
(dp430
g156
S'Flush'
p431
sg158
(lp432
(idelphi
DelphiFunctionEndAccess
p433
(dp434
g162
(lp435
(i__main__
DelphiIdentAccess
p436
(dp437
g156
S'javaFile'
p438
sg158
(lp439
sbasbasbsbasS'finallyStatements'
p440
(lp441
(idelphi
DelphiTryExceptStatement
p442
(dp443
g310
(lp444
(i__main__
DelphiAssignStatement
p445
(dp446
g152
Nsg153
(i__main__
DelphiIdentAccess
p447
(dp448
g156
S'CloseFile'
p449
sg158
(lp450
(idelphi
DelphiFunctionEndAccess
p451
(dp452
g162
(lp453
(i__main__
DelphiIdentAccess
p454
(dp455
g156
S'javaFile'
p456
sg158
(lp457
sbasbasbsbasS'exceptionHandlers'
p458
(idelphi
DelphiExceptionHandlers
p459
(dp460
S'exceptionHandlerList'
p461
NsS'statementList'
p462
(lp463
(i__main__
DelphiAssignStatement
p464
(dp465
g152
Nsg153
(i__main__
DelphiIdentAccess
p466
(dp467
g156
S'ShowMessage'
p468
sg158
(lp469
(idelphi
DelphiFunctionEndAccess
p470
(dp471
g162
(lp472
(idelphi
DelphiAddOp
p473
(dp474
g200
S'+'
sg202
(i__main__
DelphiIdentAccess
p475
(dp476
g156
S'filename'
p477
sg158
(lp478
sbsg228
(idelphi
DelphiStringAccess
p479
(dp480
g158
(lp481
sg31
(idelphi
DelphiStringValue
p482
(dp483
g31
S'Problem closing java file '
p484
sbsbsbasbasbsbasbsbasbasg440
(lp485
(i__main__
DelphiAssignStatement
p486
(dp487
g152
Nsg153
(i__main__
DelphiIdentAccess
p488
(dp489
g156
S'CloseFile'
p490
sg158
(lp491
(idelphi
DelphiFunctionEndAccess
p492
(dp493
g162
(lp494
(i__main__
DelphiIdentAccess
p495
(dp496
g156
S'javaTemplate'
p497
sg158
(lp498
sbasbasbsbasbasbsg172
(lp499
(i__main__
DelphiVarSection
p500
(dp501
S'atTopLevel'
p502
I0
sS'varDeclList'
p503
(lp504
(idelphi
DelphiVarDecl
p505
(dp506
S'constExpression'
p507
NsS'identList'
p508
(lp509
S'javaTemplate'
p510
asg27
(i__main__
DelphiNamedType
p511
(dp512
g30
S'TextFile'
p513
sg61
g1
sg62
Nsbsba(idelphi
DelphiVarDecl
p514
(dp515
g507
Nsg508
(lp516
S'line'
p517
asg27
(i__main__
DelphiPrimitiveType
p518
(dp519
g30
g31
sbsbasbasbsbsS'writechangesforrule'
p520
(i__main__
DelphiMethodImplementation
p521
(dp522
g122
g50
sg11
g52
sg19
(lp523
(i__main__
DelphiFormalParameter
p524
(dp525
g23
Nsg24
(lp526
S'rule'
p527
asg27
(i__main__
DelphiNamedType
p528
(dp529
g30
S'TSRule'
p530
sg61
g1
sg62
Nsbsg32
Nsbasg130
(lp531
sg132
(lp532
sg134
(lp533
g136
ag527
asg137
(dp534
g527
g528
ssg33
S'TSJavaWriter'
p535
sg34
(i__main__
DelphiPrimitiveType
p536
(dp537
g30
g31
sbsg140
(lp538
sg35
I0
sg36
g65
sg142
(i__main__
DelphiBlock
p539
(dp540
g145
(idelphi
DelphiCompoundStatement
p541
(dp542
g148
(lp543
(idelphi
DelphiForStatement
p544
(dp545
S'variable'
p546
S'i'
sS'finalValue'
p547
(idelphi
DelphiAddOp
p548
(dp549
g200
S'-'
sg202
(idelphi
DelphiIntegerValue
p550
(dp551
g31
S'1'
sbsg228
(i__main__
DelphiIdentAccess
p552
(dp553
g156
S'rule'
p554
sg158
(lp555
(idelphi
DelphiFieldEndAccess
p556
(dp557
g216
S'changes'
p558
sba(idelphi
DelphiFieldEndAccess
p559
(dp560
g216
S'count'
p561
sbasbsbsS'direction'
p562
S'to'
p563
sg23
(idelphi
DelphiIntegerValue
p564
(dp565
g31
S'0'
sbsg372
(idelphi
DelphiCompoundStatement
p566
(dp567
g148
(lp568
(i__main__
DelphiAssignStatement
p569
(dp570
g152
(i__main__
DelphiIdentAccess
p571
(dp572
g156
S'TSDesiredStateVariableWrapper'
p573
sg158
(lp574
(idelphi
DelphiFunctionEndAccess
p575
(dp576
g162
(lp577
(i__main__
DelphiIdentAccess
p578
(dp579
g156
S'rule'
p580
sg158
(lp581
(idelphi
DelphiFieldEndAccess
p582
(dp583
g216
S'changes'
p584
sba(idelphi
DelphiFieldEndAccess
p585
(dp586
g216
S'items'
p587
sba(idelphi
DelphiArrayEndAccess
p588
(dp589
g162
(lp590
(i__main__
DelphiIdentAccess
p591
(dp592
g156
S'i'
sg158
(lp593
sbasbasbasbasbsg153
(i__main__
DelphiIdentAccess
p594
(dp595
g156
S'wrapper'
p596
sg158
(lp597
sbsba(i__main__
DelphiAssignStatement
p598
(dp599
g152
(i__main__
DelphiIdentAccess
p600
(dp601
g156
S'IntToStr'
p602
sg158
(lp603
(idelphi
DelphiFunctionEndAccess
p604
(dp605
g162
(lp606
(i__main__
DelphiIdentAccess
p607
(dp608
g156
S'wrapper'
p609
sg158
(lp610
(idelphi
DelphiFieldEndAccess
p611
(dp612
g216
S'variable'
p613
sba(idelphi
DelphiFieldEndAccess
p614
(dp615
g216
S'indexInVariables'
p616
sbasbasbasbsg153
(i__main__
DelphiIdentAccess
p617
(dp618
g156
S'varies'
p619
sg158
(lp620
sbsba(idelphi
DelphiIfStatement
p621
(dp622
g197
(idelphi
DelphiRelOp
p623
(dp624
g209
(i__main__
DelphiIdentAccess
p625
(dp626
g156
S'wrapper'
p627
sg158
(lp628
(idelphi
DelphiFieldEndAccess
p629
(dp630
g216
S'desiredState'
p631
sbasbsg224
(i__main__
DelphiIdentAccess
p632
(dp633
g156
S'kAbsent'
p634
sg158
(lp635
sbsg227
S'='
sbsg250
(i__main__
DelphiAssignStatement
p636
(dp637
g152
Nsg153
(i__main__
DelphiIdentAccess
p638
(dp639
g156
S'java'
p640
sg158
(lp641
(idelphi
DelphiFunctionEndAccess
p642
(dp643
g162
(lp644
(idelphi
DelphiAddOp
p645
(dp646
g200
S'+'
sg202
(idelphi
DelphiStringAccess
p647
(dp648
g158
(lp649
sg31
(idelphi
DelphiStringValue
p650
(dp651
g31
S'] = true;'
p652
sbsbsg228
(idelphi
DelphiAddOp
p653
(dp654
g200
S'+'
sg202
(i__main__
DelphiIdentAccess
p655
(dp656
g156
S'varies'
p657
sg158
(lp658
sbsg228
(idelphi
DelphiStringAccess
p659
(dp660
g158
(lp661
sg31
(idelphi
DelphiStringValue
p662
(dp663
g31
S'      variableValue['
p664
sbsbsbsbasbasbsbsg251
(i__main__
DelphiAssignStatement
p665
(dp666
g152
Nsg153
(i__main__
DelphiIdentAccess
p667
(dp668
g156
S'java'
p669
sg158
(lp670
(idelphi
DelphiFunctionEndAccess
p671
(dp672
g162
(lp673
(idelphi
DelphiAddOp
p674
(dp675
g200
S'+'
sg202
(idelphi
DelphiStringAccess
p676
(dp677
g158
(lp678
sg31
(idelphi
DelphiStringValue
p679
(dp680
g31
S'] = false;'
p681
sbsbsg228
(idelphi
DelphiAddOp
p682
(dp683
g200
S'+'
sg202
(i__main__
DelphiIdentAccess
p684
(dp685
g156
S'varies'
p686
sg158
(lp687
sbsg228
(idelphi
DelphiStringAccess
p688
(dp689
g158
(lp690
sg31
(idelphi
DelphiStringValue
p691
(dp692
g31
S'      variableValue['
p693
sbsbsbsbasbasbsbsbasbsba(idelphi
DelphiIfStatement
p694
(dp695
g197
(idelphi
DelphiRelOp
p696
(dp697
g209
(i__main__
DelphiIdentAccess
p698
(dp699
g156
S'rule'
p700
sg158
(lp701
(idelphi
DelphiFieldEndAccess
p702
(dp703
g216
S'move'
p704
sbasbsg224
(i__main__
DelphiIdentAccess
p705
(dp706
g156
S'domain'
p707
sg158
(lp708
(idelphi
DelphiFieldEndAccess
p709
(dp710
g216
S'world'
p711
sba(idelphi
DelphiFieldEndAccess
p712
(dp713
g216
S'emptyEntry'
p714
sbasbsg227
S'<>'
p715
sbsg250
Nsg251
(idelphi
DelphiCompoundStatement
p716
(dp717
g148
(lp718
(i__main__
DelphiAssignStatement
p719
(dp720
g152
(i__main__
DelphiIdentAccess
p721
(dp722
g156
S'IntToStr'
p723
sg158
(lp724
(idelphi
DelphiFunctionEndAccess
p725
(dp726
g162
(lp727
(i__main__
DelphiIdentAccess
p728
(dp729
g156
S'rule'
p730
sg158
(lp731
(idelphi
DelphiFieldEndAccess
p732
(dp733
g216
S'move'
p734
sba(idelphi
DelphiFieldEndAccess
p735
(dp736
g216
S'indexInVariables'
p737
sbasbasbasbsg153
(i__main__
DelphiIdentAccess
p738
(dp739
g156
S'varies'
p740
sg158
(lp741
sbsba(i__main__
DelphiAssignStatement
p742
(dp743
g152
Nsg153
(i__main__
DelphiIdentAccess
p744
(dp745
g156
S'java'
p746
sg158
(lp747
(idelphi
DelphiFunctionEndAccess
p748
(dp749
g162
(lp750
(idelphi
DelphiAddOp
p751
(dp752
g200
S'+'
sg202
(idelphi
DelphiStringAccess
p753
(dp754
g158
(lp755
sg31
(idelphi
DelphiStringValue
p756
(dp757
g31
S');'
p758
sbsbsg228
(idelphi
DelphiAddOp
p759
(dp760
g200
S'+'
sg202
(i__main__
DelphiIdentAccess
p761
(dp762
g156
S'varies'
p763
sg158
(lp764
sbsg228
(idelphi
DelphiStringAccess
p765
(dp766
g158
(lp767
sg31
(idelphi
DelphiStringValue
p768
(dp769
g31
S'      move('
p770
sbsbsbsbasbasbsbasbsbasbsg172
(lp771
(i__main__
DelphiVarSection
p772
(dp773
g502
I0
sg503
(lp774
(idelphi
DelphiVarDecl
p775
(dp776
g507
Nsg508
(lp777
S'i'
asg27
(i__main__
DelphiPrimitiveType
p778
(dp779
g30
S'integer'
p780
sbsba(idelphi
DelphiVarDecl
p781
(dp782
g507
Nsg508
(lp783
S'wrapper'
p784
asg27
(i__main__
DelphiNamedType
p785
(dp786
g30
S'TSDesiredStateVariableWrapper'
p787
sg61
g1
sg62
Nsbsba(idelphi
DelphiVarDecl
p788
(dp789
g507
Nsg508
(lp790
S'varies'
p791
asg27
(i__main__
DelphiPrimitiveType
p792
(dp793
g30
g31
sbsbasbasbsbsS'specialhandlingforreply'
p794
(i__main__
DelphiMethodImplementation
p795
(dp796
g122
g67
sg11
g69
sg19
(lp797
(i__main__
DelphiFormalParameter
p798
(dp799
g23
Nsg24
(lp800
S'reply'
p801
asg27
(i__main__
DelphiPrimitiveType
p802
(dp803
g30
g31
sbsg32
Nsbasg130
(lp804
sg132
(lp805
sg134
(lp806
g136
ag801
asg137
(dp807
g801
g802
ssg33
S'TSJavaWriter'
p808
sg34
(i__main__
DelphiPrimitiveType
p809
(dp810
g30
g31
sbsg140
(lp811
sg35
I0
sg36
g65
sg142
(i__main__
DelphiBlock
p812
(dp813
g145
(idelphi
DelphiCompoundStatement
p814
(dp815
g148
(lp816
(i__main__
DelphiAssignStatement
p817
(dp818
g152
(idelphi
DelphiStringAccess
p819
(dp820
g158
(lp821
sg31
(idelphi
DelphiStringValue
p822
(dp823
g31
S''
sbsbsg153
(i__main__
DelphiIdentAccess
p824
(dp825
g156
S'result'
p826
sg158
(lp827
sbsba(idelphi
DelphiForStatement
p828
(dp829
g546
S'i'
sg547
(i__main__
DelphiIdentAccess
p830
(dp831
g156
S'length'
p832
sg158
(lp833
(idelphi
DelphiFunctionEndAccess
p834
(dp835
g162
(lp836
(i__main__
DelphiIdentAccess
p837
(dp838
g156
S'reply'
p839
sg158
(lp840
sbasbasbsg562
g563
sg23
(idelphi
DelphiIntegerValue
p841
(dp842
g31
S'1'
sbsg372
(idelphi
DelphiCompoundStatement
p843
(dp844
g148
(lp845
(idelphi
DelphiIfStatement
p846
(dp847
g197
(idelphi
DelphiRelOp
p848
(dp849
g209
(i__main__
DelphiIdentAccess
p850
(dp851
g156
S'reply'
p852
sg158
(lp853
(idelphi
DelphiArrayEndAccess
p854
(dp855
g162
(lp856
(i__main__
DelphiIdentAccess
p857
(dp858
g156
S'i'
sg158
(lp859
sbasbasbsg224
(idelphi
DelphiStringAccess
p860
(dp861
g158
(lp862
sg31
(idelphi
DelphiStringValue
p863
(dp864
g31
S'"'
sbsbsg227
S'='
sbsg250
Nsg251
(i__main__
DelphiAssignStatement
p865
(dp866
g152
(idelphi
DelphiAddOp
p867
(dp868
g200
S'+'
sg202
(idelphi
DelphiStringAccess
p869
(dp870
g158
(lp871
sg31
(idelphi
DelphiStringValue
p872
(dp873
g31
S'\\'
sbsbsg228
(i__main__
DelphiIdentAccess
p874
(dp875
g156
S'result'
p876
sg158
(lp877
sbsbsg153
(i__main__
DelphiIdentAccess
p878
(dp879
g156
S'result'
p880
sg158
(lp881
sbsbsba(i__main__
DelphiAssignStatement
p882
(dp883
g152
(idelphi
DelphiAddOp
p884
(dp885
g200
S'+'
sg202
(i__main__
DelphiIdentAccess
p886
(dp887
g156
S'reply'
p888
sg158
(lp889
(idelphi
DelphiArrayEndAccess
p890
(dp891
g162
(lp892
(i__main__
DelphiIdentAccess
p893
(dp894
g156
S'i'
sg158
(lp895
sbasbasbsg228
(i__main__
DelphiIdentAccess
p896
(dp897
g156
S'result'
p898
sg158
(lp899
sbsbsg153
(i__main__
DelphiIdentAccess
p900
(dp901
g156
S'result'
p902
sg158
(lp903
sbsbasbsbasbsg172
(lp904
(i__main__
DelphiVarSection
p905
(dp906
g502
I0
sg503
(lp907
(idelphi
DelphiVarDecl
p908
(dp909
g507
Nsg508
(lp910
S'i'
asg27
(i__main__
DelphiPrimitiveType
p911
(dp912
g30
g780
sbsbasbasbsbsS'writestoryfunctions'
p913
(i__main__
DelphiMethodImplementation
p914
(dp915
g122
g80
sg11
g82
sg19
(lp916
sg130
(lp917
sg132
(lp918
sg134
(lp919
g136
asg137
(dp920
sg33
S'TSJavaWriter'
p921
sg34
Nsg140
(lp922
sg35
I0
sg36
g37
sg142
(i__main__
DelphiBlock
p923
(dp924
g145
(idelphi
DelphiCompoundStatement
p925
(dp926
g148
(lp927
(i__main__
DelphiAssignStatement
p928
(dp929
g152
(i__main__
DelphiIdentAccess
p930
(dp931
g156
S'TSRule'
p932
sg158
(lp933
(idelphi
DelphiFunctionEndAccess
p934
(dp935
g162
(lp936
(i__main__
DelphiIdentAccess
p937
(dp938
g156
S'domain'
p939
sg158
(lp940
(idelphi
DelphiFieldEndAccess
p941
(dp942
g216
S'world'
p943
sba(idelphi
DelphiFieldEndAccess
p944
(dp945
g216
S'rules'
p946
sba(idelphi
DelphiArrayEndAccess
p947
(dp948
g162
(lp949
(idelphi
DelphiIntegerValue
p950
(dp951
g31
S'0'
sbasbasbasbasbsg153
(i__main__
DelphiIdentAccess
p952
(dp953
g156
S'firstRule'
p954
sg158
(lp955
sbsba(i__main__
DelphiAssignStatement
p956
(dp957
g152
(i__main__
DelphiIdentAccess
p958
(dp959
g156
S'IntToStr'
p960
sg158
(lp961
(idelphi
DelphiFunctionEndAccess
p962
(dp963
g162
(lp964
(i__main__
DelphiIdentAccess
p965
(dp966
g156
S'domain'
p967
sg158
(lp968
(idelphi
DelphiFieldEndAccess
p969
(dp970
g216
S'world'
p971
sba(idelphi
DelphiFieldEndAccess
p972
(dp973
g216
S'variables'
p974
sba(idelphi
DelphiFieldEndAccess
p975
(dp976
g216
S'count'
p977
sbasbasbasbsg153
(i__main__
DelphiIdentAccess
p978
(dp979
g156
S'varies'
p980
sg158
(lp981
sbsba(i__main__
DelphiAssignStatement
p982
(dp983
g152
Nsg153
(i__main__
DelphiIdentAccess
p984
(dp985
g156
S'java'
p986
sg158
(lp987
(idelphi
DelphiFunctionEndAccess
p988
(dp989
g162
(lp990
(idelphi
DelphiStringAccess
p991
(dp992
g158
(lp993
sg31
(idelphi
DelphiStringValue
p994
(dp995
g31
S'  int SHNumberVariables()'
p996
sbsbasbasbsba(i__main__
DelphiAssignStatement
p997
(dp998
g152
Nsg153
(i__main__
DelphiIdentAccess
p999
(dp1000
g156
S'java'
p1001
sg158
(lp1002
(idelphi
DelphiFunctionEndAccess
p1003
(dp1004
g162
(lp1005
(idelphi
DelphiStringAccess
p1006
(dp1007
g158
(lp1008
sg31
(idelphi
DelphiStringValue
p1009
(dp1010
g31
S'    {'
p1011
sbsbasbasbsba(i__main__
DelphiAssignStatement
p1012
(dp1013
g152
Nsg153
(i__main__
DelphiIdentAccess
p1014
(dp1015
g156
S'java'
p1016
sg158
(lp1017
(idelphi
DelphiFunctionEndAccess
p1018
(dp1019
g162
(lp1020
(idelphi
DelphiAddOp
p1021
(dp1022
g200
S'+'
sg202
(idelphi
DelphiStringAccess
p1023
(dp1024
g158
(lp1025
sg31
(idelphi
DelphiStringValue
p1026
(dp1027
g31
S';'
sbsbsg228
(idelphi
DelphiAddOp
p1028
(dp1029
g200
S'+'
sg202
(i__main__
DelphiIdentAccess
p1030
(dp1031
g156
S'varies'
p1032
sg158
(lp1033
sbsg228
(idelphi
DelphiStringAccess
p1034
(dp1035
g158
(lp1036
sg31
(idelphi
DelphiStringValue
p1037
(dp1038
g31
S'    return '
p1039
sbsbsbsbasbasbsba(i__main__
DelphiAssignStatement
p1040
(dp1041
g152
Nsg153
(i__main__
DelphiIdentAccess
p1042
(dp1043
g156
S'java'
p1044
sg158
(lp1045
(idelphi
DelphiFunctionEndAccess
p1046
(dp1047
g162
(lp1048
(idelphi
DelphiStringAccess
p1049
(dp1050
g158
(lp1051
sg31
(idelphi
DelphiStringValue
p1052
(dp1053
g31
S'    }'
p1054
sbsbasbasbsba(i__main__
DelphiAssignStatement
p1055
(dp1056
g152
Nsg153
(i__main__
DelphiIdentAccess
p1057
(dp1058
g156
S'java'
p1059
sg158
(lp1060
(idelphi
DelphiFunctionEndAccess
p1061
(dp1062
g162
(lp1063
(idelphi
DelphiStringAccess
p1064
(dp1065
g158
(lp1066
sg31
(idelphi
DelphiStringValue
p1067
(dp1068
g31
S''
sbsbasbasbsba(i__main__
DelphiAssignStatement
p1069
(dp1070
g152
(i__main__
DelphiIdentAccess
p1071
(dp1072
g156
S'IntToStr'
p1073
sg158
(lp1074
(idelphi
DelphiFunctionEndAccess
p1075
(dp1076
g162
(lp1077
(i__main__
DelphiIdentAccess
p1078
(dp1079
g156
S'domain'
p1080
sg158
(lp1081
(idelphi
DelphiFieldEndAccess
p1082
(dp1083
g216
S'world'
p1084
sba(idelphi
DelphiFieldEndAccess
p1085
(dp1086
g216
S'rules'
p1087
sba(idelphi
DelphiFieldEndAccess
p1088
(dp1089
g216
S'count'
p1090
sbasbasbasbsg153
(i__main__
DelphiIdentAccess
p1091
(dp1092
g156
S'varies'
p1093
sg158
(lp1094
sbsba(i__main__
DelphiAssignStatement
p1095
(dp1096
g152
Nsg153
(i__main__
DelphiIdentAccess
p1097
(dp1098
g156
S'java'
p1099
sg158
(lp1100
(idelphi
DelphiFunctionEndAccess
p1101
(dp1102
g162
(lp1103
(idelphi
DelphiStringAccess
p1104
(dp1105
g158
(lp1106
sg31
(idelphi
DelphiStringValue
p1107
(dp1108
g31
S'  int SHNumberRules()'
p1109
sbsbasbasbsba(i__main__
DelphiAssignStatement
p1110
(dp1111
g152
Nsg153
(i__main__
DelphiIdentAccess
p1112
(dp1113
g156
S'java'
p1114
sg158
(lp1115
(idelphi
DelphiFunctionEndAccess
p1116
(dp1117
g162
(lp1118
(idelphi
DelphiStringAccess
p1119
(dp1120
g158
(lp1121
sg31
(idelphi
DelphiStringValue
p1122
(dp1123
g31
S'    {'
p1124
sbsbasbasbsba(i__main__
DelphiAssignStatement
p1125
(dp1126
g152
Nsg153
(i__main__
DelphiIdentAccess
p1127
(dp1128
g156
S'java'
p1129
sg158
(lp1130
(idelphi
DelphiFunctionEndAccess
p1131
(dp1132
g162
(lp1133
(idelphi
DelphiAddOp
p1134
(dp1135
g200
S'+'
sg202
(idelphi
DelphiStringAccess
p1136
(dp1137
g158
(lp1138
sg31
(idelphi
DelphiStringValue
p1139
(dp1140
g31
S';'
sbsbsg228
(idelphi
DelphiAddOp
p1141
(dp1142
g200
S'+'
sg202
(i__main__
DelphiIdentAccess
p1143
(dp1144
g156
S'varies'
p1145
sg158
(lp1146
sbsg228
(idelphi
DelphiStringAccess
p1147
(dp1148
g158
(lp1149
sg31
(idelphi
DelphiStringValue
p1150
(dp1151
g31
S'    return '
p1152
sbsbsbsbasbasbsba(i__main__
DelphiAssignStatement
p1153
(dp1154
g152
Nsg153
(i__main__
DelphiIdentAccess
p1155
(dp1156
g156
S'java'
p1157
sg158
(lp1158
(idelphi
DelphiFunctionEndAccess
p1159
(dp1160
g162
(lp1161
(idelphi
DelphiStringAccess
p1162
(dp1163
g158
(lp1164
sg31
(idelphi
DelphiStringValue
p1165
(dp1166
g31
S'    }'
p1167
sbsbasbasbsba(i__main__
DelphiAssignStatement
p1168
(dp1169
g152
Nsg153
(i__main__
DelphiIdentAccess
p1170
(dp1171
g156
S'java'
p1172
sg158
(lp1173
(idelphi
DelphiFunctionEndAccess
p1174
(dp1175
g162
(lp1176
(idelphi
DelphiStringAccess
p1177
(dp1178
g158
(lp1179
sg31
(idelphi
DelphiStringValue
p1180
(dp1181
g31
S''
sbsbasbasbsba(i__main__
DelphiAssignStatement
p1182
(dp1183
g152
(i__main__
DelphiIdentAccess
p1184
(dp1185
g156
S'IntToStr'
p1186
sg158
(lp1187
(idelphi
DelphiFunctionEndAccess
p1188
(dp1189
g162
(lp1190
(i__main__
DelphiIdentAccess
p1191
(dp1192
g156
S'firstRule'
p1193
sg158
(lp1194
(idelphi
DelphiFieldEndAccess
p1195
(dp1196
g216
S'context'
p1197
sba(idelphi
DelphiFieldEndAccess
p1198
(dp1199
g216
S'indexInVariables'
p1200
sbasbasbasbsg153
(i__main__
DelphiIdentAccess
p1201
(dp1202
g156
S'varies'
p1203
sg158
(lp1204
sbsba(i__main__
DelphiAssignStatement
p1205
(dp1206
g152
Nsg153
(i__main__
DelphiIdentAccess
p1207
(dp1208
g156
S'java'
p1209
sg158
(lp1210
(idelphi
DelphiFunctionEndAccess
p1211
(dp1212
g162
(lp1213
(idelphi
DelphiStringAccess
p1214
(dp1215
g158
(lp1216
sg31
(idelphi
DelphiStringValue
p1217
(dp1218
g31
S'  int SHFirstLocation()'
p1219
sbsbasbasbsba(i__main__
DelphiAssignStatement
p1220
(dp1221
g152
Nsg153
(i__main__
DelphiIdentAccess
p1222
(dp1223
g156
S'java'
p1224
sg158
(lp1225
(idelphi
DelphiFunctionEndAccess
p1226
(dp1227
g162
(lp1228
(idelphi
DelphiStringAccess
p1229
(dp1230
g158
(lp1231
sg31
(idelphi
DelphiStringValue
p1232
(dp1233
g31
S'    {'
p1234
sbsbasbasbsba(i__main__
DelphiAssignStatement
p1235
(dp1236
g152
Nsg153
(i__main__
DelphiIdentAccess
p1237
(dp1238
g156
S'java'
p1239
sg158
(lp1240
(idelphi
DelphiFunctionEndAccess
p1241
(dp1242
g162
(lp1243
(idelphi
DelphiAddOp
p1244
(dp1245
g200
S'+'
sg202
(idelphi
DelphiStringAccess
p1246
(dp1247
g158
(lp1248
sg31
(idelphi
DelphiStringValue
p1249
(dp1250
g31
S';'
sbsbsg228
(idelphi
DelphiAddOp
p1251
(dp1252
g200
S'+'
sg202
(i__main__
DelphiIdentAccess
p1253
(dp1254
g156
S'varies'
p1255
sg158
(lp1256
sbsg228
(idelphi
DelphiStringAccess
p1257
(dp1258
g158
(lp1259
sg31
(idelphi
DelphiStringValue
p1260
(dp1261
g31
S'    return '
p1262
sbsbsbsbasbasbsba(i__main__
DelphiAssignStatement
p1263
(dp1264
g152
Nsg153
(i__main__
DelphiIdentAccess
p1265
(dp1266
g156
S'java'
p1267
sg158
(lp1268
(idelphi
DelphiFunctionEndAccess
p1269
(dp1270
g162
(lp1271
(idelphi
DelphiStringAccess
p1272
(dp1273
g158
(lp1274
sg31
(idelphi
DelphiStringValue
p1275
(dp1276
g31
S'    }'
p1277
sbsbasbasbsba(i__main__
DelphiAssignStatement
p1278
(dp1279
g152
Nsg153
(i__main__
DelphiIdentAccess
p1280
(dp1281
g156
S'java'
p1282
sg158
(lp1283
(idelphi
DelphiFunctionEndAccess
p1284
(dp1285
g162
(lp1286
(idelphi
DelphiStringAccess
p1287
(dp1288
g158
(lp1289
sg31
(idelphi
DelphiStringValue
p1290
(dp1291
g31
S''
sbsbasbasbsba(i__main__
DelphiAssignStatement
p1292
(dp1293
g152
(i__main__
DelphiIdentAccess
p1294
(dp1295
g156
S'IntToStr'
p1296
sg158
(lp1297
(idelphi
DelphiFunctionEndAccess
p1298
(dp1299
g162
(lp1300
(i__main__
DelphiIdentAccess
p1301
(dp1302
g156
S'firstRule'
p1303
sg158
(lp1304
(idelphi
DelphiFieldEndAccess
p1305
(dp1306
g216
S'command'
p1307
sba(idelphi
DelphiFieldEndAccess
p1308
(dp1309
g216
S'indexInVariables'
p1310
sbasbasbasbsg153
(i__main__
DelphiIdentAccess
p1311
(dp1312
g156
S'varies'
p1313
sg158
(lp1314
sbsba(i__main__
DelphiAssignStatement
p1315
(dp1316
g152
Nsg153
(i__main__
DelphiIdentAccess
p1317
(dp1318
g156
S'java'
p1319
sg158
(lp1320
(idelphi
DelphiFunctionEndAccess
p1321
(dp1322
g162
(lp1323
(idelphi
DelphiStringAccess
p1324
(dp1325
g158
(lp1326
sg31
(idelphi
DelphiStringValue
p1327
(dp1328
g31
S'  int SHFirstCommand()'
p1329
sbsbasbasbsba(i__main__
DelphiAssignStatement
p1330
(dp1331
g152
Nsg153
(i__main__
DelphiIdentAccess
p1332
(dp1333
g156
S'java'
p1334
sg158
(lp1335
(idelphi
DelphiFunctionEndAccess
p1336
(dp1337
g162
(lp1338
(idelphi
DelphiStringAccess
p1339
(dp1340
g158
(lp1341
sg31
(idelphi
DelphiStringValue
p1342
(dp1343
g31
S'    {'
p1344
sbsbasbasbsba(i__main__
DelphiAssignStatement
p1345
(dp1346
g152
Nsg153
(i__main__
DelphiIdentAccess
p1347
(dp1348
g156
S'java'
p1349
sg158
(lp1350
(idelphi
DelphiFunctionEndAccess
p1351
(dp1352
g162
(lp1353
(idelphi
DelphiAddOp
p1354
(dp1355
g200
S'+'
sg202
(idelphi
DelphiStringAccess
p1356
(dp1357
g158
(lp1358
sg31
(idelphi
DelphiStringValue
p1359
(dp1360
g31
S';'
sbsbsg228
(idelphi
DelphiAddOp
p1361
(dp1362
g200
S'+'
sg202
(i__main__
DelphiIdentAccess
p1363
(dp1364
g156
S'varies'
p1365
sg158
(lp1366
sbsg228
(idelphi
DelphiStringAccess
p1367
(dp1368
g158
(lp1369
sg31
(idelphi
DelphiStringValue
p1370
(dp1371
g31
S'    return '
p1372
sbsbsbsbasbasbsba(i__main__
DelphiAssignStatement
p1373
(dp1374
g152
Nsg153
(i__main__
DelphiIdentAccess
p1375
(dp1376
g156
S'java'
p1377
sg158
(lp1378
(idelphi
DelphiFunctionEndAccess
p1379
(dp1380
g162
(lp1381
(idelphi
DelphiStringAccess
p1382
(dp1383
g158
(lp1384
sg31
(idelphi
DelphiStringValue
p1385
(dp1386
g31
S'    }'
p1387
sbsbasbasbsba(i__main__
DelphiAssignStatement
p1388
(dp1389
g152
Nsg153
(i__main__
DelphiIdentAccess
p1390
(dp1391
g156
S'java'
p1392
sg158
(lp1393
(idelphi
DelphiFunctionEndAccess
p1394
(dp1395
g162
(lp1396
(idelphi
DelphiStringAccess
p1397
(dp1398
g158
(lp1399
sg31
(idelphi
DelphiStringValue
p1400
(dp1401
g31
S''
sbsbasbasbsba(i__main__
DelphiAssignStatement
p1402
(dp1403
g152
Nsg153
(i__main__
DelphiIdentAccess
p1404
(dp1405
g156
S'java'
p1406
sg158
(lp1407
(idelphi
DelphiFunctionEndAccess
p1408
(dp1409
g162
(lp1410
(idelphi
DelphiStringAccess
p1411
(dp1412
g158
(lp1413
sg31
(idelphi
DelphiStringValue
p1414
(dp1415
g31
S'  void SHDefineVariables()'
p1416
sbsbasbasbsba(i__main__
DelphiAssignStatement
p1417
(dp1418
g152
Nsg153
(i__main__
DelphiIdentAccess
p1419
(dp1420
g156
S'java'
p1421
sg158
(lp1422
(idelphi
DelphiFunctionEndAccess
p1423
(dp1424
g162
(lp1425
(idelphi
DelphiStringAccess
p1426
(dp1427
g158
(lp1428
sg31
(idelphi
DelphiStringValue
p1429
(dp1430
g31
S'    {'
p1431
sbsbasbasbsba(idelphi
DelphiForStatement
p1432
(dp1433
g546
S'i'
sg547
(idelphi
DelphiAddOp
p1434
(dp1435
g200
S'-'
sg202
(idelphi
DelphiIntegerValue
p1436
(dp1437
g31
S'1'
sbsg228
(i__main__
DelphiIdentAccess
p1438
(dp1439
g156
S'domain'
p1440
sg158
(lp1441
(idelphi
DelphiFieldEndAccess
p1442
(dp1443
g216
S'world'
p1444
sba(idelphi
DelphiFieldEndAccess
p1445
(dp1446
g216
S'variables'
p1447
sba(idelphi
DelphiFieldEndAccess
p1448
(dp1449
g216
S'count'
p1450
sbasbsbsg562
g563
sg23
(idelphi
DelphiIntegerValue
p1451
(dp1452
g31
S'0'
sbsg372
(idelphi
DelphiCompoundStatement
p1453
(dp1454
g148
(lp1455
(i__main__
DelphiAssignStatement
p1456
(dp1457
g152
(i__main__
DelphiIdentAccess
p1458
(dp1459
g156
S'specialHandlingForReply'
p1460
sg158
(lp1461
(idelphi
DelphiFunctionEndAccess
p1462
(dp1463
g162
(lp1464
(i__main__
DelphiIdentAccess
p1465
(dp1466
g156
S'TSVariable'
p1467
sg158
(lp1468
(idelphi
DelphiFunctionEndAccess
p1469
(dp1470
g162
(lp1471
(i__main__
DelphiIdentAccess
p1472
(dp1473
g156
S'domain'
p1474
sg158
(lp1475
(idelphi
DelphiFieldEndAccess
p1476
(dp1477
g216
S'world'
p1478
sba(idelphi
DelphiFieldEndAccess
p1479
(dp1480
g216
S'variables'
p1481
sba(idelphi
DelphiArrayEndAccess
p1482
(dp1483
g162
(lp1484
(i__main__
DelphiIdentAccess
p1485
(dp1486
g156
S'i'
sg158
(lp1487
sbasbasbasba(idelphi
DelphiFieldEndAccess
p1488
(dp1489
g216
S'phrase'
p1490
sbasbasbasbsg153
(i__main__
DelphiIdentAccess
p1491
(dp1492
g156
S'varies'
p1493
sg158
(lp1494
sbsba(i__main__
DelphiAssignStatement
p1495
(dp1496
g152
Nsg153
(i__main__
DelphiIdentAccess
p1497
(dp1498
g156
S'java'
p1499
sg158
(lp1500
(idelphi
DelphiFunctionEndAccess
p1501
(dp1502
g162
(lp1503
(idelphi
DelphiAddOp
p1504
(dp1505
g200
S'+'
sg202
(idelphi
DelphiStringAccess
p1506
(dp1507
g158
(lp1508
sg31
(idelphi
DelphiStringValue
p1509
(dp1510
g31
S'";'
p1511
sbsbsg228
(idelphi
DelphiAddOp
p1512
(dp1513
g200
S'+'
sg202
(i__main__
DelphiIdentAccess
p1514
(dp1515
g156
S'varies'
p1516
sg158
(lp1517
sbsg228
(idelphi
DelphiAddOp
p1518
(dp1519
g200
S'+'
sg202
(idelphi
DelphiStringAccess
p1520
(dp1521
g158
(lp1522
sg31
(idelphi
DelphiStringValue
p1523
(dp1524
g31
S'] = "'
p1525
sbsbsg228
(idelphi
DelphiAddOp
p1526
(dp1527
g200
S'+'
sg202
(i__main__
DelphiIdentAccess
p1528
(dp1529
g156
S'IntToStr'
p1530
sg158
(lp1531
(idelphi
DelphiFunctionEndAccess
p1532
(dp1533
g162
(lp1534
(i__main__
DelphiIdentAccess
p1535
(dp1536
g156
S'i'
sg158
(lp1537
sbasbasbsg228
(idelphi
DelphiStringAccess
p1538
(dp1539
g158
(lp1540
sg31
(idelphi
DelphiStringValue
p1541
(dp1542
g31
S'    variableName['
p1543
sbsbsbsbsbsbasbasbsbasbsba(i__main__
DelphiAssignStatement
p1544
(dp1545
g152
Nsg153
(i__main__
DelphiIdentAccess
p1546
(dp1547
g156
S'java'
p1548
sg158
(lp1549
(idelphi
DelphiFunctionEndAccess
p1550
(dp1551
g162
(lp1552
(idelphi
DelphiStringAccess
p1553
(dp1554
g158
(lp1555
sg31
(idelphi
DelphiStringValue
p1556
(dp1557
g31
S'    }'
p1558
sbsbasbasbsba(i__main__
DelphiAssignStatement
p1559
(dp1560
g152
Nsg153
(i__main__
DelphiIdentAccess
p1561
(dp1562
g156
S'java'
p1563
sg158
(lp1564
(idelphi
DelphiFunctionEndAccess
p1565
(dp1566
g162
(lp1567
(idelphi
DelphiStringAccess
p1568
(dp1569
g158
(lp1570
sg31
(idelphi
DelphiStringValue
p1571
(dp1572
g31
S''
sbsbasbasbsba(i__main__
DelphiAssignStatement
p1573
(dp1574
g152
Nsg153
(i__main__
DelphiIdentAccess
p1575
(dp1576
g156
S'java'
p1577
sg158
(lp1578
(idelphi
DelphiFunctionEndAccess
p1579
(dp1580
g162
(lp1581
(idelphi
DelphiStringAccess
p1582
(dp1583
g158
(lp1584
sg31
(idelphi
DelphiStringValue
p1585
(dp1586
g31
S'  void SHComputeSatisfiedRules()'
p1587
sbsbasbasbsba(i__main__
DelphiAssignStatement
p1588
(dp1589
g152
Nsg153
(i__main__
DelphiIdentAccess
p1590
(dp1591
g156
S'java'
p1592
sg158
(lp1593
(idelphi
DelphiFunctionEndAccess
p1594
(dp1595
g162
(lp1596
(idelphi
DelphiStringAccess
p1597
(dp1598
g158
(lp1599
sg31
(idelphi
DelphiStringValue
p1600
(dp1601
g31
S'    {'
p1602
sbsbasbasbsba(idelphi
DelphiForStatement
p1603
(dp1604
g546
S'i'
sg547
(idelphi
DelphiAddOp
p1605
(dp1606
g200
S'-'
sg202
(idelphi
DelphiIntegerValue
p1607
(dp1608
g31
S'1'
sbsg228
(i__main__
DelphiIdentAccess
p1609
(dp1610
g156
S'domain'
p1611
sg158
(lp1612
(idelphi
DelphiFieldEndAccess
p1613
(dp1614
g216
S'world'
p1615
sba(idelphi
DelphiFieldEndAccess
p1616
(dp1617
g216
S'rules'
p1618
sba(idelphi
DelphiFieldEndAccess
p1619
(dp1620
g216
S'count'
p1621
sbasbsbsg562
g563
sg23
(idelphi
DelphiIntegerValue
p1622
(dp1623
g31
S'0'
sbsg372
(idelphi
DelphiCompoundStatement
p1624
(dp1625
g148
(lp1626
(i__main__
DelphiAssignStatement
p1627
(dp1628
g152
(i__main__
DelphiIdentAccess
p1629
(dp1630
g156
S'TSRule'
p1631
sg158
(lp1632
(idelphi
DelphiFunctionEndAccess
p1633
(dp1634
g162
(lp1635
(i__main__
DelphiIdentAccess
p1636
(dp1637
g156
S'domain'
p1638
sg158
(lp1639
(idelphi
DelphiFieldEndAccess
p1640
(dp1641
g216
S'world'
p1642
sba(idelphi
DelphiFieldEndAccess
p1643
(dp1644
g216
S'rules'
p1645
sba(idelphi
DelphiArrayEndAccess
p1646
(dp1647
g162
(lp1648
(i__main__
DelphiIdentAccess
p1649
(dp1650
g156
S'i'
sg158
(lp1651
sbasbasbasbasbsg153
(i__main__
DelphiIdentAccess
p1652
(dp1653
g156
S'rule'
p1654
sg158
(lp1655
sbsba(i__main__
DelphiAssignStatement
p1656
(dp1657
g152
Nsg153
(i__main__
DelphiIdentAccess
p1658
(dp1659
g156
S'java'
p1660
sg158
(lp1661
(idelphi
DelphiFunctionEndAccess
p1662
(dp1663
g162
(lp1664
(idelphi
DelphiAddOp
p1665
(dp1666
g200
S'+'
sg202
(idelphi
DelphiStringAccess
p1667
(dp1668
g158
(lp1669
sg31
(idelphi
DelphiStringValue
p1670
(dp1671
g31
S';'
sbsbsg228
(idelphi
DelphiAddOp
p1672
(dp1673
g200
S'+'
sg202
(i__main__
DelphiIdentAccess
p1674
(dp1675
g156
S'logicalStatementForRule'
p1676
sg158
(lp1677
(idelphi
DelphiFunctionEndAccess
p1678
(dp1679
g162
(lp1680
(i__main__
DelphiIdentAccess
p1681
(dp1682
g156
S'rule'
p1683
sg158
(lp1684
sbasbasbsg228
(idelphi
DelphiAddOp
p1685
(dp1686
g200
S'+'
sg202
(idelphi
DelphiStringAccess
p1687
(dp1688
g158
(lp1689
sg31
(idelphi
DelphiStringValue
p1690
(dp1691
g31
S'] = '
p1692
sbsbsg228
(idelphi
DelphiAddOp
p1693
(dp1694
g200
S'+'
sg202
(i__main__
DelphiIdentAccess
p1695
(dp1696
g156
S'IntToStr'
p1697
sg158
(lp1698
(idelphi
DelphiFunctionEndAccess
p1699
(dp1700
g162
(lp1701
(i__main__
DelphiIdentAccess
p1702
(dp1703
g156
S'i'
sg158
(lp1704
sbasbasbsg228
(idelphi
DelphiStringAccess
p1705
(dp1706
g158
(lp1707
sg31
(idelphi
DelphiStringValue
p1708
(dp1709
g31
S'    ruleSatisfied['
p1710
sbsbsbsbsbsbasbasbsbasbsba(i__main__
DelphiAssignStatement
p1711
(dp1712
g152
Nsg153
(i__main__
DelphiIdentAccess
p1713
(dp1714
g156
S'java'
p1715
sg158
(lp1716
(idelphi
DelphiFunctionEndAccess
p1717
(dp1718
g162
(lp1719
(idelphi
DelphiStringAccess
p1720
(dp1721
g158
(lp1722
sg31
(idelphi
DelphiStringValue
p1723
(dp1724
g31
S'    }'
p1725
sbsbasbasbsba(i__main__
DelphiAssignStatement
p1726
(dp1727
g152
Nsg153
(i__main__
DelphiIdentAccess
p1728
(dp1729
g156
S'java'
p1730
sg158
(lp1731
(idelphi
DelphiFunctionEndAccess
p1732
(dp1733
g162
(lp1734
(idelphi
DelphiStringAccess
p1735
(dp1736
g158
(lp1737
sg31
(idelphi
DelphiStringValue
p1738
(dp1739
g31
S''
sbsbasbasbsba(i__main__
DelphiAssignStatement
p1740
(dp1741
g152
Nsg153
(i__main__
DelphiIdentAccess
p1742
(dp1743
g156
S'java'
p1744
sg158
(lp1745
(idelphi
DelphiFunctionEndAccess
p1746
(dp1747
g162
(lp1748
(idelphi
DelphiStringAccess
p1749
(dp1750
g158
(lp1751
sg31
(idelphi
DelphiStringValue
p1752
(dp1753
g31
S'  void SHAddAvailableCommands()'
p1754
sbsbasbasbsba(i__main__
DelphiAssignStatement
p1755
(dp1756
g152
Nsg153
(i__main__
DelphiIdentAccess
p1757
(dp1758
g156
S'java'
p1759
sg158
(lp1760
(idelphi
DelphiFunctionEndAccess
p1761
(dp1762
g162
(lp1763
(idelphi
DelphiStringAccess
p1764
(dp1765
g158
(lp1766
sg31
(idelphi
DelphiStringValue
p1767
(dp1768
g31
S'    {'
p1769
sbsbasbasbsba(idelphi
DelphiForStatement
p1770
(dp1771
g546
S'i'
sg547
(idelphi
DelphiAddOp
p1772
(dp1773
g200
S'-'
sg202
(idelphi
DelphiIntegerValue
p1774
(dp1775
g31
S'1'
sbsg228
(i__main__
DelphiIdentAccess
p1776
(dp1777
g156
S'domain'
p1778
sg158
(lp1779
(idelphi
DelphiFieldEndAccess
p1780
(dp1781
g216
S'world'
p1782
sba(idelphi
DelphiFieldEndAccess
p1783
(dp1784
g216
S'rules'
p1785
sba(idelphi
DelphiFieldEndAccess
p1786
(dp1787
g216
S'count'
p1788
sbasbsbsg562
g563
sg23
(idelphi
DelphiIntegerValue
p1789
(dp1790
g31
S'0'
sbsg372
(idelphi
DelphiCompoundStatement
p1791
(dp1792
g148
(lp1793
(i__main__
DelphiAssignStatement
p1794
(dp1795
g152
(i__main__
DelphiIdentAccess
p1796
(dp1797
g156
S'TSRule'
p1798
sg158
(lp1799
(idelphi
DelphiFunctionEndAccess
p1800
(dp1801
g162
(lp1802
(i__main__
DelphiIdentAccess
p1803
(dp1804
g156
S'domain'
p1805
sg158
(lp1806
(idelphi
DelphiFieldEndAccess
p1807
(dp1808
g216
S'world'
p1809
sba(idelphi
DelphiFieldEndAccess
p1810
(dp1811
g216
S'rules'
p1812
sba(idelphi
DelphiArrayEndAccess
p1813
(dp1814
g162
(lp1815
(i__main__
DelphiIdentAccess
p1816
(dp1817
g156
S'i'
sg158
(lp1818
sbasbasbasbasbsg153
(i__main__
DelphiIdentAccess
p1819
(dp1820
g156
S'rule'
p1821
sg158
(lp1822
sbsba(i__main__
DelphiAssignStatement
p1823
(dp1824
g152
(i__main__
DelphiIdentAccess
p1825
(dp1826
g156
S'IntToStr'
p1827
sg158
(lp1828
(idelphi
DelphiFunctionEndAccess
p1829
(dp1830
g162
(lp1831
(i__main__
DelphiIdentAccess
p1832
(dp1833
g156
S'rule'
p1834
sg158
(lp1835
(idelphi
DelphiFieldEndAccess
p1836
(dp1837
g216
S'command'
p1838
sba(idelphi
DelphiFieldEndAccess
p1839
(dp1840
g216
S'indexInVariables'
p1841
sbasbasbasbsg153
(i__main__
DelphiIdentAccess
p1842
(dp1843
g156
S'varies'
p1844
sg158
(lp1845
sbsba(i__main__
DelphiAssignStatement
p1846
(dp1847
g152
Nsg153
(i__main__
DelphiIdentAccess
p1848
(dp1849
g156
S'java'
p1850
sg158
(lp1851
(idelphi
DelphiFunctionEndAccess
p1852
(dp1853
g162
(lp1854
(idelphi
DelphiAddOp
p1855
(dp1856
g200
S'+'
sg202
(idelphi
DelphiStringAccess
p1857
(dp1858
g158
(lp1859
sg31
(idelphi
DelphiStringValue
p1860
(dp1861
g31
S');'
p1862
sbsbsg228
(idelphi
DelphiAddOp
p1863
(dp1864
g200
S'+'
sg202
(i__main__
DelphiIdentAccess
p1865
(dp1866
g156
S'varies'
p1867
sg158
(lp1868
sbsg228
(idelphi
DelphiAddOp
p1869
(dp1870
g200
S'+'
sg202
(idelphi
DelphiStringAccess
p1871
(dp1872
g158
(lp1873
sg31
(idelphi
DelphiStringValue
p1874
(dp1875
g31
S']) addCommand('
p1876
sbsbsg228
(idelphi
DelphiAddOp
p1877
(dp1878
g200
S'+'
sg202
(i__main__
DelphiIdentAccess
p1879
(dp1880
g156
S'IntToStr'
p1881
sg158
(lp1882
(idelphi
DelphiFunctionEndAccess
p1883
(dp1884
g162
(lp1885
(i__main__
DelphiIdentAccess
p1886
(dp1887
g156
S'i'
sg158
(lp1888
sbasbasbsg228
(idelphi
DelphiStringAccess
p1889
(dp1890
g158
(lp1891
sg31
(idelphi
DelphiStringValue
p1892
(dp1893
g31
S'    if (ruleSatisfied['
p1894
sbsbsbsbsbsbasbasbsbasbsba(i__main__
DelphiAssignStatement
p1895
(dp1896
g152
Nsg153
(i__main__
DelphiIdentAccess
p1897
(dp1898
g156
S'java'
p1899
sg158
(lp1900
(idelphi
DelphiFunctionEndAccess
p1901
(dp1902
g162
(lp1903
(idelphi
DelphiStringAccess
p1904
(dp1905
g158
(lp1906
sg31
(idelphi
DelphiStringValue
p1907
(dp1908
g31
S'    }'
p1909
sbsbasbasbsba(i__main__
DelphiAssignStatement
p1910
(dp1911
g152
Nsg153
(i__main__
DelphiIdentAccess
p1912
(dp1913
g156
S'java'
p1914
sg158
(lp1915
(idelphi
DelphiFunctionEndAccess
p1916
(dp1917
g162
(lp1918
(idelphi
DelphiStringAccess
p1919
(dp1920
g158
(lp1921
sg31
(idelphi
DelphiStringValue
p1922
(dp1923
g31
S''
sbsbasbasbsba(i__main__
DelphiAssignStatement
p1924
(dp1925
g152
Nsg153
(i__main__
DelphiIdentAccess
p1926
(dp1927
g156
S'java'
p1928
sg158
(lp1929
(idelphi
DelphiFunctionEndAccess
p1930
(dp1931
g162
(lp1932
(idelphi
DelphiStringAccess
p1933
(dp1934
g158
(lp1935
sg31
(idelphi
DelphiStringValue
p1936
(dp1937
g31
S'  void SHDoCommand(int command)'
p1938
sbsbasbasbsba(i__main__
DelphiAssignStatement
p1939
(dp1940
g152
Nsg153
(i__main__
DelphiIdentAccess
p1941
(dp1942
g156
S'java'
p1943
sg158
(lp1944
(idelphi
DelphiFunctionEndAccess
p1945
(dp1946
g162
(lp1947
(idelphi
DelphiStringAccess
p1948
(dp1949
g158
(lp1950
sg31
(idelphi
DelphiStringValue
p1951
(dp1952
g31
S'    {'
p1953
sbsbasbasbsba(idelphi
DelphiForStatement
p1954
(dp1955
g546
S'i'
sg547
(idelphi
DelphiAddOp
p1956
(dp1957
g200
S'-'
sg202
(idelphi
DelphiIntegerValue
p1958
(dp1959
g31
S'1'
sbsg228
(i__main__
DelphiIdentAccess
p1960
(dp1961
g156
S'domain'
p1962
sg158
(lp1963
(idelphi
DelphiFieldEndAccess
p1964
(dp1965
g216
S'world'
p1966
sba(idelphi
DelphiFieldEndAccess
p1967
(dp1968
g216
S'rules'
p1969
sba(idelphi
DelphiFieldEndAccess
p1970
(dp1971
g216
S'count'
p1972
sbasbsbsg562
g563
sg23
(idelphi
DelphiIntegerValue
p1973
(dp1974
g31
S'0'
sbsg372
(idelphi
DelphiCompoundStatement
p1975
(dp1976
g148
(lp1977
(i__main__
DelphiAssignStatement
p1978
(dp1979
g152
(i__main__
DelphiIdentAccess
p1980
(dp1981
g156
S'TSRule'
p1982
sg158
(lp1983
(idelphi
DelphiFunctionEndAccess
p1984
(dp1985
g162
(lp1986
(i__main__
DelphiIdentAccess
p1987
(dp1988
g156
S'domain'
p1989
sg158
(lp1990
(idelphi
DelphiFieldEndAccess
p1991
(dp1992
g216
S'world'
p1993
sba(idelphi
DelphiFieldEndAccess
p1994
(dp1995
g216
S'rules'
p1996
sba(idelphi
DelphiArrayEndAccess
p1997
(dp1998
g162
(lp1999
(i__main__
DelphiIdentAccess
p2000
(dp2001
g156
S'i'
sg158
(lp2002
sbasbasbasbasbsg153
(i__main__
DelphiIdentAccess
p2003
(dp2004
g156
S'rule'
p2005
sg158
(lp2006
sbsba(i__main__
DelphiAssignStatement
p2007
(dp2008
g152
(i__main__
DelphiIdentAccess
p2009
(dp2010
g156
S'IntToStr'
p2011
sg158
(lp2012
(idelphi
DelphiFunctionEndAccess
p2013
(dp2014
g162
(lp2015
(i__main__
DelphiIdentAccess
p2016
(dp2017
g156
S'rule'
p2018
sg158
(lp2019
(idelphi
DelphiFieldEndAccess
p2020
(dp2021
g216
S'command'
p2022
sba(idelphi
DelphiFieldEndAccess
p2023
(dp2024
g216
S'indexInVariables'
p2025
sbasbasbasbsg153
(i__main__
DelphiIdentAccess
p2026
(dp2027
g156
S'varies'
p2028
sg158
(lp2029
sbsba(i__main__
DelphiAssignStatement
p2030
(dp2031
g152
Nsg153
(i__main__
DelphiIdentAccess
p2032
(dp2033
g156
S'java'
p2034
sg158
(lp2035
(idelphi
DelphiFunctionEndAccess
p2036
(dp2037
g162
(lp2038
(idelphi
DelphiAddOp
p2039
(dp2040
g200
S'+'
sg202
(idelphi
DelphiStringAccess
p2041
(dp2042
g158
(lp2043
sg31
(idelphi
DelphiStringValue
p2044
(dp2045
g31
S'])'
p2046
sbsbsg228
(idelphi
DelphiAddOp
p2047
(dp2048
g200
S'+'
sg202
(i__main__
DelphiIdentAccess
p2049
(dp2050
g156
S'IntToStr'
p2051
sg158
(lp2052
(idelphi
DelphiFunctionEndAccess
p2053
(dp2054
g162
(lp2055
(i__main__
DelphiIdentAccess
p2056
(dp2057
g156
S'i'
sg158
(lp2058
sbasbasbsg228
(idelphi
DelphiAddOp
p2059
(dp2060
g200
S'+'
sg202
(idelphi
DelphiStringAccess
p2061
(dp2062
g158
(lp2063
sg31
(idelphi
DelphiStringValue
p2064
(dp2065
g31
S' && ruleSatisfied['
p2066
sbsbsg228
(idelphi
DelphiAddOp
p2067
(dp2068
g200
S'+'
sg202
(i__main__
DelphiIdentAccess
p2069
(dp2070
g156
S'varies'
p2071
sg158
(lp2072
sbsg228
(idelphi
DelphiStringAccess
p2073
(dp2074
g158
(lp2075
sg31
(idelphi
DelphiStringValue
p2076
(dp2077
g31
S'    if (command == '
p2078
sbsbsbsbsbsbasbasbsba(i__main__
DelphiAssignStatement
p2079
(dp2080
g152
Nsg153
(i__main__
DelphiIdentAccess
p2081
(dp2082
g156
S'java'
p2083
sg158
(lp2084
(idelphi
DelphiFunctionEndAccess
p2085
(dp2086
g162
(lp2087
(idelphi
DelphiStringAccess
p2088
(dp2089
g158
(lp2090
sg31
(idelphi
DelphiStringValue
p2091
(dp2092
g31
S'      {'
p2093
sbsbasbasbsba(i__main__
DelphiAssignStatement
p2094
(dp2095
g152
Nsg153
(i__main__
DelphiIdentAccess
p2096
(dp2097
g156
S'java'
p2098
sg158
(lp2099
(idelphi
DelphiFunctionEndAccess
p2100
(dp2101
g162
(lp2102
(idelphi
DelphiAddOp
p2103
(dp2104
g200
S'+'
sg202
(idelphi
DelphiStringAccess
p2105
(dp2106
g158
(lp2107
sg31
(idelphi
DelphiStringValue
p2108
(dp2109
g31
S'");'
p2110
sbsbsg228
(idelphi
DelphiAddOp
p2111
(dp2112
g200
S'+'
sg202
(i__main__
DelphiIdentAccess
p2113
(dp2114
g156
S'specialHandlingForReply'
p2115
sg158
(lp2116
(idelphi
DelphiFunctionEndAccess
p2117
(dp2118
g162
(lp2119
(i__main__
DelphiIdentAccess
p2120
(dp2121
g156
S'rule'
p2122
sg158
(lp2123
(idelphi
DelphiFieldEndAccess
p2124
(dp2125
g216
S'reply'
p2126
sbasbasbasbsg228
(idelphi
DelphiStringAccess
p2127
(dp2128
g158
(lp2129
sg31
(idelphi
DelphiStringValue
p2130
(dp2131
g31
S'      reply("'
p2132
sbsbsbsbasbasbsba(i__main__
DelphiAssignStatement
p2133
(dp2134
g152
Nsg153
(i__main__
DelphiIdentAccess
p2135
(dp2136
g156
S'self'
p2137
sg158
(lp2138
(idelphi
DelphiFieldEndAccess
p2139
(dp2140
g216
S'writeChangesForRule'
p2141
sba(idelphi
DelphiFunctionEndAccess
p2142
(dp2143
g162
(lp2144
(i__main__
DelphiIdentAccess
p2145
(dp2146
g156
S'rule'
p2147
sg158
(lp2148
sbasbasbsba(i__main__
DelphiAssignStatement
p2149
(dp2150
g152
Nsg153
(i__main__
DelphiIdentAccess
p2151
(dp2152
g156
S'java'
p2153
sg158
(lp2154
(idelphi
DelphiFunctionEndAccess
p2155
(dp2156
g162
(lp2157
(idelphi
DelphiStringAccess
p2158
(dp2159
g158
(lp2160
sg31
(idelphi
DelphiStringValue
p2161
(dp2162
g31
S'      }'
p2163
sbsbasbasbsbasbsba(i__main__
DelphiAssignStatement
p2164
(dp2165
g152
Nsg153
(i__main__
DelphiIdentAccess
p2166
(dp2167
g156
S'java'
p2168
sg158
(lp2169
(idelphi
DelphiFunctionEndAccess
p2170
(dp2171
g162
(lp2172
(idelphi
DelphiStringAccess
p2173
(dp2174
g158
(lp2175
sg31
(idelphi
DelphiStringValue
p2176
(dp2177
g31
S'    }'
p2178
sbsbasbasbsba(i__main__
DelphiAssignStatement
p2179
(dp2180
g152
Nsg153
(i__main__
DelphiIdentAccess
p2181
(dp2182
g156
S'java'
p2183
sg158
(lp2184
(idelphi
DelphiFunctionEndAccess
p2185
(dp2186
g162
(lp2187
(idelphi
DelphiStringAccess
p2188
(dp2189
g158
(lp2190
sg31
(idelphi
DelphiStringValue
p2191
(dp2192
g31
S''
sbsbasbasbsba(i__main__
DelphiAssignStatement
p2193
(dp2194
g152
Nsg153
(i__main__
DelphiIdentAccess
p2195
(dp2196
g156
S'java'
p2197
sg158
(lp2198
(idelphi
DelphiFunctionEndAccess
p2199
(dp2200
g162
(lp2201
(idelphi
DelphiStringAccess
p2202
(dp2203
g158
(lp2204
sg31
(idelphi
DelphiStringValue
p2205
(dp2206
g31
S'  }'
p2207
sbsbasbasbsbasbsg172
(lp2208
(i__main__
DelphiVarSection
p2209
(dp2210
g502
I0
sg503
(lp2211
(idelphi
DelphiVarDecl
p2212
(dp2213
g507
Nsg508
(lp2214
S'firstRule'
p2215
aS'rule'
p2216
asg27
(i__main__
DelphiNamedType
p2217
(dp2218
g30
S'TSRule'
p2219
sg61
g1
sg62
Nsbsba(idelphi
DelphiVarDecl
p2220
(dp2221
g507
Nsg508
(lp2222
S'varies'
p2223
asg27
(i__main__
DelphiPrimitiveType
p2224
(dp2225
g30
g31
sbsba(idelphi
DelphiVarDecl
p2226
(dp2227
g507
Nsg508
(lp2228
S'i'
asg27
(i__main__
DelphiPrimitiveType
p2229
(dp2230
g30
g780
sbsbasbasbsbsS'logicalstatementforrule'
p2231
(i__main__
DelphiMethodImplementation
p2232
(dp2233
g122
g85
sg11
g87
sg19
(lp2234
(i__main__
DelphiFormalParameter
p2235
(dp2236
g23
Nsg24
(lp2237
S'rule'
p2238
asg27
(i__main__
DelphiNamedType
p2239
(dp2240
g30
S'TSRule'
p2241
sg61
g1
sg62
Nsbsg32
Nsbasg130
(lp2242
sg132
(lp2243
sg134
(lp2244
g136
ag2238
asg137
(dp2245
g2238
g2239
ssg33
S'TSJavaWriter'
p2246
sg34
(i__main__
DelphiPrimitiveType
p2247
(dp2248
g30
g31
sbsg140
(lp2249
sg35
I0
sg36
g65
sg142
(i__main__
DelphiBlock
p2250
(dp2251
g145
(idelphi
DelphiCompoundStatement
p2252
(dp2253
g148
(lp2254
(i__main__
DelphiAssignStatement
p2255
(dp2256
g152
(idelphi
DelphiAddOp
p2257
(dp2258
g200
S'+'
sg202
(idelphi
DelphiStringAccess
p2259
(dp2260
g158
(lp2261
sg31
(idelphi
DelphiStringValue
p2262
(dp2263
g31
S']'
sbsbsg228
(idelphi
DelphiAddOp
p2264
(dp2265
g200
S'+'
sg202
(i__main__
DelphiIdentAccess
p2266
(dp2267
g156
S'IntToStr'
p2268
sg158
(lp2269
(idelphi
DelphiFunctionEndAccess
p2270
(dp2271
g162
(lp2272
(i__main__
DelphiIdentAccess
p2273
(dp2274
g156
S'rule'
p2275
sg158
(lp2276
(idelphi
DelphiFieldEndAccess
p2277
(dp2278
g216
S'context'
p2279
sba(idelphi
DelphiFieldEndAccess
p2280
(dp2281
g216
S'indexInVariables'
p2282
sbasbasbasbsg228
(idelphi
DelphiStringAccess
p2283
(dp2284
g158
(lp2285
sg31
(idelphi
DelphiStringValue
p2286
(dp2287
g31
S'variableValue['
p2288
sbsbsbsbsg153
(i__main__
DelphiIdentAccess
p2289
(dp2290
g156
S'result'
p2291
sg158
(lp2292
sbsba(idelphi
DelphiForStatement
p2293
(dp2294
g546
S'i'
sg547
(idelphi
DelphiAddOp
p2295
(dp2296
g200
S'-'
sg202
(idelphi
DelphiIntegerValue
p2297
(dp2298
g31
S'1'
sbsg228
(i__main__
DelphiIdentAccess
p2299
(dp2300
g156
S'rule'
p2301
sg158
(lp2302
(idelphi
DelphiFieldEndAccess
p2303
(dp2304
g216
S'requirements'
p2305
sba(idelphi
DelphiFieldEndAccess
p2306
(dp2307
g216
S'count'
p2308
sbasbsbsg562
g563
sg23
(idelphi
DelphiIntegerValue
p2309
(dp2310
g31
S'0'
sbsg372
(idelphi
DelphiCompoundStatement
p2311
(dp2312
g148
(lp2313
(i__main__
DelphiAssignStatement
p2314
(dp2315
g152
(idelphi
DelphiAddOp
p2316
(dp2317
g200
S'+'
sg202
(idelphi
DelphiStringAccess
p2318
(dp2319
g158
(lp2320
sg31
(idelphi
DelphiStringValue
p2321
(dp2322
g31
S' && '
p2323
sbsbsg228
(i__main__
DelphiIdentAccess
p2324
(dp2325
g156
S'result'
p2326
sg158
(lp2327
sbsbsg153
(i__main__
DelphiIdentAccess
p2328
(dp2329
g156
S'result'
p2330
sg158
(lp2331
sbsba(i__main__
DelphiAssignStatement
p2332
(dp2333
g152
(i__main__
DelphiIdentAccess
p2334
(dp2335
g156
S'TSDesiredStateVariableWrapper'
p2336
sg158
(lp2337
(idelphi
DelphiFunctionEndAccess
p2338
(dp2339
g162
(lp2340
(i__main__
DelphiIdentAccess
p2341
(dp2342
g156
S'rule'
p2343
sg158
(lp2344
(idelphi
DelphiFieldEndAccess
p2345
(dp2346
g216
S'requirements'
p2347
sba(idelphi
DelphiFieldEndAccess
p2348
(dp2349
g216
S'items'
p2350
sba(idelphi
DelphiArrayEndAccess
p2351
(dp2352
g162
(lp2353
(i__main__
DelphiIdentAccess
p2354
(dp2355
g156
S'i'
sg158
(lp2356
sbasbasbasbasbsg153
(i__main__
DelphiIdentAccess
p2357
(dp2358
g156
S'wrapper'
p2359
sg158
(lp2360
sbsba(idelphi
DelphiIfStatement
p2361
(dp2362
g197
(idelphi
DelphiRelOp
p2363
(dp2364
g209
(i__main__
DelphiIdentAccess
p2365
(dp2366
g156
S'wrapper'
p2367
sg158
(lp2368
(idelphi
DelphiFieldEndAccess
p2369
(dp2370
g216
S'desiredState'
p2371
sbasbsg224
(i__main__
DelphiIdentAccess
p2372
(dp2373
g156
S'kAbsent'
p2374
sg158
(lp2375
sbsg227
S'='
sbsg250
Nsg251
(i__main__
DelphiAssignStatement
p2376
(dp2377
g152
(idelphi
DelphiAddOp
p2378
(dp2379
g200
S'+'
sg202
(idelphi
DelphiStringAccess
p2380
(dp2381
g158
(lp2382
sg31
(idelphi
DelphiStringValue
p2383
(dp2384
g31
S'!'
sbsbsg228
(i__main__
DelphiIdentAccess
p2385
(dp2386
g156
S'result'
p2387
sg158
(lp2388
sbsbsg153
(i__main__
DelphiIdentAccess
p2389
(dp2390
g156
S'result'
p2391
sg158
(lp2392
sbsbsba(i__main__
DelphiAssignStatement
p2393
(dp2394
g152
(idelphi
DelphiAddOp
p2395
(dp2396
g200
S'+'
sg202
(idelphi
DelphiStringAccess
p2397
(dp2398
g158
(lp2399
sg31
(idelphi
DelphiStringValue
p2400
(dp2401
g31
S']'
sbsbsg228
(idelphi
DelphiAddOp
p2402
(dp2403
g200
S'+'
sg202
(i__main__
DelphiIdentAccess
p2404
(dp2405
g156
S'IntToStr'
p2406
sg158
(lp2407
(idelphi
DelphiFunctionEndAccess
p2408
(dp2409
g162
(lp2410
(i__main__
DelphiIdentAccess
p2411
(dp2412
g156
S'wrapper'
p2413
sg158
(lp2414
(idelphi
DelphiFieldEndAccess
p2415
(dp2416
g216
S'variable'
p2417
sba(idelphi
DelphiFieldEndAccess
p2418
(dp2419
g216
S'indexInVariables'
p2420
sbasbasbasbsg228
(idelphi
DelphiAddOp
p2421
(dp2422
g200
S'+'
sg202
(idelphi
DelphiStringAccess
p2423
(dp2424
g158
(lp2425
sg31
(idelphi
DelphiStringValue
p2426
(dp2427
g31
S'variableValue['
p2428
sbsbsg228
(i__main__
DelphiIdentAccess
p2429
(dp2430
g156
S'result'
p2431
sg158
(lp2432
sbsbsbsbsg153
(i__main__
DelphiIdentAccess
p2433
(dp2434
g156
S'result'
p2435
sg158
(lp2436
sbsbasbsbasbsg172
(lp2437
(i__main__
DelphiVarSection
p2438
(dp2439
g502
I0
sg503
(lp2440
(idelphi
DelphiVarDecl
p2441
(dp2442
g507
Nsg508
(lp2443
S'i'
asg27
(i__main__
DelphiPrimitiveType
p2444
(dp2445
g30
g780
sbsba(idelphi
DelphiVarDecl
p2446
(dp2447
g507
Nsg508
(lp2448
S'wrapper'
p2449
asg27
(i__main__
DelphiNamedType
p2450
(dp2451
g30
S'TSDesiredStateVariableWrapper'
p2452
sg61
g1
sg62
NsbsbasbasbsbssS'propertyDeclarations'
p2453
(dp2454
sS'variableNamesInDeclaredOrder'
p2455
(lp2456
g10
asbasS'includedUnits'
p2457
NsS'implementationUses'
p2458
Nsg11
S'usjavawriter'
p2459
sS'constSections'
p2460
(lp2461
sS'globalsInProperCase'
p2462
NsS'interfaceUses'
p2463
(lp2464
S'delphi_compatability'
p2465
aS'Dialogs'
p2466
aS'SysUtils'
p2467
aS'Forms'
p2468
aS'USDomain'
p2469
aS'USWorld'
p2470
asS'finalCommentToken'
p2471
(i__main__
PassStatement
p2472
(dp2473
g172
(lp2474
sbsS'varSections'
p2475
(lp2476
sS'globals'
p2477
NsS'originalFileName'
p2478
S'../../storyharp-js/converted_source/usjavawriter.pas'
p2479
sS'proceduralImplementations'
p2480
(dp2481
sS'fileName'
p2482
S'/home/pdfernhout/workspace/storyharp-js/converted_source/usjavawriter.pas'
p2483
sS'proceduralDeclarations'
p2484
(dp2485
sS'types'
p2486
(dp2487
S'tsjavawriter'
p2488
g5
ssb.