(i__main__
DelphiUnit
p1
(dp2
S'sectionsInOrderDefined'
p3
(lp4
(i__main__
DelphiClass
p5
(dp6
S'variableNamesInProperCase'
p7
(dp8
S'backwardreplyimage'
p9
S'backwardReplyImage'
p10
sS'secondcontextbox'
p11
S'SecondContextBox'
p12
sS'forwardreplyimage'
p13
S'forwardReplyImage'
p14
sS'cancel'
p15
S'cancel'
p16
sS'forwardmemo'
p17
S'ForwardMemo'
p18
sS'label19'
p19
S'Label19'
p20
sS'gonext'
p21
S'goNext'
p22
sS'label12'
p23
S'Label12'
p24
sS'label13'
p25
S'Label13'
p26
sS'label10'
p27
S'Label10'
p28
sS'label11'
p29
S'Label11'
p30
sS'label15'
p31
S'Label15'
p32
sS'label17'
p33
S'Label17'
p34
sS'label14'
p35
S'Label14'
p36
sS'forwardreplyarrow'
p37
S'forwardReplyArrow'
p38
sS'backwardreplynote'
p39
S'backwardReplyNote'
p40
sS'helpbutton'
p41
S'helpButton'
p42
sS'backwardlabel'
p43
S'BackwardLabel'
p44
sS'forwardsummary'
p45
S'forwardSummary'
p46
sS'label16'
p47
S'Label16'
p48
sS'backwardcommandimage'
p49
S'backwardCommandImage'
p50
sS'backwardedit'
p51
S'BackwardEdit'
p52
sS'label1'
p53
S'Label1'
p54
sS'replystartpageimage'
p55
S'replyStartPageImage'
p56
sS'secondcontextimage'
p57
S'secondContextImage'
p58
sS'label8'
p59
S'Label8'
p60
sS'label9'
p61
S'Label9'
p62
sS'contextstartpageimage'
p63
S'contextStartPageImage'
p64
sS'label3'
p65
S'Label3'
p66
sS'forwardreplynote'
p67
S'forwardReplyNote'
p68
sS'goback'
p69
S'goBack'
p70
sS'label2'
p71
S'Label2'
p72
sS'backwardreplylabel'
p73
S'backwardReplyLabel'
p74
sS'label4'
p75
S'Label4'
p76
sS'firstcontextbox'
p77
S'FirstContextBox'
p78
sS'label6'
p79
S'Label6'
p80
sS'label5'
p81
S'Label5'
p82
sS'generated'
p83
S'generated'
p84
sS'notebook'
p85
S'notebook'
p86
sS'label26'
p87
S'Label26'
p88
sS'image3'
p89
S'Image3'
p90
sS'image2'
p91
S'Image2'
p92
sS'image1'
p93
S'Image1'
p94
sS'label7'
p95
S'Label7'
p96
sS'forwardreplylabel'
p97
S'forwardReplyLabel'
p98
sS'image6'
p99
S'Image6'
p100
sS'image4'
p101
S'Image4'
p102
sS'backwardreplyarrow'
p103
S'backwardReplyArrow'
p104
sS'backwardsummary'
p105
S'backwardSummary'
p106
sS'firstcontextimage'
p107
S'firstContextImage'
p108
sS'forwardcommandimage'
p109
S'forwardCommandImage'
p110
sS'forwardlabel'
p111
S'ForwardLabel'
p112
sS'label18'
p113
S'Label18'
p114
sS'backwardmemo'
p115
S'BackwardMemo'
p116
sS'image8'
p117
S'Image8'
p118
sS'forwardedit'
p119
S'ForwardEdit'
p120
sS'commandstartpageimage'
p121
S'commandStartPageImage'
p122
ssS'name'
p123
S'TLinkWizardForm'
p124
sS'methodDeclarations'
p125
(dp126
S'helpbuttonclick'
p127
(i__main__
DelphiMethodDeclaration
p128
(dp129
g123
S'helpButtonClick'
p130
sS'formalParameters'
p131
(lp132
(i__main__
DelphiFormalParameter
p133
(dp134
S'initialValue'
p135
NsS'names'
p136
(lp137
S'Sender'
p138
asS'theType'
p139
(i__main__
DelphiNamedType
p140
(dp141
S'typeName'
p142
S'TObject'
p143
sS'unitDefinedIn'
p144
g1
sS'unitName'
p145
NsbsS'parameterVariety'
p146
NsbasS'className'
p147
g124
sS'resultType'
p148
NsS'isClassMethod'
p149
I0
sS'methodType'
p150
S'procedure'
p151
sbsS'notebookpagechanged'
p152
(i__main__
DelphiMethodDeclaration
p153
(dp154
g123
S'notebookPageChanged'
p155
sg131
(lp156
(i__main__
DelphiFormalParameter
p157
(dp158
g135
Nsg136
(lp159
S'Sender'
p160
asg139
(i__main__
DelphiNamedType
p161
(dp162
g142
S'TObject'
p163
sg144
g1
sg145
Nsbsg146
Nsbasg147
g124
sg148
Nsg149
I0
sg150
g151
sbsS'cancelclick'
p164
(i__main__
DelphiMethodDeclaration
p165
(dp166
g123
S'cancelClick'
p167
sg131
(lp168
(i__main__
DelphiFormalParameter
p169
(dp170
g135
Nsg136
(lp171
S'Sender'
p172
asg139
(i__main__
DelphiNamedType
p173
(dp174
g142
S'TObject'
p175
sg144
g1
sg145
Nsbsg146
Nsbasg147
g124
sg148
Nsg149
I0
sg150
g151
sbsS'formactivate'
p176
(i__main__
DelphiMethodDeclaration
p177
(dp178
g123
S'FormActivate'
p179
sg131
(lp180
(i__main__
DelphiFormalParameter
p181
(dp182
g135
Nsg136
(lp183
S'Sender'
p184
asg139
(i__main__
DelphiNamedType
p185
(dp186
g142
S'TObject'
p187
sg144
g1
sg145
Nsbsg146
Nsbasg147
g124
sg148
Nsg149
I0
sg150
g151
sbsS'secondcontext'
p188
(i__main__
DelphiMethodDeclaration
p189
(dp190
g123
S'secondContext'
p191
sg131
(lp192
sg147
g124
sg148
(i__main__
DelphiPrimitiveType
p193
(dp194
g142
S'string'
p195
sbsg149
I0
sg150
S'function'
p196
sbsS'forwardeditchange'
p197
(i__main__
DelphiMethodDeclaration
p198
(dp199
g123
S'ForwardEditChange'
p200
sg131
(lp201
(i__main__
DelphiFormalParameter
p202
(dp203
g135
Nsg136
(lp204
S'Sender'
p205
asg139
(i__main__
DelphiNamedType
p206
(dp207
g142
S'TObject'
p208
sg144
g1
sg145
Nsbsg146
Nsbasg147
g124
sg148
Nsg149
I0
sg150
g151
sbsS'formclosequery'
p209
(i__main__
DelphiMethodDeclaration
p210
(dp211
g123
S'FormCloseQuery'
p212
sg131
(lp213
(i__main__
DelphiFormalParameter
p214
(dp215
g135
Nsg136
(lp216
S'Sender'
p217
asg139
(i__main__
DelphiNamedType
p218
(dp219
g142
S'TObject'
p220
sg144
g1
sg145
Nsbsg146
Nsba(i__main__
DelphiFormalParameter
p221
(dp222
g135
Nsg136
(lp223
S'CanClose'
p224
asg139
(i__main__
DelphiPrimitiveType
p225
(dp226
g142
S'boolean'
p227
sbsg146
S'var'
p228
sbasg147
g124
sg148
Nsg149
I0
sg150
g151
sbsS'generaterules'
p229
(i__main__
DelphiMethodDeclaration
p230
(dp231
g123
S'generateRules'
p232
sg131
(lp233
sg147
g124
sg148
Nsg149
I0
sg150
g151
sbsS'gobackclick'
p234
(i__main__
DelphiMethodDeclaration
p235
(dp236
g123
S'goBackClick'
p237
sg131
(lp238
(i__main__
DelphiFormalParameter
p239
(dp240
g135
Nsg136
(lp241
S'Sender'
p242
asg139
(i__main__
DelphiNamedType
p243
(dp244
g142
S'TObject'
p245
sg144
g1
sg145
Nsbsg146
Nsbasg147
g124
sg148
Nsg149
I0
sg150
g151
sbsS'initialize'
p246
(i__main__
DelphiMethodDeclaration
p247
(dp248
g123
S'initialize'
p249
sg131
(lp250
sg147
g124
sg148
(i__main__
DelphiPrimitiveType
p251
(dp252
g142
g227
sbsg149
I0
sg150
g196
sS'commentLinesBefore'
p253
(lp254
S' Private declarations '
p255
aS' Public declarations '
p256
asbsS'firstcontext'
p257
(i__main__
DelphiMethodDeclaration
p258
(dp259
g123
S'firstContext'
p260
sg131
(lp261
sg147
g124
sg148
(i__main__
DelphiPrimitiveType
p262
(dp263
g142
g195
sbsg149
I0
sg150
g196
sbsS'gonextclick'
p264
(i__main__
DelphiMethodDeclaration
p265
(dp266
g123
S'goNextClick'
p267
sg131
(lp268
(i__main__
DelphiFormalParameter
p269
(dp270
g135
Nsg136
(lp271
S'Sender'
p272
asg139
(i__main__
DelphiNamedType
p273
(dp274
g142
S'TObject'
p275
sg144
g1
sg145
Nsbsg146
Nsbasg147
g124
sg148
Nsg149
I0
sg150
g151
sbsS'makelink'
p276
(i__main__
DelphiMethodDeclaration
p277
(dp278
g123
S'makeLink'
p279
sg131
(lp280
(i__main__
DelphiFormalParameter
p281
(dp282
g135
Nsg136
(lp283
S'firstContext'
p284
asg139
(i__main__
DelphiPrimitiveType
p285
(dp286
g142
g195
sbsg146
S'const'
p287
sba(i__main__
DelphiFormalParameter
p288
(dp289
g135
Nsg136
(lp290
S'secondContext'
p291
asg139
(i__main__
DelphiPrimitiveType
p292
(dp293
g142
g195
sbsg146
Nsba(i__main__
DelphiFormalParameter
p294
(dp295
g135
Nsg136
(lp296
S'command'
p297
asg139
(i__main__
DelphiPrimitiveType
p298
(dp299
g142
g195
sbsg146
g287
sba(i__main__
DelphiFormalParameter
p300
(dp301
g135
Nsg136
(lp302
S'reply'
p303
asg139
(i__main__
DelphiPrimitiveType
p304
(dp305
g142
g195
sbsg146
g287
sbasg147
g124
sg148
(i__main__
DelphiNamedType
p306
(dp307
g142
S'TSRule'
p308
sg144
g1
sg145
Nsbsg149
I0
sg150
g196
sbsS'backwardeditchange'
p309
(i__main__
DelphiMethodDeclaration
p310
(dp311
g123
S'BackwardEditChange'
p312
sg131
(lp313
(i__main__
DelphiFormalParameter
p314
(dp315
g135
Nsg136
(lp316
S'Sender'
p317
asg139
(i__main__
DelphiNamedType
p318
(dp319
g142
S'TObject'
p320
sg144
g1
sg145
Nsbsg146
Nsbasg147
g124
sg148
Nsg149
I0
sg150
g151
sbssS'superclassNamedTypes'
p321
(lp322
(i__main__
DelphiNamedType
p323
(dp324
g142
S'TForm'
p325
sg144
g1
sg145
NsbasS'variableNames'
p326
(dp327
S'backwardreplyimage'
p328
(i__main__
DelphiNamedType
p329
(dp330
g142
S'TImage'
p331
sg144
g1
sg145
NsbsS'secondcontextbox'
p332
(i__main__
DelphiNamedType
p333
(dp334
g142
S'TListBox'
p335
sg144
g1
sg145
NsbsS'forwardreplyimage'
p336
(i__main__
DelphiNamedType
p337
(dp338
g142
S'TImage'
p339
sg144
g1
sg145
NsbsS'cancel'
p340
(i__main__
DelphiNamedType
p341
(dp342
g142
S'TButton'
p343
sg144
g1
sg145
NsbsS'forwardmemo'
p344
(i__main__
DelphiNamedType
p345
(dp346
g142
S'TMemo'
p347
sg144
g1
sg145
NsbsS'label19'
p348
(i__main__
DelphiNamedType
p349
(dp350
g142
S'TLabel'
p351
sg144
g1
sg145
NsbsS'gonext'
p352
(i__main__
DelphiNamedType
p353
(dp354
g142
S'TButton'
p355
sg144
g1
sg145
NsbsS'label12'
p356
(i__main__
DelphiNamedType
p357
(dp358
g142
S'TLabel'
p359
sg144
g1
sg145
NsbsS'label13'
p360
(i__main__
DelphiNamedType
p361
(dp362
g142
S'TLabel'
p363
sg144
g1
sg145
NsbsS'label10'
p364
(i__main__
DelphiNamedType
p365
(dp366
g142
S'TLabel'
p367
sg144
g1
sg145
NsbsS'label11'
p368
(i__main__
DelphiNamedType
p369
(dp370
g142
S'TLabel'
p371
sg144
g1
sg145
NsbsS'label15'
p372
(i__main__
DelphiNamedType
p373
(dp374
g142
S'TLabel'
p375
sg144
g1
sg145
NsbsS'label17'
p376
(i__main__
DelphiNamedType
p377
(dp378
g142
S'TLabel'
p379
sg144
g1
sg145
NsbsS'label14'
p380
(i__main__
DelphiNamedType
p381
(dp382
g142
S'TLabel'
p383
sg144
g1
sg145
NsbsS'forwardreplyarrow'
p384
(i__main__
DelphiNamedType
p385
(dp386
g142
S'TImage'
p387
sg144
g1
sg145
NsbsS'backwardreplynote'
p388
(i__main__
DelphiNamedType
p389
(dp390
g142
S'TLabel'
p391
sg144
g1
sg145
NsbsS'helpbutton'
p392
(i__main__
DelphiNamedType
p393
(dp394
g142
S'TButton'
p395
sg144
g1
sg145
NsbsS'backwardlabel'
p396
(i__main__
DelphiNamedType
p397
(dp398
g142
S'TLabel'
p399
sg144
g1
sg145
NsbsS'forwardsummary'
p400
(i__main__
DelphiNamedType
p401
(dp402
g142
S'TLabel'
p403
sg144
g1
sg145
NsbsS'label16'
p404
(i__main__
DelphiNamedType
p405
(dp406
g142
S'TLabel'
p407
sg144
g1
sg145
NsbsS'backwardcommandimage'
p408
(i__main__
DelphiNamedType
p409
(dp410
g142
S'TImage'
p411
sg144
g1
sg145
NsbsS'backwardedit'
p412
(i__main__
DelphiNamedType
p413
(dp414
g142
S'TEdit'
p415
sg144
g1
sg145
NsbsS'label1'
p416
(i__main__
DelphiNamedType
p417
(dp418
g142
S'TLabel'
p419
sg144
g1
sg145
NsbsS'replystartpageimage'
p420
(i__main__
DelphiNamedType
p421
(dp422
g142
S'TImage'
p423
sg144
g1
sg145
NsbsS'secondcontextimage'
p424
(i__main__
DelphiNamedType
p425
(dp426
g142
S'TImage'
p427
sg144
g1
sg145
NsbsS'label8'
p428
(i__main__
DelphiNamedType
p429
(dp430
g142
S'TLabel'
p431
sg144
g1
sg145
NsbsS'label9'
p432
(i__main__
DelphiNamedType
p433
(dp434
g142
S'TLabel'
p435
sg144
g1
sg145
NsbsS'contextstartpageimage'
p436
(i__main__
DelphiNamedType
p437
(dp438
g142
S'TImage'
p439
sg144
g1
sg145
NsbsS'label3'
p440
(i__main__
DelphiNamedType
p441
(dp442
g142
S'TLabel'
p443
sg144
g1
sg145
NsbsS'forwardreplynote'
p444
(i__main__
DelphiNamedType
p445
(dp446
g142
S'TLabel'
p447
sg144
g1
sg145
NsbsS'goback'
p448
(i__main__
DelphiNamedType
p449
(dp450
g142
S'TButton'
p451
sg144
g1
sg145
NsbsS'label2'
p452
(i__main__
DelphiNamedType
p453
(dp454
g142
S'TLabel'
p455
sg144
g1
sg145
NsbsS'backwardreplylabel'
p456
(i__main__
DelphiNamedType
p457
(dp458
g142
S'TLabel'
p459
sg144
g1
sg145
NsbsS'label4'
p460
(i__main__
DelphiNamedType
p461
(dp462
g142
S'TLabel'
p463
sg144
g1
sg145
NsbsS'firstcontextbox'
p464
(i__main__
DelphiNamedType
p465
(dp466
g142
S'TListBox'
p467
sg144
g1
sg145
NsbsS'label6'
p468
(i__main__
DelphiNamedType
p469
(dp470
g142
S'TLabel'
p471
sg144
g1
sg145
NsbsS'label5'
p472
(i__main__
DelphiNamedType
p473
(dp474
g142
S'TLabel'
p475
sg144
g1
sg145
NsbsS'generated'
p476
(i__main__
DelphiPrimitiveType
p477
(dp478
g142
g227
sbsS'notebook'
p479
(i__main__
DelphiNamedType
p480
(dp481
g142
S'TNotebook'
p482
sg144
g1
sg145
NsbsS'label26'
p483
(i__main__
DelphiNamedType
p484
(dp485
g142
S'TLabel'
p486
sg144
g1
sg145
NsbsS'image3'
p487
(i__main__
DelphiNamedType
p488
(dp489
g142
S'TImage'
p490
sg144
g1
sg145
NsbsS'image2'
p491
(i__main__
DelphiNamedType
p492
(dp493
g142
S'TImage'
p494
sg144
g1
sg145
NsbsS'image1'
p495
(i__main__
DelphiNamedType
p496
(dp497
g142
S'TImage'
p498
sg144
g1
sg145
NsbsS'label7'
p499
(i__main__
DelphiNamedType
p500
(dp501
g142
S'TLabel'
p502
sg144
g1
sg145
NsbsS'forwardreplylabel'
p503
(i__main__
DelphiNamedType
p504
(dp505
g142
S'TLabel'
p506
sg144
g1
sg145
NsbsS'image6'
p507
(i__main__
DelphiNamedType
p508
(dp509
g142
S'TImage'
p510
sg144
g1
sg145
NsbsS'image4'
p511
(i__main__
DelphiNamedType
p512
(dp513
g142
S'TImage'
p514
sg144
g1
sg145
NsbsS'backwardreplyarrow'
p515
(i__main__
DelphiNamedType
p516
(dp517
g142
S'TImage'
p518
sg144
g1
sg145
NsbsS'backwardsummary'
p519
(i__main__
DelphiNamedType
p520
(dp521
g142
S'TLabel'
p522
sg144
g1
sg145
NsbsS'firstcontextimage'
p523
(i__main__
DelphiNamedType
p524
(dp525
g142
S'TImage'
p526
sg144
g1
sg145
NsbsS'forwardcommandimage'
p527
(i__main__
DelphiNamedType
p528
(dp529
g142
S'TImage'
p530
sg144
g1
sg145
NsbsS'forwardlabel'
p531
(i__main__
DelphiNamedType
p532
(dp533
g142
S'TLabel'
p534
sg144
g1
sg145
NsbsS'label18'
p535
(i__main__
DelphiNamedType
p536
(dp537
g142
S'TLabel'
p538
sg144
g1
sg145
NsbsS'backwardmemo'
p539
(i__main__
DelphiNamedType
p540
(dp541
g142
S'TMemo'
p542
sg144
g1
sg145
NsbsS'image8'
p543
(i__main__
DelphiNamedType
p544
(dp545
g142
S'TImage'
p546
sg144
g1
sg145
NsbsS'forwardedit'
p547
(i__main__
DelphiNamedType
p548
(dp549
g142
S'TEdit'
p550
sg144
g1
sg145
NsbsS'commandstartpageimage'
p551
(i__main__
DelphiNamedType
p552
(dp553
g142
S'TImage'
p554
sg144
g1
sg145
NsbssS'methodNamesInDefinedOrder'
p555
(lp556
S'formactivate'
p557
aS'initialize'
p558
aS'gobackclick'
p559
aS'gonextclick'
p560
aS'notebookpagechanged'
p561
aS'cancelclick'
p562
aS'makelink'
p563
aS'firstcontext'
p564
aS'secondcontext'
p565
aS'generaterules'
p566
aS'forwardeditchange'
p567
aS'backwardeditchange'
p568
aS'formclosequery'
p569
aS'helpbuttonclick'
p570
asS'methodImplementations'
p571
(dp572
S'helpbuttonclick'
p573
(i__main__
DelphiMethodImplementation
p574
(dp575
S'originalDeclaration'
p576
g128
sg123
g130
sg131
(lp577
(i__main__
DelphiFormalParameter
p578
(dp579
g135
Nsg136
(lp580
S'Sender'
p581
asg139
(i__main__
DelphiNamedType
p582
(dp583
g142
S'TObject'
p584
sg144
g1
sg145
Nsbsg146
NsbasS'varParamIndexes'
p585
(lp586
sS'varParamsSkipped'
p587
(lp588
sS'argNames'
p589
(lp590
S'self'
p591
ag581
asS'argTypes'
p592
(dp593
g581
g582
ssg147
S'TLinkWizardForm'
p594
sg148
NsS'varParamNames'
p595
(lp596
sg149
I0
sg150
g151
sS'block'
p597
(i__main__
DelphiBlock
p598
(dp599
S'compoundStatement'
p600
(idelphi
DelphiCompoundStatement
p601
(dp602
S'statements'
p603
(lp604
(i__main__
DelphiAssignStatement
p605
(dp606
S'newValueExpression'
p607
NsS'destinationExpression'
p608
(i__main__
DelphiIdentAccess
p609
(dp610
S'ident'
p611
S'Application'
p612
sS'endAccessList'
p613
(lp614
(idelphi
DelphiFieldEndAccess
p615
(dp616
S'field'
p617
S'helpJump'
p618
sba(idelphi
DelphiFunctionEndAccess
p619
(dp620
S'expressionList'
p621
(lp622
(idelphi
DelphiStringAccess
p623
(dp624
g613
(lp625
sg195
(idelphi
DelphiStringValue
p626
(dp627
g195
S'Making_new_rules_using_the_new_moves_wizard'
p628
sbsbasbasbsbasbsS'limitedDeclSectionList'
p629
(lp630
sbsbsS'formactivate'
p631
(i__main__
DelphiMethodImplementation
p632
(dp633
g576
g177
sg123
g179
sg131
(lp634
(i__main__
DelphiFormalParameter
p635
(dp636
g135
Nsg136
(lp637
S'Sender'
p638
asg139
(i__main__
DelphiNamedType
p639
(dp640
g142
S'TObject'
p641
sg144
g1
sg145
Nsbsg146
Nsbasg585
(lp642
sg587
(lp643
sg589
(lp644
g591
ag638
asg592
(dp645
g638
g639
ssg147
S'TLinkWizardForm'
p646
sg148
Nsg595
(lp647
sg149
I0
sg150
g151
sg597
(i__main__
DelphiBlock
p648
(dp649
g600
(idelphi
DelphiCompoundStatement
p650
(dp651
g603
(lp652
(i__main__
DelphiAssignStatement
p653
(dp654
g607
(i__main__
DelphiIdentAccess
p655
(dp656
g611
S'ConsoleForm'
p657
sg613
(lp658
(idelphi
DelphiFieldEndAccess
p659
(dp660
g617
S'ContextButton'
p661
sba(idelphi
DelphiFieldEndAccess
p662
(dp663
g617
S'glyph'
p664
sbasbsg608
(i__main__
DelphiIdentAccess
p665
(dp666
g611
S'contextStartPageImage'
p667
sg613
(lp668
(idelphi
DelphiFieldEndAccess
p669
(dp670
g617
S'picture'
p671
sba(idelphi
DelphiFieldEndAccess
p672
(dp673
g617
S'bitmap'
p674
sbasbsba(i__main__
DelphiAssignStatement
p675
(dp676
g607
(i__main__
DelphiIdentAccess
p677
(dp678
g611
S'ConsoleForm'
p679
sg613
(lp680
(idelphi
DelphiFieldEndAccess
p681
(dp682
g617
S'CommandButton'
p683
sba(idelphi
DelphiFieldEndAccess
p684
(dp685
g617
S'glyph'
p686
sbasbsg608
(i__main__
DelphiIdentAccess
p687
(dp688
g611
S'commandStartPageImage'
p689
sg613
(lp690
(idelphi
DelphiFieldEndAccess
p691
(dp692
g617
S'picture'
p693
sba(idelphi
DelphiFieldEndAccess
p694
(dp695
g617
S'bitmap'
p696
sbasbsba(i__main__
DelphiAssignStatement
p697
(dp698
g607
(i__main__
DelphiIdentAccess
p699
(dp700
g611
S'RuleEditorForm'
p701
sg613
(lp702
(idelphi
DelphiFieldEndAccess
p703
(dp704
g617
S'ReplyPicture'
p705
sba(idelphi
DelphiFieldEndAccess
p706
(dp707
g617
S'picture'
p708
sba(idelphi
DelphiFieldEndAccess
p709
(dp710
g617
S'bitmap'
p711
sbasbsg608
(i__main__
DelphiIdentAccess
p712
(dp713
g611
S'replyStartPageImage'
p714
sg613
(lp715
(idelphi
DelphiFieldEndAccess
p716
(dp717
g617
S'picture'
p718
sba(idelphi
DelphiFieldEndAccess
p719
(dp720
g617
S'bitmap'
p721
sbasbsba(i__main__
DelphiAssignStatement
p722
(dp723
g607
(i__main__
DelphiIdentAccess
p724
(dp725
g611
S'ConsoleForm'
p726
sg613
(lp727
(idelphi
DelphiFieldEndAccess
p728
(dp729
g617
S'ContextButton'
p730
sba(idelphi
DelphiFieldEndAccess
p731
(dp732
g617
S'glyph'
p733
sbasbsg608
(i__main__
DelphiIdentAccess
p734
(dp735
g611
S'firstContextImage'
p736
sg613
(lp737
(idelphi
DelphiFieldEndAccess
p738
(dp739
g617
S'picture'
p740
sba(idelphi
DelphiFieldEndAccess
p741
(dp742
g617
S'bitmap'
p743
sbasbsba(i__main__
DelphiAssignStatement
p744
(dp745
g607
(i__main__
DelphiIdentAccess
p746
(dp747
g611
S'ConsoleForm'
p748
sg613
(lp749
(idelphi
DelphiFieldEndAccess
p750
(dp751
g617
S'ContextButton'
p752
sba(idelphi
DelphiFieldEndAccess
p753
(dp754
g617
S'glyph'
p755
sbasbsg608
(i__main__
DelphiIdentAccess
p756
(dp757
g611
S'secondContextImage'
p758
sg613
(lp759
(idelphi
DelphiFieldEndAccess
p760
(dp761
g617
S'picture'
p762
sba(idelphi
DelphiFieldEndAccess
p763
(dp764
g617
S'bitmap'
p765
sbasbsba(i__main__
DelphiAssignStatement
p766
(dp767
g607
(i__main__
DelphiIdentAccess
p768
(dp769
g611
S'ConsoleForm'
p770
sg613
(lp771
(idelphi
DelphiFieldEndAccess
p772
(dp773
g617
S'CommandButton'
p774
sba(idelphi
DelphiFieldEndAccess
p775
(dp776
g617
S'glyph'
p777
sbasbsg608
(i__main__
DelphiIdentAccess
p778
(dp779
g611
S'forwardCommandImage'
p780
sg613
(lp781
(idelphi
DelphiFieldEndAccess
p782
(dp783
g617
S'picture'
p784
sba(idelphi
DelphiFieldEndAccess
p785
(dp786
g617
S'bitmap'
p787
sbasbsba(i__main__
DelphiAssignStatement
p788
(dp789
g607
(i__main__
DelphiIdentAccess
p790
(dp791
g611
S'RuleEditorForm'
p792
sg613
(lp793
(idelphi
DelphiFieldEndAccess
p794
(dp795
g617
S'ReplyPicture'
p796
sba(idelphi
DelphiFieldEndAccess
p797
(dp798
g617
S'picture'
p799
sba(idelphi
DelphiFieldEndAccess
p800
(dp801
g617
S'bitmap'
p802
sbasbsg608
(i__main__
DelphiIdentAccess
p803
(dp804
g611
S'forwardReplyImage'
p805
sg613
(lp806
(idelphi
DelphiFieldEndAccess
p807
(dp808
g617
S'picture'
p809
sba(idelphi
DelphiFieldEndAccess
p810
(dp811
g617
S'bitmap'
p812
sbasbsba(i__main__
DelphiAssignStatement
p813
(dp814
g607
(i__main__
DelphiIdentAccess
p815
(dp816
g611
S'ConsoleForm'
p817
sg613
(lp818
(idelphi
DelphiFieldEndAccess
p819
(dp820
g617
S'CommandButton'
p821
sba(idelphi
DelphiFieldEndAccess
p822
(dp823
g617
S'glyph'
p824
sbasbsg608
(i__main__
DelphiIdentAccess
p825
(dp826
g611
S'backwardCommandImage'
p827
sg613
(lp828
(idelphi
DelphiFieldEndAccess
p829
(dp830
g617
S'picture'
p831
sba(idelphi
DelphiFieldEndAccess
p832
(dp833
g617
S'bitmap'
p834
sbasbsba(i__main__
DelphiAssignStatement
p835
(dp836
g607
(i__main__
DelphiIdentAccess
p837
(dp838
g611
S'RuleEditorForm'
p839
sg613
(lp840
(idelphi
DelphiFieldEndAccess
p841
(dp842
g617
S'ReplyPicture'
p843
sba(idelphi
DelphiFieldEndAccess
p844
(dp845
g617
S'picture'
p846
sba(idelphi
DelphiFieldEndAccess
p847
(dp848
g617
S'bitmap'
p849
sbasbsg608
(i__main__
DelphiIdentAccess
p850
(dp851
g611
S'backwardReplyImage'
p852
sg613
(lp853
(idelphi
DelphiFieldEndAccess
p854
(dp855
g617
S'picture'
p856
sba(idelphi
DelphiFieldEndAccess
p857
(dp858
g617
S'bitmap'
p859
sbasbsbasbsg629
(lp860
sbsg253
(lp861
S'$R *.DFM'
p862
asbsS'cancelclick'
p863
(i__main__
DelphiMethodImplementation
p864
(dp865
g576
g165
sg123
g167
sg131
(lp866
(i__main__
DelphiFormalParameter
p867
(dp868
g135
Nsg136
(lp869
S'Sender'
p870
asg139
(i__main__
DelphiNamedType
p871
(dp872
g142
S'TObject'
p873
sg144
g1
sg145
Nsbsg146
Nsbasg585
(lp874
sg587
(lp875
sg589
(lp876
g591
ag870
asg592
(dp877
g870
g871
ssg147
S'TLinkWizardForm'
p878
sg148
Nsg595
(lp879
sg149
I0
sg150
g151
sg597
(i__main__
DelphiBlock
p880
(dp881
g600
(idelphi
DelphiCompoundStatement
p882
(dp883
g603
(lp884
(i__main__
DelphiAssignStatement
p885
(dp886
g607
(i__main__
DelphiIdentAccess
p887
(dp888
g611
S'mrCancel'
p889
sg613
(lp890
sbsg608
(i__main__
DelphiIdentAccess
p891
(dp892
g611
S'modalResult'
p893
sg613
(lp894
sbsbasbsg629
(lp895
sbsbsS'notebookpagechanged'
p896
(i__main__
DelphiMethodImplementation
p897
(dp898
g576
g153
sg123
g155
sg131
(lp899
(i__main__
DelphiFormalParameter
p900
(dp901
g135
Nsg136
(lp902
S'Sender'
p903
asg139
(i__main__
DelphiNamedType
p904
(dp905
g142
S'TObject'
p906
sg144
g1
sg145
Nsbsg146
Nsbasg585
(lp907
sg587
(lp908
sg589
(lp909
g591
ag903
asg592
(dp910
g903
g904
ssg147
S'TLinkWizardForm'
p911
sg148
Nsg595
(lp912
sg149
I0
sg150
g151
sg597
(i__main__
DelphiBlock
p913
(dp914
g600
(idelphi
DelphiCompoundStatement
p915
(dp916
g603
(lp917
(i__main__
DelphiAssignStatement
p918
(dp919
g607
(idelphi
DelphiRelOp
p920
(dp921
S'simpleExpression1'
p922
(i__main__
DelphiIdentAccess
p923
(dp924
g611
S'notebook'
p925
sg613
(lp926
(idelphi
DelphiFieldEndAccess
p927
(dp928
g617
S'pageIndex'
p929
sbasbsS'simpleExpression2'
p930
(i__main__
DelphiIdentAccess
p931
(dp932
g611
S'kStartPage'
p933
sg613
(lp934
sbsS'relOp'
p935
S'>'
sbsg608
(i__main__
DelphiIdentAccess
p936
(dp937
g611
S'goBack'
p938
sg613
(lp939
(idelphi
DelphiFieldEndAccess
p940
(dp941
g617
S'enabled'
p942
sbasbsba(idelphi
DelphiIfStatement
p943
(dp944
S'expression'
p945
(idelphi
DelphiRelOp
p946
(dp947
g922
(i__main__
DelphiIdentAccess
p948
(dp949
g611
S'noteBook'
p950
sg613
(lp951
(idelphi
DelphiFieldEndAccess
p952
(dp953
g617
S'pageIndex'
p954
sbasbsg930
(i__main__
DelphiIdentAccess
p955
(dp956
g611
S'kFinishPage'
p957
sg613
(lp958
sbsg935
S'<>'
p959
sbsS'ifFalseStatement'
p960
(idelphi
DelphiCompoundStatement
p961
(dp962
g603
(lp963
(i__main__
DelphiAssignStatement
p964
(dp965
g607
(idelphi
DelphiStringAccess
p966
(dp967
g613
(lp968
sg195
(idelphi
DelphiStringValue
p969
(dp970
g195
S'&Finish'
p971
sbsbsg608
(i__main__
DelphiIdentAccess
p972
(dp973
g611
S'goNext'
p974
sg613
(lp975
(idelphi
DelphiFieldEndAccess
p976
(dp977
g617
S'caption'
p978
sbasbsba(idelphi
DelphiIfStatement
p979
(dp980
g945
(idelphi
DelphiRelOp
p981
(dp982
g922
(i__main__
DelphiIdentAccess
p983
(dp984
g611
S'Trim'
p985
sg613
(lp986
(idelphi
DelphiFunctionEndAccess
p987
(dp988
g621
(lp989
(i__main__
DelphiIdentAccess
p990
(dp991
g611
S'ForwardEdit'
p992
sg613
(lp993
(idelphi
DelphiFieldEndAccess
p994
(dp995
g617
S'text'
p996
sbasbasbasbsg930
(idelphi
DelphiStringAccess
p997
(dp998
g613
(lp999
sg195
(idelphi
DelphiStringValue
p1000
(dp1001
g195
S''
sbsbsg935
S'='
sbsg960
(i__main__
DelphiAssignStatement
p1002
(dp1003
g607
(idelphi
DelphiAddOp
p1004
(dp1005
S'addOp'
p1006
S'+'
sS'term2'
p1007
(i__main__
DelphiIdentAccess
p1008
(dp1009
g611
S'secondContext'
p1010
sg613
(lp1011
sbsS'term1'
p1012
(idelphi
DelphiAddOp
p1013
(dp1014
g1006
S'+'
sg1007
(idelphi
DelphiStringAccess
p1015
(dp1016
g613
(lp1017
sg195
(idelphi
DelphiStringValue
p1018
(dp1019
g195
S'  -->  '
p1020
sbsbsg1012
(idelphi
DelphiAddOp
p1021
(dp1022
g1006
S'+'
sg1007
(i__main__
DelphiIdentAccess
p1023
(dp1024
g611
S'Trim'
p1025
sg613
(lp1026
(idelphi
DelphiFunctionEndAccess
p1027
(dp1028
g621
(lp1029
(i__main__
DelphiIdentAccess
p1030
(dp1031
g611
S'ForwardEdit'
p1032
sg613
(lp1033
(idelphi
DelphiFieldEndAccess
p1034
(dp1035
g617
S'text'
p1036
sbasbasbasbsg1012
(idelphi
DelphiAddOp
p1037
(dp1038
g1006
S'+'
sg1007
(idelphi
DelphiStringAccess
p1039
(dp1040
g613
(lp1041
sg195
(idelphi
DelphiStringValue
p1042
(dp1043
g195
S'  ---  '
p1044
sbsbsg1012
(i__main__
DelphiIdentAccess
p1045
(dp1046
g611
S'firstContext'
p1047
sg613
(lp1048
sbsbsbsbsbsg608
(i__main__
DelphiIdentAccess
p1049
(dp1050
g611
S'forwardSummary'
p1051
sg613
(lp1052
(idelphi
DelphiFieldEndAccess
p1053
(dp1054
g617
S'caption'
p1055
sbasbsbsS'ifTrueStatement'
p1056
(i__main__
DelphiAssignStatement
p1057
(dp1058
g607
(idelphi
DelphiStringAccess
p1059
(dp1060
g613
(lp1061
sg195
(idelphi
DelphiStringValue
p1062
(dp1063
g195
S''
sbsbsg608
(i__main__
DelphiIdentAccess
p1064
(dp1065
g611
S'forwardSummary'
p1066
sg613
(lp1067
(idelphi
DelphiFieldEndAccess
p1068
(dp1069
g617
S'caption'
p1070
sbasbsbsba(idelphi
DelphiIfStatement
p1071
(dp1072
g945
(idelphi
DelphiRelOp
p1073
(dp1074
g922
(i__main__
DelphiIdentAccess
p1075
(dp1076
g611
S'Trim'
p1077
sg613
(lp1078
(idelphi
DelphiFunctionEndAccess
p1079
(dp1080
g621
(lp1081
(i__main__
DelphiIdentAccess
p1082
(dp1083
g611
S'BackwardEdit'
p1084
sg613
(lp1085
(idelphi
DelphiFieldEndAccess
p1086
(dp1087
g617
S'text'
p1088
sbasbasbasbsg930
(idelphi
DelphiStringAccess
p1089
(dp1090
g613
(lp1091
sg195
(idelphi
DelphiStringValue
p1092
(dp1093
g195
S''
sbsbsg935
S'='
sbsg960
(i__main__
DelphiAssignStatement
p1094
(dp1095
g607
(idelphi
DelphiAddOp
p1096
(dp1097
g1006
S'+'
sg1007
(i__main__
DelphiIdentAccess
p1098
(dp1099
g611
S'firstContext'
p1100
sg613
(lp1101
sbsg1012
(idelphi
DelphiAddOp
p1102
(dp1103
g1006
S'+'
sg1007
(idelphi
DelphiStringAccess
p1104
(dp1105
g613
(lp1106
sg195
(idelphi
DelphiStringValue
p1107
(dp1108
g195
S'  -->  '
p1109
sbsbsg1012
(idelphi
DelphiAddOp
p1110
(dp1111
g1006
S'+'
sg1007
(i__main__
DelphiIdentAccess
p1112
(dp1113
g611
S'Trim'
p1114
sg613
(lp1115
(idelphi
DelphiFunctionEndAccess
p1116
(dp1117
g621
(lp1118
(i__main__
DelphiIdentAccess
p1119
(dp1120
g611
S'BackwardEdit'
p1121
sg613
(lp1122
(idelphi
DelphiFieldEndAccess
p1123
(dp1124
g617
S'text'
p1125
sbasbasbasbsg1012
(idelphi
DelphiAddOp
p1126
(dp1127
g1006
S'+'
sg1007
(idelphi
DelphiStringAccess
p1128
(dp1129
g613
(lp1130
sg195
(idelphi
DelphiStringValue
p1131
(dp1132
g195
S'  ---  '
p1133
sbsbsg1012
(i__main__
DelphiIdentAccess
p1134
(dp1135
g611
S'secondContext'
p1136
sg613
(lp1137
sbsbsbsbsbsg608
(i__main__
DelphiIdentAccess
p1138
(dp1139
g611
S'backwardSummary'
p1140
sg613
(lp1141
(idelphi
DelphiFieldEndAccess
p1142
(dp1143
g617
S'caption'
p1144
sbasbsbsg1056
(i__main__
DelphiAssignStatement
p1145
(dp1146
g607
(idelphi
DelphiStringAccess
p1147
(dp1148
g613
(lp1149
sg195
(idelphi
DelphiStringValue
p1150
(dp1151
g195
S''
sbsbsg608
(i__main__
DelphiIdentAccess
p1152
(dp1153
g611
S'backwardSummary'
p1154
sg613
(lp1155
(idelphi
DelphiFieldEndAccess
p1156
(dp1157
g617
S'caption'
p1158
sbasbsbsbasbsg1056
(i__main__
DelphiAssignStatement
p1159
(dp1160
g607
(idelphi
DelphiStringAccess
p1161
(dp1162
g613
(lp1163
sg195
(idelphi
DelphiStringValue
p1164
(dp1165
g195
S'&Next >>'
p1166
sbsbsg608
(i__main__
DelphiIdentAccess
p1167
(dp1168
g611
S'goNext'
p1169
sg613
(lp1170
(idelphi
DelphiFieldEndAccess
p1171
(dp1172
g617
S'caption'
p1173
sbasbsbsbasbsg629
(lp1174
sbsbsS'backwardeditchange'
p1175
(i__main__
DelphiMethodImplementation
p1176
(dp1177
g576
g310
sg123
g312
sg131
(lp1178
(i__main__
DelphiFormalParameter
p1179
(dp1180
g135
Nsg136
(lp1181
S'Sender'
p1182
asg139
(i__main__
DelphiNamedType
p1183
(dp1184
g142
S'TObject'
p1185
sg144
g1
sg145
Nsbsg146
Nsbasg585
(lp1186
sg587
(lp1187
sg589
(lp1188
g591
ag1182
asg592
(dp1189
g1182
g1183
ssg147
S'TLinkWizardForm'
p1190
sg148
Nsg595
(lp1191
sg149
I0
sg150
g151
sg597
(i__main__
DelphiBlock
p1192
(dp1193
g600
(idelphi
DelphiCompoundStatement
p1194
(dp1195
g603
(lp1196
(i__main__
DelphiAssignStatement
p1197
(dp1198
g607
(idelphi
DelphiRelOp
p1199
(dp1200
g922
(i__main__
DelphiIdentAccess
p1201
(dp1202
g611
S'BackwardEdit'
p1203
sg613
(lp1204
(idelphi
DelphiFieldEndAccess
p1205
(dp1206
g617
S'text'
p1207
sbasbsg930
(idelphi
DelphiStringAccess
p1208
(dp1209
g613
(lp1210
sg195
(idelphi
DelphiStringValue
p1211
(dp1212
g195
S''
sbsbsg935
g959
sbsg608
(i__main__
DelphiIdentAccess
p1213
(dp1214
g611
S'haveText'
p1215
sg613
(lp1216
sbsba(i__main__
DelphiAssignStatement
p1217
(dp1218
g607
(i__main__
DelphiIdentAccess
p1219
(dp1220
g611
S'haveText'
p1221
sg613
(lp1222
sbsg608
(i__main__
DelphiIdentAccess
p1223
(dp1224
g611
S'backwardReplyArrow'
p1225
sg613
(lp1226
(idelphi
DelphiFieldEndAccess
p1227
(dp1228
g617
S'visible'
p1229
sbasbsba(i__main__
DelphiAssignStatement
p1230
(dp1231
g607
(i__main__
DelphiIdentAccess
p1232
(dp1233
g611
S'haveText'
p1234
sg613
(lp1235
sbsg608
(i__main__
DelphiIdentAccess
p1236
(dp1237
g611
S'backwardReplyLabel'
p1238
sg613
(lp1239
(idelphi
DelphiFieldEndAccess
p1240
(dp1241
g617
S'enabled'
p1242
sbasbsba(i__main__
DelphiAssignStatement
p1243
(dp1244
g607
(i__main__
DelphiIdentAccess
p1245
(dp1246
g611
S'haveText'
p1247
sg613
(lp1248
sbsg608
(i__main__
DelphiIdentAccess
p1249
(dp1250
g611
S'backwardReplyImage'
p1251
sg613
(lp1252
(idelphi
DelphiFieldEndAccess
p1253
(dp1254
g617
S'visible'
p1255
sbasbsba(i__main__
DelphiAssignStatement
p1256
(dp1257
g607
(i__main__
DelphiIdentAccess
p1258
(dp1259
g611
S'haveText'
p1260
sg613
(lp1261
sbsg608
(i__main__
DelphiIdentAccess
p1262
(dp1263
g611
S'backwardMemo'
p1264
sg613
(lp1265
(idelphi
DelphiFieldEndAccess
p1266
(dp1267
g617
S'visible'
p1268
sbasbsba(i__main__
DelphiAssignStatement
p1269
(dp1270
g607
(i__main__
DelphiIdentAccess
p1271
(dp1272
g611
S'haveText'
p1273
sg613
(lp1274
sbsg608
(i__main__
DelphiIdentAccess
p1275
(dp1276
g611
S'backwardReplyNote'
p1277
sg613
(lp1278
(idelphi
DelphiFieldEndAccess
p1279
(dp1280
g617
S'enabled'
p1281
sbasbsbasbsg629
(lp1282
(i__main__
DelphiVarSection
p1283
(dp1284
S'atTopLevel'
p1285
I0
sS'varDeclList'
p1286
(lp1287
(idelphi
DelphiVarDecl
p1288
(dp1289
S'constExpression'
p1290
NsS'identList'
p1291
(lp1292
S'haveText'
p1293
asg139
(i__main__
DelphiPrimitiveType
p1294
(dp1295
g142
g227
sbsbasbasbsbsS'secondcontext'
p1296
(i__main__
DelphiMethodImplementation
p1297
(dp1298
g576
g189
sg123
g191
sg131
(lp1299
sg585
(lp1300
sg587
(lp1301
sg589
(lp1302
g591
asg592
(dp1303
sg147
S'TLinkWizardForm'
p1304
sg148
(i__main__
DelphiPrimitiveType
p1305
(dp1306
g142
g195
sbsg595
(lp1307
sg149
I0
sg150
g196
sg597
(i__main__
DelphiBlock
p1308
(dp1309
g600
(idelphi
DelphiCompoundStatement
p1310
(dp1311
g603
(lp1312
(i__main__
DelphiAssignStatement
p1313
(dp1314
g607
(idelphi
DelphiStringAccess
p1315
(dp1316
g613
(lp1317
sg195
(idelphi
DelphiStringValue
p1318
(dp1319
g195
S''
sbsbsg608
(i__main__
DelphiIdentAccess
p1320
(dp1321
g611
S'result'
p1322
sg613
(lp1323
sbsba(idelphi
DelphiWithStatement
p1324
(dp1325
S'statement'
p1326
(idelphi
DelphiIfStatement
p1327
(dp1328
g945
(idelphi
DelphiRelOp
p1329
(dp1330
g922
(i__main__
DelphiIdentAccess
p1331
(dp1332
g611
S'itemIndex'
p1333
sg613
(lp1334
sbsg930
(idelphi
DelphiIntegerValue
p1335
(dp1336
g195
S'0'
sbsg935
S'>='
p1337
sbsg960
Nsg1056
(i__main__
DelphiAssignStatement
p1338
(dp1339
g607
(i__main__
DelphiIdentAccess
p1340
(dp1341
g611
S'items'
p1342
sg613
(lp1343
(idelphi
DelphiArrayEndAccess
p1344
(dp1345
g621
(lp1346
(i__main__
DelphiIdentAccess
p1347
(dp1348
g611
S'itemIndex'
p1349
sg613
(lp1350
sbasbasbsg608
(i__main__
DelphiIdentAccess
p1351
(dp1352
g611
S'result'
p1353
sg613
(lp1354
sbsbsbsS'variableReferenceList'
p1355
(lp1356
(i__main__
DelphiIdentAccess
p1357
(dp1358
g611
S'SecondContextBox'
p1359
sg613
(lp1360
sbasbasbsg629
(lp1361
sbsbsS'forwardeditchange'
p1362
(i__main__
DelphiMethodImplementation
p1363
(dp1364
g576
g198
sg123
g200
sg131
(lp1365
(i__main__
DelphiFormalParameter
p1366
(dp1367
g135
Nsg136
(lp1368
S'Sender'
p1369
asg139
(i__main__
DelphiNamedType
p1370
(dp1371
g142
S'TObject'
p1372
sg144
g1
sg145
Nsbsg146
Nsbasg585
(lp1373
sg587
(lp1374
sg589
(lp1375
g591
ag1369
asg592
(dp1376
g1369
g1370
ssg147
S'TLinkWizardForm'
p1377
sg148
Nsg595
(lp1378
sg149
I0
sg150
g151
sg597
(i__main__
DelphiBlock
p1379
(dp1380
g600
(idelphi
DelphiCompoundStatement
p1381
(dp1382
g603
(lp1383
(i__main__
DelphiAssignStatement
p1384
(dp1385
g607
(idelphi
DelphiRelOp
p1386
(dp1387
g922
(i__main__
DelphiIdentAccess
p1388
(dp1389
g611
S'ForwardEdit'
p1390
sg613
(lp1391
(idelphi
DelphiFieldEndAccess
p1392
(dp1393
g617
S'text'
p1394
sbasbsg930
(idelphi
DelphiStringAccess
p1395
(dp1396
g613
(lp1397
sg195
(idelphi
DelphiStringValue
p1398
(dp1399
g195
S''
sbsbsg935
g959
sbsg608
(i__main__
DelphiIdentAccess
p1400
(dp1401
g611
S'haveText'
p1402
sg613
(lp1403
sbsba(i__main__
DelphiAssignStatement
p1404
(dp1405
g607
(i__main__
DelphiIdentAccess
p1406
(dp1407
g611
S'haveText'
p1408
sg613
(lp1409
sbsg608
(i__main__
DelphiIdentAccess
p1410
(dp1411
g611
S'forwardReplyArrow'
p1412
sg613
(lp1413
(idelphi
DelphiFieldEndAccess
p1414
(dp1415
g617
S'visible'
p1416
sbasbsba(i__main__
DelphiAssignStatement
p1417
(dp1418
g607
(i__main__
DelphiIdentAccess
p1419
(dp1420
g611
S'haveText'
p1421
sg613
(lp1422
sbsg608
(i__main__
DelphiIdentAccess
p1423
(dp1424
g611
S'forwardReplyLabel'
p1425
sg613
(lp1426
(idelphi
DelphiFieldEndAccess
p1427
(dp1428
g617
S'enabled'
p1429
sbasbsba(i__main__
DelphiAssignStatement
p1430
(dp1431
g607
(i__main__
DelphiIdentAccess
p1432
(dp1433
g611
S'haveText'
p1434
sg613
(lp1435
sbsg608
(i__main__
DelphiIdentAccess
p1436
(dp1437
g611
S'forwardReplyImage'
p1438
sg613
(lp1439
(idelphi
DelphiFieldEndAccess
p1440
(dp1441
g617
S'visible'
p1442
sbasbsba(i__main__
DelphiAssignStatement
p1443
(dp1444
g607
(i__main__
DelphiIdentAccess
p1445
(dp1446
g611
S'haveText'
p1447
sg613
(lp1448
sbsg608
(i__main__
DelphiIdentAccess
p1449
(dp1450
g611
S'forwardMemo'
p1451
sg613
(lp1452
(idelphi
DelphiFieldEndAccess
p1453
(dp1454
g617
S'visible'
p1455
sbasbsba(i__main__
DelphiAssignStatement
p1456
(dp1457
g607
(i__main__
DelphiIdentAccess
p1458
(dp1459
g611
S'haveText'
p1460
sg613
(lp1461
sbsg608
(i__main__
DelphiIdentAccess
p1462
(dp1463
g611
S'forwardReplyNote'
p1464
sg613
(lp1465
(idelphi
DelphiFieldEndAccess
p1466
(dp1467
g617
S'enabled'
p1468
sbasbsbasbsg629
(lp1469
(i__main__
DelphiVarSection
p1470
(dp1471
g1285
I0
sg1286
(lp1472
(idelphi
DelphiVarDecl
p1473
(dp1474
g1290
Nsg1291
(lp1475
S'haveText'
p1476
asg139
(i__main__
DelphiPrimitiveType
p1477
(dp1478
g142
g227
sbsbasbasbsbsS'formclosequery'
p1479
(i__main__
DelphiMethodImplementation
p1480
(dp1481
g576
g210
sg123
g212
sg131
(lp1482
(i__main__
DelphiFormalParameter
p1483
(dp1484
g135
Nsg136
(lp1485
S'Sender'
p1486
asg139
(i__main__
DelphiNamedType
p1487
(dp1488
g142
S'TObject'
p1489
sg144
g1
sg145
Nsbsg146
Nsba(i__main__
DelphiFormalParameter
p1490
(dp1491
g135
Nsg136
(lp1492
S'CanClose'
p1493
asg139
(i__main__
DelphiPrimitiveType
p1494
(dp1495
g142
g227
sbsg146
g228
sbasg585
(lp1496
I1
asg587
(lp1497
sg589
(lp1498
g591
ag1486
ag1493
asg592
(dp1499
g1493
g1494
sg1486
g1487
ssg147
S'TLinkWizardForm'
p1500
sg148
Nsg595
(lp1501
g1493
asg149
I0
sg150
g151
sg597
(i__main__
DelphiBlock
p1502
(dp1503
g600
(idelphi
DelphiCompoundStatement
p1504
(dp1505
g603
(lp1506
(idelphi
DelphiIfStatement
p1507
(dp1508
g945
(i__main__
DelphiIdentAccess
p1509
(dp1510
g611
S'generated'
p1511
sg613
(lp1512
sbsg960
Nsg1056
(i__main__
DelphiExitStatement
p1513
(dp1514
S'proceduralOrMethodImplementation'
p1515
g1480
sbsba(idelphi
DelphiIfStatement
p1516
(dp1517
g945
(idelphi
DelphiAddOp
p1518
(dp1519
g1006
S'or'
p1520
sg1007
(idelphi
DelphiNestedExpressionListAccess
p1521
(dp1522
g613
(lp1523
sg621
(lp1524
(idelphi
DelphiRelOp
p1525
(dp1526
g922
(i__main__
DelphiIdentAccess
p1527
(dp1528
g611
S'Trim'
p1529
sg613
(lp1530
(idelphi
DelphiFunctionEndAccess
p1531
(dp1532
g621
(lp1533
(i__main__
DelphiIdentAccess
p1534
(dp1535
g611
S'BackwardMemo'
p1536
sg613
(lp1537
(idelphi
DelphiFieldEndAccess
p1538
(dp1539
g617
S'text'
p1540
sbasbasbasbsg930
(idelphi
DelphiStringAccess
p1541
(dp1542
g613
(lp1543
sg195
(idelphi
DelphiStringValue
p1544
(dp1545
g195
S''
sbsbsg935
g959
sbasbsg1012
(idelphi
DelphiAddOp
p1546
(dp1547
g1006
g1520
sg1007
(idelphi
DelphiNestedExpressionListAccess
p1548
(dp1549
g613
(lp1550
sg621
(lp1551
(idelphi
DelphiRelOp
p1552
(dp1553
g922
(i__main__
DelphiIdentAccess
p1554
(dp1555
g611
S'Trim'
p1556
sg613
(lp1557
(idelphi
DelphiFunctionEndAccess
p1558
(dp1559
g621
(lp1560
(i__main__
DelphiIdentAccess
p1561
(dp1562
g611
S'BackwardEdit'
p1563
sg613
(lp1564
(idelphi
DelphiFieldEndAccess
p1565
(dp1566
g617
S'text'
p1567
sbasbasbasbsg930
(idelphi
DelphiStringAccess
p1568
(dp1569
g613
(lp1570
sg195
(idelphi
DelphiStringValue
p1571
(dp1572
g195
S''
sbsbsg935
g959
sbasbsg1012
(idelphi
DelphiAddOp
p1573
(dp1574
g1006
g1520
sg1007
(idelphi
DelphiNestedExpressionListAccess
p1575
(dp1576
g613
(lp1577
sg621
(lp1578
(idelphi
DelphiRelOp
p1579
(dp1580
g922
(i__main__
DelphiIdentAccess
p1581
(dp1582
g611
S'Trim'
p1583
sg613
(lp1584
(idelphi
DelphiFunctionEndAccess
p1585
(dp1586
g621
(lp1587
(i__main__
DelphiIdentAccess
p1588
(dp1589
g611
S'ForwardMemo'
p1590
sg613
(lp1591
(idelphi
DelphiFieldEndAccess
p1592
(dp1593
g617
S'text'
p1594
sbasbasbasbsg930
(idelphi
DelphiStringAccess
p1595
(dp1596
g613
(lp1597
sg195
(idelphi
DelphiStringValue
p1598
(dp1599
g195
S''
sbsbsg935
g959
sbasbsg1012
(idelphi
DelphiNestedExpressionListAccess
p1600
(dp1601
g613
(lp1602
sg621
(lp1603
(idelphi
DelphiRelOp
p1604
(dp1605
g922
(i__main__
DelphiIdentAccess
p1606
(dp1607
g611
S'Trim'
p1608
sg613
(lp1609
(idelphi
DelphiFunctionEndAccess
p1610
(dp1611
g621
(lp1612
(i__main__
DelphiIdentAccess
p1613
(dp1614
g611
S'ForwardEdit'
p1615
sg613
(lp1616
(idelphi
DelphiFieldEndAccess
p1617
(dp1618
g617
S'text'
p1619
sbasbasbasbsg930
(idelphi
DelphiStringAccess
p1620
(dp1621
g613
(lp1622
sg195
(idelphi
DelphiStringValue
p1623
(dp1624
g195
S''
sbsbsg935
g959
sbasbsbsbsbsg960
Nsg1056
(idelphi
DelphiCompoundStatement
p1625
(dp1626
g603
(lp1627
(i__main__
DelphiAssignStatement
p1628
(dp1629
g607
(i__main__
DelphiIdentAccess
p1630
(dp1631
g611
S'MessageDlg'
p1632
sg613
(lp1633
(idelphi
DelphiFunctionEndAccess
p1634
(dp1635
g621
(lp1636
(idelphi
DelphiAddOp
p1637
(dp1638
g1006
S'+'
sg1007
(idelphi
DelphiStringAccess
p1639
(dp1640
g613
(lp1641
sg195
(idelphi
DelphiStringValue
p1642
(dp1643
g195
S'Is this OK?'
p1644
sbsbsg1012
(idelphi
DelphiAddOp
p1645
(dp1646
g1006
S'+'
sg1007
(i__main__
DelphiIdentAccess
p1647
(dp1648
g611
S'chr'
p1649
sg613
(lp1650
(idelphi
DelphiFunctionEndAccess
p1651
(dp1652
g621
(lp1653
(idelphi
DelphiIntegerValue
p1654
(dp1655
g195
S'13'
p1656
sbasbasbsg1012
(idelphi
DelphiAddOp
p1657
(dp1658
g1006
S'+'
sg1007
(i__main__
DelphiIdentAccess
p1659
(dp1660
g611
S'chr'
p1661
sg613
(lp1662
(idelphi
DelphiFunctionEndAccess
p1663
(dp1664
g621
(lp1665
(idelphi
DelphiIntegerValue
p1666
(dp1667
g195
S'13'
p1668
sbasbasbsg1012
(idelphi
DelphiAddOp
p1669
(dp1670
g1006
S'+'
sg1007
(idelphi
DelphiStringAccess
p1671
(dp1672
g613
(lp1673
sg195
(idelphi
DelphiStringValue
p1674
(dp1675
g195
S'and lose any work done with it.'
p1676
sbsbsg1012
(idelphi
DelphiAddOp
p1677
(dp1678
g1006
S'+'
sg1007
(i__main__
DelphiIdentAccess
p1679
(dp1680
g611
S'chr'
p1681
sg613
(lp1682
(idelphi
DelphiFunctionEndAccess
p1683
(dp1684
g621
(lp1685
(idelphi
DelphiIntegerValue
p1686
(dp1687
g195
S'13'
p1688
sbasbasbsg1012
(idelphi
DelphiStringAccess
p1689
(dp1690
g613
(lp1691
sg195
(idelphi
DelphiStringValue
p1692
(dp1693
g195
S'You are about to close this wizard'
p1694
sbsbsbsbsbsbsba(i__main__
DelphiIdentAccess
p1695
(dp1696
g611
S'mtConfirmation'
p1697
sg613
(lp1698
sba(idelphi
DelphiSetConstructor
p1699
(dp1700
S'setElementList'
p1701
(lp1702
(i__main__
DelphiIdentAccess
p1703
(dp1704
g611
S'mbYes'
p1705
sg613
(lp1706
sba(i__main__
DelphiIdentAccess
p1707
(dp1708
g611
S'mbNo'
p1709
sg613
(lp1710
sbasba(idelphi
DelphiIntegerValue
p1711
(dp1712
g195
S'0'
sbasbasbsg608
(i__main__
DelphiIdentAccess
p1713
(dp1714
g611
S'result'
p1715
sg613
(lp1716
sbsba(idelphi
DelphiIfStatement
p1717
(dp1718
g945
(idelphi
DelphiRelOp
p1719
(dp1720
g922
(i__main__
DelphiIdentAccess
p1721
(dp1722
g611
S'result'
p1723
sg613
(lp1724
sbsg930
(i__main__
DelphiIdentAccess
p1725
(dp1726
g611
S'mrYes'
p1727
sg613
(lp1728
sbsg935
g959
sbsg960
Nsg1056
(idelphi
DelphiCompoundStatement
p1729
(dp1730
g603
(lp1731
(i__main__
DelphiAssignStatement
p1732
(dp1733
g607
(i__main__
DelphiIdentAccess
p1734
(dp1735
g611
S'false'
p1736
sg613
(lp1737
sbsg608
(i__main__
DelphiIdentAccess
p1738
(dp1739
g611
S'CanClose'
p1740
sg613
(lp1741
sbsba(i__main__
DelphiExitStatement
p1742
(dp1743
g1515
g1480
sbasbsba(i__main__
DelphiAssignStatement
p1744
(dp1745
g607
Nsg608
(i__main__
DelphiIdentAccess
p1746
(dp1747
g611
S'ChangeLogForm'
p1748
sg613
(lp1749
(idelphi
DelphiFieldEndAccess
p1750
(dp1751
g617
S'addToLog'
p1752
sba(idelphi
DelphiFunctionEndAccess
p1753
(dp1754
g621
(lp1755
(i__main__
DelphiIdentAccess
p1756
(dp1757
g611
S'ForwardMemo'
p1758
sg613
(lp1759
(idelphi
DelphiFieldEndAccess
p1760
(dp1761
g617
S'text'
p1762
sbasbasbasbsba(i__main__
DelphiAssignStatement
p1763
(dp1764
g607
Nsg608
(i__main__
DelphiIdentAccess
p1765
(dp1766
g611
S'ChangeLogForm'
p1767
sg613
(lp1768
(idelphi
DelphiFieldEndAccess
p1769
(dp1770
g617
S'addToLog'
p1771
sba(idelphi
DelphiFunctionEndAccess
p1772
(dp1773
g621
(lp1774
(i__main__
DelphiIdentAccess
p1775
(dp1776
g611
S'BackwardMemo'
p1777
sg613
(lp1778
(idelphi
DelphiFieldEndAccess
p1779
(dp1780
g617
S'text'
p1781
sbasbasbasbsbasbsbasbsg629
(lp1782
(i__main__
DelphiVarSection
p1783
(dp1784
g1285
I0
sg1286
(lp1785
(idelphi
DelphiVarDecl
p1786
(dp1787
g1290
Nsg1291
(lp1788
S'result'
p1789
asg139
(i__main__
DelphiPrimitiveType
p1790
(dp1791
g142
S'word'
p1792
sbsbasbasbsbsS'gobackclick'
p1793
(i__main__
DelphiMethodImplementation
p1794
(dp1795
g576
g235
sg123
g237
sg131
(lp1796
(i__main__
DelphiFormalParameter
p1797
(dp1798
g135
Nsg136
(lp1799
S'Sender'
p1800
asg139
(i__main__
DelphiNamedType
p1801
(dp1802
g142
S'TObject'
p1803
sg144
g1
sg145
Nsbsg146
Nsbasg585
(lp1804
sg587
(lp1805
sg589
(lp1806
g591
ag1800
asg592
(dp1807
g1800
g1801
ssg147
S'TLinkWizardForm'
p1808
sg148
Nsg595
(lp1809
sg149
I0
sg150
g151
sg597
(i__main__
DelphiBlock
p1810
(dp1811
g600
(idelphi
DelphiCompoundStatement
p1812
(dp1813
g603
(lp1814
(idelphi
DelphiWithStatement
p1815
(dp1816
g1326
(idelphi
DelphiIfStatement
p1817
(dp1818
g945
(idelphi
DelphiRelOp
p1819
(dp1820
g922
(i__main__
DelphiIdentAccess
p1821
(dp1822
g611
S'pageIndex'
p1823
sg613
(lp1824
sbsg930
(i__main__
DelphiIdentAccess
p1825
(dp1826
g611
S'kStartPage'
p1827
sg613
(lp1828
sbsg935
S'>'
sbsg960
Nsg1056
(i__main__
DelphiAssignStatement
p1829
(dp1830
g607
(idelphi
DelphiAddOp
p1831
(dp1832
g1006
S'-'
sg1007
(idelphi
DelphiIntegerValue
p1833
(dp1834
g195
S'1'
sbsg1012
(i__main__
DelphiIdentAccess
p1835
(dp1836
g611
S'pageIndex'
p1837
sg613
(lp1838
sbsbsg608
(i__main__
DelphiIdentAccess
p1839
(dp1840
g611
S'pageIndex'
p1841
sg613
(lp1842
sbsbsbsg1355
(lp1843
(i__main__
DelphiIdentAccess
p1844
(dp1845
g611
S'notebook'
p1846
sg613
(lp1847
sbasbasbsg629
(lp1848
sbsbsS'initialize'
p1849
(i__main__
DelphiMethodImplementation
p1850
(dp1851
g576
g247
sg123
g249
sg131
(lp1852
sg585
(lp1853
sg587
(lp1854
sg589
(lp1855
g591
asg592
(dp1856
sg147
S'TLinkWizardForm'
p1857
sg148
(i__main__
DelphiPrimitiveType
p1858
(dp1859
g142
g227
sbsg595
(lp1860
sg149
I0
sg150
g196
sg597
(i__main__
DelphiBlock
p1861
(dp1862
g600
(idelphi
DelphiCompoundStatement
p1863
(dp1864
g603
(lp1865
(i__main__
DelphiAssignStatement
p1866
(dp1867
g607
(i__main__
DelphiIdentAccess
p1868
(dp1869
g611
S'false'
p1870
sg613
(lp1871
sbsg608
(i__main__
DelphiIdentAccess
p1872
(dp1873
g611
S'result'
p1874
sg613
(lp1875
sbsba(i__main__
DelphiAssignStatement
p1876
(dp1877
g607
(i__main__
DelphiIdentAccess
p1878
(dp1879
g611
S'false'
p1880
sg613
(lp1881
sbsg608
(i__main__
DelphiIdentAccess
p1882
(dp1883
g611
S'generated'
p1884
sg613
(lp1885
sbsba(i__main__
DelphiAssignStatement
p1886
(dp1887
g607
(i__main__
DelphiIdentAccess
p1888
(dp1889
g611
S'kStartPage'
p1890
sg613
(lp1891
sbsg608
(i__main__
DelphiIdentAccess
p1892
(dp1893
g611
S'notebook'
p1894
sg613
(lp1895
(idelphi
DelphiFieldEndAccess
p1896
(dp1897
g617
S'pageIndex'
p1898
sbasbsba(i__main__
DelphiAssignStatement
p1899
(dp1900
g607
Nsg608
(i__main__
DelphiIdentAccess
p1901
(dp1902
g611
S'domain'
p1903
sg613
(lp1904
(idelphi
DelphiFieldEndAccess
p1905
(dp1906
g617
S'world'
p1907
sba(idelphi
DelphiFieldEndAccess
p1908
(dp1909
g617
S'addContextsToListBox'
p1910
sba(idelphi
DelphiFunctionEndAccess
p1911
(dp1912
g621
(lp1913
(i__main__
DelphiIdentAccess
p1914
(dp1915
g611
S'FirstContextBox'
p1916
sg613
(lp1917
sbasbasbsba(idelphi
DelphiIfStatement
p1918
(dp1919
g945
(idelphi
DelphiRelOp
p1920
(dp1921
g922
(i__main__
DelphiIdentAccess
p1922
(dp1923
g611
S'FirstContextBox'
p1924
sg613
(lp1925
(idelphi
DelphiFieldEndAccess
p1926
(dp1927
g617
S'items'
p1928
sba(idelphi
DelphiFieldEndAccess
p1929
(dp1930
g617
S'count'
p1931
sbasbsg930
(idelphi
DelphiIntegerValue
p1932
(dp1933
g195
S'2'
sbsg935
S'<'
sbsg960
Nsg1056
(idelphi
DelphiCompoundStatement
p1934
(dp1935
g603
(lp1936
(i__main__
DelphiAssignStatement
p1937
(dp1938
g607
Nsg608
(i__main__
DelphiIdentAccess
p1939
(dp1940
g611
S'ShowMessage'
p1941
sg613
(lp1942
(idelphi
DelphiFunctionEndAccess
p1943
(dp1944
g621
(lp1945
(idelphi
DelphiStringAccess
p1946
(dp1947
g613
(lp1948
sg195
(idelphi
DelphiStringValue
p1949
(dp1950
g195
S'You must create at least two contexts before using the link wizard.'
p1951
sbsbasbasbsba(i__main__
DelphiExitStatement
p1952
(dp1953
g1515
g1850
sbasbsba(i__main__
DelphiAssignStatement
p1954
(dp1955
g607
Nsg608
(i__main__
DelphiIdentAccess
p1956
(dp1957
g611
S'domain'
p1958
sg613
(lp1959
(idelphi
DelphiFieldEndAccess
p1960
(dp1961
g617
S'world'
p1962
sba(idelphi
DelphiFieldEndAccess
p1963
(dp1964
g617
S'addContextsToListBox'
p1965
sba(idelphi
DelphiFunctionEndAccess
p1966
(dp1967
g621
(lp1968
(i__main__
DelphiIdentAccess
p1969
(dp1970
g611
S'SecondContextBox'
p1971
sg613
(lp1972
sbasbasbsba(i__main__
DelphiAssignStatement
p1973
(dp1974
g607
(idelphi
DelphiIntegerValue
p1975
(dp1976
g195
S'0'
sbsg608
(i__main__
DelphiIdentAccess
p1977
(dp1978
g611
S'contextCount'
p1979
sg613
(lp1980
sbsba(i__main__
DelphiAssignStatement
p1981
(dp1982
g607
Nsg608
(i__main__
DelphiIdentAccess
p1983
(dp1984
g611
S'self'
p1985
sg613
(lp1986
(idelphi
DelphiFieldEndAccess
p1987
(dp1988
g617
S'ForwardEditChange'
p1989
sba(idelphi
DelphiFunctionEndAccess
p1990
(dp1991
g621
(lp1992
(i__main__
DelphiIdentAccess
p1993
(dp1994
g611
S'self'
p1995
sg613
(lp1996
sbasbasbsba(i__main__
DelphiAssignStatement
p1997
(dp1998
g607
Nsg608
(i__main__
DelphiIdentAccess
p1999
(dp2000
g611
S'self'
p2001
sg613
(lp2002
(idelphi
DelphiFieldEndAccess
p2003
(dp2004
g617
S'BackwardEditChange'
p2005
sba(idelphi
DelphiFunctionEndAccess
p2006
(dp2007
g621
(lp2008
(i__main__
DelphiIdentAccess
p2009
(dp2010
g611
S'self'
p2011
sg613
(lp2012
sbasbasbsba(i__main__
DelphiAssignStatement
p2013
(dp2014
g607
(idelphi
DelphiStringAccess
p2015
(dp2016
g613
(lp2017
sg195
(idelphi
DelphiStringValue
p2018
(dp2019
g195
S''
sbsbsg608
(i__main__
DelphiIdentAccess
p2020
(dp2021
g611
S'ForwardEdit'
p2022
sg613
(lp2023
(idelphi
DelphiFieldEndAccess
p2024
(dp2025
g617
S'text'
p2026
sbasbsba(i__main__
DelphiAssignStatement
p2027
(dp2028
g607
(idelphi
DelphiStringAccess
p2029
(dp2030
g613
(lp2031
sg195
(idelphi
DelphiStringValue
p2032
(dp2033
g195
S''
sbsbsg608
(i__main__
DelphiIdentAccess
p2034
(dp2035
g611
S'ForwardMemo'
p2036
sg613
(lp2037
(idelphi
DelphiFieldEndAccess
p2038
(dp2039
g617
S'text'
p2040
sbasbsba(i__main__
DelphiAssignStatement
p2041
(dp2042
g607
(idelphi
DelphiStringAccess
p2043
(dp2044
g613
(lp2045
sg195
(idelphi
DelphiStringValue
p2046
(dp2047
g195
S''
sbsbsg608
(i__main__
DelphiIdentAccess
p2048
(dp2049
g611
S'BackwardEdit'
p2050
sg613
(lp2051
(idelphi
DelphiFieldEndAccess
p2052
(dp2053
g617
S'text'
p2054
sbasbsba(i__main__
DelphiAssignStatement
p2055
(dp2056
g607
(idelphi
DelphiStringAccess
p2057
(dp2058
g613
(lp2059
sg195
(idelphi
DelphiStringValue
p2060
(dp2061
g195
S''
sbsbsg608
(i__main__
DelphiIdentAccess
p2062
(dp2063
g611
S'BackwardMemo'
p2064
sg613
(lp2065
(idelphi
DelphiFieldEndAccess
p2066
(dp2067
g617
S'text'
p2068
sbasbsba(i__main__
DelphiAssignStatement
p2069
(dp2070
g607
(i__main__
DelphiIdentAccess
p2071
(dp2072
g611
S'true'
p2073
sg613
(lp2074
sbsg608
(i__main__
DelphiIdentAccess
p2075
(dp2076
g611
S'result'
p2077
sg613
(lp2078
sbsba(idelphi
DelphiForStatement
p2079
(dp2080
S'variable'
p2081
S'i'
sS'finalValue'
p2082
(idelphi
DelphiAddOp
p2083
(dp2084
g1006
S'-'
sg1007
(idelphi
DelphiIntegerValue
p2085
(dp2086
g195
S'1'
sbsg1012
(i__main__
DelphiIdentAccess
p2087
(dp2088
g611
S'domain'
p2089
sg613
(lp2090
(idelphi
DelphiFieldEndAccess
p2091
(dp2092
g617
S'world'
p2093
sba(idelphi
DelphiFieldEndAccess
p2094
(dp2095
g617
S'variables'
p2096
sba(idelphi
DelphiFieldEndAccess
p2097
(dp2098
g617
S'count'
p2099
sbasbsbsS'direction'
p2100
S'to'
p2101
sg135
(idelphi
DelphiIntegerValue
p2102
(dp2103
g195
S'0'
sbsg1326
(idelphi
DelphiCompoundStatement
p2104
(dp2105
g603
(lp2106
(i__main__
DelphiAssignStatement
p2107
(dp2108
g607
(i__main__
DelphiIdentAccess
p2109
(dp2110
g611
S'TSVariable'
p2111
sg613
(lp2112
(idelphi
DelphiFunctionEndAccess
p2113
(dp2114
g621
(lp2115
(i__main__
DelphiIdentAccess
p2116
(dp2117
g611
S'domain'
p2118
sg613
(lp2119
(idelphi
DelphiFieldEndAccess
p2120
(dp2121
g617
S'world'
p2122
sba(idelphi
DelphiFieldEndAccess
p2123
(dp2124
g617
S'variables'
p2125
sba(idelphi
DelphiArrayEndAccess
p2126
(dp2127
g621
(lp2128
(i__main__
DelphiIdentAccess
p2129
(dp2130
g611
S'i'
sg613
(lp2131
sbasbasbasbasbsg608
(i__main__
DelphiIdentAccess
p2132
(dp2133
g611
S'variable'
p2134
sg613
(lp2135
sbsg253
(lp2136
S' must be done last because of exit\r'
p2137
asba(idelphi
DelphiIfStatement
p2138
(dp2139
g945
(i__main__
DelphiIdentAccess
p2140
(dp2141
g611
S'variable'
p2142
sg613
(lp2143
(idelphi
DelphiFieldEndAccess
p2144
(dp2145
g617
S'selected'
p2146
sbasbsg960
Nsg1056
(idelphi
DelphiCompoundStatement
p2147
(dp2148
g603
(lp2149
(idelphi
DelphiIfStatement
p2150
(dp2151
g945
(idelphi
DelphiRelOp
p2152
(dp2153
g922
(i__main__
DelphiIdentAccess
p2154
(dp2155
g611
S'contextCount'
p2156
sg613
(lp2157
sbsg930
(idelphi
DelphiIntegerValue
p2158
(dp2159
g195
S'0'
sbsg935
S'='
sbsg960
(idelphi
DelphiCompoundStatement
p2160
(dp2161
g603
(lp2162
(idelphi
DelphiForStatement
p2163
(dp2164
g2081
S'j'
sg2082
(idelphi
DelphiAddOp
p2165
(dp2166
g1006
S'-'
sg1007
(idelphi
DelphiIntegerValue
p2167
(dp2168
g195
S'1'
sbsg1012
(i__main__
DelphiIdentAccess
p2169
(dp2170
g611
S'SecondContextBox'
p2171
sg613
(lp2172
(idelphi
DelphiFieldEndAccess
p2173
(dp2174
g617
S'items'
p2175
sba(idelphi
DelphiFieldEndAccess
p2176
(dp2177
g617
S'count'
p2178
sbasbsbsg2100
g2101
sg135
(idelphi
DelphiIntegerValue
p2179
(dp2180
g195
S'0'
sbsg1326
(idelphi
DelphiIfStatement
p2181
(dp2182
g945
(idelphi
DelphiRelOp
p2183
(dp2184
g922
(i__main__
DelphiIdentAccess
p2185
(dp2186
g611
S'SecondContextBox'
p2187
sg613
(lp2188
(idelphi
DelphiFieldEndAccess
p2189
(dp2190
g617
S'items'
p2191
sba(idelphi
DelphiArrayEndAccess
p2192
(dp2193
g621
(lp2194
(i__main__
DelphiIdentAccess
p2195
(dp2196
g611
S'j'
sg613
(lp2197
sbasbasbsg930
(i__main__
DelphiIdentAccess
p2198
(dp2199
g611
S'variable'
p2200
sg613
(lp2201
(idelphi
DelphiFieldEndAccess
p2202
(dp2203
g617
S'phrase'
p2204
sbasbsg935
S'='
sbsg960
Nsg1056
(idelphi
DelphiCompoundStatement
p2205
(dp2206
g603
(lp2207
(i__main__
DelphiAssignStatement
p2208
(dp2209
g607
(i__main__
DelphiIdentAccess
p2210
(dp2211
g611
S'j'
sg613
(lp2212
sbsg608
(i__main__
DelphiIdentAccess
p2213
(dp2214
g611
S'SecondContextBox'
p2215
sg613
(lp2216
(idelphi
DelphiFieldEndAccess
p2217
(dp2218
g617
S'itemIndex'
p2219
sbasbsba(i__main__
DelphiExitStatement
p2220
(dp2221
g1515
g1850
sbasbsbsbasbsg1056
(idelphi
DelphiCompoundStatement
p2222
(dp2223
g603
(lp2224
(idelphi
DelphiForStatement
p2225
(dp2226
g2081
S'j'
sg2082
(idelphi
DelphiAddOp
p2227
(dp2228
g1006
S'-'
sg1007
(idelphi
DelphiIntegerValue
p2229
(dp2230
g195
S'1'
sbsg1012
(i__main__
DelphiIdentAccess
p2231
(dp2232
g611
S'FirstContextBox'
p2233
sg613
(lp2234
(idelphi
DelphiFieldEndAccess
p2235
(dp2236
g617
S'items'
p2237
sba(idelphi
DelphiFieldEndAccess
p2238
(dp2239
g617
S'count'
p2240
sbasbsbsg2100
g2101
sg135
(idelphi
DelphiIntegerValue
p2241
(dp2242
g195
S'0'
sbsg1326
(idelphi
DelphiIfStatement
p2243
(dp2244
g945
(idelphi
DelphiRelOp
p2245
(dp2246
g922
(i__main__
DelphiIdentAccess
p2247
(dp2248
g611
S'FirstContextBox'
p2249
sg613
(lp2250
(idelphi
DelphiFieldEndAccess
p2251
(dp2252
g617
S'items'
p2253
sba(idelphi
DelphiArrayEndAccess
p2254
(dp2255
g621
(lp2256
(i__main__
DelphiIdentAccess
p2257
(dp2258
g611
S'j'
sg613
(lp2259
sbasbasbsg930
(i__main__
DelphiIdentAccess
p2260
(dp2261
g611
S'variable'
p2262
sg613
(lp2263
(idelphi
DelphiFieldEndAccess
p2264
(dp2265
g617
S'phrase'
p2266
sbasbsg935
S'='
sbsg960
Nsg1056
(idelphi
DelphiCompoundStatement
p2267
(dp2268
g603
(lp2269
(i__main__
DelphiAssignStatement
p2270
(dp2271
g607
(i__main__
DelphiIdentAccess
p2272
(dp2273
g611
S'j'
sg613
(lp2274
sbsg608
(i__main__
DelphiIdentAccess
p2275
(dp2276
g611
S'FirstContextBox'
p2277
sg613
(lp2278
(idelphi
DelphiFieldEndAccess
p2279
(dp2280
g617
S'itemIndex'
p2281
sbasbsba(i__main__
DelphiIncOrDecStatement
p2282
(dp2283
S'incOrDecString'
p2284
S'inc'
p2285
sS'incrementExpression'
p2286
Nsg608
(i__main__
DelphiIdentAccess
p2287
(dp2288
g611
S'contextCount'
p2289
sg613
(lp2290
sbsba(idelphi
DelphiBreakStatement
p2291
(dp2292
basbsbsbasbsbasbsbasbsbasbsg629
(lp2293
(i__main__
DelphiVarSection
p2294
(dp2295
g1285
I0
sg1286
(lp2296
(idelphi
DelphiVarDecl
p2297
(dp2298
g1290
Nsg1291
(lp2299
S'variable'
p2300
asg139
(i__main__
DelphiNamedType
p2301
(dp2302
g142
S'TSVariable'
p2303
sg144
g1
sg145
Nsbsba(idelphi
DelphiVarDecl
p2304
(dp2305
g1290
Nsg1291
(lp2306
S'i'
aS'j'
asg139
(i__main__
DelphiPrimitiveType
p2307
(dp2308
g142
S'integer'
p2309
sbsba(idelphi
DelphiVarDecl
p2310
(dp2311
g1290
Nsg1291
(lp2312
S'contextCount'
p2313
asg139
(i__main__
DelphiPrimitiveType
p2314
(dp2315
g142
g2309
sbsbasbasbsg253
g254
sbsS'generaterules'
p2316
(i__main__
DelphiMethodImplementation
p2317
(dp2318
g576
g230
sg123
g232
sg131
(lp2319
sg585
(lp2320
sg587
(lp2321
sg589
(lp2322
g591
asg592
(dp2323
sg147
S'TLinkWizardForm'
p2324
sg148
Nsg595
(lp2325
sg149
I0
sg150
g151
sg597
(i__main__
DelphiBlock
p2326
(dp2327
g600
(idelphi
DelphiCompoundStatement
p2328
(dp2329
g603
(lp2330
(i__main__
DelphiAssignStatement
p2331
(dp2332
g607
Nsg608
(i__main__
DelphiIdentAccess
p2333
(dp2334
g611
S'ChangeLogForm'
p2335
sg613
(lp2336
(idelphi
DelphiFieldEndAccess
p2337
(dp2338
g617
S'addToLog'
p2339
sba(idelphi
DelphiFunctionEndAccess
p2340
(dp2341
g621
(lp2342
(i__main__
DelphiIdentAccess
p2343
(dp2344
g611
S'ForwardMemo'
p2345
sg613
(lp2346
(idelphi
DelphiFieldEndAccess
p2347
(dp2348
g617
S'text'
p2349
sbasbasbasbsba(i__main__
DelphiAssignStatement
p2350
(dp2351
g607
Nsg608
(i__main__
DelphiIdentAccess
p2352
(dp2353
g611
S'ChangeLogForm'
p2354
sg613
(lp2355
(idelphi
DelphiFieldEndAccess
p2356
(dp2357
g617
S'addToLog'
p2358
sba(idelphi
DelphiFunctionEndAccess
p2359
(dp2360
g621
(lp2361
(i__main__
DelphiIdentAccess
p2362
(dp2363
g611
S'BackwardMemo'
p2364
sg613
(lp2365
(idelphi
DelphiFieldEndAccess
p2366
(dp2367
g617
S'text'
p2368
sbasbasbasbsba(i__main__
DelphiAssignStatement
p2369
(dp2370
g607
(i__main__
DelphiIdentAccess
p2371
(dp2372
g611
S'TSNewRulesCommand'
p2373
sg613
(lp2374
(idelphi
DelphiFieldEndAccess
p2375
(dp2376
g617
S'create'
p2377
sbasbsg608
(i__main__
DelphiIdentAccess
p2378
(dp2379
g611
S'newRulesCommand'
p2380
sg613
(lp2381
sbsba(i__main__
DelphiAssignStatement
p2382
(dp2383
g607
(idelphi
DelphiStringAccess
p2384
(dp2385
g613
(lp2386
sg195
(idelphi
DelphiStringValue
p2387
(dp2388
g195
S'link wizard'
p2389
sbsbsg608
(i__main__
DelphiIdentAccess
p2390
(dp2391
g611
S'newRulesCommand'
p2392
sg613
(lp2393
(idelphi
DelphiFieldEndAccess
p2394
(dp2395
g617
S'creator'
p2396
sbasbsba(i__main__
DelphiAssignStatement
p2397
(dp2398
g607
(i__main__
DelphiIdentAccess
p2399
(dp2400
g611
S'self'
p2401
sg613
(lp2402
(idelphi
DelphiFieldEndAccess
p2403
(dp2404
g617
S'makeLink'
p2405
sba(idelphi
DelphiFunctionEndAccess
p2406
(dp2407
g621
(lp2408
(i__main__
DelphiIdentAccess
p2409
(dp2410
g611
S'Trim'
p2411
sg613
(lp2412
(idelphi
DelphiFunctionEndAccess
p2413
(dp2414
g621
(lp2415
(i__main__
DelphiIdentAccess
p2416
(dp2417
g611
S'firstContext'
p2418
sg613
(lp2419
sbasbasba(i__main__
DelphiIdentAccess
p2420
(dp2421
g611
S'Trim'
p2422
sg613
(lp2423
(idelphi
DelphiFunctionEndAccess
p2424
(dp2425
g621
(lp2426
(i__main__
DelphiIdentAccess
p2427
(dp2428
g611
S'secondContext'
p2429
sg613
(lp2430
sbasbasba(i__main__
DelphiIdentAccess
p2431
(dp2432
g611
S'Trim'
p2433
sg613
(lp2434
(idelphi
DelphiFunctionEndAccess
p2435
(dp2436
g621
(lp2437
(i__main__
DelphiIdentAccess
p2438
(dp2439
g611
S'ForwardEdit'
p2440
sg613
(lp2441
(idelphi
DelphiFieldEndAccess
p2442
(dp2443
g617
S'text'
p2444
sbasbasbasba(i__main__
DelphiIdentAccess
p2445
(dp2446
g611
S'Trim'
p2447
sg613
(lp2448
(idelphi
DelphiFunctionEndAccess
p2449
(dp2450
g621
(lp2451
(i__main__
DelphiIdentAccess
p2452
(dp2453
g611
S'ForwardMemo'
p2454
sg613
(lp2455
(idelphi
DelphiFieldEndAccess
p2456
(dp2457
g617
S'text'
p2458
sbasbasbasbasbasbsg608
(i__main__
DelphiIdentAccess
p2459
(dp2460
g611
S'newRule'
p2461
sg613
(lp2462
sbsba(idelphi
DelphiIfStatement
p2463
(dp2464
g945
(idelphi
DelphiRelOp
p2465
(dp2466
g922
(i__main__
DelphiIdentAccess
p2467
(dp2468
g611
S'newRule'
p2469
sg613
(lp2470
sbsg930
(idelphi
DelphiNilValue
p2471
(dp2472
bsg935
g959
sbsg960
Nsg1056
(i__main__
DelphiAssignStatement
p2473
(dp2474
g607
Nsg608
(i__main__
DelphiIdentAccess
p2475
(dp2476
g611
S'newRulesCommand'
p2477
sg613
(lp2478
(idelphi
DelphiFieldEndAccess
p2479
(dp2480
g617
S'addRule'
p2481
sba(idelphi
DelphiFunctionEndAccess
p2482
(dp2483
g621
(lp2484
(i__main__
DelphiIdentAccess
p2485
(dp2486
g611
S'newRule'
p2487
sg613
(lp2488
sbasbasbsbsba(i__main__
DelphiAssignStatement
p2489
(dp2490
g607
(i__main__
DelphiIdentAccess
p2491
(dp2492
g611
S'self'
p2493
sg613
(lp2494
(idelphi
DelphiFieldEndAccess
p2495
(dp2496
g617
S'makeLink'
p2497
sba(idelphi
DelphiFunctionEndAccess
p2498
(dp2499
g621
(lp2500
(i__main__
DelphiIdentAccess
p2501
(dp2502
g611
S'Trim'
p2503
sg613
(lp2504
(idelphi
DelphiFunctionEndAccess
p2505
(dp2506
g621
(lp2507
(i__main__
DelphiIdentAccess
p2508
(dp2509
g611
S'secondContext'
p2510
sg613
(lp2511
sbasbasba(i__main__
DelphiIdentAccess
p2512
(dp2513
g611
S'Trim'
p2514
sg613
(lp2515
(idelphi
DelphiFunctionEndAccess
p2516
(dp2517
g621
(lp2518
(i__main__
DelphiIdentAccess
p2519
(dp2520
g611
S'firstContext'
p2521
sg613
(lp2522
sbasbasba(i__main__
DelphiIdentAccess
p2523
(dp2524
g611
S'Trim'
p2525
sg613
(lp2526
(idelphi
DelphiFunctionEndAccess
p2527
(dp2528
g621
(lp2529
(i__main__
DelphiIdentAccess
p2530
(dp2531
g611
S'BackwardEdit'
p2532
sg613
(lp2533
(idelphi
DelphiFieldEndAccess
p2534
(dp2535
g617
S'text'
p2536
sbasbasbasba(i__main__
DelphiIdentAccess
p2537
(dp2538
g611
S'Trim'
p2539
sg613
(lp2540
(idelphi
DelphiFunctionEndAccess
p2541
(dp2542
g621
(lp2543
(i__main__
DelphiIdentAccess
p2544
(dp2545
g611
S'BackwardMemo'
p2546
sg613
(lp2547
(idelphi
DelphiFieldEndAccess
p2548
(dp2549
g617
S'text'
p2550
sbasbasbasbasbasbsg608
(i__main__
DelphiIdentAccess
p2551
(dp2552
g611
S'newRule'
p2553
sg613
(lp2554
sbsba(idelphi
DelphiIfStatement
p2555
(dp2556
g945
(idelphi
DelphiRelOp
p2557
(dp2558
g922
(i__main__
DelphiIdentAccess
p2559
(dp2560
g611
S'newRule'
p2561
sg613
(lp2562
sbsg930
(idelphi
DelphiNilValue
p2563
(dp2564
bsg935
g959
sbsg960
Nsg1056
(i__main__
DelphiAssignStatement
p2565
(dp2566
g607
Nsg608
(i__main__
DelphiIdentAccess
p2567
(dp2568
g611
S'newRulesCommand'
p2569
sg613
(lp2570
(idelphi
DelphiFieldEndAccess
p2571
(dp2572
g617
S'addRule'
p2573
sba(idelphi
DelphiFunctionEndAccess
p2574
(dp2575
g621
(lp2576
(i__main__
DelphiIdentAccess
p2577
(dp2578
g611
S'newRule'
p2579
sg613
(lp2580
sbasbasbsbsba(idelphi
DelphiIfStatement
p2581
(dp2582
g945
(idelphi
DelphiRelOp
p2583
(dp2584
g922
(i__main__
DelphiIdentAccess
p2585
(dp2586
g611
S'newRulesCommand'
p2587
sg613
(lp2588
(idelphi
DelphiFieldEndAccess
p2589
(dp2590
g617
S'rules'
p2591
sba(idelphi
DelphiFieldEndAccess
p2592
(dp2593
g617
S'count'
p2594
sbasbsg930
(idelphi
DelphiIntegerValue
p2595
(dp2596
g195
S'0'
sbsg935
S'>'
sbsg960
(i__main__
DelphiAssignStatement
p2597
(dp2598
g607
Nsg608
(i__main__
DelphiIdentAccess
p2599
(dp2600
g611
S'newRulesCommand'
p2601
sg613
(lp2602
(idelphi
DelphiFieldEndAccess
p2603
(dp2604
g617
S'free'
p2605
sbasbsbsg1056
(i__main__
DelphiAssignStatement
p2606
(dp2607
g607
Nsg608
(i__main__
DelphiIdentAccess
p2608
(dp2609
g611
S'domain'
p2610
sg613
(lp2611
(idelphi
DelphiFieldEndAccess
p2612
(dp2613
g617
S'worldCommandList'
p2614
sba(idelphi
DelphiFieldEndAccess
p2615
(dp2616
g617
S'doCommand'
p2617
sba(idelphi
DelphiFunctionEndAccess
p2618
(dp2619
g621
(lp2620
(i__main__
DelphiIdentAccess
p2621
(dp2622
g611
S'newRulesCommand'
p2623
sg613
(lp2624
sbasbasbsbsba(i__main__
DelphiAssignStatement
p2625
(dp2626
g607
Nsg608
(i__main__
DelphiIdentAccess
p2627
(dp2628
g611
S'RuleEditorForm'
p2629
sg613
(lp2630
(idelphi
DelphiFieldEndAccess
p2631
(dp2632
g617
S'updateForRuleChange'
p2633
sbasbsba(i__main__
DelphiAssignStatement
p2634
(dp2635
g607
Nsg608
(i__main__
DelphiIdentAccess
p2636
(dp2637
g611
S'RuleEditorForm'
p2638
sg613
(lp2639
(idelphi
DelphiFieldEndAccess
p2640
(dp2641
g617
S'adjustScrollBars'
p2642
sbasbsba(i__main__
DelphiAssignStatement
p2643
(dp2644
g607
(idelphi
DelphiIntegerValue
p2645
(dp2646
g195
S'1'
sbsg608
(i__main__
DelphiIdentAccess
p2647
(dp2648
g611
S'self'
p2649
sg613
(lp2650
(idelphi
DelphiFieldEndAccess
p2651
(dp2652
g617
S'modalResult'
p2653
sbasbsba(i__main__
DelphiAssignStatement
p2654
(dp2655
g607
(i__main__
DelphiIdentAccess
p2656
(dp2657
g611
S'true'
p2658
sg613
(lp2659
sbsg608
(i__main__
DelphiIdentAccess
p2660
(dp2661
g611
S'generated'
p2662
sg613
(lp2663
sbsbasbsg629
(lp2664
(i__main__
DelphiVarSection
p2665
(dp2666
g1285
I0
sg1286
(lp2667
(idelphi
DelphiVarDecl
p2668
(dp2669
g1290
Nsg1291
(lp2670
S'newRulesCommand'
p2671
asg139
(i__main__
DelphiNamedType
p2672
(dp2673
g142
S'TSNewRulesCommand'
p2674
sg144
g1
sg145
Nsbsba(idelphi
DelphiVarDecl
p2675
(dp2676
g1290
Nsg1291
(lp2677
S'newRule'
p2678
asg139
(i__main__
DelphiNamedType
p2679
(dp2680
g142
S'TSRule'
p2681
sg144
g1
sg145
NsbsbasbasbsbsS'gonextclick'
p2682
(i__main__
DelphiMethodImplementation
p2683
(dp2684
g576
g265
sg123
g267
sg131
(lp2685
(i__main__
DelphiFormalParameter
p2686
(dp2687
g135
Nsg136
(lp2688
S'Sender'
p2689
asg139
(i__main__
DelphiNamedType
p2690
(dp2691
g142
S'TObject'
p2692
sg144
g1
sg145
Nsbsg146
Nsbasg585
(lp2693
sg587
(lp2694
sg589
(lp2695
g591
ag2689
asg592
(dp2696
g2689
g2690
ssg147
S'TLinkWizardForm'
p2697
sg148
Nsg595
(lp2698
sg149
I0
sg150
g151
sg597
(i__main__
DelphiBlock
p2699
(dp2700
g600
(idelphi
DelphiCompoundStatement
p2701
(dp2702
g603
(lp2703
(i__main__
DelphiAssignStatement
p2704
(dp2705
g607
(i__main__
DelphiIdentAccess
p2706
(dp2707
g611
S'trim'
p2708
sg613
(lp2709
(idelphi
DelphiFunctionEndAccess
p2710
(dp2711
g621
(lp2712
(i__main__
DelphiIdentAccess
p2713
(dp2714
g611
S'self'
p2715
sg613
(lp2716
(idelphi
DelphiFieldEndAccess
p2717
(dp2718
g617
S'firstContext'
p2719
sbasbasbasbsg608
(i__main__
DelphiIdentAccess
p2720
(dp2721
g611
S'first'
p2722
sg613
(lp2723
sbsba(i__main__
DelphiAssignStatement
p2724
(dp2725
g607
(i__main__
DelphiIdentAccess
p2726
(dp2727
g611
S'trim'
p2728
sg613
(lp2729
(idelphi
DelphiFunctionEndAccess
p2730
(dp2731
g621
(lp2732
(i__main__
DelphiIdentAccess
p2733
(dp2734
g611
S'self'
p2735
sg613
(lp2736
(idelphi
DelphiFieldEndAccess
p2737
(dp2738
g617
S'secondContext'
p2739
sbasbasbasbsg608
(i__main__
DelphiIdentAccess
p2740
(dp2741
g611
S'second'
p2742
sg613
(lp2743
sbsba(idelphi
DelphiIfStatement
p2744
(dp2745
g945
(idelphi
DelphiRelOp
p2746
(dp2747
g922
(i__main__
DelphiIdentAccess
p2748
(dp2749
g611
S'notebook'
p2750
sg613
(lp2751
(idelphi
DelphiFieldEndAccess
p2752
(dp2753
g617
S'pageIndex'
p2754
sbasbsg930
(i__main__
DelphiIdentAccess
p2755
(dp2756
g611
S'kFinishPage'
p2757
sg613
(lp2758
sbsg935
S'='
sbsg960
(idelphi
DelphiIfStatement
p2759
(dp2760
g945
(idelphi
DelphiRelOp
p2761
(dp2762
g922
(i__main__
DelphiIdentAccess
p2763
(dp2764
g611
S'notebook'
p2765
sg613
(lp2766
(idelphi
DelphiFieldEndAccess
p2767
(dp2768
g617
S'pageIndex'
p2769
sbasbsg930
(i__main__
DelphiIdentAccess
p2770
(dp2771
g611
S'kContextsPage'
p2772
sg613
(lp2773
sbsg935
S'='
sbsg960
Nsg1056
(idelphi
DelphiCompoundStatement
p2774
(dp2775
g603
(lp2776
(idelphi
DelphiIfStatement
p2777
(dp2778
g945
(idelphi
DelphiAddOp
p2779
(dp2780
g1006
g1520
sg1007
(idelphi
DelphiNestedExpressionListAccess
p2781
(dp2782
g613
(lp2783
sg621
(lp2784
(idelphi
DelphiRelOp
p2785
(dp2786
g922
(i__main__
DelphiIdentAccess
p2787
(dp2788
g611
S'second'
p2789
sg613
(lp2790
sbsg930
(idelphi
DelphiStringAccess
p2791
(dp2792
g613
(lp2793
sg195
(idelphi
DelphiStringValue
p2794
(dp2795
g195
S''
sbsbsg935
S'='
sbasbsg1012
(idelphi
DelphiNestedExpressionListAccess
p2796
(dp2797
g613
(lp2798
sg621
(lp2799
(idelphi
DelphiRelOp
p2800
(dp2801
g922
(i__main__
DelphiIdentAccess
p2802
(dp2803
g611
S'first'
p2804
sg613
(lp2805
sbsg930
(idelphi
DelphiStringAccess
p2806
(dp2807
g613
(lp2808
sg195
(idelphi
DelphiStringValue
p2809
(dp2810
g195
S''
sbsbsg935
S'='
sbasbsbsg960
Nsg1056
(idelphi
DelphiCompoundStatement
p2811
(dp2812
g603
(lp2813
(i__main__
DelphiAssignStatement
p2814
(dp2815
g607
Nsg608
(i__main__
DelphiIdentAccess
p2816
(dp2817
g611
S'ShowMessage'
p2818
sg613
(lp2819
(idelphi
DelphiFunctionEndAccess
p2820
(dp2821
g621
(lp2822
(idelphi
DelphiStringAccess
p2823
(dp2824
g613
(lp2825
sg195
(idelphi
DelphiStringValue
p2826
(dp2827
g195
S'Both contexts must be entered to proceed.'
p2828
sbsbasbasbsba(i__main__
DelphiExitStatement
p2829
(dp2830
g1515
g2683
sbasbsba(idelphi
DelphiIfStatement
p2831
(dp2832
g945
(idelphi
DelphiRelOp
p2833
(dp2834
g922
(i__main__
DelphiIdentAccess
p2835
(dp2836
g611
S'first'
p2837
sg613
(lp2838
sbsg930
(i__main__
DelphiIdentAccess
p2839
(dp2840
g611
S'second'
p2841
sg613
(lp2842
sbsg935
S'='
sbsg960
Nsg1056
(idelphi
DelphiCompoundStatement
p2843
(dp2844
g603
(lp2845
(i__main__
DelphiAssignStatement
p2846
(dp2847
g607
Nsg608
(i__main__
DelphiIdentAccess
p2848
(dp2849
g611
S'ShowMessage'
p2850
sg613
(lp2851
(idelphi
DelphiFunctionEndAccess
p2852
(dp2853
g621
(lp2854
(idelphi
DelphiStringAccess
p2855
(dp2856
g613
(lp2857
sg195
(idelphi
DelphiStringValue
p2858
(dp2859
g195
S'The two contexts must have different names.'
p2860
sbsbasbasbsba(i__main__
DelphiExitStatement
p2861
(dp2862
g1515
g2683
sbasbsba(i__main__
DelphiAssignStatement
p2863
(dp2864
g607
(idelphi
DelphiAddOp
p2865
(dp2866
g1006
S'+'
sg1007
(i__main__
DelphiIdentAccess
p2867
(dp2868
g611
S'second'
p2869
sg613
(lp2870
sbsg1012
(idelphi
DelphiAddOp
p2871
(dp2872
g1006
S'+'
sg1007
(idelphi
DelphiStringAccess
p2873
(dp2874
g613
(lp2875
sg195
(idelphi
DelphiStringValue
p2876
(dp2877
g195
S' --> '
p2878
sbsbsg1012
(i__main__
DelphiIdentAccess
p2879
(dp2880
g611
S'first'
p2881
sg613
(lp2882
sbsbsbsg608
(i__main__
DelphiIdentAccess
p2883
(dp2884
g611
S'ForwardLabel'
p2885
sg613
(lp2886
(idelphi
DelphiFieldEndAccess
p2887
(dp2888
g617
S'caption'
p2889
sbasbsba(i__main__
DelphiAssignStatement
p2890
(dp2891
g607
(idelphi
DelphiAddOp
p2892
(dp2893
g1006
S'+'
sg1007
(i__main__
DelphiIdentAccess
p2894
(dp2895
g611
S'first'
p2896
sg613
(lp2897
sbsg1012
(idelphi
DelphiAddOp
p2898
(dp2899
g1006
S'+'
sg1007
(idelphi
DelphiStringAccess
p2900
(dp2901
g613
(lp2902
sg195
(idelphi
DelphiStringValue
p2903
(dp2904
g195
S' --> '
p2905
sbsbsg1012
(i__main__
DelphiIdentAccess
p2906
(dp2907
g611
S'second'
p2908
sg613
(lp2909
sbsbsbsg608
(i__main__
DelphiIdentAccess
p2910
(dp2911
g611
S'BackwardLabel'
p2912
sg613
(lp2913
(idelphi
DelphiFieldEndAccess
p2914
(dp2915
g617
S'caption'
p2916
sbasbsbasbsbsg1056
(i__main__
DelphiAssignStatement
p2917
(dp2918
g607
Nsg608
(i__main__
DelphiIdentAccess
p2919
(dp2920
g611
S'self'
p2921
sg613
(lp2922
(idelphi
DelphiFieldEndAccess
p2923
(dp2924
g617
S'generateRules'
p2925
sbasbsbsba(idelphi
DelphiIfStatement
p2926
(dp2927
g945
(idelphi
DelphiRelOp
p2928
(dp2929
g922
(i__main__
DelphiIdentAccess
p2930
(dp2931
g611
S'notebook'
p2932
sg613
(lp2933
(idelphi
DelphiFieldEndAccess
p2934
(dp2935
g617
S'pageIndex'
p2936
sbasbsg930
(i__main__
DelphiIdentAccess
p2937
(dp2938
g611
S'kForwardPage'
p2939
sg613
(lp2940
sbsg935
S'='
sbsg960
Nsg1056
(idelphi
DelphiCompoundStatement
p2941
(dp2942
g603
(lp2943
(idelphi
DelphiIfStatement
p2944
(dp2945
g945
(idelphi
DelphiMulOp
p2946
(dp2947
S'signedFactor2'
p2948
(idelphi
DelphiNestedExpressionListAccess
p2949
(dp2950
g613
(lp2951
sg621
(lp2952
(idelphi
DelphiRelOp
p2953
(dp2954
g922
(i__main__
DelphiIdentAccess
p2955
(dp2956
g611
S'Trim'
p2957
sg613
(lp2958
(idelphi
DelphiFunctionEndAccess
p2959
(dp2960
g621
(lp2961
(i__main__
DelphiIdentAccess
p2962
(dp2963
g611
S'ForwardMemo'
p2964
sg613
(lp2965
(idelphi
DelphiFieldEndAccess
p2966
(dp2967
g617
S'text'
p2968
sbasbasbasbsg930
(idelphi
DelphiStringAccess
p2969
(dp2970
g613
(lp2971
sg195
(idelphi
DelphiStringValue
p2972
(dp2973
g195
S''
sbsbsg935
g959
sbasbsS'mulOp'
p2974
S'and'
p2975
sS'signedFactor1'
p2976
(idelphi
DelphiNestedExpressionListAccess
p2977
(dp2978
g613
(lp2979
sg621
(lp2980
(idelphi
DelphiRelOp
p2981
(dp2982
g922
(i__main__
DelphiIdentAccess
p2983
(dp2984
g611
S'Trim'
p2985
sg613
(lp2986
(idelphi
DelphiFunctionEndAccess
p2987
(dp2988
g621
(lp2989
(i__main__
DelphiIdentAccess
p2990
(dp2991
g611
S'ForwardEdit'
p2992
sg613
(lp2993
(idelphi
DelphiFieldEndAccess
p2994
(dp2995
g617
S'text'
p2996
sbasbasbasbsg930
(idelphi
DelphiStringAccess
p2997
(dp2998
g613
(lp2999
sg195
(idelphi
DelphiStringValue
p3000
(dp3001
g195
S''
sbsbsg935
S'='
sbasbsbsg960
Nsg1056
(idelphi
DelphiCompoundStatement
p3002
(dp3003
g603
(lp3004
(i__main__
DelphiAssignStatement
p3005
(dp3006
g607
Nsg608
(i__main__
DelphiIdentAccess
p3007
(dp3008
g611
S'ShowMessage'
p3009
sg613
(lp3010
(idelphi
DelphiFunctionEndAccess
p3011
(dp3012
g621
(lp3013
(idelphi
DelphiStringAccess
p3014
(dp3015
g613
(lp3016
sg195
(idelphi
DelphiStringValue
p3017
(dp3018
g195
S'You must enter a command phrase if you enter a reply.'
p3019
sbsbasbasbsba(i__main__
DelphiExitStatement
p3020
(dp3021
g1515
g2683
sbasbsbasbsba(idelphi
DelphiIfStatement
p3022
(dp3023
g945
(idelphi
DelphiRelOp
p3024
(dp3025
g922
(i__main__
DelphiIdentAccess
p3026
(dp3027
g611
S'notebook'
p3028
sg613
(lp3029
(idelphi
DelphiFieldEndAccess
p3030
(dp3031
g617
S'pageIndex'
p3032
sbasbsg930
(i__main__
DelphiIdentAccess
p3033
(dp3034
g611
S'kBackwardPage'
p3035
sg613
(lp3036
sbsg935
S'='
sbsg960
Nsg1056
(idelphi
DelphiCompoundStatement
p3037
(dp3038
g603
(lp3039
(idelphi
DelphiIfStatement
p3040
(dp3041
g945
(idelphi
DelphiMulOp
p3042
(dp3043
g2948
(idelphi
DelphiNestedExpressionListAccess
p3044
(dp3045
g613
(lp3046
sg621
(lp3047
(idelphi
DelphiRelOp
p3048
(dp3049
g922
(i__main__
DelphiIdentAccess
p3050
(dp3051
g611
S'Trim'
p3052
sg613
(lp3053
(idelphi
DelphiFunctionEndAccess
p3054
(dp3055
g621
(lp3056
(i__main__
DelphiIdentAccess
p3057
(dp3058
g611
S'BackwardMemo'
p3059
sg613
(lp3060
(idelphi
DelphiFieldEndAccess
p3061
(dp3062
g617
S'text'
p3063
sbasbasbasbsg930
(idelphi
DelphiStringAccess
p3064
(dp3065
g613
(lp3066
sg195
(idelphi
DelphiStringValue
p3067
(dp3068
g195
S''
sbsbsg935
g959
sbasbsg2974
g2975
sg2976
(idelphi
DelphiNestedExpressionListAccess
p3069
(dp3070
g613
(lp3071
sg621
(lp3072
(idelphi
DelphiRelOp
p3073
(dp3074
g922
(i__main__
DelphiIdentAccess
p3075
(dp3076
g611
S'Trim'
p3077
sg613
(lp3078
(idelphi
DelphiFunctionEndAccess
p3079
(dp3080
g621
(lp3081
(i__main__
DelphiIdentAccess
p3082
(dp3083
g611
S'BackwardEdit'
p3084
sg613
(lp3085
(idelphi
DelphiFieldEndAccess
p3086
(dp3087
g617
S'text'
p3088
sbasbasbasbsg930
(idelphi
DelphiStringAccess
p3089
(dp3090
g613
(lp3091
sg195
(idelphi
DelphiStringValue
p3092
(dp3093
g195
S''
sbsbsg935
S'='
sbasbsbsg960
Nsg1056
(idelphi
DelphiCompoundStatement
p3094
(dp3095
g603
(lp3096
(i__main__
DelphiAssignStatement
p3097
(dp3098
g607
Nsg608
(i__main__
DelphiIdentAccess
p3099
(dp3100
g611
S'ShowMessage'
p3101
sg613
(lp3102
(idelphi
DelphiFunctionEndAccess
p3103
(dp3104
g621
(lp3105
(idelphi
DelphiStringAccess
p3106
(dp3107
g613
(lp3108
sg195
(idelphi
DelphiStringValue
p3109
(dp3110
g195
S'You must enter a command phrase if you enter a reply.'
p3111
sbsbasbasbsba(i__main__
DelphiExitStatement
p3112
(dp3113
g1515
g2683
sbasbsba(idelphi
DelphiIfStatement
p3114
(dp3115
g945
(idelphi
DelphiMulOp
p3116
(dp3117
g2948
(idelphi
DelphiNestedExpressionListAccess
p3118
(dp3119
g613
(lp3120
sg621
(lp3121
(idelphi
DelphiRelOp
p3122
(dp3123
g922
(i__main__
DelphiIdentAccess
p3124
(dp3125
g611
S'Trim'
p3126
sg613
(lp3127
(idelphi
DelphiFunctionEndAccess
p3128
(dp3129
g621
(lp3130
(i__main__
DelphiIdentAccess
p3131
(dp3132
g611
S'ForwardEdit'
p3133
sg613
(lp3134
(idelphi
DelphiFieldEndAccess
p3135
(dp3136
g617
S'text'
p3137
sbasbasbasbsg930
(idelphi
DelphiStringAccess
p3138
(dp3139
g613
(lp3140
sg195
(idelphi
DelphiStringValue
p3141
(dp3142
g195
S''
sbsbsg935
S'='
sbasbsg2974
g2975
sg2976
(idelphi
DelphiNestedExpressionListAccess
p3143
(dp3144
g613
(lp3145
sg621
(lp3146
(idelphi
DelphiRelOp
p3147
(dp3148
g922
(i__main__
DelphiIdentAccess
p3149
(dp3150
g611
S'Trim'
p3151
sg613
(lp3152
(idelphi
DelphiFunctionEndAccess
p3153
(dp3154
g621
(lp3155
(i__main__
DelphiIdentAccess
p3156
(dp3157
g611
S'BackwardEdit'
p3158
sg613
(lp3159
(idelphi
DelphiFieldEndAccess
p3160
(dp3161
g617
S'text'
p3162
sbasbasbasbsg930
(idelphi
DelphiStringAccess
p3163
(dp3164
g613
(lp3165
sg195
(idelphi
DelphiStringValue
p3166
(dp3167
g195
S''
sbsbsg935
S'='
sbasbsbsg960
Nsg1056
(idelphi
DelphiCompoundStatement
p3168
(dp3169
g603
(lp3170
(i__main__
DelphiAssignStatement
p3171
(dp3172
g607
Nsg608
(i__main__
DelphiIdentAccess
p3173
(dp3174
g611
S'ShowMessage'
p3175
sg613
(lp3176
(idelphi
DelphiFunctionEndAccess
p3177
(dp3178
g621
(lp3179
(idelphi
DelphiStringAccess
p3180
(dp3181
g613
(lp3182
sg195
(idelphi
DelphiStringValue
p3183
(dp3184
g195
S'You must enter a command on this page or the previous page to generate a link.'
p3185
sbsbasbasbsba(i__main__
DelphiExitStatement
p3186
(dp3187
g1515
g2683
sbasbsbasbsba(idelphi
DelphiWithStatement
p3188
(dp3189
g1326
(idelphi
DelphiIfStatement
p3190
(dp3191
g945
(idelphi
DelphiRelOp
p3192
(dp3193
g922
(i__main__
DelphiIdentAccess
p3194
(dp3195
g611
S'pageIndex'
p3196
sg613
(lp3197
sbsg930
(i__main__
DelphiIdentAccess
p3198
(dp3199
g611
S'kFinishPage'
p3200
sg613
(lp3201
sbsg935
S'<'
sbsg960
Nsg1056
(i__main__
DelphiAssignStatement
p3202
(dp3203
g607
(idelphi
DelphiAddOp
p3204
(dp3205
g1006
S'+'
sg1007
(idelphi
DelphiIntegerValue
p3206
(dp3207
g195
S'1'
sbsg1012
(i__main__
DelphiIdentAccess
p3208
(dp3209
g611
S'pageIndex'
p3210
sg613
(lp3211
sbsbsg608
(i__main__
DelphiIdentAccess
p3212
(dp3213
g611
S'pageIndex'
p3214
sg613
(lp3215
sbsbsbsg1355
(lp3216
(i__main__
DelphiIdentAccess
p3217
(dp3218
g611
S'notebook'
p3219
sg613
(lp3220
sbasbasbsg629
(lp3221
(i__main__
DelphiVarSection
p3222
(dp3223
g1285
I0
sg1286
(lp3224
(idelphi
DelphiVarDecl
p3225
(dp3226
g1290
Nsg1291
(lp3227
S'first'
p3228
aS'second'
p3229
asg139
(i__main__
DelphiPrimitiveType
p3230
(dp3231
g142
g195
sbsbasbasbsbsS'makelink'
p3232
(i__main__
DelphiMethodImplementation
p3233
(dp3234
g576
g277
sg123
g279
sg131
(lp3235
(i__main__
DelphiFormalParameter
p3236
(dp3237
g135
Nsg136
(lp3238
S'firstContext'
p3239
asg139
(i__main__
DelphiPrimitiveType
p3240
(dp3241
g142
g195
sbsg146
g287
sba(i__main__
DelphiFormalParameter
p3242
(dp3243
g135
Nsg136
(lp3244
S'secondContext'
p3245
asg139
(i__main__
DelphiPrimitiveType
p3246
(dp3247
g142
g195
sbsg146
Nsba(i__main__
DelphiFormalParameter
p3248
(dp3249
g135
Nsg136
(lp3250
S'command'
p3251
asg139
(i__main__
DelphiPrimitiveType
p3252
(dp3253
g142
g195
sbsg146
g287
sba(i__main__
DelphiFormalParameter
p3254
(dp3255
g135
Nsg136
(lp3256
S'reply'
p3257
asg139
(i__main__
DelphiPrimitiveType
p3258
(dp3259
g142
g195
sbsg146
g287
sbasg585
(lp3260
sg587
(lp3261
sg589
(lp3262
g591
ag3239
ag3245
ag3251
ag3257
asg592
(dp3263
g3245
g3246
sg3257
g3258
sg3251
g3252
sg3239
g3240
ssg147
S'TLinkWizardForm'
p3264
sg148
(i__main__
DelphiNamedType
p3265
(dp3266
g142
S'TSRule'
p3267
sg144
g1
sg145
Nsbsg595
(lp3268
sg149
I0
sg150
g196
sg597
(i__main__
DelphiBlock
p3269
(dp3270
g600
(idelphi
DelphiCompoundStatement
p3271
(dp3272
g603
(lp3273
(i__main__
DelphiAssignStatement
p3274
(dp3275
g607
(idelphi
DelphiNilValue
p3276
(dp3277
bsg608
(i__main__
DelphiIdentAccess
p3278
(dp3279
g611
S'result'
p3280
sg613
(lp3281
sbsba(idelphi
DelphiIfStatement
p3282
(dp3283
g945
(idelphi
DelphiRelOp
p3284
(dp3285
g922
(i__main__
DelphiIdentAccess
p3286
(dp3287
g611
S'firstContext'
p3288
sg613
(lp3289
sbsg930
(idelphi
DelphiStringAccess
p3290
(dp3291
g613
(lp3292
sg195
(idelphi
DelphiStringValue
p3293
(dp3294
g195
S''
sbsbsg935
S'='
sbsg960
Nsg1056
(i__main__
DelphiExitStatement
p3295
(dp3296
g1515
g3233
sbsba(i__main__
DelphiAssignStatement
p3297
(dp3298
g607
(i__main__
DelphiIdentAccess
p3299
(dp3300
g611
S'domain'
p3301
sg613
(lp3302
(idelphi
DelphiFieldEndAccess
p3303
(dp3304
g617
S'world'
p3305
sba(idelphi
DelphiFieldEndAccess
p3306
(dp3307
g617
S'newRule'
p3308
sbasbsg608
(i__main__
DelphiIdentAccess
p3309
(dp3310
g611
S'result'
p3311
sg613
(lp3312
sbsba(i__main__
DelphiAssignStatement
p3313
(dp3314
g607
(i__main__
DelphiIdentAccess
p3315
(dp3316
g611
S'result'
p3317
sg613
(lp3318
sbsg608
(i__main__
DelphiIdentAccess
p3319
(dp3320
g611
S'RuleEditorForm'
p3321
sg613
(lp3322
(idelphi
DelphiFieldEndAccess
p3323
(dp3324
g617
S'lastChoice'
p3325
sbasbsba(i__main__
DelphiAssignStatement
p3326
(dp3327
g607
Nsg608
(i__main__
DelphiIdentAccess
p3328
(dp3329
g611
S'result'
p3330
sg613
(lp3331
(idelphi
DelphiFieldEndAccess
p3332
(dp3333
g617
S'setContext'
p3334
sba(idelphi
DelphiFunctionEndAccess
p3335
(dp3336
g621
(lp3337
(i__main__
DelphiIdentAccess
p3338
(dp3339
g611
S'firstContext'
p3340
sg613
(lp3341
sbasbasbsba(i__main__
DelphiAssignStatement
p3342
(dp3343
g607
Nsg608
(i__main__
DelphiIdentAccess
p3344
(dp3345
g611
S'result'
p3346
sg613
(lp3347
(idelphi
DelphiFieldEndAccess
p3348
(dp3349
g617
S'setCommand'
p3350
sba(idelphi
DelphiFunctionEndAccess
p3351
(dp3352
g621
(lp3353
(i__main__
DelphiIdentAccess
p3354
(dp3355
g611
S'command'
p3356
sg613
(lp3357
sbasbasbsba(idelphi
DelphiIfStatement
p3358
(dp3359
g945
(idelphi
DelphiRelOp
p3360
(dp3361
g922
(i__main__
DelphiIdentAccess
p3362
(dp3363
g611
S'Trim'
p3364
sg613
(lp3365
(idelphi
DelphiFunctionEndAccess
p3366
(dp3367
g621
(lp3368
(i__main__
DelphiIdentAccess
p3369
(dp3370
g611
S'reply'
p3371
sg613
(lp3372
sbasbasbsg930
(idelphi
DelphiStringAccess
p3373
(dp3374
g613
(lp3375
sg195
(idelphi
DelphiStringValue
p3376
(dp3377
g195
S''
sbsbsg935
g959
sbsg960
(i__main__
DelphiAssignStatement
p3378
(dp3379
g607
Nsg608
(i__main__
DelphiIdentAccess
p3380
(dp3381
g611
S'result'
p3382
sg613
(lp3383
(idelphi
DelphiFieldEndAccess
p3384
(dp3385
g617
S'setReply'
p3386
sba(idelphi
DelphiFunctionEndAccess
p3387
(dp3388
g621
(lp3389
(idelphi
DelphiAddOp
p3390
(dp3391
g1006
S'+'
sg1007
(idelphi
DelphiStringAccess
p3392
(dp3393
g613
(lp3394
sg195
(idelphi
DelphiStringValue
p3395
(dp3396
g195
S'.'
sbsbsg1012
(idelphi
DelphiAddOp
p3397
(dp3398
g1006
S'+'
sg1007
(i__main__
DelphiIdentAccess
p3399
(dp3400
g611
S'command'
p3401
sg613
(lp3402
sbsg1012
(idelphi
DelphiStringAccess
p3403
(dp3404
g613
(lp3405
sg195
(idelphi
DelphiStringValue
p3406
(dp3407
g195
S'You '
p3408
sbsbsbsbasbasbsbsg1056
(i__main__
DelphiAssignStatement
p3409
(dp3410
g607
Nsg608
(i__main__
DelphiIdentAccess
p3411
(dp3412
g611
S'result'
p3413
sg613
(lp3414
(idelphi
DelphiFieldEndAccess
p3415
(dp3416
g617
S'setReply'
p3417
sba(idelphi
DelphiFunctionEndAccess
p3418
(dp3419
g621
(lp3420
(i__main__
DelphiIdentAccess
p3421
(dp3422
g611
S'reply'
p3423
sg613
(lp3424
sbasbasbsbsba(i__main__
DelphiAssignStatement
p3425
(dp3426
g607
Nsg608
(i__main__
DelphiIdentAccess
p3427
(dp3428
g611
S'result'
p3429
sg613
(lp3430
(idelphi
DelphiFieldEndAccess
p3431
(dp3432
g617
S'setMove'
p3433
sba(idelphi
DelphiFunctionEndAccess
p3434
(dp3435
g621
(lp3436
(i__main__
DelphiIdentAccess
p3437
(dp3438
g611
S'secondContext'
p3439
sg613
(lp3440
sbasbasbsba(i__main__
DelphiAssignStatement
p3441
(dp3442
g607
(idelphi
DelphiMulOp
p3443
(dp3444
g2948
(idelphi
DelphiIntegerValue
p3445
(dp3446
g195
S'2'
sbsg2974
S'div'
p3447
sg2976
(idelphi
DelphiNestedExpressionListAccess
p3448
(dp3449
g613
(lp3450
sg621
(lp3451
(idelphi
DelphiAddOp
p3452
(dp3453
g1006
S'+'
sg1007
(i__main__
DelphiIdentAccess
p3454
(dp3455
g611
S'result'
p3456
sg613
(lp3457
(idelphi
DelphiFieldEndAccess
p3458
(dp3459
g617
S'move'
p3460
sba(idelphi
DelphiFieldEndAccess
p3461
(dp3462
g617
S'position'
p3463
sba(idelphi
DelphiFieldEndAccess
p3464
(dp3465
g617
S'x'
sbasbsg1012
(i__main__
DelphiIdentAccess
p3466
(dp3467
g611
S'result'
p3468
sg613
(lp3469
(idelphi
DelphiFieldEndAccess
p3470
(dp3471
g617
S'context'
p3472
sba(idelphi
DelphiFieldEndAccess
p3473
(dp3474
g617
S'position'
p3475
sba(idelphi
DelphiFieldEndAccess
p3476
(dp3477
g617
S'x'
sbasbsbasbsbsg608
(i__main__
DelphiIdentAccess
p3478
(dp3479
g611
S'result'
p3480
sg613
(lp3481
(idelphi
DelphiFieldEndAccess
p3482
(dp3483
g617
S'position'
p3484
sba(idelphi
DelphiFieldEndAccess
p3485
(dp3486
g617
S'x'
sbasbsba(i__main__
DelphiAssignStatement
p3487
(dp3488
g607
(idelphi
DelphiMulOp
p3489
(dp3490
g2948
(idelphi
DelphiIntegerValue
p3491
(dp3492
g195
S'2'
sbsg2974
g3447
sg2976
(idelphi
DelphiNestedExpressionListAccess
p3493
(dp3494
g613
(lp3495
sg621
(lp3496
(idelphi
DelphiAddOp
p3497
(dp3498
g1006
S'+'
sg1007
(i__main__
DelphiIdentAccess
p3499
(dp3500
g611
S'result'
p3501
sg613
(lp3502
(idelphi
DelphiFieldEndAccess
p3503
(dp3504
g617
S'move'
p3505
sba(idelphi
DelphiFieldEndAccess
p3506
(dp3507
g617
S'position'
p3508
sba(idelphi
DelphiFieldEndAccess
p3509
(dp3510
g617
S'y'
sbasbsg1012
(i__main__
DelphiIdentAccess
p3511
(dp3512
g611
S'result'
p3513
sg613
(lp3514
(idelphi
DelphiFieldEndAccess
p3515
(dp3516
g617
S'context'
p3517
sba(idelphi
DelphiFieldEndAccess
p3518
(dp3519
g617
S'position'
p3520
sba(idelphi
DelphiFieldEndAccess
p3521
(dp3522
g617
S'y'
sbasbsbasbsbsg608
(i__main__
DelphiIdentAccess
p3523
(dp3524
g611
S'result'
p3525
sg613
(lp3526
(idelphi
DelphiFieldEndAccess
p3527
(dp3528
g617
S'position'
p3529
sba(idelphi
DelphiFieldEndAccess
p3530
(dp3531
g617
S'y'
sbasbsba(i__main__
DelphiAssignStatement
p3532
(dp3533
g607
(idelphi
DelphiAddOp
p3534
(dp3535
g1006
S'-'
sg1007
(i__main__
DelphiIdentAccess
p3536
(dp3537
g611
S'result'
p3538
sg613
(lp3539
(idelphi
DelphiFieldEndAccess
p3540
(dp3541
g617
S'move'
p3542
sba(idelphi
DelphiFieldEndAccess
p3543
(dp3544
g617
S'position'
p3545
sba(idelphi
DelphiFieldEndAccess
p3546
(dp3547
g617
S'x'
sbasbsg1012
(i__main__
DelphiIdentAccess
p3548
(dp3549
g611
S'result'
p3550
sg613
(lp3551
(idelphi
DelphiFieldEndAccess
p3552
(dp3553
g617
S'context'
p3554
sba(idelphi
DelphiFieldEndAccess
p3555
(dp3556
g617
S'position'
p3557
sba(idelphi
DelphiFieldEndAccess
p3558
(dp3559
g617
S'x'
sbasbsbsg608
(i__main__
DelphiIdentAccess
p3560
(dp3561
g611
S'dx'
p3562
sg613
(lp3563
sbsba(i__main__
DelphiAssignStatement
p3564
(dp3565
g607
(idelphi
DelphiAddOp
p3566
(dp3567
g1006
S'-'
sg1007
(i__main__
DelphiIdentAccess
p3568
(dp3569
g611
S'result'
p3570
sg613
(lp3571
(idelphi
DelphiFieldEndAccess
p3572
(dp3573
g617
S'move'
p3574
sba(idelphi
DelphiFieldEndAccess
p3575
(dp3576
g617
S'position'
p3577
sba(idelphi
DelphiFieldEndAccess
p3578
(dp3579
g617
S'y'
sbasbsg1012
(i__main__
DelphiIdentAccess
p3580
(dp3581
g611
S'result'
p3582
sg613
(lp3583
(idelphi
DelphiFieldEndAccess
p3584
(dp3585
g617
S'context'
p3586
sba(idelphi
DelphiFieldEndAccess
p3587
(dp3588
g617
S'position'
p3589
sba(idelphi
DelphiFieldEndAccess
p3590
(dp3591
g617
S'y'
sbasbsbsg608
(i__main__
DelphiIdentAccess
p3592
(dp3593
g611
S'dy'
p3594
sg613
(lp3595
sbsba(idelphi
DelphiIfStatement
p3596
(dp3597
g945
(idelphi
DelphiRelOp
p3598
(dp3599
g922
(i__main__
DelphiIdentAccess
p3600
(dp3601
g611
S'abs'
p3602
sg613
(lp3603
(idelphi
DelphiFunctionEndAccess
p3604
(dp3605
g621
(lp3606
(i__main__
DelphiIdentAccess
p3607
(dp3608
g611
S'dy'
p3609
sg613
(lp3610
sbasbasbsg930
(i__main__
DelphiIdentAccess
p3611
(dp3612
g611
S'abs'
p3613
sg613
(lp3614
(idelphi
DelphiFunctionEndAccess
p3615
(dp3616
g621
(lp3617
(i__main__
DelphiIdentAccess
p3618
(dp3619
g611
S'dx'
p3620
sg613
(lp3621
sbasbasbsg935
g1337
sbsg960
(idelphi
DelphiCompoundStatement
p3622
(dp3623
g603
(lp3624
(idelphi
DelphiIfStatement
p3625
(dp3626
g945
(idelphi
DelphiRelOp
p3627
(dp3628
g922
(i__main__
DelphiIdentAccess
p3629
(dp3630
g611
S'dx'
p3631
sg613
(lp3632
sbsg930
(idelphi
DelphiIntegerValue
p3633
(dp3634
g195
S'0'
sbsg935
S'<'
sbsg960
(i__main__
DelphiAssignStatement
p3635
(dp3636
g607
(idelphi
DelphiAddOp
p3637
(dp3638
g1006
S'+'
sg1007
(idelphi
DelphiIntegerValue
p3639
(dp3640
g195
S'30'
p3641
sbsg1012
(i__main__
DelphiIdentAccess
p3642
(dp3643
g611
S'result'
p3644
sg613
(lp3645
(idelphi
DelphiFieldEndAccess
p3646
(dp3647
g617
S'position'
p3648
sba(idelphi
DelphiFieldEndAccess
p3649
(dp3650
g617
S'y'
sbasbsbsg608
(i__main__
DelphiIdentAccess
p3651
(dp3652
g611
S'result'
p3653
sg613
(lp3654
(idelphi
DelphiFieldEndAccess
p3655
(dp3656
g617
S'position'
p3657
sba(idelphi
DelphiFieldEndAccess
p3658
(dp3659
g617
S'y'
sbasbsbsg1056
(i__main__
DelphiAssignStatement
p3660
(dp3661
g607
(idelphi
DelphiAddOp
p3662
(dp3663
g1006
S'-'
sg1007
(idelphi
DelphiIntegerValue
p3664
(dp3665
g195
S'30'
p3666
sbsg1012
(i__main__
DelphiIdentAccess
p3667
(dp3668
g611
S'result'
p3669
sg613
(lp3670
(idelphi
DelphiFieldEndAccess
p3671
(dp3672
g617
S'position'
p3673
sba(idelphi
DelphiFieldEndAccess
p3674
(dp3675
g617
S'y'
sbasbsbsg608
(i__main__
DelphiIdentAccess
p3676
(dp3677
g611
S'result'
p3678
sg613
(lp3679
(idelphi
DelphiFieldEndAccess
p3680
(dp3681
g617
S'position'
p3682
sba(idelphi
DelphiFieldEndAccess
p3683
(dp3684
g617
S'y'
sbasbsbsbasbsg1056
(idelphi
DelphiCompoundStatement
p3685
(dp3686
g603
(lp3687
(idelphi
DelphiIfStatement
p3688
(dp3689
g945
(idelphi
DelphiRelOp
p3690
(dp3691
g922
(i__main__
DelphiIdentAccess
p3692
(dp3693
g611
S'dy'
p3694
sg613
(lp3695
sbsg930
(idelphi
DelphiIntegerValue
p3696
(dp3697
g195
S'0'
sbsg935
g1337
sbsg960
(i__main__
DelphiAssignStatement
p3698
(dp3699
g607
(idelphi
DelphiAddOp
p3700
(dp3701
g1006
S'+'
sg1007
(idelphi
DelphiIntegerValue
p3702
(dp3703
g195
S'100'
p3704
sbsg1012
(i__main__
DelphiIdentAccess
p3705
(dp3706
g611
S'result'
p3707
sg613
(lp3708
(idelphi
DelphiFieldEndAccess
p3709
(dp3710
g617
S'position'
p3711
sba(idelphi
DelphiFieldEndAccess
p3712
(dp3713
g617
S'x'
sbasbsbsg608
(i__main__
DelphiIdentAccess
p3714
(dp3715
g611
S'result'
p3716
sg613
(lp3717
(idelphi
DelphiFieldEndAccess
p3718
(dp3719
g617
S'position'
p3720
sba(idelphi
DelphiFieldEndAccess
p3721
(dp3722
g617
S'x'
sbasbsbsg1056
(i__main__
DelphiAssignStatement
p3723
(dp3724
g607
(idelphi
DelphiAddOp
p3725
(dp3726
g1006
S'-'
sg1007
(idelphi
DelphiIntegerValue
p3727
(dp3728
g195
S'100'
p3729
sbsg1012
(i__main__
DelphiIdentAccess
p3730
(dp3731
g611
S'result'
p3732
sg613
(lp3733
(idelphi
DelphiFieldEndAccess
p3734
(dp3735
g617
S'position'
p3736
sba(idelphi
DelphiFieldEndAccess
p3737
(dp3738
g617
S'x'
sbasbsbsg608
(i__main__
DelphiIdentAccess
p3739
(dp3740
g611
S'result'
p3741
sg613
(lp3742
(idelphi
DelphiFieldEndAccess
p3743
(dp3744
g617
S'position'
p3745
sba(idelphi
DelphiFieldEndAccess
p3746
(dp3747
g617
S'x'
sbasbsg253
(lp3748
S'now determine offset\r'
p3749
asbsbasbsbasbsg629
(lp3750
(i__main__
DelphiVarSection
p3751
(dp3752
g1285
I0
sg1286
(lp3753
(idelphi
DelphiVarDecl
p3754
(dp3755
g1290
Nsg1291
(lp3756
S'dx'
p3757
aS'dy'
p3758
asg139
(i__main__
DelphiPrimitiveType
p3759
(dp3760
g142
g2309
sbsbasbasbsbsS'firstcontext'
p3761
(i__main__
DelphiMethodImplementation
p3762
(dp3763
g576
g258
sg123
g260
sg131
(lp3764
sg585
(lp3765
sg587
(lp3766
sg589
(lp3767
g591
asg592
(dp3768
sg147
S'TLinkWizardForm'
p3769
sg148
(i__main__
DelphiPrimitiveType
p3770
(dp3771
g142
g195
sbsg595
(lp3772
sg149
I0
sg150
g196
sg597
(i__main__
DelphiBlock
p3773
(dp3774
g600
(idelphi
DelphiCompoundStatement
p3775
(dp3776
g603
(lp3777
(i__main__
DelphiAssignStatement
p3778
(dp3779
g607
(idelphi
DelphiStringAccess
p3780
(dp3781
g613
(lp3782
sg195
(idelphi
DelphiStringValue
p3783
(dp3784
g195
S''
sbsbsg608
(i__main__
DelphiIdentAccess
p3785
(dp3786
g611
S'result'
p3787
sg613
(lp3788
sbsba(idelphi
DelphiWithStatement
p3789
(dp3790
g1326
(idelphi
DelphiIfStatement
p3791
(dp3792
g945
(idelphi
DelphiRelOp
p3793
(dp3794
g922
(i__main__
DelphiIdentAccess
p3795
(dp3796
g611
S'itemIndex'
p3797
sg613
(lp3798
sbsg930
(idelphi
DelphiIntegerValue
p3799
(dp3800
g195
S'0'
sbsg935
g1337
sbsg960
Nsg1056
(i__main__
DelphiAssignStatement
p3801
(dp3802
g607
(i__main__
DelphiIdentAccess
p3803
(dp3804
g611
S'items'
p3805
sg613
(lp3806
(idelphi
DelphiArrayEndAccess
p3807
(dp3808
g621
(lp3809
(i__main__
DelphiIdentAccess
p3810
(dp3811
g611
S'itemIndex'
p3812
sg613
(lp3813
sbasbasbsg608
(i__main__
DelphiIdentAccess
p3814
(dp3815
g611
S'result'
p3816
sg613
(lp3817
sbsbsbsg1355
(lp3818
(i__main__
DelphiIdentAccess
p3819
(dp3820
g611
S'FirstContextBox'
p3821
sg613
(lp3822
sbasbasbsg629
(lp3823
sbsbssS'propertyDeclarations'
p3824
(dp3825
sS'variableNamesInDeclaredOrder'
p3826
(lp3827
g86
ag28
ag112
ag26
ag120
ag98
ag18
ag68
ag42
ag70
ag22
ag16
ag30
ag44
ag24
ag52
ag74
ag116
ag94
ag76
ag34
ag88
ag90
ag92
ag102
ag38
ag100
ag104
ag54
ag40
ag114
ag36
ag20
ag66
ag60
ag62
ag118
ag78
ag12
ag122
ag72
ag64
ag82
ag56
ag80
ag96
ag108
ag58
ag110
ag14
ag50
ag10
ag32
ag48
ag46
ag106
ag84
asba(i__main__
DelphiVarSection
p3828
(dp3829
g1285
I1
sg1286
(lp3830
(idelphi
DelphiVarDecl
p3831
(dp3832
g1290
Nsg1291
(lp3833
S'LinkWizardForm'
p3834
asg139
(i__main__
DelphiNamedType
p3835
(dp3836
g142
S'TLinkWizardForm'
p3837
sg144
g1
sg145
Nsbsbasba(i__main__
DelphiConstSection
p3838
(dp3839
S'constDeclList'
p3840
(lp3841
(idelphi
DelphiConstDeclaration
p3842
(dp3843
g1290
(idelphi
DelphiIntegerValue
p3844
(dp3845
g195
S'0'
sbsg611
S'kStartPage'
p3846
sg139
(idelphi
DelphiPrimitiveType
p3847
(dp3848
g142
S'UNDEFINED_NEEDS_CALCULATION'
p3849
sbsba(idelphi
DelphiConstDeclaration
p3850
(dp3851
g1290
(idelphi
DelphiIntegerValue
p3852
(dp3853
g195
S'1'
sbsg611
S'kContextsPage'
p3854
sg139
(idelphi
DelphiPrimitiveType
p3855
(dp3856
g142
g3849
sbsba(idelphi
DelphiConstDeclaration
p3857
(dp3858
g1290
(idelphi
DelphiIntegerValue
p3859
(dp3860
g195
S'2'
sbsg611
S'kForwardPage'
p3861
sg139
(idelphi
DelphiPrimitiveType
p3862
(dp3863
g142
g3849
sbsba(idelphi
DelphiConstDeclaration
p3864
(dp3865
g1290
(idelphi
DelphiIntegerValue
p3866
(dp3867
g195
S'3'
sbsg611
S'kBackwardPage'
p3868
sg139
(idelphi
DelphiPrimitiveType
p3869
(dp3870
g142
g3849
sbsba(idelphi
DelphiConstDeclaration
p3871
(dp3872
g1290
(idelphi
DelphiIntegerValue
p3873
(dp3874
g195
S'4'
sbsg611
S'kFinishPage'
p3875
sg139
(idelphi
DelphiPrimitiveType
p3876
(dp3877
g142
g3849
sbsbasg1285
I1
sbasS'includedUnits'
p3878
NsS'implementationUses'
p3879
(lp3880
S'USDomain'
p3881
aS'USRuleEditorForm'
p3882
aS'USCommands'
p3883
aS'USChangeLog'
p3884
aS'USConsoleForm'
p3885
asg123
S'uslinkwizard'
p3886
sS'constSections'
p3887
(lp3888
g3838
asS'globalsInProperCase'
p3889
NsS'interfaceUses'
p3890
(lp3891
S'delphi_compatability'
p3892
aS'Windows'
p3893
aS'Messages'
p3894
aS'SysUtils'
p3895
aS'Classes'
p3896
aS'Graphics'
p3897
aS'Controls'
p3898
aS'Forms'
p3899
aS'Dialogs'
p3900
aS'StdCtrls'
p3901
aS'ComCtrls'
p3902
aS'ExtCtrls'
p3903
aS'USWorld'
p3904
asS'finalCommentToken'
p3905
(i__main__
PassStatement
p3906
(dp3907
g629
(lp3908
sbsS'varSections'
p3909
(lp3910
g3828
asS'globals'
p3911
NsS'originalFileName'
p3912
S'../../storyharp-js/converted_source/uslinkwizard.pas'
p3913
sS'proceduralImplementations'
p3914
(dp3915
sS'fileName'
p3916
S'/home/pdfernhout/workspace/storyharp-js/converted_source/uslinkwizard.pas'
p3917
sS'proceduralDeclarations'
p3918
(dp3919
sS'types'
p3920
(dp3921
S'tlinkwizardform'
p3922
g5
ssb.