(i__main__
DelphiUnit
p1
(dp2
S'sectionsInOrderDefined'
p3
(lp4
(i__main__
DelphiConstSection
p5
(dp6
S'constDeclList'
p7
(lp8
(idelphi
DelphiConstDeclaration
p9
(dp10
S'constExpression'
p11
(i__main__
DelphiIdentAccess
p12
(dp13
S'ident'
p14
S'true'
p15
sS'endAccessList'
p16
(lp17
sbsg14
S'kDrawCommand'
p18
sS'theType'
p19
(idelphi
DelphiPrimitiveType
p20
(dp21
S'typeName'
p22
S'UNDEFINED_NEEDS_CALCULATION'
p23
sbsba(idelphi
DelphiConstDeclaration
p24
(dp25
g11
(i__main__
DelphiIdentAccess
p26
(dp27
g14
S'false'
p28
sg16
(lp29
sbsg14
S'kDrawContext'
p30
sg19
(idelphi
DelphiPrimitiveType
p31
(dp32
g22
g23
sbsbasS'atTopLevel'
p33
I1
sba(i__main__
DelphiClass
p34
(dp35
S'variableNamesInProperCase'
p36
(dp37
S'scroll'
p38
S'scroll'
p39
ssS'name'
p40
S'TSMapView'
p41
sS'methodDeclarations'
p42
(dp43
S'displayon'
p44
(i__main__
DelphiMethodDeclaration
p45
(dp46
g40
S'displayOn'
p47
sS'formalParameters'
p48
(lp49
(i__main__
DelphiFormalParameter
p50
(dp51
S'initialValue'
p52
NsS'names'
p53
(lp54
S'canvas'
p55
asg19
(i__main__
DelphiNamedType
p56
(dp57
g22
S'TCanvas'
p58
sS'unitDefinedIn'
p59
g1
sS'unitName'
p60
NsbsS'parameterVariety'
p61
Nsba(i__main__
DelphiFormalParameter
p62
(dp63
g52
Nsg53
(lp64
S'displayOptions'
p65
asg19
(i__main__
DelphiNamedType
p66
(dp67
g22
S'TSVariableDisplayOptions'
p68
sg59
g1
sg60
Nsbsg61
S'const'
p69
sba(i__main__
DelphiFormalParameter
p70
(dp71
g52
Nsg53
(lp72
S'lastChoice'
p73
aS'previousChoice'
p74
asg19
(i__main__
DelphiNamedType
p75
(dp76
g22
S'TSDraggableObject'
p77
sg59
g1
sg60
Nsbsg61
NsbasS'className'
p78
g41
sS'resultType'
p79
NsS'isClassMethod'
p80
I0
sS'methodType'
p81
S'procedure'
p82
sbsS'drawarrowhead'
p83
(i__main__
DelphiMethodDeclaration
p84
(dp85
g40
S'drawArrowhead'
p86
sg48
(lp87
(i__main__
DelphiFormalParameter
p88
(dp89
g52
Nsg53
(lp90
S'canvas'
p91
asg19
(i__main__
DelphiNamedType
p92
(dp93
g22
S'TCanvas'
p94
sg59
g1
sg60
Nsbsg61
Nsba(i__main__
DelphiFormalParameter
p95
(dp96
g52
Nsg53
(lp97
S'p1'
p98
aS'p2'
p99
asg19
(i__main__
DelphiNamedType
p100
(dp101
g22
S'TPoint'
p102
sg59
g1
sg60
Nsbsg61
Nsbasg78
g41
sg79
Nsg80
I0
sg81
g82
sbsS'drawarrowtorect'
p103
(i__main__
DelphiMethodDeclaration
p104
(dp105
g40
S'drawArrowToRect'
p106
sg48
(lp107
(i__main__
DelphiFormalParameter
p108
(dp109
g52
Nsg53
(lp110
S'canvas'
p111
asg19
(i__main__
DelphiNamedType
p112
(dp113
g22
S'TCanvas'
p114
sg59
g1
sg60
Nsbsg61
Nsba(i__main__
DelphiFormalParameter
p115
(dp116
g52
Nsg53
(lp117
S'origin'
p118
asg19
(i__main__
DelphiNamedType
p119
(dp120
g22
S'TPoint'
p121
sg59
g1
sg60
Nsbsg61
Nsba(i__main__
DelphiFormalParameter
p122
(dp123
g52
Nsg53
(lp124
S'destRect'
p125
asg19
(i__main__
DelphiNamedType
p126
(dp127
g22
S'TRect'
p128
sg59
g1
sg60
Nsbsg61
Nsbasg78
g41
sg79
Nsg80
I0
sg81
g82
sS'commentLinesBefore'
p129
(lp130
S' procedure drawArrow(canvas: TCanvas; a, b: TPoint);\r'
p131
asbsS'drawlinefromrectedgetorectedge'
p132
(i__main__
DelphiMethodDeclaration
p133
(dp134
g40
S'drawLineFromRectEdgeToRectEdge'
p135
sg48
(lp136
(i__main__
DelphiFormalParameter
p137
(dp138
g52
Nsg53
(lp139
S'canvas'
p140
asg19
(i__main__
DelphiNamedType
p141
(dp142
g22
S'TCanvas'
p143
sg59
g1
sg60
Nsbsg61
Nsba(i__main__
DelphiFormalParameter
p144
(dp145
g52
Nsg53
(lp146
S'originRect'
p147
asg19
(i__main__
DelphiNamedType
p148
(dp149
g22
S'TRect'
p150
sg59
g1
sg60
Nsbsg61
Nsba(i__main__
DelphiFormalParameter
p151
(dp152
g52
Nsg53
(lp153
S'destRect'
p154
asg19
(i__main__
DelphiNamedType
p155
(dp156
g22
S'TRect'
p157
sg59
g1
sg60
Nsbsg61
Nsbasg78
g41
sg79
Nsg80
I0
sg81
g82
sbsS'nearestnode'
p158
(i__main__
DelphiMethodDeclaration
p159
(dp160
g40
S'nearestNode'
p161
sg48
(lp162
(i__main__
DelphiFormalParameter
p163
(dp164
g52
Nsg53
(lp165
S'location'
p166
asg19
(i__main__
DelphiNamedType
p167
(dp168
g22
S'TPoint'
p169
sg59
g1
sg60
Nsbsg61
Nsba(i__main__
DelphiFormalParameter
p170
(dp171
g52
Nsg53
(lp172
S'displayOptions'
p173
asg19
(i__main__
DelphiNamedType
p174
(dp175
g22
S'TSVariableDisplayOptions'
p176
sg59
g1
sg60
Nsbsg61
g69
sbasg78
g41
sg79
(i__main__
DelphiNamedType
p177
(dp178
g22
S'TSDraggableObject'
p179
sg59
g1
sg60
Nsbsg80
I0
sg81
S'function'
p180
sbsS'drawbogusarrow'
p181
(i__main__
DelphiMethodDeclaration
p182
(dp183
g40
S'drawBogusArrow'
p184
sg48
(lp185
(i__main__
DelphiFormalParameter
p186
(dp187
g52
Nsg53
(lp188
S'canvas'
p189
asg19
(i__main__
DelphiNamedType
p190
(dp191
g22
S'TCanvas'
p192
sg59
g1
sg60
Nsbsg61
Nsba(i__main__
DelphiFormalParameter
p193
(dp194
g52
Nsg53
(lp195
S'a'
aS'b'
asg19
(i__main__
DelphiNamedType
p196
(dp197
g22
S'TPoint'
p198
sg59
g1
sg60
Nsbsg61
Nsbasg78
g41
sg79
Nsg80
I0
sg81
g82
sbsS'drawarrowfromrectedgetorectedge'
p199
(i__main__
DelphiMethodDeclaration
p200
(dp201
g40
S'drawArrowFromRectEdgeToRectEdge'
p202
sg48
(lp203
(i__main__
DelphiFormalParameter
p204
(dp205
g52
Nsg53
(lp206
S'canvas'
p207
asg19
(i__main__
DelphiNamedType
p208
(dp209
g22
S'TCanvas'
p210
sg59
g1
sg60
Nsbsg61
Nsba(i__main__
DelphiFormalParameter
p211
(dp212
g52
Nsg53
(lp213
S'originRect'
p214
asg19
(i__main__
DelphiNamedType
p215
(dp216
g22
S'TRect'
p217
sg59
g1
sg60
Nsbsg61
Nsba(i__main__
DelphiFormalParameter
p218
(dp219
g52
Nsg53
(lp220
S'destRect'
p221
asg19
(i__main__
DelphiNamedType
p222
(dp223
g22
S'TRect'
p224
sg59
g1
sg60
Nsbsg61
Nsbasg78
g41
sg79
Nsg80
I0
sg81
g82
sbsS'drawcommandorcontext'
p225
(i__main__
DelphiMethodDeclaration
p226
(dp227
g40
S'drawCommandOrContext'
p228
sg48
(lp229
(i__main__
DelphiFormalParameter
p230
(dp231
g52
Nsg53
(lp232
S'canvas'
p233
asg19
(i__main__
DelphiNamedType
p234
(dp235
g22
S'TCanvas'
p236
sg59
g1
sg60
Nsbsg61
Nsba(i__main__
DelphiFormalParameter
p237
(dp238
g52
Nsg53
(lp239
S'text'
p240
asg19
(i__main__
DelphiPrimitiveType
p241
(dp242
g22
S'string'
p243
sbsg61
Nsba(i__main__
DelphiFormalParameter
p244
(dp245
g52
Nsg53
(lp246
S'bounds'
p247
asg19
(i__main__
DelphiNamedType
p248
(dp249
g22
S'TRect'
p250
sg59
g1
sg60
Nsbsg61
Nsba(i__main__
DelphiFormalParameter
p251
(dp252
g52
Nsg53
(lp253
S'position'
p254
asg19
(i__main__
DelphiNamedType
p255
(dp256
g22
S'TPoint'
p257
sg59
g1
sg60
Nsbsg61
Nsba(i__main__
DelphiFormalParameter
p258
(dp259
g52
Nsg53
(lp260
S'selected'
p261
aS'focused'
p262
aS'isCommand'
p263
asg19
(i__main__
DelphiPrimitiveType
p264
(dp265
g22
S'boolean'
p266
sbsg61
Nsbasg78
g41
sg79
Nsg80
I0
sg81
g82
sbsS'drawarrowtorectedge'
p267
(i__main__
DelphiMethodDeclaration
p268
(dp269
g40
S'drawArrowToRectEdge'
p270
sg48
(lp271
(i__main__
DelphiFormalParameter
p272
(dp273
g52
Nsg53
(lp274
S'canvas'
p275
asg19
(i__main__
DelphiNamedType
p276
(dp277
g22
S'TCanvas'
p278
sg59
g1
sg60
Nsbsg61
Nsba(i__main__
DelphiFormalParameter
p279
(dp280
g52
Nsg53
(lp281
S'origin'
p282
asg19
(i__main__
DelphiNamedType
p283
(dp284
g22
S'TPoint'
p285
sg59
g1
sg60
Nsbsg61
Nsba(i__main__
DelphiFormalParameter
p286
(dp287
g52
Nsg53
(lp288
S'destRect'
p289
asg19
(i__main__
DelphiNamedType
p290
(dp291
g22
S'TRect'
p292
sg59
g1
sg60
Nsbsg61
Nsbasg78
g41
sg79
Nsg80
I0
sg81
g82
sbssS'superclassNamedTypes'
p293
(lp294
(i__main__
DelphiNamedType
p295
(dp296
g22
S'TObject'
p297
sg59
g1
sg60
NsbasS'variableNames'
p298
(dp299
S'scroll'
p300
(i__main__
DelphiNamedType
p301
(dp302
g22
S'TPoint'
p303
sg59
g1
sg60
NsbssS'methodNamesInDefinedOrder'
p304
(lp305
S'drawbogusarrow'
p306
aS'drawarrowtorectedge'
p307
aS'drawarrowfromrectedgetorectedge'
p308
aS'drawlinefromrectedgetorectedge'
p309
aS'drawarrowhead'
p310
aS'drawarrowtorect'
p311
aS'nearestnode'
p312
aS'displayon'
p313
aS'drawcommandorcontext'
p314
asS'methodImplementations'
p315
(dp316
S'displayon'
p317
(i__main__
DelphiMethodImplementation
p318
(dp319
S'originalDeclaration'
p320
g45
sg40
g47
sg48
(lp321
(i__main__
DelphiFormalParameter
p322
(dp323
g52
Nsg53
(lp324
S'canvas'
p325
asg19
(i__main__
DelphiNamedType
p326
(dp327
g22
S'TCanvas'
p328
sg59
g1
sg60
Nsbsg61
Nsba(i__main__
DelphiFormalParameter
p329
(dp330
g52
Nsg53
(lp331
S'displayOptions'
p332
asg19
(i__main__
DelphiNamedType
p333
(dp334
g22
S'TSVariableDisplayOptions'
p335
sg59
g1
sg60
Nsbsg61
g69
sba(i__main__
DelphiFormalParameter
p336
(dp337
g52
Nsg53
(lp338
S'lastChoice'
p339
aS'previousChoice'
p340
asg19
(i__main__
DelphiNamedType
p341
(dp342
g22
S'TSDraggableObject'
p343
sg59
g1
sg60
Nsbsg61
NsbasS'varParamIndexes'
p344
(lp345
sS'varParamsSkipped'
p346
(lp347
sS'argNames'
p348
(lp349
S'self'
p350
ag325
ag332
ag339
ag340
asS'argTypes'
p351
(dp352
g325
g326
sg339
g341
sg340
g341
sg332
g333
ssg78
S'TSMapView'
p353
sg79
NsS'varParamNames'
p354
(lp355
sg80
I0
sg81
g82
sS'block'
p356
(i__main__
DelphiBlock
p357
(dp358
S'compoundStatement'
p359
(idelphi
DelphiCompoundStatement
p360
(dp361
S'statements'
p362
(lp363
(i__main__
DelphiAssignStatement
p364
(dp365
S'newValueExpression'
p366
NsS'destinationExpression'
p367
(i__main__
DelphiIdentAccess
p368
(dp369
g14
S'SetTextAlign'
p370
sg16
(lp371
(idelphi
DelphiFunctionEndAccess
p372
(dp373
S'expressionList'
p374
(lp375
(i__main__
DelphiIdentAccess
p376
(dp377
g14
S'canvas'
p378
sg16
(lp379
(idelphi
DelphiFieldEndAccess
p380
(dp381
S'field'
p382
S'Handle'
p383
sbasba(idelphi
DelphiAddOp
p384
(dp385
S'addOp'
p386
S'or'
p387
sS'term2'
p388
(i__main__
DelphiIdentAccess
p389
(dp390
g14
S'TA_TOP'
p391
sg16
(lp392
sbsS'term1'
p393
(i__main__
DelphiIdentAccess
p394
(dp395
g14
S'TA_LEFT'
p396
sg16
(lp397
sbsbasbasbsg129
(lp398
S' calculate bounds for text boxes\r'
p399
asba(i__main__
DelphiAssignStatement
p400
(dp401
g366
(i__main__
DelphiIdentAccess
p402
(dp403
g14
S'clBlack'
p404
sg16
(lp405
sbsg367
(i__main__
DelphiIdentAccess
p406
(dp407
g14
S'canvas'
p408
sg16
(lp409
(idelphi
DelphiFieldEndAccess
p410
(dp411
g382
S'pen'
p412
sba(idelphi
DelphiFieldEndAccess
p413
(dp414
g382
S'color'
p415
sbasbsba(idelphi
DelphiForStatement
p416
(dp417
S'variable'
p418
S'i'
sS'finalValue'
p419
(idelphi
DelphiAddOp
p420
(dp421
g386
S'-'
sg388
(idelphi
DelphiIntegerValue
p422
(dp423
g243
S'1'
sbsg393
(i__main__
DelphiIdentAccess
p424
(dp425
g14
S'domain'
p426
sg16
(lp427
(idelphi
DelphiFieldEndAccess
p428
(dp429
g382
S'world'
p430
sba(idelphi
DelphiFieldEndAccess
p431
(dp432
g382
S'rules'
p433
sba(idelphi
DelphiFieldEndAccess
p434
(dp435
g382
S'count'
p436
sbasbsbsS'direction'
p437
S'to'
p438
sg52
(idelphi
DelphiIntegerValue
p439
(dp440
g243
S'0'
sbsS'statement'
p441
(idelphi
DelphiCompoundStatement
p442
(dp443
g362
(lp444
(i__main__
DelphiAssignStatement
p445
(dp446
g366
(i__main__
DelphiIdentAccess
p447
(dp448
g14
S'TSRule'
p449
sg16
(lp450
(idelphi
DelphiFunctionEndAccess
p451
(dp452
g374
(lp453
(i__main__
DelphiIdentAccess
p454
(dp455
g14
S'domain'
p456
sg16
(lp457
(idelphi
DelphiFieldEndAccess
p458
(dp459
g382
S'world'
p460
sba(idelphi
DelphiFieldEndAccess
p461
(dp462
g382
S'rules'
p463
sba(idelphi
DelphiArrayEndAccess
p464
(dp465
g374
(lp466
(i__main__
DelphiIdentAccess
p467
(dp468
g14
S'i'
sg16
(lp469
sbasbasbasbasbsg367
(i__main__
DelphiIdentAccess
p470
(dp471
g14
S'rule'
p472
sg16
(lp473
sbsg129
(lp474
S'need to compute these first - because they are referenced'
p475
aS'could be optimized out - only do if change text...'
p476
asba(idelphi
DelphiIfStatement
p477
(dp478
S'expression'
p479
(idelphi
DelphiRelOp
p480
(dp481
S'simpleExpression1'
p482
(i__main__
DelphiIdentAccess
p483
(dp484
g14
S'rule'
p485
sg16
(lp486
sbsS'simpleExpression2'
p487
(i__main__
DelphiIdentAccess
p488
(dp489
g14
S'RuleEditorForm'
p490
sg16
(lp491
(idelphi
DelphiFieldEndAccess
p492
(dp493
g382
S'rule'
p494
sbasbsS'relOp'
p495
S'='
sbsS'ifFalseStatement'
p496
(i__main__
DelphiAssignStatement
p497
(dp498
g366
(i__main__
DelphiIdentAccess
p499
(dp500
g14
S'canvas'
p501
sg16
(lp502
(idelphi
DelphiFieldEndAccess
p503
(dp504
g382
S'TextExtent'
p505
sba(idelphi
DelphiFunctionEndAccess
p506
(dp507
g374
(lp508
(i__main__
DelphiIdentAccess
p509
(dp510
g14
S'rule'
p511
sg16
(lp512
(idelphi
DelphiFieldEndAccess
p513
(dp514
g382
S'displayName'
p515
sbasbasbasbsg367
(i__main__
DelphiIdentAccess
p516
(dp517
g14
S'textSize'
p518
sg16
(lp519
sbsbsS'ifTrueStatement'
p520
(idelphi
DelphiCompoundStatement
p521
(dp522
g362
(lp523
(i__main__
DelphiAssignStatement
p524
(dp525
g366
(idelphi
DelphiSetConstructor
p526
(dp527
S'setElementList'
p528
(lp529
(i__main__
DelphiIdentAccess
p530
(dp531
g14
S'fsBold'
p532
sg16
(lp533
sbasbsg367
(i__main__
DelphiIdentAccess
p534
(dp535
g14
S'canvas'
p536
sg16
(lp537
(idelphi
DelphiFieldEndAccess
p538
(dp539
g382
S'font'
p540
sba(idelphi
DelphiFieldEndAccess
p541
(dp542
g382
S'style'
p543
sbasbsg129
(lp544
S' update bounds -- optimize for case where rule is selected\r'
p545
asba(i__main__
DelphiAssignStatement
p546
(dp547
g366
(i__main__
DelphiIdentAccess
p548
(dp549
g14
S'canvas'
p550
sg16
(lp551
(idelphi
DelphiFieldEndAccess
p552
(dp553
g382
S'TextExtent'
p554
sba(idelphi
DelphiFunctionEndAccess
p555
(dp556
g374
(lp557
(i__main__
DelphiIdentAccess
p558
(dp559
g14
S'rule'
p560
sg16
(lp561
(idelphi
DelphiFieldEndAccess
p562
(dp563
g382
S'displayName'
p564
sbasbasbasbsg367
(i__main__
DelphiIdentAccess
p565
(dp566
g14
S'textSize'
p567
sg16
(lp568
sbsba(i__main__
DelphiAssignStatement
p569
(dp570
g366
(idelphi
DelphiSetConstructor
p571
(dp572
g528
(lp573
sbsg367
(i__main__
DelphiIdentAccess
p574
(dp575
g14
S'canvas'
p576
sg16
(lp577
(idelphi
DelphiFieldEndAccess
p578
(dp579
g382
S'font'
p580
sba(idelphi
DelphiFieldEndAccess
p581
(dp582
g382
S'style'
p583
sbasbsbasbsba(i__main__
DelphiAssignStatement
p584
(dp585
g366
(i__main__
DelphiIdentAccess
p586
(dp587
g14
S'textSize'
p588
sg16
(lp589
(idelphi
DelphiFieldEndAccess
p590
(dp591
g382
S'cx'
p592
sbasbsg367
(i__main__
DelphiIdentAccess
p593
(dp594
g14
S'rule'
p595
sg16
(lp596
(idelphi
DelphiFieldEndAccess
p597
(dp598
g382
S'extent'
p599
sba(idelphi
DelphiFieldEndAccess
p600
(dp601
g382
S'x'
sbasbsba(i__main__
DelphiAssignStatement
p602
(dp603
g366
(i__main__
DelphiIdentAccess
p604
(dp605
g14
S'textSize'
p606
sg16
(lp607
(idelphi
DelphiFieldEndAccess
p608
(dp609
g382
S'cy'
p610
sbasbsg367
(i__main__
DelphiIdentAccess
p611
(dp612
g14
S'rule'
p613
sg16
(lp614
(idelphi
DelphiFieldEndAccess
p615
(dp616
g382
S'extent'
p617
sba(idelphi
DelphiFieldEndAccess
p618
(dp619
g382
S'y'
sbasbsbasbsba(idelphi
DelphiForStatement
p620
(dp621
g418
S'i'
sg419
(idelphi
DelphiAddOp
p622
(dp623
g386
S'-'
sg388
(idelphi
DelphiIntegerValue
p624
(dp625
g243
S'1'
sbsg393
(i__main__
DelphiIdentAccess
p626
(dp627
g14
S'domain'
p628
sg16
(lp629
(idelphi
DelphiFieldEndAccess
p630
(dp631
g382
S'world'
p632
sba(idelphi
DelphiFieldEndAccess
p633
(dp634
g382
S'variables'
p635
sba(idelphi
DelphiFieldEndAccess
p636
(dp637
g382
S'count'
p638
sbasbsbsg437
g438
sg52
(idelphi
DelphiIntegerValue
p639
(dp640
g243
S'0'
sbsg441
(idelphi
DelphiCompoundStatement
p641
(dp642
g362
(lp643
(i__main__
DelphiAssignStatement
p644
(dp645
g366
(i__main__
DelphiIdentAccess
p646
(dp647
g14
S'TSVariable'
p648
sg16
(lp649
(idelphi
DelphiFunctionEndAccess
p650
(dp651
g374
(lp652
(i__main__
DelphiIdentAccess
p653
(dp654
g14
S'domain'
p655
sg16
(lp656
(idelphi
DelphiFieldEndAccess
p657
(dp658
g382
S'world'
p659
sba(idelphi
DelphiFieldEndAccess
p660
(dp661
g382
S'variables'
p662
sba(idelphi
DelphiArrayEndAccess
p663
(dp664
g374
(lp665
(i__main__
DelphiIdentAccess
p666
(dp667
g14
S'i'
sg16
(lp668
sbasbasbasbasbsg367
(i__main__
DelphiIdentAccess
p669
(dp670
g14
S'variable'
p671
sg16
(lp672
sbsba(idelphi
DelphiIfStatement
p673
(dp674
g479
(i__main__
DelphiIdentAccess
p675
(dp676
g14
S'variable'
p677
sg16
(lp678
(idelphi
DelphiFieldEndAccess
p679
(dp680
g382
S'meetsDisplayOptions'
p681
sba(idelphi
DelphiFunctionEndAccess
p682
(dp683
g374
(lp684
(i__main__
DelphiIdentAccess
p685
(dp686
g14
S'displayOptions'
p687
sg16
(lp688
sbasbasbsg496
Nsg520
(idelphi
DelphiCompoundStatement
p689
(dp690
g362
(lp691
(i__main__
DelphiAssignStatement
p692
(dp693
g366
(i__main__
DelphiIdentAccess
p694
(dp695
g14
S'canvas'
p696
sg16
(lp697
(idelphi
DelphiFieldEndAccess
p698
(dp699
g382
S'TextExtent'
p700
sba(idelphi
DelphiFunctionEndAccess
p701
(dp702
g374
(lp703
(i__main__
DelphiIdentAccess
p704
(dp705
g14
S'variable'
p706
sg16
(lp707
(idelphi
DelphiFieldEndAccess
p708
(dp709
g382
S'displayName'
p710
sbasbasbasbsg367
(i__main__
DelphiIdentAccess
p711
(dp712
g14
S'textSize'
p713
sg16
(lp714
sbsba(i__main__
DelphiAssignStatement
p715
(dp716
g366
(i__main__
DelphiIdentAccess
p717
(dp718
g14
S'textSize'
p719
sg16
(lp720
(idelphi
DelphiFieldEndAccess
p721
(dp722
g382
S'cx'
p723
sbasbsg367
(i__main__
DelphiIdentAccess
p724
(dp725
g14
S'variable'
p726
sg16
(lp727
(idelphi
DelphiFieldEndAccess
p728
(dp729
g382
S'extent'
p730
sba(idelphi
DelphiFieldEndAccess
p731
(dp732
g382
S'x'
sbasbsba(i__main__
DelphiAssignStatement
p733
(dp734
g366
(i__main__
DelphiIdentAccess
p735
(dp736
g14
S'textSize'
p737
sg16
(lp738
(idelphi
DelphiFieldEndAccess
p739
(dp740
g382
S'cy'
p741
sbasbsg367
(i__main__
DelphiIdentAccess
p742
(dp743
g14
S'variable'
p744
sg16
(lp745
(idelphi
DelphiFieldEndAccess
p746
(dp747
g382
S'extent'
p748
sba(idelphi
DelphiFieldEndAccess
p749
(dp750
g382
S'y'
sbasbsbasbsbasbsba(i__main__
DelphiAssignStatement
p751
(dp752
g366
(i__main__
DelphiIdentAccess
p753
(dp754
g14
S'canvas'
p755
sg16
(lp756
(idelphi
DelphiFieldEndAccess
p757
(dp758
g382
S'brush'
p759
sba(idelphi
DelphiFieldEndAccess
p760
(dp761
g382
S'color'
p762
sbasbsg367
(i__main__
DelphiIdentAccess
p763
(dp764
g14
S'oldColor'
p765
sg16
(lp766
sbsba(i__main__
DelphiAssignStatement
p767
(dp768
g366
(i__main__
DelphiIdentAccess
p769
(dp770
g14
S'clBlack'
p771
sg16
(lp772
sbsg367
(i__main__
DelphiIdentAccess
p773
(dp774
g14
S'canvas'
p775
sg16
(lp776
(idelphi
DelphiFieldEndAccess
p777
(dp778
g382
S'brush'
p779
sba(idelphi
DelphiFieldEndAccess
p780
(dp781
g382
S'color'
p782
sbasbsg129
(lp783
S' draw lines and arrows\r'
p784
asba(idelphi
DelphiForStatement
p785
(dp786
g418
S'i'
sg419
(idelphi
DelphiAddOp
p787
(dp788
g386
S'-'
sg388
(idelphi
DelphiIntegerValue
p789
(dp790
g243
S'1'
sbsg393
(i__main__
DelphiIdentAccess
p791
(dp792
g14
S'domain'
p793
sg16
(lp794
(idelphi
DelphiFieldEndAccess
p795
(dp796
g382
S'world'
p797
sba(idelphi
DelphiFieldEndAccess
p798
(dp799
g382
S'rules'
p800
sba(idelphi
DelphiFieldEndAccess
p801
(dp802
g382
S'count'
p803
sbasbsbsg437
g438
sg52
(idelphi
DelphiIntegerValue
p804
(dp805
g243
S'0'
sbsg441
(idelphi
DelphiCompoundStatement
p806
(dp807
g362
(lp808
(i__main__
DelphiAssignStatement
p809
(dp810
g366
(i__main__
DelphiIdentAccess
p811
(dp812
g14
S'TSRule'
p813
sg16
(lp814
(idelphi
DelphiFunctionEndAccess
p815
(dp816
g374
(lp817
(i__main__
DelphiIdentAccess
p818
(dp819
g14
S'domain'
p820
sg16
(lp821
(idelphi
DelphiFieldEndAccess
p822
(dp823
g382
S'world'
p824
sba(idelphi
DelphiFieldEndAccess
p825
(dp826
g382
S'rules'
p827
sba(idelphi
DelphiArrayEndAccess
p828
(dp829
g374
(lp830
(i__main__
DelphiIdentAccess
p831
(dp832
g14
S'i'
sg16
(lp833
sbasbasbasbasbsg367
(i__main__
DelphiIdentAccess
p834
(dp835
g14
S'rule'
p836
sg16
(lp837
sbsba(idelphi
DelphiIfStatement
p838
(dp839
g479
(i__main__
DelphiIdentAccess
p840
(dp841
g14
S'displayOptions'
p842
sg16
(lp843
(idelphi
DelphiArrayEndAccess
p844
(dp845
g374
(lp846
(i__main__
DelphiIdentAccess
p847
(dp848
g14
S'kRuleCommand'
p849
sg16
(lp850
sbasbasbsg496
(idelphi
DelphiCompoundStatement
p851
(dp852
g362
(lp853
(idelphi
DelphiIfStatement
p854
(dp855
g479
(idelphi
DelphiMulOp
p856
(dp857
S'signedFactor2'
p858
(idelphi
DelphiNestedExpressionListAccess
p859
(dp860
g16
(lp861
sg374
(lp862
(idelphi
DelphiRelOp
p863
(dp864
g482
(i__main__
DelphiIdentAccess
p865
(dp866
g14
S'rule'
p867
sg16
(lp868
(idelphi
DelphiFieldEndAccess
p869
(dp870
g382
S'move'
p871
sbasbsg487
(i__main__
DelphiIdentAccess
p872
(dp873
g14
S'domain'
p874
sg16
(lp875
(idelphi
DelphiFieldEndAccess
p876
(dp877
g382
S'world'
p878
sba(idelphi
DelphiFieldEndAccess
p879
(dp880
g382
S'emptyEntry'
p881
sbasbsg495
S'<>'
p882
sbasbsS'mulOp'
p883
S'and'
p884
sS'signedFactor1'
p885
(idelphi
DelphiNestedExpressionListAccess
p886
(dp887
g16
(lp888
sg374
(lp889
(idelphi
DelphiRelOp
p890
(dp891
g482
(i__main__
DelphiIdentAccess
p892
(dp893
g14
S'rule'
p894
sg16
(lp895
(idelphi
DelphiFieldEndAccess
p896
(dp897
g382
S'context'
p898
sbasbsg487
(i__main__
DelphiIdentAccess
p899
(dp900
g14
S'domain'
p901
sg16
(lp902
(idelphi
DelphiFieldEndAccess
p903
(dp904
g382
S'world'
p905
sba(idelphi
DelphiFieldEndAccess
p906
(dp907
g382
S'emptyEntry'
p908
sbasbsg495
g882
sbasbsbsg496
Nsg520
(i__main__
DelphiAssignStatement
p909
(dp910
g366
Nsg367
(i__main__
DelphiIdentAccess
p911
(dp912
g14
S'self'
p913
sg16
(lp914
(idelphi
DelphiFieldEndAccess
p915
(dp916
g382
S'drawArrowFromRectEdgeToRectEdge'
p917
sba(idelphi
DelphiFunctionEndAccess
p918
(dp919
g374
(lp920
(i__main__
DelphiIdentAccess
p921
(dp922
g14
S'canvas'
p923
sg16
(lp924
sba(i__main__
DelphiIdentAccess
p925
(dp926
g14
S'rule'
p927
sg16
(lp928
(idelphi
DelphiFieldEndAccess
p929
(dp930
g382
S'context'
p931
sba(idelphi
DelphiFieldEndAccess
p932
(dp933
g382
S'bounds'
p934
sbasba(i__main__
DelphiIdentAccess
p935
(dp936
g14
S'rule'
p937
sg16
(lp938
(idelphi
DelphiFieldEndAccess
p939
(dp940
g382
S'move'
p941
sba(idelphi
DelphiFieldEndAccess
p942
(dp943
g382
S'bounds'
p944
sbasbasbasbsbsbasbsg520
(idelphi
DelphiCompoundStatement
p945
(dp946
g362
(lp947
(idelphi
DelphiIfStatement
p948
(dp949
g479
(idelphi
DelphiRelOp
p950
(dp951
g482
(i__main__
DelphiIdentAccess
p952
(dp953
g14
S'rule'
p954
sg16
(lp955
(idelphi
DelphiFieldEndAccess
p956
(dp957
g382
S'context'
p958
sbasbsg487
(i__main__
DelphiIdentAccess
p959
(dp960
g14
S'domain'
p961
sg16
(lp962
(idelphi
DelphiFieldEndAccess
p963
(dp964
g382
S'world'
p965
sba(idelphi
DelphiFieldEndAccess
p966
(dp967
g382
S'emptyEntry'
p968
sbasbsg495
g882
sbsg496
Nsg520
(i__main__
DelphiAssignStatement
p969
(dp970
g366
Nsg367
(i__main__
DelphiIdentAccess
p971
(dp972
g14
S'self'
p973
sg16
(lp974
(idelphi
DelphiFieldEndAccess
p975
(dp976
g382
S'drawLineFromRectEdgeToRectEdge'
p977
sba(idelphi
DelphiFunctionEndAccess
p978
(dp979
g374
(lp980
(i__main__
DelphiIdentAccess
p981
(dp982
g14
S'canvas'
p983
sg16
(lp984
sba(i__main__
DelphiIdentAccess
p985
(dp986
g14
S'rule'
p987
sg16
(lp988
(idelphi
DelphiFieldEndAccess
p989
(dp990
g382
S'context'
p991
sba(idelphi
DelphiFieldEndAccess
p992
(dp993
g382
S'bounds'
p994
sbasba(i__main__
DelphiIdentAccess
p995
(dp996
g14
S'rule'
p997
sg16
(lp998
(idelphi
DelphiFieldEndAccess
p999
(dp1000
g382
S'bounds'
p1001
sbasbasbasbsbsba(idelphi
DelphiIfStatement
p1002
(dp1003
g479
(idelphi
DelphiRelOp
p1004
(dp1005
g482
(i__main__
DelphiIdentAccess
p1006
(dp1007
g14
S'rule'
p1008
sg16
(lp1009
(idelphi
DelphiFieldEndAccess
p1010
(dp1011
g382
S'move'
p1012
sbasbsg487
(i__main__
DelphiIdentAccess
p1013
(dp1014
g14
S'domain'
p1015
sg16
(lp1016
(idelphi
DelphiFieldEndAccess
p1017
(dp1018
g382
S'world'
p1019
sba(idelphi
DelphiFieldEndAccess
p1020
(dp1021
g382
S'emptyEntry'
p1022
sbasbsg495
g882
sbsg496
Nsg520
(i__main__
DelphiAssignStatement
p1023
(dp1024
g366
Nsg367
(i__main__
DelphiIdentAccess
p1025
(dp1026
g14
S'self'
p1027
sg16
(lp1028
(idelphi
DelphiFieldEndAccess
p1029
(dp1030
g382
S'drawArrowFromRectEdgeToRectEdge'
p1031
sba(idelphi
DelphiFunctionEndAccess
p1032
(dp1033
g374
(lp1034
(i__main__
DelphiIdentAccess
p1035
(dp1036
g14
S'canvas'
p1037
sg16
(lp1038
sba(i__main__
DelphiIdentAccess
p1039
(dp1040
g14
S'rule'
p1041
sg16
(lp1042
(idelphi
DelphiFieldEndAccess
p1043
(dp1044
g382
S'bounds'
p1045
sbasba(i__main__
DelphiIdentAccess
p1046
(dp1047
g14
S'rule'
p1048
sg16
(lp1049
(idelphi
DelphiFieldEndAccess
p1050
(dp1051
g382
S'move'
p1052
sba(idelphi
DelphiFieldEndAccess
p1053
(dp1054
g382
S'bounds'
p1055
sbasbasbasbsbsbasbsbasbsba(i__main__
DelphiAssignStatement
p1056
(dp1057
g366
(i__main__
DelphiIdentAccess
p1058
(dp1059
g14
S'oldColor'
p1060
sg16
(lp1061
sbsg367
(i__main__
DelphiIdentAccess
p1062
(dp1063
g14
S'canvas'
p1064
sg16
(lp1065
(idelphi
DelphiFieldEndAccess
p1066
(dp1067
g382
S'brush'
p1068
sba(idelphi
DelphiFieldEndAccess
p1069
(dp1070
g382
S'color'
p1071
sbasbsba(idelphi
DelphiIfStatement
p1072
(dp1073
g479
(i__main__
DelphiIdentAccess
p1074
(dp1075
g14
S'displayOptions'
p1076
sg16
(lp1077
(idelphi
DelphiArrayEndAccess
p1078
(dp1079
g374
(lp1080
(i__main__
DelphiIdentAccess
p1081
(dp1082
g14
S'kRuleCommand'
p1083
sg16
(lp1084
sbasbasbsg496
Nsg520
(idelphi
DelphiForStatement
p1085
(dp1086
g418
S'i'
sg419
(idelphi
DelphiAddOp
p1087
(dp1088
g386
S'-'
sg388
(idelphi
DelphiIntegerValue
p1089
(dp1090
g243
S'1'
sbsg393
(i__main__
DelphiIdentAccess
p1091
(dp1092
g14
S'domain'
p1093
sg16
(lp1094
(idelphi
DelphiFieldEndAccess
p1095
(dp1096
g382
S'world'
p1097
sba(idelphi
DelphiFieldEndAccess
p1098
(dp1099
g382
S'rules'
p1100
sba(idelphi
DelphiFieldEndAccess
p1101
(dp1102
g382
S'count'
p1103
sbasbsbsg437
g438
sg52
(idelphi
DelphiIntegerValue
p1104
(dp1105
g243
S'0'
sbsg441
(idelphi
DelphiCompoundStatement
p1106
(dp1107
g362
(lp1108
(i__main__
DelphiAssignStatement
p1109
(dp1110
g366
(i__main__
DelphiIdentAccess
p1111
(dp1112
g14
S'TSRule'
p1113
sg16
(lp1114
(idelphi
DelphiFunctionEndAccess
p1115
(dp1116
g374
(lp1117
(i__main__
DelphiIdentAccess
p1118
(dp1119
g14
S'domain'
p1120
sg16
(lp1121
(idelphi
DelphiFieldEndAccess
p1122
(dp1123
g382
S'world'
p1124
sba(idelphi
DelphiFieldEndAccess
p1125
(dp1126
g382
S'rules'
p1127
sba(idelphi
DelphiArrayEndAccess
p1128
(dp1129
g374
(lp1130
(i__main__
DelphiIdentAccess
p1131
(dp1132
g14
S'i'
sg16
(lp1133
sbasbasbasbasbsg367
(i__main__
DelphiIdentAccess
p1134
(dp1135
g14
S'rule'
p1136
sg16
(lp1137
sbsg129
(lp1138
S' draw rectangles and text\r'
p1139
asba(idelphi
DelphiWithStatement
p1140
(dp1141
g441
(i__main__
DelphiAssignStatement
p1142
(dp1143
g366
Nsg367
(i__main__
DelphiIdentAccess
p1144
(dp1145
g14
S'self'
p1146
sg16
(lp1147
(idelphi
DelphiFieldEndAccess
p1148
(dp1149
g382
S'drawCommandOrContext'
p1150
sba(idelphi
DelphiFunctionEndAccess
p1151
(dp1152
g374
(lp1153
(i__main__
DelphiIdentAccess
p1154
(dp1155
g14
S'canvas'
p1156
sg16
(lp1157
sba(i__main__
DelphiIdentAccess
p1158
(dp1159
g14
S'displayName'
p1160
sg16
(lp1161
sba(i__main__
DelphiIdentAccess
p1162
(dp1163
g14
S'bounds'
p1164
sg16
(lp1165
sba(i__main__
DelphiIdentAccess
p1166
(dp1167
g14
S'position'
p1168
sg16
(lp1169
sba(i__main__
DelphiIdentAccess
p1170
(dp1171
g14
S'selected'
p1172
sg16
(lp1173
sba(idelphi
DelphiRelOp
p1174
(dp1175
g482
(i__main__
DelphiIdentAccess
p1176
(dp1177
g14
S'rule'
p1178
sg16
(lp1179
sbsg487
(i__main__
DelphiIdentAccess
p1180
(dp1181
g14
S'RuleEditorForm'
p1182
sg16
(lp1183
(idelphi
DelphiFieldEndAccess
p1184
(dp1185
g382
S'rule'
p1186
sbasbsg495
S'='
sba(i__main__
DelphiIdentAccess
p1187
(dp1188
g14
S'kDrawCommand'
p1189
sg16
(lp1190
sbasbasbsbsS'variableReferenceList'
p1191
(lp1192
(i__main__
DelphiIdentAccess
p1193
(dp1194
g14
S'rule'
p1195
sg16
(lp1196
sbasbasbsbsba(idelphi
DelphiForStatement
p1197
(dp1198
g418
S'i'
sg419
(idelphi
DelphiAddOp
p1199
(dp1200
g386
S'-'
sg388
(idelphi
DelphiIntegerValue
p1201
(dp1202
g243
S'1'
sbsg393
(i__main__
DelphiIdentAccess
p1203
(dp1204
g14
S'domain'
p1205
sg16
(lp1206
(idelphi
DelphiFieldEndAccess
p1207
(dp1208
g382
S'world'
p1209
sba(idelphi
DelphiFieldEndAccess
p1210
(dp1211
g382
S'variables'
p1212
sba(idelphi
DelphiFieldEndAccess
p1213
(dp1214
g382
S'count'
p1215
sbasbsbsg437
g438
sg52
(idelphi
DelphiIntegerValue
p1216
(dp1217
g243
S'0'
sbsg441
(idelphi
DelphiCompoundStatement
p1218
(dp1219
g362
(lp1220
(i__main__
DelphiAssignStatement
p1221
(dp1222
g366
(i__main__
DelphiIdentAccess
p1223
(dp1224
g14
S'TSVariable'
p1225
sg16
(lp1226
(idelphi
DelphiFunctionEndAccess
p1227
(dp1228
g374
(lp1229
(i__main__
DelphiIdentAccess
p1230
(dp1231
g14
S'domain'
p1232
sg16
(lp1233
(idelphi
DelphiFieldEndAccess
p1234
(dp1235
g382
S'world'
p1236
sba(idelphi
DelphiFieldEndAccess
p1237
(dp1238
g382
S'variables'
p1239
sba(idelphi
DelphiArrayEndAccess
p1240
(dp1241
g374
(lp1242
(i__main__
DelphiIdentAccess
p1243
(dp1244
g14
S'i'
sg16
(lp1245
sbasbasbasbasbsg367
(i__main__
DelphiIdentAccess
p1246
(dp1247
g14
S'variable'
p1248
sg16
(lp1249
sbsba(idelphi
DelphiIfStatement
p1250
(dp1251
g479
(i__main__
DelphiIdentAccess
p1252
(dp1253
g14
S'variable'
p1254
sg16
(lp1255
(idelphi
DelphiFieldEndAccess
p1256
(dp1257
g382
S'meetsDisplayOptions'
p1258
sba(idelphi
DelphiFunctionEndAccess
p1259
(dp1260
g374
(lp1261
(i__main__
DelphiIdentAccess
p1262
(dp1263
g14
S'displayOptions'
p1264
sg16
(lp1265
sbasbasbsg496
Nsg520
(idelphi
DelphiCompoundStatement
p1266
(dp1267
g362
(lp1268
(idelphi
DelphiWithStatement
p1269
(dp1270
g441
(i__main__
DelphiAssignStatement
p1271
(dp1272
g366
Nsg367
(i__main__
DelphiIdentAccess
p1273
(dp1274
g14
S'self'
p1275
sg16
(lp1276
(idelphi
DelphiFieldEndAccess
p1277
(dp1278
g382
S'drawCommandOrContext'
p1279
sba(idelphi
DelphiFunctionEndAccess
p1280
(dp1281
g374
(lp1282
(i__main__
DelphiIdentAccess
p1283
(dp1284
g14
S'canvas'
p1285
sg16
(lp1286
sba(i__main__
DelphiIdentAccess
p1287
(dp1288
g14
S'displayName'
p1289
sg16
(lp1290
sba(i__main__
DelphiIdentAccess
p1291
(dp1292
g14
S'bounds'
p1293
sg16
(lp1294
sba(i__main__
DelphiIdentAccess
p1295
(dp1296
g14
S'position'
p1297
sg16
(lp1298
sba(i__main__
DelphiIdentAccess
p1299
(dp1300
g14
S'selected'
p1301
sg16
(lp1302
sba(i__main__
DelphiIdentAccess
p1303
(dp1304
g14
S'false'
p1305
sg16
(lp1306
sba(i__main__
DelphiIdentAccess
p1307
(dp1308
g14
S'kDrawContext'
p1309
sg16
(lp1310
sbasbasbsbsg1191
(lp1311
(i__main__
DelphiIdentAccess
p1312
(dp1313
g14
S'variable'
p1314
sg16
(lp1315
sbasbasbsbasbsbasbsS'limitedDeclSectionList'
p1316
(lp1317
(i__main__
DelphiVarSection
p1318
(dp1319
g33
I0
sS'varDeclList'
p1320
(lp1321
(idelphi
DelphiVarDecl
p1322
(dp1323
g11
NsS'identList'
p1324
(lp1325
S'i'
asg19
(i__main__
DelphiPrimitiveType
p1326
(dp1327
g22
S'integer'
p1328
sbsba(idelphi
DelphiVarDecl
p1329
(dp1330
g11
Nsg1324
(lp1331
S'variable'
p1332
asg19
(i__main__
DelphiNamedType
p1333
(dp1334
g22
S'TSVariable'
p1335
sg59
g1
sg60
Nsbsba(idelphi
DelphiVarDecl
p1336
(dp1337
g11
Nsg1324
(lp1338
S'rule'
p1339
asg19
(i__main__
DelphiNamedType
p1340
(dp1341
g22
S'TSRule'
p1342
sg59
g1
sg60
Nsbsba(idelphi
DelphiVarDecl
p1343
(dp1344
g11
Nsg1324
(lp1345
S'textSize'
p1346
asg19
(i__main__
DelphiNamedType
p1347
(dp1348
g22
S'TSize'
p1349
sg59
g1
sg60
Nsbsba(idelphi
DelphiVarDecl
p1350
(dp1351
g11
Nsg1324
(lp1352
S'oldColor'
p1353
asg19
(i__main__
DelphiNamedType
p1354
(dp1355
g22
S'TColor'
p1356
sg59
g1
sg60
NsbsbasbasbsbsS'drawbogusarrow'
p1357
(i__main__
DelphiMethodImplementation
p1358
(dp1359
g320
g182
sg40
g184
sg48
(lp1360
(i__main__
DelphiFormalParameter
p1361
(dp1362
g52
Nsg53
(lp1363
S'canvas'
p1364
asg19
(i__main__
DelphiNamedType
p1365
(dp1366
g22
S'TCanvas'
p1367
sg59
g1
sg60
Nsbsg61
Nsba(i__main__
DelphiFormalParameter
p1368
(dp1369
g52
Nsg53
(lp1370
S'a'
aS'b'
asg19
(i__main__
DelphiNamedType
p1371
(dp1372
g22
S'TPoint'
p1373
sg59
g1
sg60
Nsbsg61
Nsbasg344
(lp1374
sg346
(lp1375
sg348
(lp1376
g350
ag1364
aS'a'
aS'b'
asg351
(dp1377
S'a'
g1371
sg1364
g1365
sS'b'
g1371
ssg78
S'TSMapView'
p1378
sg79
Nsg354
(lp1379
sg80
I0
sg81
g82
sg356
(i__main__
DelphiBlock
p1380
(dp1381
g359
(idelphi
DelphiCompoundStatement
p1382
(dp1383
g362
(lp1384
(i__main__
DelphiAssignStatement
p1385
(dp1386
g366
(i__main__
DelphiIdentAccess
p1387
(dp1388
g14
S'Point'
p1389
sg16
(lp1390
(idelphi
DelphiFunctionEndAccess
p1391
(dp1392
g374
(lp1393
(idelphi
DelphiAddOp
p1394
(dp1395
g386
S'+'
sg388
(idelphi
DelphiMulOp
p1396
(dp1397
g858
(idelphi
DelphiIntegerValue
p1398
(dp1399
g243
S'3'
sbsg883
S'div'
p1400
sg885
(idelphi
DelphiNestedExpressionListAccess
p1401
(dp1402
g16
(lp1403
sg374
(lp1404
(idelphi
DelphiAddOp
p1405
(dp1406
g386
S'-'
sg388
(i__main__
DelphiIdentAccess
p1407
(dp1408
g14
S'a'
sg16
(lp1409
(idelphi
DelphiFieldEndAccess
p1410
(dp1411
g382
S'x'
sbasbsg393
(i__main__
DelphiIdentAccess
p1412
(dp1413
g14
S'b'
sg16
(lp1414
(idelphi
DelphiFieldEndAccess
p1415
(dp1416
g382
S'x'
sbasbsbasbsbsg393
(i__main__
DelphiIdentAccess
p1417
(dp1418
g14
S'a'
sg16
(lp1419
(idelphi
DelphiFieldEndAccess
p1420
(dp1421
g382
S'x'
sbasbsba(idelphi
DelphiAddOp
p1422
(dp1423
g386
S'+'
sg388
(idelphi
DelphiMulOp
p1424
(dp1425
g858
(idelphi
DelphiIntegerValue
p1426
(dp1427
g243
S'3'
sbsg883
g1400
sg885
(idelphi
DelphiNestedExpressionListAccess
p1428
(dp1429
g16
(lp1430
sg374
(lp1431
(idelphi
DelphiAddOp
p1432
(dp1433
g386
S'-'
sg388
(i__main__
DelphiIdentAccess
p1434
(dp1435
g14
S'a'
sg16
(lp1436
(idelphi
DelphiFieldEndAccess
p1437
(dp1438
g382
S'y'
sbasbsg393
(i__main__
DelphiIdentAccess
p1439
(dp1440
g14
S'b'
sg16
(lp1441
(idelphi
DelphiFieldEndAccess
p1442
(dp1443
g382
S'y'
sbasbsbasbsbsg393
(i__main__
DelphiIdentAccess
p1444
(dp1445
g14
S'a'
sg16
(lp1446
(idelphi
DelphiFieldEndAccess
p1447
(dp1448
g382
S'y'
sbasbsbasbasbsg367
(i__main__
DelphiIdentAccess
p1449
(dp1450
g14
S'midPoint2'
p1451
sg16
(lp1452
sbsg129
(lp1453
S'midPoint1: TPoint;\r'
p1454
aS'midPoint1 := Point(a.x + (b.x - a.x) div 3, a.y + (b.y - a.y) div 3);\r'
p1455
asba(i__main__
DelphiAssignStatement
p1456
(dp1457
g366
(i__main__
DelphiIdentAccess
p1458
(dp1459
g14
S'psSolid'
p1460
sg16
(lp1461
sbsg367
(i__main__
DelphiIdentAccess
p1462
(dp1463
g14
S'canvas'
p1464
sg16
(lp1465
(idelphi
DelphiFieldEndAccess
p1466
(dp1467
g382
S'pen'
p1468
sba(idelphi
DelphiFieldEndAccess
p1469
(dp1470
g382
S'style'
p1471
sbasbsg129
(lp1472
S'midPoint2 := Point(b.x - (b.x - a.x) mod 2, b.y - (b.y - a.y) div 5);\r'
p1473
asba(i__main__
DelphiAssignStatement
p1474
(dp1475
g366
Nsg367
(i__main__
DelphiIdentAccess
p1476
(dp1477
g14
S'canvas'
p1478
sg16
(lp1479
(idelphi
DelphiFieldEndAccess
p1480
(dp1481
g382
S'moveTo'
p1482
sba(idelphi
DelphiFunctionEndAccess
p1483
(dp1484
g374
(lp1485
(idelphi
DelphiAddOp
p1486
(dp1487
g386
S'+'
sg388
(i__main__
DelphiIdentAccess
p1488
(dp1489
g14
S'scroll'
p1490
sg16
(lp1491
(idelphi
DelphiFieldEndAccess
p1492
(dp1493
g382
S'x'
sbasbsg393
(i__main__
DelphiIdentAccess
p1494
(dp1495
g14
S'a'
sg16
(lp1496
(idelphi
DelphiFieldEndAccess
p1497
(dp1498
g382
S'x'
sbasbsba(idelphi
DelphiAddOp
p1499
(dp1500
g386
S'+'
sg388
(i__main__
DelphiIdentAccess
p1501
(dp1502
g14
S'scroll'
p1503
sg16
(lp1504
(idelphi
DelphiFieldEndAccess
p1505
(dp1506
g382
S'y'
sbasbsg393
(i__main__
DelphiIdentAccess
p1507
(dp1508
g14
S'a'
sg16
(lp1509
(idelphi
DelphiFieldEndAccess
p1510
(dp1511
g382
S'y'
sbasbsbasbasbsba(i__main__
DelphiAssignStatement
p1512
(dp1513
g366
Nsg367
(i__main__
DelphiIdentAccess
p1514
(dp1515
g14
S'canvas'
p1516
sg16
(lp1517
(idelphi
DelphiFieldEndAccess
p1518
(dp1519
g382
S'lineTo'
p1520
sba(idelphi
DelphiFunctionEndAccess
p1521
(dp1522
g374
(lp1523
(idelphi
DelphiAddOp
p1524
(dp1525
g386
S'+'
sg388
(i__main__
DelphiIdentAccess
p1526
(dp1527
g14
S'scroll'
p1528
sg16
(lp1529
(idelphi
DelphiFieldEndAccess
p1530
(dp1531
g382
S'x'
sbasbsg393
(i__main__
DelphiIdentAccess
p1532
(dp1533
g14
S'b'
sg16
(lp1534
(idelphi
DelphiFieldEndAccess
p1535
(dp1536
g382
S'x'
sbasbsba(idelphi
DelphiAddOp
p1537
(dp1538
g386
S'+'
sg388
(i__main__
DelphiIdentAccess
p1539
(dp1540
g14
S'scroll'
p1541
sg16
(lp1542
(idelphi
DelphiFieldEndAccess
p1543
(dp1544
g382
S'y'
sbasbsg393
(i__main__
DelphiIdentAccess
p1545
(dp1546
g14
S'b'
sg16
(lp1547
(idelphi
DelphiFieldEndAccess
p1548
(dp1549
g382
S'y'
sbasbsbasbasbsba(i__main__
DelphiAssignStatement
p1550
(dp1551
g366
(i__main__
DelphiIdentAccess
p1552
(dp1553
g14
S'canvas'
p1554
sg16
(lp1555
(idelphi
DelphiFieldEndAccess
p1556
(dp1557
g382
S'brush'
p1558
sba(idelphi
DelphiFieldEndAccess
p1559
(dp1560
g382
S'color'
p1561
sbasbsg367
(i__main__
DelphiIdentAccess
p1562
(dp1563
g14
S'oldColor'
p1564
sg16
(lp1565
sbsba(i__main__
DelphiAssignStatement
p1566
(dp1567
g366
(i__main__
DelphiIdentAccess
p1568
(dp1569
g14
S'clBlue'
p1570
sg16
(lp1571
sbsg367
(i__main__
DelphiIdentAccess
p1572
(dp1573
g14
S'canvas'
p1574
sg16
(lp1575
(idelphi
DelphiFieldEndAccess
p1576
(dp1577
g382
S'brush'
p1578
sba(idelphi
DelphiFieldEndAccess
p1579
(dp1580
g382
S'color'
p1581
sbasbsg129
(lp1582
S'canvas.brush.color := clGreen;\r'
p1583
aS'canvas.Ellipse(midPoint1.x-4, midPoint1.y-4,midPoint1.x+4, midPoint1.y+4);\r'
p1584
asba(i__main__
DelphiAssignStatement
p1585
(dp1586
g366
Nsg367
(i__main__
DelphiIdentAccess
p1587
(dp1588
g14
S'canvas'
p1589
sg16
(lp1590
(idelphi
DelphiFieldEndAccess
p1591
(dp1592
g382
S'Ellipse'
p1593
sba(idelphi
DelphiFunctionEndAccess
p1594
(dp1595
g374
(lp1596
(idelphi
DelphiAddOp
p1597
(dp1598
g386
S'+'
sg388
(i__main__
DelphiIdentAccess
p1599
(dp1600
g14
S'scroll'
p1601
sg16
(lp1602
(idelphi
DelphiFieldEndAccess
p1603
(dp1604
g382
S'x'
sbasbsg393
(idelphi
DelphiAddOp
p1605
(dp1606
g386
S'-'
sg388
(idelphi
DelphiIntegerValue
p1607
(dp1608
g243
S'4'
sbsg393
(i__main__
DelphiIdentAccess
p1609
(dp1610
g14
S'midPoint2'
p1611
sg16
(lp1612
(idelphi
DelphiFieldEndAccess
p1613
(dp1614
g382
S'x'
sbasbsbsba(idelphi
DelphiAddOp
p1615
(dp1616
g386
S'+'
sg388
(i__main__
DelphiIdentAccess
p1617
(dp1618
g14
S'scroll'
p1619
sg16
(lp1620
(idelphi
DelphiFieldEndAccess
p1621
(dp1622
g382
S'y'
sbasbsg393
(idelphi
DelphiAddOp
p1623
(dp1624
g386
S'-'
sg388
(idelphi
DelphiIntegerValue
p1625
(dp1626
g243
S'4'
sbsg393
(i__main__
DelphiIdentAccess
p1627
(dp1628
g14
S'midPoint2'
p1629
sg16
(lp1630
(idelphi
DelphiFieldEndAccess
p1631
(dp1632
g382
S'y'
sbasbsbsba(idelphi
DelphiAddOp
p1633
(dp1634
g386
S'+'
sg388
(i__main__
DelphiIdentAccess
p1635
(dp1636
g14
S'scroll'
p1637
sg16
(lp1638
(idelphi
DelphiFieldEndAccess
p1639
(dp1640
g382
S'x'
sbasbsg393
(idelphi
DelphiAddOp
p1641
(dp1642
g386
S'+'
sg388
(idelphi
DelphiIntegerValue
p1643
(dp1644
g243
S'4'
sbsg393
(i__main__
DelphiIdentAccess
p1645
(dp1646
g14
S'midPoint2'
p1647
sg16
(lp1648
(idelphi
DelphiFieldEndAccess
p1649
(dp1650
g382
S'x'
sbasbsbsba(idelphi
DelphiAddOp
p1651
(dp1652
g386
S'+'
sg388
(i__main__
DelphiIdentAccess
p1653
(dp1654
g14
S'scroll'
p1655
sg16
(lp1656
(idelphi
DelphiFieldEndAccess
p1657
(dp1658
g382
S'y'
sbasbsg393
(idelphi
DelphiAddOp
p1659
(dp1660
g386
S'+'
sg388
(idelphi
DelphiIntegerValue
p1661
(dp1662
g243
S'4'
sbsg393
(i__main__
DelphiIdentAccess
p1663
(dp1664
g14
S'midPoint2'
p1665
sg16
(lp1666
(idelphi
DelphiFieldEndAccess
p1667
(dp1668
g382
S'y'
sbasbsbsbasbasbsba(i__main__
DelphiAssignStatement
p1669
(dp1670
g366
(i__main__
DelphiIdentAccess
p1671
(dp1672
g14
S'oldColor'
p1673
sg16
(lp1674
sbsg367
(i__main__
DelphiIdentAccess
p1675
(dp1676
g14
S'canvas'
p1677
sg16
(lp1678
(idelphi
DelphiFieldEndAccess
p1679
(dp1680
g382
S'brush'
p1681
sba(idelphi
DelphiFieldEndAccess
p1682
(dp1683
g382
S'color'
p1684
sbasbsbasbsg1316
(lp1685
(i__main__
DelphiVarSection
p1686
(dp1687
g33
I0
sg1320
(lp1688
(idelphi
DelphiVarDecl
p1689
(dp1690
g11
Nsg1324
(lp1691
S'midPoint2'
p1692
asg19
(i__main__
DelphiNamedType
p1693
(dp1694
g22
S'TPoint'
p1695
sg59
g1
sg60
Nsbsba(idelphi
DelphiVarDecl
p1696
(dp1697
g11
Nsg1324
(lp1698
S'oldColor'
p1699
asg19
(i__main__
DelphiNamedType
p1700
(dp1701
g22
S'TColor'
p1702
sg59
g1
sg60
Nsbsbasbasbsg129
(lp1703
S' TSMapView ---------------------------------------- '
p1704
asbsS'drawarrowhead'
p1705
(i__main__
DelphiMethodImplementation
p1706
(dp1707
g320
g84
sg40
g86
sg48
(lp1708
(i__main__
DelphiFormalParameter
p1709
(dp1710
g52
Nsg53
(lp1711
S'canvas'
p1712
asg19
(i__main__
DelphiNamedType
p1713
(dp1714
g22
S'TCanvas'
p1715
sg59
g1
sg60
Nsbsg61
Nsba(i__main__
DelphiFormalParameter
p1716
(dp1717
g52
Nsg53
(lp1718
S'p1'
p1719
aS'p2'
p1720
asg19
(i__main__
DelphiNamedType
p1721
(dp1722
g22
S'TPoint'
p1723
sg59
g1
sg60
Nsbsg61
Nsbasg344
(lp1724
sg346
(lp1725
sg348
(lp1726
g350
ag1712
ag1719
ag1720
asg351
(dp1727
g1720
g1721
sg1712
g1713
sg1719
g1721
ssg78
S'TSMapView'
p1728
sg79
Nsg354
(lp1729
sg80
I0
sg81
g82
sg356
(i__main__
DelphiBlock
p1730
(dp1731
g359
(idelphi
DelphiCompoundStatement
p1732
(dp1733
g362
(lp1734
(i__main__
DelphiAssignStatement
p1735
(dp1736
g366
(idelphi
DelphiAddOp
p1737
(dp1738
g386
S'-'
sg388
(i__main__
DelphiIdentAccess
p1739
(dp1740
g14
S'P2'
p1741
sg16
(lp1742
(idelphi
DelphiFieldEndAccess
p1743
(dp1744
g382
S'x'
sbasbsg393
(i__main__
DelphiIdentAccess
p1745
(dp1746
g14
S'P1'
p1747
sg16
(lp1748
(idelphi
DelphiFieldEndAccess
p1749
(dp1750
g382
S'x'
sbasbsbsg367
(i__main__
DelphiIdentAccess
p1751
(dp1752
g14
S'dx'
p1753
sg16
(lp1754
sbsg129
(lp1755
S'Code translated from C++ posted:\r'
p1756
aS'\tSubject:      Re: calculation for drawing arrow heads\r'
p1757
aS'\tFrom:         "Jesper Hansen" <jesperh@edit.se>\r'
p1758
aS'\tDate:         1998/01/27\r'
p1759
aS'\tMessage-ID:   <01bd2b58$1d33eaa0$65656565@foo.telia.com>\r'
p1760
aS'\tNewsgroups:   comp.os.ms-windows.programmer.graphics '
p1761
aS' given line from P1 to P2\r'
p1762
aS' draws arrowhead at P2\r'
p1763
asba(i__main__
DelphiAssignStatement
p1764
(dp1765
g366
(idelphi
DelphiAddOp
p1766
(dp1767
g386
S'-'
sg388
(i__main__
DelphiIdentAccess
p1768
(dp1769
g14
S'P2'
p1770
sg16
(lp1771
(idelphi
DelphiFieldEndAccess
p1772
(dp1773
g382
S'y'
sbasbsg393
(i__main__
DelphiIdentAccess
p1774
(dp1775
g14
S'P1'
p1776
sg16
(lp1777
(idelphi
DelphiFieldEndAccess
p1778
(dp1779
g382
S'y'
sbasbsbsg367
(i__main__
DelphiIdentAccess
p1780
(dp1781
g14
S'dy'
p1782
sg16
(lp1783
sbsba(i__main__
DelphiAssignStatement
p1784
(dp1785
g366
(i__main__
DelphiIdentAccess
p1786
(dp1787
g14
S'sqrt'
p1788
sg16
(lp1789
(idelphi
DelphiFunctionEndAccess
p1790
(dp1791
g374
(lp1792
(idelphi
DelphiAddOp
p1793
(dp1794
g386
S'+'
sg388
(idelphi
DelphiMulOp
p1795
(dp1796
g858
(i__main__
DelphiIdentAccess
p1797
(dp1798
g14
S'dy'
p1799
sg16
(lp1800
sbsg883
S'*'
sg885
(i__main__
DelphiIdentAccess
p1801
(dp1802
g14
S'dy'
p1803
sg16
(lp1804
sbsbsg393
(idelphi
DelphiMulOp
p1805
(dp1806
g858
(i__main__
DelphiIdentAccess
p1807
(dp1808
g14
S'dx'
p1809
sg16
(lp1810
sbsg883
S'*'
sg885
(i__main__
DelphiIdentAccess
p1811
(dp1812
g14
S'dx'
p1813
sg16
(lp1814
sbsbsbasbasbsg367
(i__main__
DelphiIdentAccess
p1815
(dp1816
g14
S'linelen'
p1817
sg16
(lp1818
sbsba(idelphi
DelphiIfStatement
p1819
(dp1820
g479
(idelphi
DelphiRelOp
p1821
(dp1822
g482
(i__main__
DelphiIdentAccess
p1823
(dp1824
g14
S'linelen'
p1825
sg16
(lp1826
sbsg487
(idelphi
DelphiIntegerValue
p1827
(dp1828
g243
S'0'
sbsg495
S'='
sbsg496
Nsg520
(i__main__
DelphiAssignStatement
p1829
(dp1830
g366
(idelphi
DelphiIntegerValue
p1831
(dp1832
g243
S'1'
sbsg367
(i__main__
DelphiIdentAccess
p1833
(dp1834
g14
S'linelen'
p1835
sg16
(lp1836
sbsbsba(i__main__
DelphiAssignStatement
p1837
(dp1838
g366
(idelphi
DelphiMulOp
p1839
(dp1840
g858
(i__main__
DelphiIdentAccess
p1841
(dp1842
g14
S'linelen'
p1843
sg16
(lp1844
sbsg883
S'/'
sg885
(i__main__
DelphiIdentAccess
p1845
(dp1846
g14
S'dx'
p1847
sg16
(lp1848
sbsbsg367
(i__main__
DelphiIdentAccess
p1849
(dp1850
g14
S'xstep'
p1851
sg16
(lp1852
sbsba(i__main__
DelphiAssignStatement
p1853
(dp1854
g366
(idelphi
DelphiMulOp
p1855
(dp1856
g858
(i__main__
DelphiIdentAccess
p1857
(dp1858
g14
S'linelen'
p1859
sg16
(lp1860
sbsg883
S'/'
sg885
(i__main__
DelphiIdentAccess
p1861
(dp1862
g14
S'dy'
p1863
sg16
(lp1864
sbsbsg367
(i__main__
DelphiIdentAccess
p1865
(dp1866
g14
S'ystep'
p1867
sg16
(lp1868
sbsba(idelphi
DelphiTryExceptStatement
p1869
(dp1870
S'tryStatements'
p1871
(lp1872
(i__main__
DelphiAssignStatement
p1873
(dp1874
g366
(idelphi
DelphiAddOp
p1875
(dp1876
g386
S'+'
sg388
(i__main__
DelphiIdentAccess
p1877
(dp1878
g14
S'round'
p1879
sg16
(lp1880
(idelphi
DelphiFunctionEndAccess
p1881
(dp1882
g374
(lp1883
(idelphi
DelphiMulOp
p1884
(dp1885
g858
(i__main__
DelphiIdentAccess
p1886
(dp1887
g14
S'arrowlength'
p1888
sg16
(lp1889
sbsg883
S'*'
sg885
(i__main__
DelphiIdentAccess
p1890
(dp1891
g14
S'xstep'
p1892
sg16
(lp1893
sbsbasbasbsg393
(i__main__
DelphiIdentAccess
p1894
(dp1895
g14
S'P2'
p1896
sg16
(lp1897
(idelphi
DelphiFieldEndAccess
p1898
(dp1899
g382
S'x'
sbasbsbsg367
(i__main__
DelphiIdentAccess
p1900
(dp1901
g14
S'x2'
p1902
sg16
(lp1903
sbsg129
(lp1904
S' modify according to preference\r'
p1905
aS' relationship comes from tan(angle)\r'
p1906
aS' relation 10:5 is 45 degrees (2*22.5)\r'
p1907
aS'\r'
asba(i__main__
DelphiAssignStatement
p1908
(dp1909
g366
(idelphi
DelphiAddOp
p1910
(dp1911
g386
S'+'
sg388
(i__main__
DelphiIdentAccess
p1912
(dp1913
g14
S'round'
p1914
sg16
(lp1915
(idelphi
DelphiFunctionEndAccess
p1916
(dp1917
g374
(lp1918
(idelphi
DelphiMulOp
p1919
(dp1920
g858
(i__main__
DelphiIdentAccess
p1921
(dp1922
g14
S'arrowlength'
p1923
sg16
(lp1924
sbsg883
S'*'
sg885
(i__main__
DelphiIdentAccess
p1925
(dp1926
g14
S'ystep'
p1927
sg16
(lp1928
sbsbasbasbsg393
(i__main__
DelphiIdentAccess
p1929
(dp1930
g14
S'P2'
p1931
sg16
(lp1932
(idelphi
DelphiFieldEndAccess
p1933
(dp1934
g382
S'y'
sbasbsbsg367
(i__main__
DelphiIdentAccess
p1935
(dp1936
g14
S'y2'
p1937
sg16
(lp1938
sbsba(i__main__
DelphiAssignStatement
p1939
(dp1940
g366
(idelphi
DelphiSign
p1941
(dp1942
S'factor'
p1943
(i__main__
DelphiIdentAccess
p1944
(dp1945
g14
S'round'
p1946
sg16
(lp1947
(idelphi
DelphiFunctionEndAccess
p1948
(dp1949
g374
(lp1950
(idelphi
DelphiMulOp
p1951
(dp1952
g858
(i__main__
DelphiIdentAccess
p1953
(dp1954
g14
S'arrowwidth'
p1955
sg16
(lp1956
sbsg883
S'*'
sg885
(i__main__
DelphiIdentAccess
p1957
(dp1958
g14
S'xstep'
p1959
sg16
(lp1960
sbsbasbasbsS'sign'
p1961
S'-'
sbsg367
(i__main__
DelphiIdentAccess
p1962
(dp1963
g14
S'y1'
p1964
sg16
(lp1965
sbsba(i__main__
DelphiAssignStatement
p1966
(dp1967
g366
(i__main__
DelphiIdentAccess
p1968
(dp1969
g14
S'round'
p1970
sg16
(lp1971
(idelphi
DelphiFunctionEndAccess
p1972
(dp1973
g374
(lp1974
(idelphi
DelphiMulOp
p1975
(dp1976
g858
(i__main__
DelphiIdentAccess
p1977
(dp1978
g14
S'arrowwidth'
p1979
sg16
(lp1980
sbsg883
S'*'
sg885
(i__main__
DelphiIdentAccess
p1981
(dp1982
g14
S'ystep'
p1983
sg16
(lp1984
sbsbasbasbsg367
(i__main__
DelphiIdentAccess
p1985
(dp1986
g14
S'x1'
p1987
sg16
(lp1988
sbsbasS'exceptionHandlers'
p1989
(idelphi
DelphiExceptionHandlers
p1990
(dp1991
S'exceptionHandlerList'
p1992
NsS'statementList'
p1993
(lp1994
(i__main__
DelphiExitStatement
p1995
(dp1996
S'proceduralOrMethodImplementation'
p1997
g1706
sbasbsba(i__main__
DelphiAssignStatement
p1998
(dp1999
g366
(idelphi
DelphiAddOp
p2000
(dp2001
g386
S'+'
sg388
(i__main__
DelphiIdentAccess
p2002
(dp2003
g14
S'x1'
p2004
sg16
(lp2005
sbsg393
(i__main__
DelphiIdentAccess
p2006
(dp2007
g14
S'x2'
p2008
sg16
(lp2009
sbsbsg367
(i__main__
DelphiIdentAccess
p2010
(dp2011
g14
S'outerOne'
p2012
sg16
(lp2013
(idelphi
DelphiFieldEndAccess
p2014
(dp2015
g382
S'x'
sbasbsba(i__main__
DelphiAssignStatement
p2016
(dp2017
g366
(idelphi
DelphiAddOp
p2018
(dp2019
g386
S'+'
sg388
(i__main__
DelphiIdentAccess
p2020
(dp2021
g14
S'y1'
p2022
sg16
(lp2023
sbsg393
(i__main__
DelphiIdentAccess
p2024
(dp2025
g14
S'y2'
p2026
sg16
(lp2027
sbsbsg367
(i__main__
DelphiIdentAccess
p2028
(dp2029
g14
S'outerOne'
p2030
sg16
(lp2031
(idelphi
DelphiFieldEndAccess
p2032
(dp2033
g382
S'y'
sbasbsba(i__main__
DelphiAssignStatement
p2034
(dp2035
g366
(idelphi
DelphiAddOp
p2036
(dp2037
g386
S'-'
sg388
(i__main__
DelphiIdentAccess
p2038
(dp2039
g14
S'x1'
p2040
sg16
(lp2041
sbsg393
(i__main__
DelphiIdentAccess
p2042
(dp2043
g14
S'x2'
p2044
sg16
(lp2045
sbsbsg367
(i__main__
DelphiIdentAccess
p2046
(dp2047
g14
S'outerTwo'
p2048
sg16
(lp2049
(idelphi
DelphiFieldEndAccess
p2050
(dp2051
g382
S'x'
sbasbsba(i__main__
DelphiAssignStatement
p2052
(dp2053
g366
(idelphi
DelphiAddOp
p2054
(dp2055
g386
S'-'
sg388
(i__main__
DelphiIdentAccess
p2056
(dp2057
g14
S'y1'
p2058
sg16
(lp2059
sbsg393
(i__main__
DelphiIdentAccess
p2060
(dp2061
g14
S'y2'
p2062
sg16
(lp2063
sbsbsg367
(i__main__
DelphiIdentAccess
p2064
(dp2065
g14
S'outerTwo'
p2066
sg16
(lp2067
(idelphi
DelphiFieldEndAccess
p2068
(dp2069
g382
S'y'
sbasbsba(i__main__
DelphiAssignStatement
p2070
(dp2071
g366
(i__main__
DelphiIdentAccess
p2072
(dp2073
g14
S'p2'
p2074
sg16
(lp2075
sbsg367
(i__main__
DelphiIdentAccess
p2076
(dp2077
g14
S'points'
p2078
sg16
(lp2079
(idelphi
DelphiArrayEndAccess
p2080
(dp2081
g374
(lp2082
(idelphi
DelphiIntegerValue
p2083
(dp2084
g243
S'0'
sbasbasbsba(i__main__
DelphiAssignStatement
p2085
(dp2086
g366
(i__main__
DelphiIdentAccess
p2087
(dp2088
g14
S'outerOne'
p2089
sg16
(lp2090
sbsg367
(i__main__
DelphiIdentAccess
p2091
(dp2092
g14
S'points'
p2093
sg16
(lp2094
(idelphi
DelphiArrayEndAccess
p2095
(dp2096
g374
(lp2097
(idelphi
DelphiIntegerValue
p2098
(dp2099
g243
S'1'
sbasbasbsba(i__main__
DelphiAssignStatement
p2100
(dp2101
g366
(i__main__
DelphiIdentAccess
p2102
(dp2103
g14
S'outerTwo'
p2104
sg16
(lp2105
sbsg367
(i__main__
DelphiIdentAccess
p2106
(dp2107
g14
S'points'
p2108
sg16
(lp2109
(idelphi
DelphiArrayEndAccess
p2110
(dp2111
g374
(lp2112
(idelphi
DelphiIntegerValue
p2113
(dp2114
g243
S'2'
sbasbasbsba(i__main__
DelphiAssignStatement
p2115
(dp2116
g366
(i__main__
DelphiIdentAccess
p2117
(dp2118
g14
S'psSolid'
p2119
sg16
(lp2120
sbsg367
(i__main__
DelphiIdentAccess
p2121
(dp2122
g14
S'canvas'
p2123
sg16
(lp2124
(idelphi
DelphiFieldEndAccess
p2125
(dp2126
g382
S'pen'
p2127
sba(idelphi
DelphiFieldEndAccess
p2128
(dp2129
g382
S'style'
p2130
sbasbsba(i__main__
DelphiAssignStatement
p2131
(dp2132
g366
Nsg367
(i__main__
DelphiIdentAccess
p2133
(dp2134
g14
S'canvas'
p2135
sg16
(lp2136
(idelphi
DelphiFieldEndAccess
p2137
(dp2138
g382
S'polygon'
p2139
sba(idelphi
DelphiFunctionEndAccess
p2140
(dp2141
g374
(lp2142
(i__main__
DelphiIdentAccess
p2143
(dp2144
g14
S'points'
p2145
sg16
(lp2146
sbasbasbsbasg129
(lp2147
S'canvas.moveTo(p2.x, p2.y);\r'
p2148
aS'  canvas.LineTo(outerOne.x, outerOne.y);\r'
p2149
aS'  canvas.moveTo(p2.x, p2.y);\r'
p2150
aS'  canvas.LineTo(outerTwo.x, outerTwo.y); '
p2151
asbsg1316
(lp2152
(i__main__
DelphiVarSection
p2153
(dp2154
g33
I0
sg1320
(lp2155
(idelphi
DelphiVarDecl
p2156
(dp2157
g11
Nsg1324
(lp2158
S'dx'
p2159
aS'dy'
p2160
aS'x1'
p2161
aS'y1'
p2162
aS'x2'
p2163
aS'y2'
p2164
asg19
(i__main__
DelphiPrimitiveType
p2165
(dp2166
g22
g1328
sbsba(idelphi
DelphiVarDecl
p2167
(dp2168
g11
Nsg1324
(lp2169
S'linelen'
p2170
aS'xstep'
p2171
aS'ystep'
p2172
asg19
(i__main__
DelphiPrimitiveType
p2173
(dp2174
g22
S'extended'
p2175
sbsba(idelphi
DelphiVarDecl
p2176
(dp2177
g11
Nsg1324
(lp2178
S'outerOne'
p2179
aS'outerTwo'
p2180
asg19
(i__main__
DelphiNamedType
p2181
(dp2182
g22
S'TPoint'
p2183
sg59
g1
sg60
Nsbsba(idelphi
DelphiVarDecl
p2184
(dp2185
g11
Nsg1324
(lp2186
S'Points'
p2187
asg19
(i__main__
DelphiArrayType
p2188
(dp2189
g19
(i__main__
DelphiNamedType
p2190
(dp2191
g22
S'TPoint'
p2192
sg59
g1
sg60
NsbsS'sizes'
p2193
(lp2194
(idelphi
DelphiSubrange
p2195
(dp2196
S'high'
p2197
(idelphi
DelphiIntegerValue
p2198
(dp2199
g243
S'2'
sbsS'low'
p2200
(idelphi
DelphiIntegerValue
p2201
(dp2202
g243
S'0'
sbsg40
S''
sbasbsbasbasbsbsS'drawarrowtorect'
p2203
(i__main__
DelphiMethodImplementation
p2204
(dp2205
g320
g104
sg40
g106
sg48
(lp2206
(i__main__
DelphiFormalParameter
p2207
(dp2208
g52
Nsg53
(lp2209
S'canvas'
p2210
asg19
(i__main__
DelphiNamedType
p2211
(dp2212
g22
S'TCanvas'
p2213
sg59
g1
sg60
Nsbsg61
Nsba(i__main__
DelphiFormalParameter
p2214
(dp2215
g52
Nsg53
(lp2216
S'origin'
p2217
asg19
(i__main__
DelphiNamedType
p2218
(dp2219
g22
S'TPoint'
p2220
sg59
g1
sg60
Nsbsg61
Nsba(i__main__
DelphiFormalParameter
p2221
(dp2222
g52
Nsg53
(lp2223
S'destRect'
p2224
asg19
(i__main__
DelphiNamedType
p2225
(dp2226
g22
S'TRect'
p2227
sg59
g1
sg60
Nsbsg61
Nsbasg344
(lp2228
sg346
(lp2229
sg348
(lp2230
g350
ag2210
ag2217
ag2224
asg351
(dp2231
g2217
g2218
sg2210
g2211
sg2224
g2225
ssg78
S'TSMapView'
p2232
sg79
Nsg354
(lp2233
sg80
I0
sg81
g82
sg356
(i__main__
DelphiBlock
p2234
(dp2235
g359
(idelphi
DelphiCompoundStatement
p2236
(dp2237
g362
(lp2238
(i__main__
DelphiAssignStatement
p2239
(dp2240
g366
Nsg367
(i__main__
DelphiIdentAccess
p2241
(dp2242
g14
S'InflateRect'
p2243
sg16
(lp2244
(idelphi
DelphiFunctionEndAccess
p2245
(dp2246
g374
(lp2247
(i__main__
DelphiIdentAccess
p2248
(dp2249
g14
S'destRect'
p2250
sg16
(lp2251
sba(i__main__
DelphiIdentAccess
p2252
(dp2253
g14
S'arrowwidth'
p2254
sg16
(lp2255
sba(i__main__
DelphiIdentAccess
p2256
(dp2257
g14
S'arrowwidth'
p2258
sg16
(lp2259
sbasbasbsg129
(lp2260
S' add some to prevent cutting off arrow heads in certain cases for long words\r'
p2261
asba(i__main__
DelphiAssignStatement
p2262
(dp2263
g366
(i__main__
DelphiIdentAccess
p2264
(dp2265
g14
S'Point'
p2266
sg16
(lp2267
(idelphi
DelphiFunctionEndAccess
p2268
(dp2269
g374
(lp2270
(idelphi
DelphiMulOp
p2271
(dp2272
g858
(idelphi
DelphiIntegerValue
p2273
(dp2274
g243
S'2'
sbsg883
g1400
sg885
(idelphi
DelphiNestedExpressionListAccess
p2275
(dp2276
g16
(lp2277
sg374
(lp2278
(idelphi
DelphiAddOp
p2279
(dp2280
g386
S'+'
sg388
(i__main__
DelphiIdentAccess
p2281
(dp2282
g14
S'destRect'
p2283
sg16
(lp2284
(idelphi
DelphiFieldEndAccess
p2285
(dp2286
g382
S'right'
p2287
sbasbsg393
(i__main__
DelphiIdentAccess
p2288
(dp2289
g14
S'destRect'
p2290
sg16
(lp2291
(idelphi
DelphiFieldEndAccess
p2292
(dp2293
g382
S'left'
p2294
sbasbsbasbsba(idelphi
DelphiMulOp
p2295
(dp2296
g858
(idelphi
DelphiIntegerValue
p2297
(dp2298
g243
S'2'
sbsg883
g1400
sg885
(idelphi
DelphiNestedExpressionListAccess
p2299
(dp2300
g16
(lp2301
sg374
(lp2302
(idelphi
DelphiAddOp
p2303
(dp2304
g386
S'+'
sg388
(i__main__
DelphiIdentAccess
p2305
(dp2306
g14
S'destRect'
p2307
sg16
(lp2308
(idelphi
DelphiFieldEndAccess
p2309
(dp2310
g382
S'bottom'
p2311
sbasbsg393
(i__main__
DelphiIdentAccess
p2312
(dp2313
g14
S'destRect'
p2314
sg16
(lp2315
(idelphi
DelphiFieldEndAccess
p2316
(dp2317
g382
S'top'
p2318
sbasbsbasbsbasbasbsg367
(i__main__
DelphiIdentAccess
p2319
(dp2320
g14
S'center'
p2321
sg16
(lp2322
sbsba(i__main__
DelphiAssignStatement
p2323
(dp2324
g366
(i__main__
DelphiIdentAccess
p2325
(dp2326
g14
S'Point'
p2327
sg16
(lp2328
(idelphi
DelphiFunctionEndAccess
p2329
(dp2330
g374
(lp2331
(idelphi
DelphiAddOp
p2332
(dp2333
g386
S'+'
sg388
(i__main__
DelphiIdentAccess
p2334
(dp2335
g14
S'scroll'
p2336
sg16
(lp2337
(idelphi
DelphiFieldEndAccess
p2338
(dp2339
g382
S'x'
sbasbsg393
(idelphi
DelphiAddOp
p2340
(dp2341
g386
S'+'
sg388
(idelphi
DelphiMulOp
p2342
(dp2343
g858
(idelphi
DelphiIntegerValue
p2344
(dp2345
g243
S'5'
sbsg883
g1400
sg885
(idelphi
DelphiNestedExpressionListAccess
p2346
(dp2347
g16
(lp2348
sg374
(lp2349
(idelphi
DelphiAddOp
p2350
(dp2351
g386
S'-'
sg388
(i__main__
DelphiIdentAccess
p2352
(dp2353
g14
S'center'
p2354
sg16
(lp2355
(idelphi
DelphiFieldEndAccess
p2356
(dp2357
g382
S'x'
sbasbsg393
(i__main__
DelphiIdentAccess
p2358
(dp2359
g14
S'origin'
p2360
sg16
(lp2361
(idelphi
DelphiFieldEndAccess
p2362
(dp2363
g382
S'x'
sbasbsbasbsbsg393
(i__main__
DelphiIdentAccess
p2364
(dp2365
g14
S'center'
p2366
sg16
(lp2367
(idelphi
DelphiFieldEndAccess
p2368
(dp2369
g382
S'x'
sbasbsbsba(idelphi
DelphiAddOp
p2370
(dp2371
g386
S'+'
sg388
(i__main__
DelphiIdentAccess
p2372
(dp2373
g14
S'scroll'
p2374
sg16
(lp2375
(idelphi
DelphiFieldEndAccess
p2376
(dp2377
g382
S'y'
sbasbsg393
(idelphi
DelphiAddOp
p2378
(dp2379
g386
S'+'
sg388
(idelphi
DelphiMulOp
p2380
(dp2381
g858
(idelphi
DelphiIntegerValue
p2382
(dp2383
g243
S'5'
sbsg883
g1400
sg885
(idelphi
DelphiNestedExpressionListAccess
p2384
(dp2385
g16
(lp2386
sg374
(lp2387
(idelphi
DelphiAddOp
p2388
(dp2389
g386
S'-'
sg388
(i__main__
DelphiIdentAccess
p2390
(dp2391
g14
S'center'
p2392
sg16
(lp2393
(idelphi
DelphiFieldEndAccess
p2394
(dp2395
g382
S'y'
sbasbsg393
(i__main__
DelphiIdentAccess
p2396
(dp2397
g14
S'origin'
p2398
sg16
(lp2399
(idelphi
DelphiFieldEndAccess
p2400
(dp2401
g382
S'y'
sbasbsbasbsbsg393
(i__main__
DelphiIdentAccess
p2402
(dp2403
g14
S'center'
p2404
sg16
(lp2405
(idelphi
DelphiFieldEndAccess
p2406
(dp2407
g382
S'y'
sbasbsbsbasbasbsg367
(i__main__
DelphiIdentAccess
p2408
(dp2409
g14
S'endPoint'
p2410
sg16
(lp2411
sbsg129
(lp2412
S'middlePoint := Point((origin.x + center.x) div 2 + scroll.x, (origin.y + center.y) div 2 + scroll.y); '
p2413
aS'middlePoint := Point((origin.x + center.x) div 2 + scroll.x, (origin.y + center.y) div 2 + scroll.y);  '
p2414
asba(i__main__
DelphiAssignStatement
p2415
(dp2416
g366
(i__main__
DelphiIdentAccess
p2417
(dp2418
g14
S'Point'
p2419
sg16
(lp2420
(idelphi
DelphiFunctionEndAccess
p2421
(dp2422
g374
(lp2423
(idelphi
DelphiAddOp
p2424
(dp2425
g386
S'+'
sg388
(i__main__
DelphiIdentAccess
p2426
(dp2427
g14
S'scroll'
p2428
sg16
(lp2429
(idelphi
DelphiFieldEndAccess
p2430
(dp2431
g382
S'x'
sbasbsg393
(i__main__
DelphiIdentAccess
p2432
(dp2433
g14
S'origin'
p2434
sg16
(lp2435
(idelphi
DelphiFieldEndAccess
p2436
(dp2437
g382
S'x'
sbasbsba(idelphi
DelphiAddOp
p2438
(dp2439
g386
S'+'
sg388
(i__main__
DelphiIdentAccess
p2440
(dp2441
g14
S'scroll'
p2442
sg16
(lp2443
(idelphi
DelphiFieldEndAccess
p2444
(dp2445
g382
S'y'
sbasbsg393
(i__main__
DelphiIdentAccess
p2446
(dp2447
g14
S'origin'
p2448
sg16
(lp2449
(idelphi
DelphiFieldEndAccess
p2450
(dp2451
g382
S'y'
sbasbsbasbasbsg367
(i__main__
DelphiIdentAccess
p2452
(dp2453
g14
S'startPoint'
p2454
sg16
(lp2455
sbsg129
(lp2456
S'startPoint := Point(origin.x + (center.x - origin.x) div 5 + scroll.x, origin.y + (center.y - origin.y) div 5 + scroll.y);\r'
p2457
aS'  '
p2458
asba(i__main__
DelphiAssignStatement
p2459
(dp2460
g366
(i__main__
DelphiIdentAccess
p2461
(dp2462
g14
S'psSolid'
p2463
sg16
(lp2464
sbsg367
(i__main__
DelphiIdentAccess
p2465
(dp2466
g14
S'canvas'
p2467
sg16
(lp2468
(idelphi
DelphiFieldEndAccess
p2469
(dp2470
g382
S'pen'
p2471
sba(idelphi
DelphiFieldEndAccess
p2472
(dp2473
g382
S'style'
p2474
sbasbsba(i__main__
DelphiAssignStatement
p2475
(dp2476
g366
Nsg367
(i__main__
DelphiIdentAccess
p2477
(dp2478
g14
S'canvas'
p2479
sg16
(lp2480
(idelphi
DelphiFieldEndAccess
p2481
(dp2482
g382
S'moveTo'
p2483
sba(idelphi
DelphiFunctionEndAccess
p2484
(dp2485
g374
(lp2486
(i__main__
DelphiIdentAccess
p2487
(dp2488
g14
S'startPoint'
p2489
sg16
(lp2490
(idelphi
DelphiFieldEndAccess
p2491
(dp2492
g382
S'x'
sbasba(i__main__
DelphiIdentAccess
p2493
(dp2494
g14
S'startPoint'
p2495
sg16
(lp2496
(idelphi
DelphiFieldEndAccess
p2497
(dp2498
g382
S'y'
sbasbasbasbsba(i__main__
DelphiAssignStatement
p2499
(dp2500
g366
Nsg367
(i__main__
DelphiIdentAccess
p2501
(dp2502
g14
S'canvas'
p2503
sg16
(lp2504
(idelphi
DelphiFieldEndAccess
p2505
(dp2506
g382
S'lineTo'
p2507
sba(idelphi
DelphiFunctionEndAccess
p2508
(dp2509
g374
(lp2510
(i__main__
DelphiIdentAccess
p2511
(dp2512
g14
S'endPoint'
p2513
sg16
(lp2514
(idelphi
DelphiFieldEndAccess
p2515
(dp2516
g382
S'x'
sbasba(i__main__
DelphiIdentAccess
p2517
(dp2518
g14
S'endPoint'
p2519
sg16
(lp2520
(idelphi
DelphiFieldEndAccess
p2521
(dp2522
g382
S'y'
sbasbasbasbsba(i__main__
DelphiAssignStatement
p2523
(dp2524
g366
Nsg367
(i__main__
DelphiIdentAccess
p2525
(dp2526
g14
S'self'
p2527
sg16
(lp2528
(idelphi
DelphiFieldEndAccess
p2529
(dp2530
g382
S'DrawArrowhead'
p2531
sba(idelphi
DelphiFunctionEndAccess
p2532
(dp2533
g374
(lp2534
(i__main__
DelphiIdentAccess
p2535
(dp2536
g14
S'canvas'
p2537
sg16
(lp2538
sba(i__main__
DelphiIdentAccess
p2539
(dp2540
g14
S'startPoint'
p2541
sg16
(lp2542
sba(i__main__
DelphiIdentAccess
p2543
(dp2544
g14
S'endPoint'
p2545
sg16
(lp2546
sbasbasbsg129
(lp2547
S'arrow head'
p2548
asbasg129
(lp2549
S'self.DrawArrowhead(canvas, Point(origin.x + scroll.x, origin.y + scroll.y), Point(center.x + scroll.x, center.y + scroll.y));'
p2550
aS'\tcanvas.moveTo(middlePoint.x + scroll.x, middlePoint.y + scroll.y);\r'
p2551
aS' \tcanvas.lineTo(middlePoint.x + scroll.x + , middlePoint.y + scroll.y + );\r'
p2552
aS' \tcanvas.moveTo(middlePoint.x + scroll.x, middlePoint.y + scroll.y);\r'
p2553
aS' \tcanvas.lineTo(middlePoint.x + scroll.x + , middlePoint.y + scroll.y + ); '
p2554
asbsg1316
(lp2555
(i__main__
DelphiVarSection
p2556
(dp2557
g33
I0
sg1320
(lp2558
(idelphi
DelphiVarDecl
p2559
(dp2560
g11
Nsg1324
(lp2561
S'center'
p2562
asg19
(i__main__
DelphiNamedType
p2563
(dp2564
g22
S'TPoint'
p2565
sg59
g1
sg60
Nsbsba(idelphi
DelphiVarDecl
p2566
(dp2567
g11
Nsg1324
(lp2568
S'endPoint'
p2569
asg19
(i__main__
DelphiNamedType
p2570
(dp2571
g22
S'TPoint'
p2572
sg59
g1
sg60
Nsbsba(idelphi
DelphiVarDecl
p2573
(dp2574
g11
Nsg1324
(lp2575
S'startPoint'
p2576
asg19
(i__main__
DelphiNamedType
p2577
(dp2578
g22
S'TPoint'
p2579
sg59
g1
sg60
Nsbsbasbasbsg129
g130
sbsS'nearestnode'
p2580
(i__main__
DelphiMethodImplementation
p2581
(dp2582
g320
g159
sg40
g161
sg48
(lp2583
(i__main__
DelphiFormalParameter
p2584
(dp2585
g52
Nsg53
(lp2586
S'location'
p2587
asg19
(i__main__
DelphiNamedType
p2588
(dp2589
g22
S'TPoint'
p2590
sg59
g1
sg60
Nsbsg61
Nsba(i__main__
DelphiFormalParameter
p2591
(dp2592
g52
Nsg53
(lp2593
S'displayOptions'
p2594
asg19
(i__main__
DelphiNamedType
p2595
(dp2596
g22
S'TSVariableDisplayOptions'
p2597
sg59
g1
sg60
Nsbsg61
g69
sbasg344
(lp2598
sg346
(lp2599
sg348
(lp2600
g350
ag2587
ag2594
asg351
(dp2601
g2587
g2588
sg2594
g2595
ssg78
S'TSMapView'
p2602
sg79
(i__main__
DelphiNamedType
p2603
(dp2604
g22
S'TSDraggableObject'
p2605
sg59
g1
sg60
Nsbsg354
(lp2606
sg80
I0
sg81
g180
sg356
(i__main__
DelphiBlock
p2607
(dp2608
g359
(idelphi
DelphiCompoundStatement
p2609
(dp2610
g362
(lp2611
(i__main__
DelphiAssignStatement
p2612
(dp2613
g366
(idelphi
DelphiNilValue
p2614
(dp2615
bsg367
(i__main__
DelphiIdentAccess
p2616
(dp2617
g14
S'result'
p2618
sg16
(lp2619
sbsg129
(lp2620
S'nearestNode: TSDraggableObject;\r'
p2621
aS'distance, nearestDistance: integer;\r'
p2622
asba(idelphi
DelphiForStatement
p2623
(dp2624
g418
S'i'
sg419
(idelphi
DelphiIntegerValue
p2625
(dp2626
g243
S'0'
sbsg437
S'downto'
p2627
sg52
(idelphi
DelphiAddOp
p2628
(dp2629
g386
S'-'
sg388
(idelphi
DelphiIntegerValue
p2630
(dp2631
g243
S'1'
sbsg393
(i__main__
DelphiIdentAccess
p2632
(dp2633
g14
S'domain'
p2634
sg16
(lp2635
(idelphi
DelphiFieldEndAccess
p2636
(dp2637
g382
S'world'
p2638
sba(idelphi
DelphiFieldEndAccess
p2639
(dp2640
g382
S'variables'
p2641
sba(idelphi
DelphiFieldEndAccess
p2642
(dp2643
g382
S'count'
p2644
sbasbsbsg441
(idelphi
DelphiCompoundStatement
p2645
(dp2646
g362
(lp2647
(i__main__
DelphiAssignStatement
p2648
(dp2649
g366
(i__main__
DelphiIdentAccess
p2650
(dp2651
g14
S'TSVariable'
p2652
sg16
(lp2653
(idelphi
DelphiFunctionEndAccess
p2654
(dp2655
g374
(lp2656
(i__main__
DelphiIdentAccess
p2657
(dp2658
g14
S'domain'
p2659
sg16
(lp2660
(idelphi
DelphiFieldEndAccess
p2661
(dp2662
g382
S'world'
p2663
sba(idelphi
DelphiFieldEndAccess
p2664
(dp2665
g382
S'variables'
p2666
sba(idelphi
DelphiArrayEndAccess
p2667
(dp2668
g374
(lp2669
(i__main__
DelphiIdentAccess
p2670
(dp2671
g14
S'i'
sg16
(lp2672
sbasbasbasbasbsg367
(i__main__
DelphiIdentAccess
p2673
(dp2674
g14
S'variable'
p2675
sg16
(lp2676
sbsg129
(lp2677
S'nearestDistance := -1;\r'
p2678
aS'nearestNode := nil;\r'
p2679
asba(i__main__
DelphiAssignStatement
p2680
(dp2681
g366
(i__main__
DelphiIdentAccess
p2682
(dp2683
g14
S'variable'
p2684
sg16
(lp2685
(idelphi
DelphiFieldEndAccess
p2686
(dp2687
g382
S'meetsDisplayOptions'
p2688
sba(idelphi
DelphiFunctionEndAccess
p2689
(dp2690
g374
(lp2691
(i__main__
DelphiIdentAccess
p2692
(dp2693
g14
S'displayOptions'
p2694
sg16
(lp2695
sbasbasbsg367
(i__main__
DelphiIdentAccess
p2696
(dp2697
g14
S'showNode'
p2698
sg16
(lp2699
sbsba(idelphi
DelphiIfStatement
p2700
(dp2701
g479
(idelphi
DelphiNot
p2702
(dp2703
g1943
(i__main__
DelphiIdentAccess
p2704
(dp2705
g14
S'showNode'
p2706
sg16
(lp2707
sbsbsg496
Nsg520
(idelphi
DelphiContinueStatement
p2708
(dp2709
bsba(idelphi
DelphiIfStatement
p2710
(dp2711
g479
(i__main__
DelphiIdentAccess
p2712
(dp2713
g14
S'PtInRect'
p2714
sg16
(lp2715
(idelphi
DelphiFunctionEndAccess
p2716
(dp2717
g374
(lp2718
(i__main__
DelphiIdentAccess
p2719
(dp2720
g14
S'variable'
p2721
sg16
(lp2722
(idelphi
DelphiFieldEndAccess
p2723
(dp2724
g382
S'bounds'
p2725
sbasba(i__main__
DelphiIdentAccess
p2726
(dp2727
g14
S'location'
p2728
sg16
(lp2729
sbasbasbsg496
Nsg520
(idelphi
DelphiCompoundStatement
p2730
(dp2731
g362
(lp2732
(i__main__
DelphiAssignStatement
p2733
(dp2734
g366
(i__main__
DelphiIdentAccess
p2735
(dp2736
g14
S'variable'
p2737
sg16
(lp2738
sbsg367
(i__main__
DelphiIdentAccess
p2739
(dp2740
g14
S'result'
p2741
sg16
(lp2742
sbsg129
(lp2743
S'distance := (variable.position.x - location.x) * (variable.position.x - location.x) +\r'
p2744
aS'\t\t(variable.position.y - location.y) * (variable.position.y - location.y);\r'
p2745
aS'if (nearestDistance = -1) or (distance < nearestDistance) then\r'
p2746
aS'  begin\r'
p2747
aS'  nearestDistance := distance;\r'
p2748
aS'  nearestNode := variable;\r'
p2749
aS'  end;\r'
p2750
asba(i__main__
DelphiExitStatement
p2751
(dp2752
g1997
g2581
sbasbsbasbsba(idelphi
DelphiIfStatement
p2753
(dp2754
g479
(idelphi
DelphiNot
p2755
(dp2756
g1943
(i__main__
DelphiIdentAccess
p2757
(dp2758
g14
S'displayOptions'
p2759
sg16
(lp2760
(idelphi
DelphiArrayEndAccess
p2761
(dp2762
g374
(lp2763
(i__main__
DelphiIdentAccess
p2764
(dp2765
g14
S'kRuleCommand'
p2766
sg16
(lp2767
sbasbasbsbsg496
Nsg520
(i__main__
DelphiExitStatement
p2768
(dp2769
g1997
g2581
sg129
(lp2770
S'result := nearestNode;\r'
p2771
asbsba(idelphi
DelphiForStatement
p2772
(dp2773
g418
S'i'
sg419
(idelphi
DelphiIntegerValue
p2774
(dp2775
g243
S'0'
sbsg437
g2627
sg52
(idelphi
DelphiAddOp
p2776
(dp2777
g386
S'-'
sg388
(idelphi
DelphiIntegerValue
p2778
(dp2779
g243
S'1'
sbsg393
(i__main__
DelphiIdentAccess
p2780
(dp2781
g14
S'domain'
p2782
sg16
(lp2783
(idelphi
DelphiFieldEndAccess
p2784
(dp2785
g382
S'world'
p2786
sba(idelphi
DelphiFieldEndAccess
p2787
(dp2788
g382
S'rules'
p2789
sba(idelphi
DelphiFieldEndAccess
p2790
(dp2791
g382
S'count'
p2792
sbasbsbsg441
(idelphi
DelphiCompoundStatement
p2793
(dp2794
g362
(lp2795
(i__main__
DelphiAssignStatement
p2796
(dp2797
g366
(i__main__
DelphiIdentAccess
p2798
(dp2799
g14
S'TSRule'
p2800
sg16
(lp2801
(idelphi
DelphiFunctionEndAccess
p2802
(dp2803
g374
(lp2804
(i__main__
DelphiIdentAccess
p2805
(dp2806
g14
S'domain'
p2807
sg16
(lp2808
(idelphi
DelphiFieldEndAccess
p2809
(dp2810
g382
S'world'
p2811
sba(idelphi
DelphiFieldEndAccess
p2812
(dp2813
g382
S'rules'
p2814
sba(idelphi
DelphiArrayEndAccess
p2815
(dp2816
g374
(lp2817
(i__main__
DelphiIdentAccess
p2818
(dp2819
g14
S'i'
sg16
(lp2820
sbasbasbasbasbsg367
(i__main__
DelphiIdentAccess
p2821
(dp2822
g14
S'rule'
p2823
sg16
(lp2824
sbsba(idelphi
DelphiIfStatement
p2825
(dp2826
g479
(i__main__
DelphiIdentAccess
p2827
(dp2828
g14
S'PtInRect'
p2829
sg16
(lp2830
(idelphi
DelphiFunctionEndAccess
p2831
(dp2832
g374
(lp2833
(i__main__
DelphiIdentAccess
p2834
(dp2835
g14
S'rule'
p2836
sg16
(lp2837
(idelphi
DelphiFieldEndAccess
p2838
(dp2839
g382
S'bounds'
p2840
sbasba(i__main__
DelphiIdentAccess
p2841
(dp2842
g14
S'location'
p2843
sg16
(lp2844
sbasbasbsg496
Nsg520
(idelphi
DelphiCompoundStatement
p2845
(dp2846
g362
(lp2847
(i__main__
DelphiAssignStatement
p2848
(dp2849
g366
(i__main__
DelphiIdentAccess
p2850
(dp2851
g14
S'rule'
p2852
sg16
(lp2853
sbsg367
(i__main__
DelphiIdentAccess
p2854
(dp2855
g14
S'result'
p2856
sg16
(lp2857
sbsg129
(lp2858
S'distance := (rule.position.x - location.x) * (rule.position.x - location.x) +\r'
p2859
aS'\t(rule.position.y - location.y) * (rule.position.y - location.y);\r'
p2860
aS'if (nearestDistance = -1) or (distance < nearestDistance) then\r'
p2861
aS'  begin\r'
p2862
aS'  nearestDistance := distance;\r'
p2863
aS'  nearestNode := rule;\r'
p2864
aS'  end;\r'
p2865
asba(i__main__
DelphiExitStatement
p2866
(dp2867
g1997
g2581
sbasbsbasbsbasg129
(lp2868
S'result := nearestNode;\r'
p2869
asbsg1316
(lp2870
(i__main__
DelphiVarSection
p2871
(dp2872
g33
I0
sg1320
(lp2873
(idelphi
DelphiVarDecl
p2874
(dp2875
g11
Nsg1324
(lp2876
S'variable'
p2877
asg19
(i__main__
DelphiNamedType
p2878
(dp2879
g22
S'TSVariable'
p2880
sg59
g1
sg60
Nsbsba(idelphi
DelphiVarDecl
p2881
(dp2882
g11
Nsg1324
(lp2883
S'rule'
p2884
asg19
(i__main__
DelphiNamedType
p2885
(dp2886
g22
S'TSRule'
p2887
sg59
g1
sg60
Nsbsba(idelphi
DelphiVarDecl
p2888
(dp2889
g11
Nsg1324
(lp2890
S'i'
asg19
(i__main__
DelphiPrimitiveType
p2891
(dp2892
g22
g1328
sbsba(idelphi
DelphiVarDecl
p2893
(dp2894
g11
Nsg1324
(lp2895
S'showNode'
p2896
asg19
(i__main__
DelphiPrimitiveType
p2897
(dp2898
g22
g266
sbsbasbasbsbsS'drawarrowfromrectedgetorectedge'
p2899
(i__main__
DelphiMethodImplementation
p2900
(dp2901
g320
g200
sg40
g202
sg48
(lp2902
(i__main__
DelphiFormalParameter
p2903
(dp2904
g52
Nsg53
(lp2905
S'canvas'
p2906
asg19
(i__main__
DelphiNamedType
p2907
(dp2908
g22
S'TCanvas'
p2909
sg59
g1
sg60
Nsbsg61
Nsba(i__main__
DelphiFormalParameter
p2910
(dp2911
g52
Nsg53
(lp2912
S'originRect'
p2913
asg19
(i__main__
DelphiNamedType
p2914
(dp2915
g22
S'TRect'
p2916
sg59
g1
sg60
Nsbsg61
Nsba(i__main__
DelphiFormalParameter
p2917
(dp2918
g52
Nsg53
(lp2919
S'destRect'
p2920
asg19
(i__main__
DelphiNamedType
p2921
(dp2922
g22
S'TRect'
p2923
sg59
g1
sg60
Nsbsg61
Nsbasg344
(lp2924
sg346
(lp2925
sg348
(lp2926
g350
ag2906
ag2913
ag2920
asg351
(dp2927
g2906
g2907
sg2913
g2914
sg2920
g2921
ssg78
S'TSMapView'
p2928
sg79
Nsg354
(lp2929
sg80
I0
sg81
g82
sg356
(i__main__
DelphiBlock
p2930
(dp2931
g359
(idelphi
DelphiCompoundStatement
p2932
(dp2933
g362
(lp2934
(i__main__
DelphiAssignStatement
p2935
(dp2936
g366
Nsg367
(i__main__
DelphiIdentAccess
p2937
(dp2938
g14
S'InflateRect'
p2939
sg16
(lp2940
(idelphi
DelphiFunctionEndAccess
p2941
(dp2942
g374
(lp2943
(i__main__
DelphiIdentAccess
p2944
(dp2945
g14
S'destRect'
p2946
sg16
(lp2947
sba(i__main__
DelphiIdentAccess
p2948
(dp2949
g14
S'arrowwidth'
p2950
sg16
(lp2951
sba(i__main__
DelphiIdentAccess
p2952
(dp2953
g14
S'arrowwidth'
p2954
sg16
(lp2955
sbasbasbsg129
(lp2956
S'theRect: TRect;\r'
p2957
aS'IntersectRect(theRect, originRect, destRect);\r'
p2958
aS'if not IsEmptyRect(theRect) then exit;\r'
p2959
aS' add some to prevent cutting off arrow heads in certain cases for long words\r'
p2960
asba(i__main__
DelphiAssignStatement
p2961
(dp2962
g366
Nsg367
(i__main__
DelphiIdentAccess
p2963
(dp2964
g14
S'InflateRect'
p2965
sg16
(lp2966
(idelphi
DelphiFunctionEndAccess
p2967
(dp2968
g374
(lp2969
(i__main__
DelphiIdentAccess
p2970
(dp2971
g14
S'originRect'
p2972
sg16
(lp2973
sba(i__main__
DelphiIdentAccess
p2974
(dp2975
g14
S'arrowwidth'
p2976
sg16
(lp2977
sba(i__main__
DelphiIdentAccess
p2978
(dp2979
g14
S'arrowwidth'
p2980
sg16
(lp2981
sbasbasbsba(i__main__
DelphiAssignStatement
p2982
(dp2983
g366
(i__main__
DelphiIdentAccess
p2984
(dp2985
g14
S'Point'
p2986
sg16
(lp2987
(idelphi
DelphiFunctionEndAccess
p2988
(dp2989
g374
(lp2990
(idelphi
DelphiMulOp
p2991
(dp2992
g858
(idelphi
DelphiIntegerValue
p2993
(dp2994
g243
S'2'
sbsg883
g1400
sg885
(idelphi
DelphiNestedExpressionListAccess
p2995
(dp2996
g16
(lp2997
sg374
(lp2998
(idelphi
DelphiAddOp
p2999
(dp3000
g386
S'+'
sg388
(i__main__
DelphiIdentAccess
p3001
(dp3002
g14
S'originRect'
p3003
sg16
(lp3004
(idelphi
DelphiFieldEndAccess
p3005
(dp3006
g382
S'right'
p3007
sbasbsg393
(i__main__
DelphiIdentAccess
p3008
(dp3009
g14
S'originRect'
p3010
sg16
(lp3011
(idelphi
DelphiFieldEndAccess
p3012
(dp3013
g382
S'left'
p3014
sbasbsbasbsba(idelphi
DelphiMulOp
p3015
(dp3016
g858
(idelphi
DelphiIntegerValue
p3017
(dp3018
g243
S'2'
sbsg883
g1400
sg885
(idelphi
DelphiNestedExpressionListAccess
p3019
(dp3020
g16
(lp3021
sg374
(lp3022
(idelphi
DelphiAddOp
p3023
(dp3024
g386
S'+'
sg388
(i__main__
DelphiIdentAccess
p3025
(dp3026
g14
S'originRect'
p3027
sg16
(lp3028
(idelphi
DelphiFieldEndAccess
p3029
(dp3030
g382
S'bottom'
p3031
sbasbsg393
(i__main__
DelphiIdentAccess
p3032
(dp3033
g14
S'originRect'
p3034
sg16
(lp3035
(idelphi
DelphiFieldEndAccess
p3036
(dp3037
g382
S'top'
p3038
sbasbsbasbsbasbasbsg367
(i__main__
DelphiIdentAccess
p3039
(dp3040
g14
S'origin'
p3041
sg16
(lp3042
sbsba(i__main__
DelphiAssignStatement
p3043
(dp3044
g366
(i__main__
DelphiIdentAccess
p3045
(dp3046
g14
S'Point'
p3047
sg16
(lp3048
(idelphi
DelphiFunctionEndAccess
p3049
(dp3050
g374
(lp3051
(idelphi
DelphiMulOp
p3052
(dp3053
g858
(idelphi
DelphiIntegerValue
p3054
(dp3055
g243
S'2'
sbsg883
g1400
sg885
(idelphi
DelphiNestedExpressionListAccess
p3056
(dp3057
g16
(lp3058
sg374
(lp3059
(idelphi
DelphiAddOp
p3060
(dp3061
g386
S'+'
sg388
(i__main__
DelphiIdentAccess
p3062
(dp3063
g14
S'destRect'
p3064
sg16
(lp3065
(idelphi
DelphiFieldEndAccess
p3066
(dp3067
g382
S'right'
p3068
sbasbsg393
(i__main__
DelphiIdentAccess
p3069
(dp3070
g14
S'destRect'
p3071
sg16
(lp3072
(idelphi
DelphiFieldEndAccess
p3073
(dp3074
g382
S'left'
p3075
sbasbsbasbsba(idelphi
DelphiMulOp
p3076
(dp3077
g858
(idelphi
DelphiIntegerValue
p3078
(dp3079
g243
S'2'
sbsg883
g1400
sg885
(idelphi
DelphiNestedExpressionListAccess
p3080
(dp3081
g16
(lp3082
sg374
(lp3083
(idelphi
DelphiAddOp
p3084
(dp3085
g386
S'+'
sg388
(i__main__
DelphiIdentAccess
p3086
(dp3087
g14
S'destRect'
p3088
sg16
(lp3089
(idelphi
DelphiFieldEndAccess
p3090
(dp3091
g382
S'bottom'
p3092
sbasbsg393
(i__main__
DelphiIdentAccess
p3093
(dp3094
g14
S'destRect'
p3095
sg16
(lp3096
(idelphi
DelphiFieldEndAccess
p3097
(dp3098
g382
S'top'
p3099
sbasbsbasbsbasbasbsg367
(i__main__
DelphiIdentAccess
p3100
(dp3101
g14
S'dest'
p3102
sg16
(lp3103
sbsba(i__main__
DelphiAssignStatement
p3104
(dp3105
g366
(i__main__
DelphiIdentAccess
p3106
(dp3107
g14
S'IntersectionPointForLineAndRectangle'
p3108
sg16
(lp3109
(idelphi
DelphiFunctionEndAccess
p3110
(dp3111
g374
(lp3112
(i__main__
DelphiIdentAccess
p3113
(dp3114
g14
S'origin'
p3115
sg16
(lp3116
sba(i__main__
DelphiIdentAccess
p3117
(dp3118
g14
S'destRect'
p3119
sg16
(lp3120
sbasbasbsg367
(i__main__
DelphiIdentAccess
p3121
(dp3122
g14
S'intersectPoint'
p3123
sg16
(lp3124
sbsba(i__main__
DelphiAssignStatement
p3125
(dp3126
g366
(i__main__
DelphiIdentAccess
p3127
(dp3128
g14
S'Point'
p3129
sg16
(lp3130
(idelphi
DelphiFunctionEndAccess
p3131
(dp3132
g374
(lp3133
(idelphi
DelphiAddOp
p3134
(dp3135
g386
S'+'
sg388
(i__main__
DelphiIdentAccess
p3136
(dp3137
g14
S'scroll'
p3138
sg16
(lp3139
(idelphi
DelphiFieldEndAccess
p3140
(dp3141
g382
S'x'
sbasbsg393
(i__main__
DelphiIdentAccess
p3142
(dp3143
g14
S'intersectPoint'
p3144
sg16
(lp3145
(idelphi
DelphiFieldEndAccess
p3146
(dp3147
g382
S'x'
sbasbsba(idelphi
DelphiAddOp
p3148
(dp3149
g386
S'+'
sg388
(i__main__
DelphiIdentAccess
p3150
(dp3151
g14
S'scroll'
p3152
sg16
(lp3153
(idelphi
DelphiFieldEndAccess
p3154
(dp3155
g382
S'y'
sbasbsg393
(i__main__
DelphiIdentAccess
p3156
(dp3157
g14
S'intersectPoint'
p3158
sg16
(lp3159
(idelphi
DelphiFieldEndAccess
p3160
(dp3161
g382
S'y'
sbasbsbasbasbsg367
(i__main__
DelphiIdentAccess
p3162
(dp3163
g14
S'endPoint'
p3164
sg16
(lp3165
sbsba(i__main__
DelphiAssignStatement
p3166
(dp3167
g366
(i__main__
DelphiIdentAccess
p3168
(dp3169
g14
S'IntersectionPointForLineAndRectangle'
p3170
sg16
(lp3171
(idelphi
DelphiFunctionEndAccess
p3172
(dp3173
g374
(lp3174
(i__main__
DelphiIdentAccess
p3175
(dp3176
g14
S'dest'
p3177
sg16
(lp3178
sba(i__main__
DelphiIdentAccess
p3179
(dp3180
g14
S'originRect'
p3181
sg16
(lp3182
sbasbasbsg367
(i__main__
DelphiIdentAccess
p3183
(dp3184
g14
S'startPoint'
p3185
sg16
(lp3186
sbsba(i__main__
DelphiAssignStatement
p3187
(dp3188
g366
(idelphi
DelphiAddOp
p3189
(dp3190
g386
S'+'
sg388
(i__main__
DelphiIdentAccess
p3191
(dp3192
g14
S'scroll'
p3193
sg16
(lp3194
(idelphi
DelphiFieldEndAccess
p3195
(dp3196
g382
S'x'
sbasbsg393
(i__main__
DelphiIdentAccess
p3197
(dp3198
g14
S'startPoint'
p3199
sg16
(lp3200
(idelphi
DelphiFieldEndAccess
p3201
(dp3202
g382
S'x'
sbasbsbsg367
(i__main__
DelphiIdentAccess
p3203
(dp3204
g14
S'startPoint'
p3205
sg16
(lp3206
(idelphi
DelphiFieldEndAccess
p3207
(dp3208
g382
S'x'
sbasbsba(i__main__
DelphiAssignStatement
p3209
(dp3210
g366
(idelphi
DelphiAddOp
p3211
(dp3212
g386
S'+'
sg388
(i__main__
DelphiIdentAccess
p3213
(dp3214
g14
S'scroll'
p3215
sg16
(lp3216
(idelphi
DelphiFieldEndAccess
p3217
(dp3218
g382
S'y'
sbasbsg393
(i__main__
DelphiIdentAccess
p3219
(dp3220
g14
S'startPoint'
p3221
sg16
(lp3222
(idelphi
DelphiFieldEndAccess
p3223
(dp3224
g382
S'y'
sbasbsbsg367
(i__main__
DelphiIdentAccess
p3225
(dp3226
g14
S'startPoint'
p3227
sg16
(lp3228
(idelphi
DelphiFieldEndAccess
p3229
(dp3230
g382
S'y'
sbasbsba(i__main__
DelphiAssignStatement
p3231
(dp3232
g366
(i__main__
DelphiIdentAccess
p3233
(dp3234
g14
S'originRect'
p3235
sg16
(lp3236
sbsg367
(i__main__
DelphiIdentAccess
p3237
(dp3238
g14
S'scrolledOriginRect'
p3239
sg16
(lp3240
sbsg129
(lp3241
S'clipp arrow if it would end up beind drawn incorrectly'
p3242
asba(i__main__
DelphiAssignStatement
p3243
(dp3244
g366
Nsg367
(i__main__
DelphiIdentAccess
p3245
(dp3246
g14
S'OffsetRect'
p3247
sg16
(lp3248
(idelphi
DelphiFunctionEndAccess
p3249
(dp3250
g374
(lp3251
(i__main__
DelphiIdentAccess
p3252
(dp3253
g14
S'scrolledOriginRect'
p3254
sg16
(lp3255
sba(i__main__
DelphiIdentAccess
p3256
(dp3257
g14
S'scroll'
p3258
sg16
(lp3259
(idelphi
DelphiFieldEndAccess
p3260
(dp3261
g382
S'x'
sbasba(i__main__
DelphiIdentAccess
p3262
(dp3263
g14
S'scroll'
p3264
sg16
(lp3265
(idelphi
DelphiFieldEndAccess
p3266
(dp3267
g382
S'y'
sbasbasbasbsba(idelphi
DelphiIfStatement
p3268
(dp3269
g479
(i__main__
DelphiIdentAccess
p3270
(dp3271
g14
S'PtInRect'
p3272
sg16
(lp3273
(idelphi
DelphiFunctionEndAccess
p3274
(dp3275
g374
(lp3276
(i__main__
DelphiIdentAccess
p3277
(dp3278
g14
S'scrolledOriginRect'
p3279
sg16
(lp3280
sba(i__main__
DelphiIdentAccess
p3281
(dp3282
g14
S'endPoint'
p3283
sg16
(lp3284
sbasbasbsg496
Nsg520
(i__main__
DelphiExitStatement
p3285
(dp3286
g1997
g2900
sbsba(i__main__
DelphiAssignStatement
p3287
(dp3288
g366
(i__main__
DelphiIdentAccess
p3289
(dp3290
g14
S'psSolid'
p3291
sg16
(lp3292
sbsg367
(i__main__
DelphiIdentAccess
p3293
(dp3294
g14
S'canvas'
p3295
sg16
(lp3296
(idelphi
DelphiFieldEndAccess
p3297
(dp3298
g382
S'pen'
p3299
sba(idelphi
DelphiFieldEndAccess
p3300
(dp3301
g382
S'style'
p3302
sbasbsba(i__main__
DelphiAssignStatement
p3303
(dp3304
g366
Nsg367
(i__main__
DelphiIdentAccess
p3305
(dp3306
g14
S'canvas'
p3307
sg16
(lp3308
(idelphi
DelphiFieldEndAccess
p3309
(dp3310
g382
S'moveTo'
p3311
sba(idelphi
DelphiFunctionEndAccess
p3312
(dp3313
g374
(lp3314
(i__main__
DelphiIdentAccess
p3315
(dp3316
g14
S'startPoint'
p3317
sg16
(lp3318
(idelphi
DelphiFieldEndAccess
p3319
(dp3320
g382
S'x'
sbasba(i__main__
DelphiIdentAccess
p3321
(dp3322
g14
S'startPoint'
p3323
sg16
(lp3324
(idelphi
DelphiFieldEndAccess
p3325
(dp3326
g382
S'y'
sbasbasbasbsba(i__main__
DelphiAssignStatement
p3327
(dp3328
g366
Nsg367
(i__main__
DelphiIdentAccess
p3329
(dp3330
g14
S'canvas'
p3331
sg16
(lp3332
(idelphi
DelphiFieldEndAccess
p3333
(dp3334
g382
S'lineTo'
p3335
sba(idelphi
DelphiFunctionEndAccess
p3336
(dp3337
g374
(lp3338
(i__main__
DelphiIdentAccess
p3339
(dp3340
g14
S'endPoint'
p3341
sg16
(lp3342
(idelphi
DelphiFieldEndAccess
p3343
(dp3344
g382
S'x'
sbasba(i__main__
DelphiIdentAccess
p3345
(dp3346
g14
S'endPoint'
p3347
sg16
(lp3348
(idelphi
DelphiFieldEndAccess
p3349
(dp3350
g382
S'y'
sbasbasbasbsba(i__main__
DelphiAssignStatement
p3351
(dp3352
g366
Nsg367
(i__main__
DelphiIdentAccess
p3353
(dp3354
g14
S'self'
p3355
sg16
(lp3356
(idelphi
DelphiFieldEndAccess
p3357
(dp3358
g382
S'DrawArrowhead'
p3359
sba(idelphi
DelphiFunctionEndAccess
p3360
(dp3361
g374
(lp3362
(i__main__
DelphiIdentAccess
p3363
(dp3364
g14
S'canvas'
p3365
sg16
(lp3366
sba(i__main__
DelphiIdentAccess
p3367
(dp3368
g14
S'startPoint'
p3369
sg16
(lp3370
sba(i__main__
DelphiIdentAccess
p3371
(dp3372
g14
S'endPoint'
p3373
sg16
(lp3374
sbasbasbsg129
(lp3375
S'arrow head'
p3376
asbasbsg1316
(lp3377
(i__main__
DelphiVarSection
p3378
(dp3379
g33
I0
sg1320
(lp3380
(idelphi
DelphiVarDecl
p3381
(dp3382
g11
Nsg1324
(lp3383
S'startPoint'
p3384
aS'endPoint'
p3385
aS'intersectPoint'
p3386
asg19
(i__main__
DelphiNamedType
p3387
(dp3388
g22
S'TPoint'
p3389
sg59
g1
sg60
Nsbsba(idelphi
DelphiVarDecl
p3390
(dp3391
g11
Nsg1324
(lp3392
S'origin'
p3393
aS'dest'
p3394
asg19
(i__main__
DelphiNamedType
p3395
(dp3396
g22
S'TPoint'
p3397
sg59
g1
sg60
Nsbsba(idelphi
DelphiVarDecl
p3398
(dp3399
g11
Nsg1324
(lp3400
S'scrolledOriginRect'
p3401
asg19
(i__main__
DelphiNamedType
p3402
(dp3403
g22
S'TRect'
p3404
sg59
g1
sg60
NsbsbasbasbsbsS'drawlinefromrectedgetorectedge'
p3405
(i__main__
DelphiMethodImplementation
p3406
(dp3407
g320
g133
sg40
g135
sg48
(lp3408
(i__main__
DelphiFormalParameter
p3409
(dp3410
g52
Nsg53
(lp3411
S'canvas'
p3412
asg19
(i__main__
DelphiNamedType
p3413
(dp3414
g22
S'TCanvas'
p3415
sg59
g1
sg60
Nsbsg61
Nsba(i__main__
DelphiFormalParameter
p3416
(dp3417
g52
Nsg53
(lp3418
S'originRect'
p3419
asg19
(i__main__
DelphiNamedType
p3420
(dp3421
g22
S'TRect'
p3422
sg59
g1
sg60
Nsbsg61
Nsba(i__main__
DelphiFormalParameter
p3423
(dp3424
g52
Nsg53
(lp3425
S'destRect'
p3426
asg19
(i__main__
DelphiNamedType
p3427
(dp3428
g22
S'TRect'
p3429
sg59
g1
sg60
Nsbsg61
Nsbasg344
(lp3430
sg346
(lp3431
sg348
(lp3432
g350
ag3412
ag3419
ag3426
asg351
(dp3433
g3412
g3413
sg3419
g3420
sg3426
g3427
ssg78
S'TSMapView'
p3434
sg79
Nsg354
(lp3435
sg80
I0
sg81
g82
sg356
(i__main__
DelphiBlock
p3436
(dp3437
g359
(idelphi
DelphiCompoundStatement
p3438
(dp3439
g362
(lp3440
(i__main__
DelphiAssignStatement
p3441
(dp3442
g366
Nsg367
(i__main__
DelphiIdentAccess
p3443
(dp3444
g14
S'InflateRect'
p3445
sg16
(lp3446
(idelphi
DelphiFunctionEndAccess
p3447
(dp3448
g374
(lp3449
(i__main__
DelphiIdentAccess
p3450
(dp3451
g14
S'destRect'
p3452
sg16
(lp3453
sba(i__main__
DelphiIdentAccess
p3454
(dp3455
g14
S'arrowwidth'
p3456
sg16
(lp3457
sba(i__main__
DelphiIdentAccess
p3458
(dp3459
g14
S'arrowwidth'
p3460
sg16
(lp3461
sbasbasbsg129
(lp3462
S' add some to prevent cutting off arrow heads in certain cases for long words\r'
p3463
asba(i__main__
DelphiAssignStatement
p3464
(dp3465
g366
Nsg367
(i__main__
DelphiIdentAccess
p3466
(dp3467
g14
S'InflateRect'
p3468
sg16
(lp3469
(idelphi
DelphiFunctionEndAccess
p3470
(dp3471
g374
(lp3472
(i__main__
DelphiIdentAccess
p3473
(dp3474
g14
S'originRect'
p3475
sg16
(lp3476
sba(i__main__
DelphiIdentAccess
p3477
(dp3478
g14
S'arrowwidth'
p3479
sg16
(lp3480
sba(i__main__
DelphiIdentAccess
p3481
(dp3482
g14
S'arrowwidth'
p3483
sg16
(lp3484
sbasbasbsba(i__main__
DelphiAssignStatement
p3485
(dp3486
g366
(i__main__
DelphiIdentAccess
p3487
(dp3488
g14
S'Point'
p3489
sg16
(lp3490
(idelphi
DelphiFunctionEndAccess
p3491
(dp3492
g374
(lp3493
(idelphi
DelphiMulOp
p3494
(dp3495
g858
(idelphi
DelphiIntegerValue
p3496
(dp3497
g243
S'2'
sbsg883
g1400
sg885
(idelphi
DelphiNestedExpressionListAccess
p3498
(dp3499
g16
(lp3500
sg374
(lp3501
(idelphi
DelphiAddOp
p3502
(dp3503
g386
S'+'
sg388
(i__main__
DelphiIdentAccess
p3504
(dp3505
g14
S'originRect'
p3506
sg16
(lp3507
(idelphi
DelphiFieldEndAccess
p3508
(dp3509
g382
S'right'
p3510
sbasbsg393
(i__main__
DelphiIdentAccess
p3511
(dp3512
g14
S'originRect'
p3513
sg16
(lp3514
(idelphi
DelphiFieldEndAccess
p3515
(dp3516
g382
S'left'
p3517
sbasbsbasbsba(idelphi
DelphiMulOp
p3518
(dp3519
g858
(idelphi
DelphiIntegerValue
p3520
(dp3521
g243
S'2'
sbsg883
g1400
sg885
(idelphi
DelphiNestedExpressionListAccess
p3522
(dp3523
g16
(lp3524
sg374
(lp3525
(idelphi
DelphiAddOp
p3526
(dp3527
g386
S'+'
sg388
(i__main__
DelphiIdentAccess
p3528
(dp3529
g14
S'originRect'
p3530
sg16
(lp3531
(idelphi
DelphiFieldEndAccess
p3532
(dp3533
g382
S'bottom'
p3534
sbasbsg393
(i__main__
DelphiIdentAccess
p3535
(dp3536
g14
S'originRect'
p3537
sg16
(lp3538
(idelphi
DelphiFieldEndAccess
p3539
(dp3540
g382
S'top'
p3541
sbasbsbasbsbasbasbsg367
(i__main__
DelphiIdentAccess
p3542
(dp3543
g14
S'origin'
p3544
sg16
(lp3545
sbsba(i__main__
DelphiAssignStatement
p3546
(dp3547
g366
(i__main__
DelphiIdentAccess
p3548
(dp3549
g14
S'Point'
p3550
sg16
(lp3551
(idelphi
DelphiFunctionEndAccess
p3552
(dp3553
g374
(lp3554
(idelphi
DelphiMulOp
p3555
(dp3556
g858
(idelphi
DelphiIntegerValue
p3557
(dp3558
g243
S'2'
sbsg883
g1400
sg885
(idelphi
DelphiNestedExpressionListAccess
p3559
(dp3560
g16
(lp3561
sg374
(lp3562
(idelphi
DelphiAddOp
p3563
(dp3564
g386
S'+'
sg388
(i__main__
DelphiIdentAccess
p3565
(dp3566
g14
S'destRect'
p3567
sg16
(lp3568
(idelphi
DelphiFieldEndAccess
p3569
(dp3570
g382
S'right'
p3571
sbasbsg393
(i__main__
DelphiIdentAccess
p3572
(dp3573
g14
S'destRect'
p3574
sg16
(lp3575
(idelphi
DelphiFieldEndAccess
p3576
(dp3577
g382
S'left'
p3578
sbasbsbasbsba(idelphi
DelphiMulOp
p3579
(dp3580
g858
(idelphi
DelphiIntegerValue
p3581
(dp3582
g243
S'2'
sbsg883
g1400
sg885
(idelphi
DelphiNestedExpressionListAccess
p3583
(dp3584
g16
(lp3585
sg374
(lp3586
(idelphi
DelphiAddOp
p3587
(dp3588
g386
S'+'
sg388
(i__main__
DelphiIdentAccess
p3589
(dp3590
g14
S'destRect'
p3591
sg16
(lp3592
(idelphi
DelphiFieldEndAccess
p3593
(dp3594
g382
S'bottom'
p3595
sbasbsg393
(i__main__
DelphiIdentAccess
p3596
(dp3597
g14
S'destRect'
p3598
sg16
(lp3599
(idelphi
DelphiFieldEndAccess
p3600
(dp3601
g382
S'top'
p3602
sbasbsbasbsbasbasbsg367
(i__main__
DelphiIdentAccess
p3603
(dp3604
g14
S'dest'
p3605
sg16
(lp3606
sbsba(i__main__
DelphiAssignStatement
p3607
(dp3608
g366
(i__main__
DelphiIdentAccess
p3609
(dp3610
g14
S'IntersectionPointForLineAndRectangle'
p3611
sg16
(lp3612
(idelphi
DelphiFunctionEndAccess
p3613
(dp3614
g374
(lp3615
(i__main__
DelphiIdentAccess
p3616
(dp3617
g14
S'origin'
p3618
sg16
(lp3619
sba(i__main__
DelphiIdentAccess
p3620
(dp3621
g14
S'destRect'
p3622
sg16
(lp3623
sbasbasbsg367
(i__main__
DelphiIdentAccess
p3624
(dp3625
g14
S'intersectPoint'
p3626
sg16
(lp3627
sbsba(i__main__
DelphiAssignStatement
p3628
(dp3629
g366
(i__main__
DelphiIdentAccess
p3630
(dp3631
g14
S'Point'
p3632
sg16
(lp3633
(idelphi
DelphiFunctionEndAccess
p3634
(dp3635
g374
(lp3636
(idelphi
DelphiAddOp
p3637
(dp3638
g386
S'+'
sg388
(i__main__
DelphiIdentAccess
p3639
(dp3640
g14
S'scroll'
p3641
sg16
(lp3642
(idelphi
DelphiFieldEndAccess
p3643
(dp3644
g382
S'x'
sbasbsg393
(i__main__
DelphiIdentAccess
p3645
(dp3646
g14
S'intersectPoint'
p3647
sg16
(lp3648
(idelphi
DelphiFieldEndAccess
p3649
(dp3650
g382
S'x'
sbasbsba(idelphi
DelphiAddOp
p3651
(dp3652
g386
S'+'
sg388
(i__main__
DelphiIdentAccess
p3653
(dp3654
g14
S'scroll'
p3655
sg16
(lp3656
(idelphi
DelphiFieldEndAccess
p3657
(dp3658
g382
S'y'
sbasbsg393
(i__main__
DelphiIdentAccess
p3659
(dp3660
g14
S'intersectPoint'
p3661
sg16
(lp3662
(idelphi
DelphiFieldEndAccess
p3663
(dp3664
g382
S'y'
sbasbsbasbasbsg367
(i__main__
DelphiIdentAccess
p3665
(dp3666
g14
S'endPoint'
p3667
sg16
(lp3668
sbsba(i__main__
DelphiAssignStatement
p3669
(dp3670
g366
(i__main__
DelphiIdentAccess
p3671
(dp3672
g14
S'IntersectionPointForLineAndRectangle'
p3673
sg16
(lp3674
(idelphi
DelphiFunctionEndAccess
p3675
(dp3676
g374
(lp3677
(i__main__
DelphiIdentAccess
p3678
(dp3679
g14
S'dest'
p3680
sg16
(lp3681
sba(i__main__
DelphiIdentAccess
p3682
(dp3683
g14
S'originRect'
p3684
sg16
(lp3685
sbasbasbsg367
(i__main__
DelphiIdentAccess
p3686
(dp3687
g14
S'startPoint'
p3688
sg16
(lp3689
sbsba(i__main__
DelphiAssignStatement
p3690
(dp3691
g366
(idelphi
DelphiAddOp
p3692
(dp3693
g386
S'+'
sg388
(i__main__
DelphiIdentAccess
p3694
(dp3695
g14
S'scroll'
p3696
sg16
(lp3697
(idelphi
DelphiFieldEndAccess
p3698
(dp3699
g382
S'x'
sbasbsg393
(i__main__
DelphiIdentAccess
p3700
(dp3701
g14
S'startPoint'
p3702
sg16
(lp3703
(idelphi
DelphiFieldEndAccess
p3704
(dp3705
g382
S'x'
sbasbsbsg367
(i__main__
DelphiIdentAccess
p3706
(dp3707
g14
S'startPoint'
p3708
sg16
(lp3709
(idelphi
DelphiFieldEndAccess
p3710
(dp3711
g382
S'x'
sbasbsba(i__main__
DelphiAssignStatement
p3712
(dp3713
g366
(idelphi
DelphiAddOp
p3714
(dp3715
g386
S'+'
sg388
(i__main__
DelphiIdentAccess
p3716
(dp3717
g14
S'scroll'
p3718
sg16
(lp3719
(idelphi
DelphiFieldEndAccess
p3720
(dp3721
g382
S'y'
sbasbsg393
(i__main__
DelphiIdentAccess
p3722
(dp3723
g14
S'startPoint'
p3724
sg16
(lp3725
(idelphi
DelphiFieldEndAccess
p3726
(dp3727
g382
S'y'
sbasbsbsg367
(i__main__
DelphiIdentAccess
p3728
(dp3729
g14
S'startPoint'
p3730
sg16
(lp3731
(idelphi
DelphiFieldEndAccess
p3732
(dp3733
g382
S'y'
sbasbsba(i__main__
DelphiAssignStatement
p3734
(dp3735
g366
(i__main__
DelphiIdentAccess
p3736
(dp3737
g14
S'psSolid'
p3738
sg16
(lp3739
sbsg367
(i__main__
DelphiIdentAccess
p3740
(dp3741
g14
S'canvas'
p3742
sg16
(lp3743
(idelphi
DelphiFieldEndAccess
p3744
(dp3745
g382
S'pen'
p3746
sba(idelphi
DelphiFieldEndAccess
p3747
(dp3748
g382
S'style'
p3749
sbasbsba(i__main__
DelphiAssignStatement
p3750
(dp3751
g366
Nsg367
(i__main__
DelphiIdentAccess
p3752
(dp3753
g14
S'canvas'
p3754
sg16
(lp3755
(idelphi
DelphiFieldEndAccess
p3756
(dp3757
g382
S'moveTo'
p3758
sba(idelphi
DelphiFunctionEndAccess
p3759
(dp3760
g374
(lp3761
(i__main__
DelphiIdentAccess
p3762
(dp3763
g14
S'startPoint'
p3764
sg16
(lp3765
(idelphi
DelphiFieldEndAccess
p3766
(dp3767
g382
S'x'
sbasba(i__main__
DelphiIdentAccess
p3768
(dp3769
g14
S'startPoint'
p3770
sg16
(lp3771
(idelphi
DelphiFieldEndAccess
p3772
(dp3773
g382
S'y'
sbasbasbasbsba(i__main__
DelphiAssignStatement
p3774
(dp3775
g366
Nsg367
(i__main__
DelphiIdentAccess
p3776
(dp3777
g14
S'canvas'
p3778
sg16
(lp3779
(idelphi
DelphiFieldEndAccess
p3780
(dp3781
g382
S'lineTo'
p3782
sba(idelphi
DelphiFunctionEndAccess
p3783
(dp3784
g374
(lp3785
(i__main__
DelphiIdentAccess
p3786
(dp3787
g14
S'endPoint'
p3788
sg16
(lp3789
(idelphi
DelphiFieldEndAccess
p3790
(dp3791
g382
S'x'
sbasba(i__main__
DelphiIdentAccess
p3792
(dp3793
g14
S'endPoint'
p3794
sg16
(lp3795
(idelphi
DelphiFieldEndAccess
p3796
(dp3797
g382
S'y'
sbasbasbasbsbasbsg1316
(lp3798
(i__main__
DelphiVarSection
p3799
(dp3800
g33
I0
sg1320
(lp3801
(idelphi
DelphiVarDecl
p3802
(dp3803
g11
Nsg1324
(lp3804
S'startPoint'
p3805
aS'endPoint'
p3806
aS'intersectPoint'
p3807
asg19
(i__main__
DelphiNamedType
p3808
(dp3809
g22
S'TPoint'
p3810
sg59
g1
sg60
Nsbsba(idelphi
DelphiVarDecl
p3811
(dp3812
g11
Nsg1324
(lp3813
S'origin'
p3814
aS'dest'
p3815
asg19
(i__main__
DelphiNamedType
p3816
(dp3817
g22
S'TPoint'
p3818
sg59
g1
sg60
NsbsbasbasbsbsS'drawcommandorcontext'
p3819
(i__main__
DelphiMethodImplementation
p3820
(dp3821
g320
g226
sg40
g228
sg48
(lp3822
(i__main__
DelphiFormalParameter
p3823
(dp3824
g52
Nsg53
(lp3825
S'canvas'
p3826
asg19
(i__main__
DelphiNamedType
p3827
(dp3828
g22
S'TCanvas'
p3829
sg59
g1
sg60
Nsbsg61
Nsba(i__main__
DelphiFormalParameter
p3830
(dp3831
g52
Nsg53
(lp3832
S'text'
p3833
asg19
(i__main__
DelphiPrimitiveType
p3834
(dp3835
g22
g243
sbsg61
Nsba(i__main__
DelphiFormalParameter
p3836
(dp3837
g52
Nsg53
(lp3838
S'bounds'
p3839
asg19
(i__main__
DelphiNamedType
p3840
(dp3841
g22
S'TRect'
p3842
sg59
g1
sg60
Nsbsg61
Nsba(i__main__
DelphiFormalParameter
p3843
(dp3844
g52
Nsg53
(lp3845
S'position'
p3846
asg19
(i__main__
DelphiNamedType
p3847
(dp3848
g22
S'TPoint'
p3849
sg59
g1
sg60
Nsbsg61
Nsba(i__main__
DelphiFormalParameter
p3850
(dp3851
g52
Nsg53
(lp3852
S'selected'
p3853
aS'focused'
p3854
aS'isCommand'
p3855
asg19
(i__main__
DelphiPrimitiveType
p3856
(dp3857
g22
g266
sbsg61
Nsbasg344
(lp3858
sg346
(lp3859
sg348
(lp3860
g350
ag3826
ag3833
ag3839
ag3846
ag3853
ag3854
ag3855
asg351
(dp3861
g3826
g3827
sg3833
g3834
sg3853
g3856
sg3839
g3840
sg3854
g3856
sg3846
g3847
sg3855
g3856
ssg78
S'TSMapView'
p3862
sg79
Nsg354
(lp3863
sg80
I0
sg81
g82
sg356
(i__main__
DelphiBlock
p3864
(dp3865
g359
(idelphi
DelphiCompoundStatement
p3866
(dp3867
g362
(lp3868
(idelphi
DelphiWithStatement
p3869
(dp3870
g441
(idelphi
DelphiCompoundStatement
p3871
(dp3872
g362
(lp3873
(i__main__
DelphiAssignStatement
p3874
(dp3875
g366
(idelphi
DelphiAddOp
p3876
(dp3877
g386
S'+'
sg388
(i__main__
DelphiIdentAccess
p3878
(dp3879
g14
S'scroll'
p3880
sg16
(lp3881
(idelphi
DelphiFieldEndAccess
p3882
(dp3883
g382
S'x'
sbasbsg393
(idelphi
DelphiAddOp
p3884
(dp3885
g386
S'-'
sg388
(idelphi
DelphiIntegerValue
p3886
(dp3887
g243
S'2'
sbsg393
(i__main__
DelphiIdentAccess
p3888
(dp3889
g14
S'bounds'
p3890
sg16
(lp3891
(idelphi
DelphiFieldEndAccess
p3892
(dp3893
g382
S'left'
p3894
sbasbsbsbsg367
(i__main__
DelphiIdentAccess
p3895
(dp3896
g14
S'left'
p3897
sg16
(lp3898
sbsba(i__main__
DelphiAssignStatement
p3899
(dp3900
g366
(idelphi
DelphiAddOp
p3901
(dp3902
g386
S'+'
sg388
(i__main__
DelphiIdentAccess
p3903
(dp3904
g14
S'scroll'
p3905
sg16
(lp3906
(idelphi
DelphiFieldEndAccess
p3907
(dp3908
g382
S'y'
sbasbsg393
(idelphi
DelphiAddOp
p3909
(dp3910
g386
S'-'
sg388
(idelphi
DelphiIntegerValue
p3911
(dp3912
g243
S'1'
sbsg393
(i__main__
DelphiIdentAccess
p3913
(dp3914
g14
S'bounds'
p3915
sg16
(lp3916
(idelphi
DelphiFieldEndAccess
p3917
(dp3918
g382
S'top'
p3919
sbasbsbsbsg367
(i__main__
DelphiIdentAccess
p3920
(dp3921
g14
S'top'
p3922
sg16
(lp3923
sbsba(i__main__
DelphiAssignStatement
p3924
(dp3925
g366
(idelphi
DelphiAddOp
p3926
(dp3927
g386
S'+'
sg388
(i__main__
DelphiIdentAccess
p3928
(dp3929
g14
S'scroll'
p3930
sg16
(lp3931
(idelphi
DelphiFieldEndAccess
p3932
(dp3933
g382
S'x'
sbasbsg393
(idelphi
DelphiAddOp
p3934
(dp3935
g386
S'+'
sg388
(idelphi
DelphiIntegerValue
p3936
(dp3937
g243
S'2'
sbsg393
(i__main__
DelphiIdentAccess
p3938
(dp3939
g14
S'bounds'
p3940
sg16
(lp3941
(idelphi
DelphiFieldEndAccess
p3942
(dp3943
g382
S'right'
p3944
sbasbsbsbsg367
(i__main__
DelphiIdentAccess
p3945
(dp3946
g14
S'right'
p3947
sg16
(lp3948
sbsba(i__main__
DelphiAssignStatement
p3949
(dp3950
g366
(idelphi
DelphiAddOp
p3951
(dp3952
g386
S'+'
sg388
(i__main__
DelphiIdentAccess
p3953
(dp3954
g14
S'scroll'
p3955
sg16
(lp3956
(idelphi
DelphiFieldEndAccess
p3957
(dp3958
g382
S'y'
sbasbsg393
(idelphi
DelphiAddOp
p3959
(dp3960
g386
S'+'
sg388
(idelphi
DelphiIntegerValue
p3961
(dp3962
g243
S'1'
sbsg393
(i__main__
DelphiIdentAccess
p3963
(dp3964
g14
S'bounds'
p3965
sg16
(lp3966
(idelphi
DelphiFieldEndAccess
p3967
(dp3968
g382
S'bottom'
p3969
sbasbsbsbsg367
(i__main__
DelphiIdentAccess
p3970
(dp3971
g14
S'bottom'
p3972
sg16
(lp3973
sbsbasbsg1191
(lp3974
(i__main__
DelphiIdentAccess
p3975
(dp3976
g14
S'drawRect'
p3977
sg16
(lp3978
sbasba(idelphi
DelphiWithStatement
p3979
(dp3980
g441
(idelphi
DelphiCompoundStatement
p3981
(dp3982
g362
(lp3983
(i__main__
DelphiAssignStatement
p3984
(dp3985
g366
(idelphi
DelphiAddOp
p3986
(dp3987
g386
S'+'
sg388
(i__main__
DelphiIdentAccess
p3988
(dp3989
g14
S'scroll'
p3990
sg16
(lp3991
(idelphi
DelphiFieldEndAccess
p3992
(dp3993
g382
S'x'
sbasbsg393
(i__main__
DelphiIdentAccess
p3994
(dp3995
g14
S'bounds'
p3996
sg16
(lp3997
(idelphi
DelphiFieldEndAccess
p3998
(dp3999
g382
S'left'
p4000
sbasbsbsg367
(i__main__
DelphiIdentAccess
p4001
(dp4002
g14
S'x'
sg16
(lp4003
sbsba(i__main__
DelphiAssignStatement
p4004
(dp4005
g366
(idelphi
DelphiAddOp
p4006
(dp4007
g386
S'+'
sg388
(i__main__
DelphiIdentAccess
p4008
(dp4009
g14
S'scroll'
p4010
sg16
(lp4011
(idelphi
DelphiFieldEndAccess
p4012
(dp4013
g382
S'y'
sbasbsg393
(i__main__
DelphiIdentAccess
p4014
(dp4015
g14
S'bounds'
p4016
sg16
(lp4017
(idelphi
DelphiFieldEndAccess
p4018
(dp4019
g382
S'top'
p4020
sbasbsbsg367
(i__main__
DelphiIdentAccess
p4021
(dp4022
g14
S'y'
sg16
(lp4023
sbsbasbsg1191
(lp4024
(i__main__
DelphiIdentAccess
p4025
(dp4026
g14
S'textPoint'
p4027
sg16
(lp4028
sbasba(i__main__
DelphiAssignStatement
p4029
(dp4030
g366
Nsg367
(i__main__
DelphiIdentAccess
p4031
(dp4032
g14
S'setCanvasColorsForSelection'
p4033
sg16
(lp4034
(idelphi
DelphiFunctionEndAccess
p4035
(dp4036
g374
(lp4037
(i__main__
DelphiIdentAccess
p4038
(dp4039
g14
S'canvas'
p4040
sg16
(lp4041
sba(i__main__
DelphiIdentAccess
p4042
(dp4043
g14
S'selected'
p4044
sg16
(lp4045
sba(i__main__
DelphiIdentAccess
p4046
(dp4047
g14
S'focused'
p4048
sg16
(lp4049
sba(i__main__
DelphiIdentAccess
p4050
(dp4051
g14
S'isCommand'
p4052
sg16
(lp4053
sbasbasbsba(idelphi
DelphiWithStatement
p4054
(dp4055
g441
(idelphi
DelphiCompoundStatement
p4056
(dp4057
g362
(lp4058
(idelphi
DelphiIfStatement
p4059
(dp4060
g479
(i__main__
DelphiIdentAccess
p4061
(dp4062
g14
S'selected'
p4063
sg16
(lp4064
sbsg496
(i__main__
DelphiAssignStatement
p4065
(dp4066
g366
(i__main__
DelphiIdentAccess
p4067
(dp4068
g14
S'psClear'
p4069
sg16
(lp4070
sbsg367
(i__main__
DelphiIdentAccess
p4071
(dp4072
g14
S'pen'
p4073
sg16
(lp4074
(idelphi
DelphiFieldEndAccess
p4075
(dp4076
g382
S'style'
p4077
sbasbsbsg520
(i__main__
DelphiAssignStatement
p4078
(dp4079
g366
(i__main__
DelphiIdentAccess
p4080
(dp4081
g14
S'psSolid'
p4082
sg16
(lp4083
sbsg367
(i__main__
DelphiIdentAccess
p4084
(dp4085
g14
S'pen'
p4086
sg16
(lp4087
(idelphi
DelphiFieldEndAccess
p4088
(dp4089
g382
S'style'
p4090
sbasbsbsba(idelphi
DelphiWithStatement
p4091
(dp4092
g441
(i__main__
DelphiAssignStatement
p4093
(dp4094
g366
Nsg367
(i__main__
DelphiIdentAccess
p4095
(dp4096
g14
S'rectangle'
p4097
sg16
(lp4098
(idelphi
DelphiFunctionEndAccess
p4099
(dp4100
g374
(lp4101
(i__main__
DelphiIdentAccess
p4102
(dp4103
g14
S'left'
p4104
sg16
(lp4105
sba(i__main__
DelphiIdentAccess
p4106
(dp4107
g14
S'top'
p4108
sg16
(lp4109
sba(i__main__
DelphiIdentAccess
p4110
(dp4111
g14
S'right'
p4112
sg16
(lp4113
sba(i__main__
DelphiIdentAccess
p4114
(dp4115
g14
S'bottom'
p4116
sg16
(lp4117
sbasbasbsbsg1191
(lp4118
(i__main__
DelphiIdentAccess
p4119
(dp4120
g14
S'drawRect'
p4121
sg16
(lp4122
sbasba(idelphi
DelphiWithStatement
p4123
(dp4124
g441
(i__main__
DelphiAssignStatement
p4125
(dp4126
g366
Nsg367
(i__main__
DelphiIdentAccess
p4127
(dp4128
g14
S'textOut'
p4129
sg16
(lp4130
(idelphi
DelphiFunctionEndAccess
p4131
(dp4132
g374
(lp4133
(i__main__
DelphiIdentAccess
p4134
(dp4135
g14
S'x'
sg16
(lp4136
sba(i__main__
DelphiIdentAccess
p4137
(dp4138
g14
S'y'
sg16
(lp4139
sba(i__main__
DelphiIdentAccess
p4140
(dp4141
g14
S'text'
p4142
sg16
(lp4143
sbasbasbsbsg1191
(lp4144
(i__main__
DelphiIdentAccess
p4145
(dp4146
g14
S'textPoint'
p4147
sg16
(lp4148
sbasbasbsg1191
(lp4149
(i__main__
DelphiIdentAccess
p4150
(dp4151
g14
S'canvas'
p4152
sg16
(lp4153
sbasbasbsg1316
(lp4154
(i__main__
DelphiVarSection
p4155
(dp4156
g33
I0
sg1320
(lp4157
(idelphi
DelphiVarDecl
p4158
(dp4159
g11
Nsg1324
(lp4160
S'drawRect'
p4161
asg19
(i__main__
DelphiNamedType
p4162
(dp4163
g22
S'TRect'
p4164
sg59
g1
sg60
Nsbsba(idelphi
DelphiVarDecl
p4165
(dp4166
g11
Nsg1324
(lp4167
S'textPoint'
p4168
asg19
(i__main__
DelphiNamedType
p4169
(dp4170
g22
S'TPoint'
p4171
sg59
g1
sg60
NsbsbasbasbsbsS'drawarrowtorectedge'
p4172
(i__main__
DelphiMethodImplementation
p4173
(dp4174
g320
g268
sg40
g270
sg48
(lp4175
(i__main__
DelphiFormalParameter
p4176
(dp4177
g52
Nsg53
(lp4178
S'canvas'
p4179
asg19
(i__main__
DelphiNamedType
p4180
(dp4181
g22
S'TCanvas'
p4182
sg59
g1
sg60
Nsbsg61
Nsba(i__main__
DelphiFormalParameter
p4183
(dp4184
g52
Nsg53
(lp4185
S'origin'
p4186
asg19
(i__main__
DelphiNamedType
p4187
(dp4188
g22
S'TPoint'
p4189
sg59
g1
sg60
Nsbsg61
Nsba(i__main__
DelphiFormalParameter
p4190
(dp4191
g52
Nsg53
(lp4192
S'destRect'
p4193
asg19
(i__main__
DelphiNamedType
p4194
(dp4195
g22
S'TRect'
p4196
sg59
g1
sg60
Nsbsg61
Nsbasg344
(lp4197
sg346
(lp4198
sg348
(lp4199
g350
ag4179
ag4186
ag4193
asg351
(dp4200
g4186
g4187
sg4179
g4180
sg4193
g4194
ssg78
S'TSMapView'
p4201
sg79
Nsg354
(lp4202
sg80
I0
sg81
g82
sg356
(i__main__
DelphiBlock
p4203
(dp4204
g359
(idelphi
DelphiCompoundStatement
p4205
(dp4206
g362
(lp4207
(i__main__
DelphiAssignStatement
p4208
(dp4209
g366
Nsg367
(i__main__
DelphiIdentAccess
p4210
(dp4211
g14
S'InflateRect'
p4212
sg16
(lp4213
(idelphi
DelphiFunctionEndAccess
p4214
(dp4215
g374
(lp4216
(i__main__
DelphiIdentAccess
p4217
(dp4218
g14
S'destRect'
p4219
sg16
(lp4220
sba(i__main__
DelphiIdentAccess
p4221
(dp4222
g14
S'arrowwidth'
p4223
sg16
(lp4224
sba(i__main__
DelphiIdentAccess
p4225
(dp4226
g14
S'arrowwidth'
p4227
sg16
(lp4228
sbasbasbsg129
(lp4229
S' add some to prevent cutting off arrow heads in certain cases for long words\r'
p4230
asba(i__main__
DelphiAssignStatement
p4231
(dp4232
g366
(i__main__
DelphiIdentAccess
p4233
(dp4234
g14
S'IntersectionPointForLineAndRectangle'
p4235
sg16
(lp4236
(idelphi
DelphiFunctionEndAccess
p4237
(dp4238
g374
(lp4239
(i__main__
DelphiIdentAccess
p4240
(dp4241
g14
S'origin'
p4242
sg16
(lp4243
sba(i__main__
DelphiIdentAccess
p4244
(dp4245
g14
S'destRect'
p4246
sg16
(lp4247
sbasbasbsg367
(i__main__
DelphiIdentAccess
p4248
(dp4249
g14
S'intersectPoint'
p4250
sg16
(lp4251
sbsba(i__main__
DelphiAssignStatement
p4252
(dp4253
g366
(i__main__
DelphiIdentAccess
p4254
(dp4255
g14
S'Point'
p4256
sg16
(lp4257
(idelphi
DelphiFunctionEndAccess
p4258
(dp4259
g374
(lp4260
(idelphi
DelphiAddOp
p4261
(dp4262
g386
S'+'
sg388
(i__main__
DelphiIdentAccess
p4263
(dp4264
g14
S'scroll'
p4265
sg16
(lp4266
(idelphi
DelphiFieldEndAccess
p4267
(dp4268
g382
S'x'
sbasbsg393
(i__main__
DelphiIdentAccess
p4269
(dp4270
g14
S'intersectPoint'
p4271
sg16
(lp4272
(idelphi
DelphiFieldEndAccess
p4273
(dp4274
g382
S'x'
sbasbsba(idelphi
DelphiAddOp
p4275
(dp4276
g386
S'+'
sg388
(i__main__
DelphiIdentAccess
p4277
(dp4278
g14
S'scroll'
p4279
sg16
(lp4280
(idelphi
DelphiFieldEndAccess
p4281
(dp4282
g382
S'y'
sbasbsg393
(i__main__
DelphiIdentAccess
p4283
(dp4284
g14
S'intersectPoint'
p4285
sg16
(lp4286
(idelphi
DelphiFieldEndAccess
p4287
(dp4288
g382
S'y'
sbasbsbasbasbsg367
(i__main__
DelphiIdentAccess
p4289
(dp4290
g14
S'endPoint'
p4291
sg16
(lp4292
sbsba(i__main__
DelphiAssignStatement
p4293
(dp4294
g366
(i__main__
DelphiIdentAccess
p4295
(dp4296
g14
S'Point'
p4297
sg16
(lp4298
(idelphi
DelphiFunctionEndAccess
p4299
(dp4300
g374
(lp4301
(idelphi
DelphiAddOp
p4302
(dp4303
g386
S'+'
sg388
(i__main__
DelphiIdentAccess
p4304
(dp4305
g14
S'scroll'
p4306
sg16
(lp4307
(idelphi
DelphiFieldEndAccess
p4308
(dp4309
g382
S'x'
sbasbsg393
(i__main__
DelphiIdentAccess
p4310
(dp4311
g14
S'origin'
p4312
sg16
(lp4313
(idelphi
DelphiFieldEndAccess
p4314
(dp4315
g382
S'x'
sbasbsba(idelphi
DelphiAddOp
p4316
(dp4317
g386
S'+'
sg388
(i__main__
DelphiIdentAccess
p4318
(dp4319
g14
S'scroll'
p4320
sg16
(lp4321
(idelphi
DelphiFieldEndAccess
p4322
(dp4323
g382
S'y'
sbasbsg393
(i__main__
DelphiIdentAccess
p4324
(dp4325
g14
S'origin'
p4326
sg16
(lp4327
(idelphi
DelphiFieldEndAccess
p4328
(dp4329
g382
S'y'
sbasbsbasbasbsg367
(i__main__
DelphiIdentAccess
p4330
(dp4331
g14
S'startPoint'
p4332
sg16
(lp4333
sbsba(i__main__
DelphiAssignStatement
p4334
(dp4335
g366
(i__main__
DelphiIdentAccess
p4336
(dp4337
g14
S'psSolid'
p4338
sg16
(lp4339
sbsg367
(i__main__
DelphiIdentAccess
p4340
(dp4341
g14
S'canvas'
p4342
sg16
(lp4343
(idelphi
DelphiFieldEndAccess
p4344
(dp4345
g382
S'pen'
p4346
sba(idelphi
DelphiFieldEndAccess
p4347
(dp4348
g382
S'style'
p4349
sbasbsba(i__main__
DelphiAssignStatement
p4350
(dp4351
g366
Nsg367
(i__main__
DelphiIdentAccess
p4352
(dp4353
g14
S'canvas'
p4354
sg16
(lp4355
(idelphi
DelphiFieldEndAccess
p4356
(dp4357
g382
S'moveTo'
p4358
sba(idelphi
DelphiFunctionEndAccess
p4359
(dp4360
g374
(lp4361
(i__main__
DelphiIdentAccess
p4362
(dp4363
g14
S'startPoint'
p4364
sg16
(lp4365
(idelphi
DelphiFieldEndAccess
p4366
(dp4367
g382
S'x'
sbasba(i__main__
DelphiIdentAccess
p4368
(dp4369
g14
S'startPoint'
p4370
sg16
(lp4371
(idelphi
DelphiFieldEndAccess
p4372
(dp4373
g382
S'y'
sbasbasbasbsba(i__main__
DelphiAssignStatement
p4374
(dp4375
g366
Nsg367
(i__main__
DelphiIdentAccess
p4376
(dp4377
g14
S'canvas'
p4378
sg16
(lp4379
(idelphi
DelphiFieldEndAccess
p4380
(dp4381
g382
S'lineTo'
p4382
sba(idelphi
DelphiFunctionEndAccess
p4383
(dp4384
g374
(lp4385
(i__main__
DelphiIdentAccess
p4386
(dp4387
g14
S'endPoint'
p4388
sg16
(lp4389
(idelphi
DelphiFieldEndAccess
p4390
(dp4391
g382
S'x'
sbasba(i__main__
DelphiIdentAccess
p4392
(dp4393
g14
S'endPoint'
p4394
sg16
(lp4395
(idelphi
DelphiFieldEndAccess
p4396
(dp4397
g382
S'y'
sbasbasbasbsba(i__main__
DelphiAssignStatement
p4398
(dp4399
g366
Nsg367
(i__main__
DelphiIdentAccess
p4400
(dp4401
g14
S'self'
p4402
sg16
(lp4403
(idelphi
DelphiFieldEndAccess
p4404
(dp4405
g382
S'DrawArrowhead'
p4406
sba(idelphi
DelphiFunctionEndAccess
p4407
(dp4408
g374
(lp4409
(i__main__
DelphiIdentAccess
p4410
(dp4411
g14
S'canvas'
p4412
sg16
(lp4413
sba(i__main__
DelphiIdentAccess
p4414
(dp4415
g14
S'startPoint'
p4416
sg16
(lp4417
sba(i__main__
DelphiIdentAccess
p4418
(dp4419
g14
S'endPoint'
p4420
sg16
(lp4421
sbasbasbsg129
(lp4422
S'arrow head'
p4423
asbasbsg1316
(lp4424
(i__main__
DelphiVarSection
p4425
(dp4426
g33
I0
sg1320
(lp4427
(idelphi
DelphiVarDecl
p4428
(dp4429
g11
Nsg1324
(lp4430
S'startPoint'
p4431
aS'endPoint'
p4432
aS'intersectPoint'
p4433
asg19
(i__main__
DelphiNamedType
p4434
(dp4435
g22
S'TPoint'
p4436
sg59
g1
sg60
NsbsbasbasbsbssS'propertyDeclarations'
p4437
(dp4438
sS'variableNamesInDeclaredOrder'
p4439
(lp4440
g39
asba(i__main__
DelphiConstSection
p4441
(dp4442
g7
(lp4443
(idelphi
DelphiConstDeclaration
p4444
(dp4445
g11
(idelphi
DelphiIntegerValue
p4446
(dp4447
g243
S'10'
p4448
sbsg14
S'arrowlength'
p4449
sg19
(idelphi
DelphiPrimitiveType
p4450
(dp4451
g22
g23
sbsba(idelphi
DelphiConstDeclaration
p4452
(dp4453
g11
(idelphi
DelphiIntegerValue
p4454
(dp4455
g243
S'4'
sbsg14
S'arrowwidth'
p4456
sg19
(idelphi
DelphiPrimitiveType
p4457
(dp4458
g22
g23
sbsbasg33
I1
sba(i__main__
DelphiProceduralImplementation
p4459
(dp4460
g320
g4459
sg40
S'AdjustedIntersectionPointForLineAndRectangle'
p4461
sg79
(i__main__
DelphiNamedType
p4462
(dp4463
g22
S'TPoint'
p4464
sg59
g1
sg60
Nsbsg344
(lp4465
sg346
(lp4466
sg348
(lp4467
S'origin'
p4468
aS'rect'
p4469
asg351
(dp4470
g4468
(i__main__
DelphiNamedType
p4471
(dp4472
g22
S'TPoint'
p4473
sg59
g1
sg60
Nsbsg4469
(i__main__
DelphiNamedType
p4474
(dp4475
g22
S'TRect'
p4476
sg59
g1
sg60
Nsbssg48
(lp4477
(i__main__
DelphiFormalParameter
p4478
(dp4479
g52
Nsg53
(lp4480
g4468
asg19
g4471
sg61
Nsba(i__main__
DelphiFormalParameter
p4481
(dp4482
g52
Nsg53
(lp4483
g4469
asg19
g4474
sg61
Nsbasg354
(lp4484
sg356
(i__main__
DelphiBlock
p4485
(dp4486
g359
(idelphi
DelphiCompoundStatement
p4487
(dp4488
g362
(lp4489
(idelphi
DelphiIfStatement
p4490
(dp4491
g479
(i__main__
DelphiIdentAccess
p4492
(dp4493
g14
S'PtInRect'
p4494
sg16
(lp4495
(idelphi
DelphiFunctionEndAccess
p4496
(dp4497
g374
(lp4498
(i__main__
DelphiIdentAccess
p4499
(dp4500
g14
S'rect'
p4501
sg16
(lp4502
sba(i__main__
DelphiIdentAccess
p4503
(dp4504
g14
S'origin'
p4505
sg16
(lp4506
sbasbasbsg496
Nsg520
(idelphi
DelphiCompoundStatement
p4507
(dp4508
g362
(lp4509
(i__main__
DelphiAssignStatement
p4510
(dp4511
g366
(i__main__
DelphiIdentAccess
p4512
(dp4513
g14
S'Point'
p4514
sg16
(lp4515
(idelphi
DelphiFunctionEndAccess
p4516
(dp4517
g374
(lp4518
(idelphi
DelphiIntegerValue
p4519
(dp4520
g243
S'0'
sba(idelphi
DelphiIntegerValue
p4521
(dp4522
g243
S'0'
sbasbasbsg367
(i__main__
DelphiIdentAccess
p4523
(dp4524
g14
S'result'
p4525
sg16
(lp4526
sbsba(i__main__
DelphiExitStatement
p4527
(dp4528
g1997
g4459
sbasbsba(idelphi
DelphiIfStatement
p4529
(dp4530
g479
(idelphi
DelphiAddOp
p4531
(dp4532
g386
g387
sg388
(idelphi
DelphiNestedExpressionListAccess
p4533
(dp4534
g16
(lp4535
sg374
(lp4536
(idelphi
DelphiRelOp
p4537
(dp4538
g482
(i__main__
DelphiIdentAccess
p4539
(dp4540
g14
S'rect'
p4541
sg16
(lp4542
(idelphi
DelphiFieldEndAccess
p4543
(dp4544
g382
S'bottom'
p4545
sbasbsg487
(idelphi
DelphiIntegerValue
p4546
(dp4547
g243
S'0'
sbsg495
S'='
sbasbsg393
(idelphi
DelphiAddOp
p4548
(dp4549
g386
g387
sg388
(idelphi
DelphiNestedExpressionListAccess
p4550
(dp4551
g16
(lp4552
sg374
(lp4553
(idelphi
DelphiRelOp
p4554
(dp4555
g482
(i__main__
DelphiIdentAccess
p4556
(dp4557
g14
S'rect'
p4558
sg16
(lp4559
(idelphi
DelphiFieldEndAccess
p4560
(dp4561
g382
S'right'
p4562
sbasbsg487
(idelphi
DelphiIntegerValue
p4563
(dp4564
g243
S'0'
sbsg495
S'='
sbasbsg393
(idelphi
DelphiAddOp
p4565
(dp4566
g386
g387
sg388
(idelphi
DelphiNestedExpressionListAccess
p4567
(dp4568
g16
(lp4569
sg374
(lp4570
(idelphi
DelphiRelOp
p4571
(dp4572
g482
(i__main__
DelphiIdentAccess
p4573
(dp4574
g14
S'rect'
p4575
sg16
(lp4576
(idelphi
DelphiFieldEndAccess
p4577
(dp4578
g382
S'top'
p4579
sbasbsg487
(idelphi
DelphiIntegerValue
p4580
(dp4581
g243
S'0'
sbsg495
S'='
sbasbsg393
(idelphi
DelphiNestedExpressionListAccess
p4582
(dp4583
g16
(lp4584
sg374
(lp4585
(idelphi
DelphiRelOp
p4586
(dp4587
g482
(i__main__
DelphiIdentAccess
p4588
(dp4589
g14
S'rect'
p4590
sg16
(lp4591
(idelphi
DelphiFieldEndAccess
p4592
(dp4593
g382
S'left'
p4594
sbasbsg487
(idelphi
DelphiIntegerValue
p4595
(dp4596
g243
S'0'
sbsg495
S'='
sbasbsbsbsbsg496
Nsg520
(idelphi
DelphiCompoundStatement
p4597
(dp4598
g362
(lp4599
(i__main__
DelphiAssignStatement
p4600
(dp4601
g366
(i__main__
DelphiIdentAccess
p4602
(dp4603
g14
S'Point'
p4604
sg16
(lp4605
(idelphi
DelphiFunctionEndAccess
p4606
(dp4607
g374
(lp4608
(idelphi
DelphiIntegerValue
p4609
(dp4610
g243
S'0'
sba(idelphi
DelphiIntegerValue
p4611
(dp4612
g243
S'0'
sbasbasbsg367
(i__main__
DelphiIdentAccess
p4613
(dp4614
g14
S'result'
p4615
sg16
(lp4616
sbsba(i__main__
DelphiExitStatement
p4617
(dp4618
g1997
g4459
sbasbsba(idelphi
DelphiIfStatement
p4619
(dp4620
g479
(idelphi
DelphiRelOp
p4621
(dp4622
g482
(i__main__
DelphiIdentAccess
p4623
(dp4624
g14
S'origin'
p4625
sg16
(lp4626
(idelphi
DelphiFieldEndAccess
p4627
(dp4628
g382
S'x'
sbasbsg487
(idelphi
DelphiIntegerValue
p4629
(dp4630
g243
S'0'
sbsg495
S'='
sbsg496
(idelphi
DelphiIfStatement
p4631
(dp4632
g479
(idelphi
DelphiRelOp
p4633
(dp4634
g482
(i__main__
DelphiIdentAccess
p4635
(dp4636
g14
S'origin'
p4637
sg16
(lp4638
(idelphi
DelphiFieldEndAccess
p4639
(dp4640
g382
S'y'
sbasbsg487
(idelphi
DelphiIntegerValue
p4641
(dp4642
g243
S'0'
sbsg495
S'='
sbsg496
(idelphi
DelphiCompoundStatement
p4643
(dp4644
g362
(lp4645
(i__main__
DelphiAssignStatement
p4646
(dp4647
g366
(idelphi
DelphiMulOp
p4648
(dp4649
g858
(i__main__
DelphiIdentAccess
p4650
(dp4651
g14
S'origin'
p4652
sg16
(lp4653
(idelphi
DelphiFieldEndAccess
p4654
(dp4655
g382
S'x'
sbasbsg883
S'/'
sg885
(idelphi
DelphiNestedExpressionListAccess
p4656
(dp4657
g16
(lp4658
sg374
(lp4659
(idelphi
DelphiMulOp
p4660
(dp4661
g858
(idelphi
DelphiRealValue
p4662
(dp4663
g243
S'1.0'
p4664
sbsg883
S'*'
sg885
(i__main__
DelphiIdentAccess
p4665
(dp4666
g14
S'origin'
p4667
sg16
(lp4668
(idelphi
DelphiFieldEndAccess
p4669
(dp4670
g382
S'y'
sbasbsbasbsbsg367
(i__main__
DelphiIdentAccess
p4671
(dp4672
g14
S'slope'
p4673
sg16
(lp4674
sbsba(idelphi
DelphiIfStatement
p4675
(dp4676
g479
(idelphi
DelphiMulOp
p4677
(dp4678
g858
(idelphi
DelphiNestedExpressionListAccess
p4679
(dp4680
g16
(lp4681
sg374
(lp4682
(idelphi
DelphiRelOp
p4683
(dp4684
g482
(i__main__
DelphiIdentAccess
p4685
(dp4686
g14
S'origin'
p4687
sg16
(lp4688
(idelphi
DelphiFieldEndAccess
p4689
(dp4690
g382
S'y'
sbasbsg487
(idelphi
DelphiIntegerValue
p4691
(dp4692
g243
S'0'
sbsg495
S'<'
sbasbsg883
g884
sg885
(idelphi
DelphiNestedExpressionListAccess
p4693
(dp4694
g16
(lp4695
sg374
(lp4696
(idelphi
DelphiRelOp
p4697
(dp4698
g482
(i__main__
DelphiIdentAccess
p4699
(dp4700
g14
S'origin'
p4701
sg16
(lp4702
(idelphi
DelphiFieldEndAccess
p4703
(dp4704
g382
S'x'
sbasbsg487
(idelphi
DelphiIntegerValue
p4705
(dp4706
g243
S'0'
sbsg495
S'>'
sbasbsbsg496
(idelphi
DelphiIfStatement
p4707
(dp4708
g479
(idelphi
DelphiMulOp
p4709
(dp4710
g858
(idelphi
DelphiNestedExpressionListAccess
p4711
(dp4712
g16
(lp4713
sg374
(lp4714
(idelphi
DelphiRelOp
p4715
(dp4716
g482
(i__main__
DelphiIdentAccess
p4717
(dp4718
g14
S'origin'
p4719
sg16
(lp4720
(idelphi
DelphiFieldEndAccess
p4721
(dp4722
g382
S'y'
sbasbsg487
(idelphi
DelphiIntegerValue
p4723
(dp4724
g243
S'0'
sbsg495
S'>'
sbasbsg883
g884
sg885
(idelphi
DelphiNestedExpressionListAccess
p4725
(dp4726
g16
(lp4727
sg374
(lp4728
(idelphi
DelphiRelOp
p4729
(dp4730
g482
(i__main__
DelphiIdentAccess
p4731
(dp4732
g14
S'origin'
p4733
sg16
(lp4734
(idelphi
DelphiFieldEndAccess
p4735
(dp4736
g382
S'x'
sbasbsg487
(idelphi
DelphiIntegerValue
p4737
(dp4738
g243
S'0'
sbsg495
S'>'
sbasbsbsg496
(idelphi
DelphiIfStatement
p4739
(dp4740
g479
(idelphi
DelphiMulOp
p4741
(dp4742
g858
(idelphi
DelphiNestedExpressionListAccess
p4743
(dp4744
g16
(lp4745
sg374
(lp4746
(idelphi
DelphiRelOp
p4747
(dp4748
g482
(i__main__
DelphiIdentAccess
p4749
(dp4750
g14
S'origin'
p4751
sg16
(lp4752
(idelphi
DelphiFieldEndAccess
p4753
(dp4754
g382
S'y'
sbasbsg487
(idelphi
DelphiIntegerValue
p4755
(dp4756
g243
S'0'
sbsg495
S'<'
sbasbsg883
g884
sg885
(idelphi
DelphiNestedExpressionListAccess
p4757
(dp4758
g16
(lp4759
sg374
(lp4760
(idelphi
DelphiRelOp
p4761
(dp4762
g482
(i__main__
DelphiIdentAccess
p4763
(dp4764
g14
S'origin'
p4765
sg16
(lp4766
(idelphi
DelphiFieldEndAccess
p4767
(dp4768
g382
S'x'
sbasbsg487
(idelphi
DelphiIntegerValue
p4769
(dp4770
g243
S'0'
sbsg495
S'<'
sbasbsbsg496
(idelphi
DelphiIfStatement
p4771
(dp4772
g479
(idelphi
DelphiMulOp
p4773
(dp4774
g858
(idelphi
DelphiNestedExpressionListAccess
p4775
(dp4776
g16
(lp4777
sg374
(lp4778
(idelphi
DelphiRelOp
p4779
(dp4780
g482
(i__main__
DelphiIdentAccess
p4781
(dp4782
g14
S'origin'
p4783
sg16
(lp4784
(idelphi
DelphiFieldEndAccess
p4785
(dp4786
g382
S'y'
sbasbsg487
(idelphi
DelphiIntegerValue
p4787
(dp4788
g243
S'0'
sbsg495
S'>'
sbasbsg883
g884
sg885
(idelphi
DelphiNestedExpressionListAccess
p4789
(dp4790
g16
(lp4791
sg374
(lp4792
(idelphi
DelphiRelOp
p4793
(dp4794
g482
(i__main__
DelphiIdentAccess
p4795
(dp4796
g14
S'origin'
p4797
sg16
(lp4798
(idelphi
DelphiFieldEndAccess
p4799
(dp4800
g382
S'x'
sbasbsg487
(idelphi
DelphiIntegerValue
p4801
(dp4802
g243
S'0'
sbsg495
S'<'
sbasbsbsg496
Nsg520
(idelphi
DelphiCompoundStatement
p4803
(dp4804
g362
(lp4805
(idelphi
DelphiIfStatement
p4806
(dp4807
g479
(idelphi
DelphiRelOp
p4808
(dp4809
g482
(i__main__
DelphiIdentAccess
p4810
(dp4811
g14
S'slope'
p4812
sg16
(lp4813
sbsg487
(idelphi
DelphiMulOp
p4814
(dp4815
g858
(i__main__
DelphiIdentAccess
p4816
(dp4817
g14
S'rect'
p4818
sg16
(lp4819
(idelphi
DelphiFieldEndAccess
p4820
(dp4821
g382
S'left'
p4822
sbasbsg883
S'/'
sg885
(idelphi
DelphiMulOp
p4823
(dp4824
g858
(idelphi
DelphiRealValue
p4825
(dp4826
g243
S'1.0'
p4827
sbsg883
S'*'
sg885
(i__main__
DelphiIdentAccess
p4828
(dp4829
g14
S'rect'
p4830
sg16
(lp4831
(idelphi
DelphiFieldEndAccess
p4832
(dp4833
g382
S'bottom'
p4834
sbasbsbsbsg495
S'<'
sbsg496
(i__main__
DelphiAssignStatement
p4835
(dp4836
g366
(i__main__
DelphiIdentAccess
p4837
(dp4838
g14
S'Point'
p4839
sg16
(lp4840
(idelphi
DelphiFunctionEndAccess
p4841
(dp4842
g374
(lp4843
(i__main__
DelphiIdentAccess
p4844
(dp4845
g14
S'rect'
p4846
sg16
(lp4847
(idelphi
DelphiFieldEndAccess
p4848
(dp4849
g382
S'left'
p4850
sbasba(i__main__
DelphiIdentAccess
p4851
(dp4852
g14
S'round'
p4853
sg16
(lp4854
(idelphi
DelphiFunctionEndAccess
p4855
(dp4856
g374
(lp4857
(idelphi
DelphiMulOp
p4858
(dp4859
g858
(i__main__
DelphiIdentAccess
p4860
(dp4861
g14
S'slope'
p4862
sg16
(lp4863
sbsg883
S'*'
sg885
(i__main__
DelphiIdentAccess
p4864
(dp4865
g14
S'rect'
p4866
sg16
(lp4867
(idelphi
DelphiFieldEndAccess
p4868
(dp4869
g382
S'left'
p4870
sbasbsbasbasbasbasbsg367
(i__main__
DelphiIdentAccess
p4871
(dp4872
g14
S'result'
p4873
sg16
(lp4874
sbsbsg520
(i__main__
DelphiAssignStatement
p4875
(dp4876
g366
(i__main__
DelphiIdentAccess
p4877
(dp4878
g14
S'Point'
p4879
sg16
(lp4880
(idelphi
DelphiFunctionEndAccess
p4881
(dp4882
g374
(lp4883
(i__main__
DelphiIdentAccess
p4884
(dp4885
g14
S'round'
p4886
sg16
(lp4887
(idelphi
DelphiFunctionEndAccess
p4888
(dp4889
g374
(lp4890
(idelphi
DelphiMulOp
p4891
(dp4892
g858
(i__main__
DelphiIdentAccess
p4893
(dp4894
g14
S'slope'
p4895
sg16
(lp4896
sbsg883
S'/'
sg885
(i__main__
DelphiIdentAccess
p4897
(dp4898
g14
S'rect'
p4899
sg16
(lp4900
(idelphi
DelphiFieldEndAccess
p4901
(dp4902
g382
S'bottom'
p4903
sbasbsbasbasba(i__main__
DelphiIdentAccess
p4904
(dp4905
g14
S'rect'
p4906
sg16
(lp4907
(idelphi
DelphiFieldEndAccess
p4908
(dp4909
g382
S'bottom'
p4910
sbasbasbasbsg367
(i__main__
DelphiIdentAccess
p4911
(dp4912
g14
S'result'
p4913
sg16
(lp4914
sbsbsbasbsbsg520
(idelphi
DelphiCompoundStatement
p4915
(dp4916
g362
(lp4917
(idelphi
DelphiIfStatement
p4918
(dp4919
g479
(idelphi
DelphiRelOp
p4920
(dp4921
g482
(i__main__
DelphiIdentAccess
p4922
(dp4923
g14
S'slope'
p4924
sg16
(lp4925
sbsg487
(idelphi
DelphiMulOp
p4926
(dp4927
g858
(i__main__
DelphiIdentAccess
p4928
(dp4929
g14
S'rect'
p4930
sg16
(lp4931
(idelphi
DelphiFieldEndAccess
p4932
(dp4933
g382
S'left'
p4934
sbasbsg883
S'/'
sg885
(idelphi
DelphiMulOp
p4935
(dp4936
g858
(idelphi
DelphiRealValue
p4937
(dp4938
g243
S'1.0'
p4939
sbsg883
S'*'
sg885
(i__main__
DelphiIdentAccess
p4940
(dp4941
g14
S'rect'
p4942
sg16
(lp4943
(idelphi
DelphiFieldEndAccess
p4944
(dp4945
g382
S'top'
p4946
sbasbsbsbsg495
S'>'
sbsg496
(i__main__
DelphiAssignStatement
p4947
(dp4948
g366
(i__main__
DelphiIdentAccess
p4949
(dp4950
g14
S'Point'
p4951
sg16
(lp4952
(idelphi
DelphiFunctionEndAccess
p4953
(dp4954
g374
(lp4955
(i__main__
DelphiIdentAccess
p4956
(dp4957
g14
S'rect'
p4958
sg16
(lp4959
(idelphi
DelphiFieldEndAccess
p4960
(dp4961
g382
S'left'
p4962
sbasba(i__main__
DelphiIdentAccess
p4963
(dp4964
g14
S'round'
p4965
sg16
(lp4966
(idelphi
DelphiFunctionEndAccess
p4967
(dp4968
g374
(lp4969
(idelphi
DelphiMulOp
p4970
(dp4971
g858
(i__main__
DelphiIdentAccess
p4972
(dp4973
g14
S'slope'
p4974
sg16
(lp4975
sbsg883
S'*'
sg885
(i__main__
DelphiIdentAccess
p4976
(dp4977
g14
S'rect'
p4978
sg16
(lp4979
(idelphi
DelphiFieldEndAccess
p4980
(dp4981
g382
S'left'
p4982
sbasbsbasbasbasbasbsg367
(i__main__
DelphiIdentAccess
p4983
(dp4984
g14
S'result'
p4985
sg16
(lp4986
sbsbsg520
(i__main__
DelphiAssignStatement
p4987
(dp4988
g366
(i__main__
DelphiIdentAccess
p4989
(dp4990
g14
S'Point'
p4991
sg16
(lp4992
(idelphi
DelphiFunctionEndAccess
p4993
(dp4994
g374
(lp4995
(i__main__
DelphiIdentAccess
p4996
(dp4997
g14
S'round'
p4998
sg16
(lp4999
(idelphi
DelphiFunctionEndAccess
p5000
(dp5001
g374
(lp5002
(idelphi
DelphiMulOp
p5003
(dp5004
g858
(i__main__
DelphiIdentAccess
p5005
(dp5006
g14
S'slope'
p5007
sg16
(lp5008
sbsg883
S'/'
sg885
(i__main__
DelphiIdentAccess
p5009
(dp5010
g14
S'rect'
p5011
sg16
(lp5012
(idelphi
DelphiFieldEndAccess
p5013
(dp5014
g382
S'top'
p5015
sbasbsbasbasba(i__main__
DelphiIdentAccess
p5016
(dp5017
g14
S'rect'
p5018
sg16
(lp5019
(idelphi
DelphiFieldEndAccess
p5020
(dp5021
g382
S'top'
p5022
sbasbasbasbsg367
(i__main__
DelphiIdentAccess
p5023
(dp5024
g14
S'result'
p5025
sg16
(lp5026
sbsbsbasbsbsg520
(idelphi
DelphiCompoundStatement
p5027
(dp5028
g362
(lp5029
(idelphi
DelphiIfStatement
p5030
(dp5031
g479
(idelphi
DelphiRelOp
p5032
(dp5033
g482
(i__main__
DelphiIdentAccess
p5034
(dp5035
g14
S'slope'
p5036
sg16
(lp5037
sbsg487
(idelphi
DelphiMulOp
p5038
(dp5039
g858
(i__main__
DelphiIdentAccess
p5040
(dp5041
g14
S'rect'
p5042
sg16
(lp5043
(idelphi
DelphiFieldEndAccess
p5044
(dp5045
g382
S'right'
p5046
sbasbsg883
S'/'
sg885
(idelphi
DelphiMulOp
p5047
(dp5048
g858
(idelphi
DelphiRealValue
p5049
(dp5050
g243
S'1.0'
p5051
sbsg883
S'*'
sg885
(i__main__
DelphiIdentAccess
p5052
(dp5053
g14
S'rect'
p5054
sg16
(lp5055
(idelphi
DelphiFieldEndAccess
p5056
(dp5057
g382
S'bottom'
p5058
sbasbsbsbsg495
S'>'
sbsg496
(i__main__
DelphiAssignStatement
p5059
(dp5060
g366
(i__main__
DelphiIdentAccess
p5061
(dp5062
g14
S'Point'
p5063
sg16
(lp5064
(idelphi
DelphiFunctionEndAccess
p5065
(dp5066
g374
(lp5067
(i__main__
DelphiIdentAccess
p5068
(dp5069
g14
S'rect'
p5070
sg16
(lp5071
(idelphi
DelphiFieldEndAccess
p5072
(dp5073
g382
S'right'
p5074
sbasba(i__main__
DelphiIdentAccess
p5075
(dp5076
g14
S'round'
p5077
sg16
(lp5078
(idelphi
DelphiFunctionEndAccess
p5079
(dp5080
g374
(lp5081
(idelphi
DelphiMulOp
p5082
(dp5083
g858
(i__main__
DelphiIdentAccess
p5084
(dp5085
g14
S'slope'
p5086
sg16
(lp5087
sbsg883
S'*'
sg885
(i__main__
DelphiIdentAccess
p5088
(dp5089
g14
S'rect'
p5090
sg16
(lp5091
(idelphi
DelphiFieldEndAccess
p5092
(dp5093
g382
S'right'
p5094
sbasbsbasbasbasbasbsg367
(i__main__
DelphiIdentAccess
p5095
(dp5096
g14
S'result'
p5097
sg16
(lp5098
sbsbsg520
(i__main__
DelphiAssignStatement
p5099
(dp5100
g366
(i__main__
DelphiIdentAccess
p5101
(dp5102
g14
S'Point'
p5103
sg16
(lp5104
(idelphi
DelphiFunctionEndAccess
p5105
(dp5106
g374
(lp5107
(i__main__
DelphiIdentAccess
p5108
(dp5109
g14
S'round'
p5110
sg16
(lp5111
(idelphi
DelphiFunctionEndAccess
p5112
(dp5113
g374
(lp5114
(idelphi
DelphiMulOp
p5115
(dp5116
g858
(i__main__
DelphiIdentAccess
p5117
(dp5118
g14
S'slope'
p5119
sg16
(lp5120
sbsg883
S'/'
sg885
(i__main__
DelphiIdentAccess
p5121
(dp5122
g14
S'rect'
p5123
sg16
(lp5124
(idelphi
DelphiFieldEndAccess
p5125
(dp5126
g382
S'bottom'
p5127
sbasbsbasbasba(i__main__
DelphiIdentAccess
p5128
(dp5129
g14
S'rect'
p5130
sg16
(lp5131
(idelphi
DelphiFieldEndAccess
p5132
(dp5133
g382
S'bottom'
p5134
sbasbasbasbsg367
(i__main__
DelphiIdentAccess
p5135
(dp5136
g14
S'result'
p5137
sg16
(lp5138
sbsbsbasbsbsg520
(idelphi
DelphiCompoundStatement
p5139
(dp5140
g362
(lp5141
(idelphi
DelphiIfStatement
p5142
(dp5143
g479
(idelphi
DelphiRelOp
p5144
(dp5145
g482
(i__main__
DelphiIdentAccess
p5146
(dp5147
g14
S'slope'
p5148
sg16
(lp5149
sbsg487
(idelphi
DelphiMulOp
p5150
(dp5151
g858
(i__main__
DelphiIdentAccess
p5152
(dp5153
g14
S'rect'
p5154
sg16
(lp5155
(idelphi
DelphiFieldEndAccess
p5156
(dp5157
g382
S'right'
p5158
sbasbsg883
S'/'
sg885
(idelphi
DelphiMulOp
p5159
(dp5160
g858
(idelphi
DelphiRealValue
p5161
(dp5162
g243
S'1.0'
p5163
sbsg883
S'*'
sg885
(i__main__
DelphiIdentAccess
p5164
(dp5165
g14
S'rect'
p5166
sg16
(lp5167
(idelphi
DelphiFieldEndAccess
p5168
(dp5169
g382
S'top'
p5170
sbasbsbsbsg495
S'<'
sbsg496
(i__main__
DelphiAssignStatement
p5171
(dp5172
g366
(i__main__
DelphiIdentAccess
p5173
(dp5174
g14
S'Point'
p5175
sg16
(lp5176
(idelphi
DelphiFunctionEndAccess
p5177
(dp5178
g374
(lp5179
(i__main__
DelphiIdentAccess
p5180
(dp5181
g14
S'rect'
p5182
sg16
(lp5183
(idelphi
DelphiFieldEndAccess
p5184
(dp5185
g382
S'right'
p5186
sbasba(i__main__
DelphiIdentAccess
p5187
(dp5188
g14
S'round'
p5189
sg16
(lp5190
(idelphi
DelphiFunctionEndAccess
p5191
(dp5192
g374
(lp5193
(idelphi
DelphiMulOp
p5194
(dp5195
g858
(i__main__
DelphiIdentAccess
p5196
(dp5197
g14
S'slope'
p5198
sg16
(lp5199
sbsg883
S'*'
sg885
(i__main__
DelphiIdentAccess
p5200
(dp5201
g14
S'rect'
p5202
sg16
(lp5203
(idelphi
DelphiFieldEndAccess
p5204
(dp5205
g382
S'right'
p5206
sbasbsbasbasbasbasbsg367
(i__main__
DelphiIdentAccess
p5207
(dp5208
g14
S'result'
p5209
sg16
(lp5210
sbsbsg520
(i__main__
DelphiAssignStatement
p5211
(dp5212
g366
(i__main__
DelphiIdentAccess
p5213
(dp5214
g14
S'Point'
p5215
sg16
(lp5216
(idelphi
DelphiFunctionEndAccess
p5217
(dp5218
g374
(lp5219
(i__main__
DelphiIdentAccess
p5220
(dp5221
g14
S'round'
p5222
sg16
(lp5223
(idelphi
DelphiFunctionEndAccess
p5224
(dp5225
g374
(lp5226
(idelphi
DelphiMulOp
p5227
(dp5228
g858
(i__main__
DelphiIdentAccess
p5229
(dp5230
g14
S'slope'
p5231
sg16
(lp5232
sbsg883
S'/'
sg885
(i__main__
DelphiIdentAccess
p5233
(dp5234
g14
S'rect'
p5235
sg16
(lp5236
(idelphi
DelphiFieldEndAccess
p5237
(dp5238
g382
S'top'
p5239
sbasbsbasbasba(i__main__
DelphiIdentAccess
p5240
(dp5241
g14
S'rect'
p5242
sg16
(lp5243
(idelphi
DelphiFieldEndAccess
p5244
(dp5245
g382
S'top'
p5246
sbasbasbasbsg367
(i__main__
DelphiIdentAccess
p5247
(dp5248
g14
S'result'
p5249
sg16
(lp5250
sbsbsbasbsbasbsg520
(idelphi
DelphiCompoundStatement
p5251
(dp5252
g362
(lp5253
(idelphi
DelphiIfStatement
p5254
(dp5255
g479
(idelphi
DelphiRelOp
p5256
(dp5257
g482
(i__main__
DelphiIdentAccess
p5258
(dp5259
g14
S'origin'
p5260
sg16
(lp5261
(idelphi
DelphiFieldEndAccess
p5262
(dp5263
g382
S'x'
sbasbsg487
(idelphi
DelphiIntegerValue
p5264
(dp5265
g243
S'0'
sbsg495
S'<'
sbsg496
(i__main__
DelphiAssignStatement
p5266
(dp5267
g366
(i__main__
DelphiIdentAccess
p5268
(dp5269
g14
S'Point'
p5270
sg16
(lp5271
(idelphi
DelphiFunctionEndAccess
p5272
(dp5273
g374
(lp5274
(i__main__
DelphiIdentAccess
p5275
(dp5276
g14
S'rect'
p5277
sg16
(lp5278
(idelphi
DelphiFieldEndAccess
p5279
(dp5280
g382
S'right'
p5281
sbasba(idelphi
DelphiIntegerValue
p5282
(dp5283
g243
S'0'
sbasbasbsg367
(i__main__
DelphiIdentAccess
p5284
(dp5285
g14
S'result'
p5286
sg16
(lp5287
sbsbsg520
(i__main__
DelphiAssignStatement
p5288
(dp5289
g366
(i__main__
DelphiIdentAccess
p5290
(dp5291
g14
S'Point'
p5292
sg16
(lp5293
(idelphi
DelphiFunctionEndAccess
p5294
(dp5295
g374
(lp5296
(i__main__
DelphiIdentAccess
p5297
(dp5298
g14
S'rect'
p5299
sg16
(lp5300
(idelphi
DelphiFieldEndAccess
p5301
(dp5302
g382
S'left'
p5303
sbasba(idelphi
DelphiIntegerValue
p5304
(dp5305
g243
S'0'
sbasbasbsg367
(i__main__
DelphiIdentAccess
p5306
(dp5307
g14
S'result'
p5308
sg16
(lp5309
sbsg129
(lp5310
S' origin.x > 0\r'
p5311
asbsbasbsbsg520
(idelphi
DelphiCompoundStatement
p5312
(dp5313
g362
(lp5314
(idelphi
DelphiIfStatement
p5315
(dp5316
g479
(idelphi
DelphiRelOp
p5317
(dp5318
g482
(i__main__
DelphiIdentAccess
p5319
(dp5320
g14
S'origin'
p5321
sg16
(lp5322
(idelphi
DelphiFieldEndAccess
p5323
(dp5324
g382
S'y'
sbasbsg487
(idelphi
DelphiIntegerValue
p5325
(dp5326
g243
S'0'
sbsg495
S'<'
sbsg496
(idelphi
DelphiIfStatement
p5327
(dp5328
g479
(idelphi
DelphiRelOp
p5329
(dp5330
g482
(i__main__
DelphiIdentAccess
p5331
(dp5332
g14
S'origin'
p5333
sg16
(lp5334
(idelphi
DelphiFieldEndAccess
p5335
(dp5336
g382
S'y'
sbasbsg487
(idelphi
DelphiIntegerValue
p5337
(dp5338
g243
S'0'
sbsg495
S'='
sbsg496
(i__main__
DelphiAssignStatement
p5339
(dp5340
g366
(i__main__
DelphiIdentAccess
p5341
(dp5342
g14
S'Point'
p5343
sg16
(lp5344
(idelphi
DelphiFunctionEndAccess
p5345
(dp5346
g374
(lp5347
(idelphi
DelphiIntegerValue
p5348
(dp5349
g243
S'0'
sba(i__main__
DelphiIdentAccess
p5350
(dp5351
g14
S'rect'
p5352
sg16
(lp5353
(idelphi
DelphiFieldEndAccess
p5354
(dp5355
g382
S'bottom'
p5356
sbasbasbasbsg367
(i__main__
DelphiIdentAccess
p5357
(dp5358
g14
S'result'
p5359
sg16
(lp5360
sbsbsg520
(i__main__
DelphiAssignStatement
p5361
(dp5362
g366
(i__main__
DelphiIdentAccess
p5363
(dp5364
g14
S'Point'
p5365
sg16
(lp5366
(idelphi
DelphiFunctionEndAccess
p5367
(dp5368
g374
(lp5369
(idelphi
DelphiIntegerValue
p5370
(dp5371
g243
S'0'
sba(idelphi
DelphiIntegerValue
p5372
(dp5373
g243
S'0'
sbasbasbsg367
(i__main__
DelphiIdentAccess
p5374
(dp5375
g14
S'result'
p5376
sg16
(lp5377
sbsg129
(lp5378
S' pathalogical case\r'
p5379
aS' origin.y > 0\r'
p5380
asbsbsg520
(i__main__
DelphiAssignStatement
p5381
(dp5382
g366
(i__main__
DelphiIdentAccess
p5383
(dp5384
g14
S'Point'
p5385
sg16
(lp5386
(idelphi
DelphiFunctionEndAccess
p5387
(dp5388
g374
(lp5389
(idelphi
DelphiIntegerValue
p5390
(dp5391
g243
S'0'
sba(i__main__
DelphiIdentAccess
p5392
(dp5393
g14
S'rect'
p5394
sg16
(lp5395
(idelphi
DelphiFieldEndAccess
p5396
(dp5397
g382
S'top'
p5398
sbasbasbasbsg367
(i__main__
DelphiIdentAccess
p5399
(dp5400
g14
S'result'
p5401
sg16
(lp5402
sbsg129
(lp5403
S'do zero cases to avoid divide by zero later'
p5404
asbsbasbsbasbsg1316
(lp5405
(i__main__
DelphiVarSection
p5406
(dp5407
g33
I0
sg1320
(lp5408
(idelphi
DelphiVarDecl
p5409
(dp5410
g11
Nsg1324
(lp5411
S'slope'
p5412
asg19
(i__main__
DelphiPrimitiveType
p5413
(dp5414
g22
g2175
sbsbasbasbsg129
(lp5415
S'needs to have rectangle with center of 0,0 and origin adjusted to that coordinate system'
p5416
asba(i__main__
DelphiProceduralImplementation
p5417
(dp5418
g320
g5417
sg40
S'IntersectionPointForLineAndRectangle'
p5419
sg79
(i__main__
DelphiNamedType
p5420
(dp5421
g22
S'TPoint'
p5422
sg59
g1
sg60
Nsbsg344
(lp5423
sg346
(lp5424
sg348
(lp5425
S'origin'
p5426
aS'destRect'
p5427
asg351
(dp5428
g5426
(i__main__
DelphiNamedType
p5429
(dp5430
g22
S'TPoint'
p5431
sg59
g1
sg60
Nsbsg5427
(i__main__
DelphiNamedType
p5432
(dp5433
g22
S'TRect'
p5434
sg59
g1
sg60
Nsbssg48
(lp5435
(i__main__
DelphiFormalParameter
p5436
(dp5437
g52
Nsg53
(lp5438
g5426
asg19
g5429
sg61
Nsba(i__main__
DelphiFormalParameter
p5439
(dp5440
g52
Nsg53
(lp5441
g5427
asg19
g5432
sg61
Nsbasg354
(lp5442
sg356
(i__main__
DelphiBlock
p5443
(dp5444
g359
(idelphi
DelphiCompoundStatement
p5445
(dp5446
g362
(lp5447
(i__main__
DelphiAssignStatement
p5448
(dp5449
g366
(i__main__
DelphiIdentAccess
p5450
(dp5451
g14
S'Point'
p5452
sg16
(lp5453
(idelphi
DelphiFunctionEndAccess
p5454
(dp5455
g374
(lp5456
(idelphi
DelphiMulOp
p5457
(dp5458
g858
(idelphi
DelphiIntegerValue
p5459
(dp5460
g243
S'2'
sbsg883
g1400
sg885
(idelphi
DelphiNestedExpressionListAccess
p5461
(dp5462
g16
(lp5463
sg374
(lp5464
(idelphi
DelphiAddOp
p5465
(dp5466
g386
S'+'
sg388
(i__main__
DelphiIdentAccess
p5467
(dp5468
g14
S'destRect'
p5469
sg16
(lp5470
(idelphi
DelphiFieldEndAccess
p5471
(dp5472
g382
S'right'
p5473
sbasbsg393
(i__main__
DelphiIdentAccess
p5474
(dp5475
g14
S'destRect'
p5476
sg16
(lp5477
(idelphi
DelphiFieldEndAccess
p5478
(dp5479
g382
S'left'
p5480
sbasbsbasbsba(idelphi
DelphiMulOp
p5481
(dp5482
g858
(idelphi
DelphiIntegerValue
p5483
(dp5484
g243
S'2'
sbsg883
g1400
sg885
(idelphi
DelphiNestedExpressionListAccess
p5485
(dp5486
g16
(lp5487
sg374
(lp5488
(idelphi
DelphiAddOp
p5489
(dp5490
g386
S'+'
sg388
(i__main__
DelphiIdentAccess
p5491
(dp5492
g14
S'destRect'
p5493
sg16
(lp5494
(idelphi
DelphiFieldEndAccess
p5495
(dp5496
g382
S'bottom'
p5497
sbasbsg393
(i__main__
DelphiIdentAccess
p5498
(dp5499
g14
S'destRect'
p5500
sg16
(lp5501
(idelphi
DelphiFieldEndAccess
p5502
(dp5503
g382
S'top'
p5504
sbasbsbasbsbasbasbsg367
(i__main__
DelphiIdentAccess
p5505
(dp5506
g14
S'center'
p5507
sg16
(lp5508
sbsba(i__main__
DelphiAssignStatement
p5509
(dp5510
g366
(i__main__
DelphiIdentAccess
p5511
(dp5512
g14
S'Rect'
p5513
sg16
(lp5514
(idelphi
DelphiFunctionEndAccess
p5515
(dp5516
g374
(lp5517
(idelphi
DelphiAddOp
p5518
(dp5519
g386
S'-'
sg388
(i__main__
DelphiIdentAccess
p5520
(dp5521
g14
S'center'
p5522
sg16
(lp5523
(idelphi
DelphiFieldEndAccess
p5524
(dp5525
g382
S'x'
sbasbsg393
(i__main__
DelphiIdentAccess
p5526
(dp5527
g14
S'destRect'
p5528
sg16
(lp5529
(idelphi
DelphiFieldEndAccess
p5530
(dp5531
g382
S'left'
p5532
sbasbsba(idelphi
DelphiAddOp
p5533
(dp5534
g386
S'-'
sg388
(i__main__
DelphiIdentAccess
p5535
(dp5536
g14
S'center'
p5537
sg16
(lp5538
(idelphi
DelphiFieldEndAccess
p5539
(dp5540
g382
S'y'
sbasbsg393
(i__main__
DelphiIdentAccess
p5541
(dp5542
g14
S'destRect'
p5543
sg16
(lp5544
(idelphi
DelphiFieldEndAccess
p5545
(dp5546
g382
S'top'
p5547
sbasbsba(idelphi
DelphiAddOp
p5548
(dp5549
g386
S'-'
sg388
(i__main__
DelphiIdentAccess
p5550
(dp5551
g14
S'center'
p5552
sg16
(lp5553
(idelphi
DelphiFieldEndAccess
p5554
(dp5555
g382
S'x'
sbasbsg393
(i__main__
DelphiIdentAccess
p5556
(dp5557
g14
S'destRect'
p5558
sg16
(lp5559
(idelphi
DelphiFieldEndAccess
p5560
(dp5561
g382
S'right'
p5562
sbasbsba(idelphi
DelphiAddOp
p5563
(dp5564
g386
S'-'
sg388
(i__main__
DelphiIdentAccess
p5565
(dp5566
g14
S'center'
p5567
sg16
(lp5568
(idelphi
DelphiFieldEndAccess
p5569
(dp5570
g382
S'y'
sbasbsg393
(i__main__
DelphiIdentAccess
p5571
(dp5572
g14
S'destRect'
p5573
sg16
(lp5574
(idelphi
DelphiFieldEndAccess
p5575
(dp5576
g382
S'bottom'
p5577
sbasbsbasbasbsg367
(i__main__
DelphiIdentAccess
p5578
(dp5579
g14
S'adjustedRect'
p5580
sg16
(lp5581
sbsg129
(lp5582
S'make center of rectangle = 0,0'
p5583
asba(i__main__
DelphiAssignStatement
p5584
(dp5585
g366
(i__main__
DelphiIdentAccess
p5586
(dp5587
g14
S'Point'
p5588
sg16
(lp5589
(idelphi
DelphiFunctionEndAccess
p5590
(dp5591
g374
(lp5592
(idelphi
DelphiAddOp
p5593
(dp5594
g386
S'-'
sg388
(i__main__
DelphiIdentAccess
p5595
(dp5596
g14
S'center'
p5597
sg16
(lp5598
(idelphi
DelphiFieldEndAccess
p5599
(dp5600
g382
S'x'
sbasbsg393
(i__main__
DelphiIdentAccess
p5601
(dp5602
g14
S'origin'
p5603
sg16
(lp5604
(idelphi
DelphiFieldEndAccess
p5605
(dp5606
g382
S'x'
sbasbsba(idelphi
DelphiAddOp
p5607
(dp5608
g386
S'-'
sg388
(i__main__
DelphiIdentAccess
p5609
(dp5610
g14
S'center'
p5611
sg16
(lp5612
(idelphi
DelphiFieldEndAccess
p5613
(dp5614
g382
S'y'
sbasbsg393
(i__main__
DelphiIdentAccess
p5615
(dp5616
g14
S'origin'
p5617
sg16
(lp5618
(idelphi
DelphiFieldEndAccess
p5619
(dp5620
g382
S'y'
sbasbsbasbasbsg367
(i__main__
DelphiIdentAccess
p5621
(dp5622
g14
S'adjustedOrigin'
p5623
sg16
(lp5624
sbsba(i__main__
DelphiAssignStatement
p5625
(dp5626
g366
(i__main__
DelphiIdentAccess
p5627
(dp5628
g14
S'AdjustedIntersectionPointForLineAndRectangle'
p5629
sg16
(lp5630
(idelphi
DelphiFunctionEndAccess
p5631
(dp5632
g374
(lp5633
(i__main__
DelphiIdentAccess
p5634
(dp5635
g14
S'adjustedOrigin'
p5636
sg16
(lp5637
sba(i__main__
DelphiIdentAccess
p5638
(dp5639
g14
S'adjustedRect'
p5640
sg16
(lp5641
sbasbasbsg367
(i__main__
DelphiIdentAccess
p5642
(dp5643
g14
S'result'
p5644
sg16
(lp5645
sbsba(i__main__
DelphiAssignStatement
p5646
(dp5647
g366
(idelphi
DelphiAddOp
p5648
(dp5649
g386
S'+'
sg388
(i__main__
DelphiIdentAccess
p5650
(dp5651
g14
S'center'
p5652
sg16
(lp5653
(idelphi
DelphiFieldEndAccess
p5654
(dp5655
g382
S'x'
sbasbsg393
(i__main__
DelphiIdentAccess
p5656
(dp5657
g14
S'result'
p5658
sg16
(lp5659
(idelphi
DelphiFieldEndAccess
p5660
(dp5661
g382
S'x'
sbasbsbsg367
(i__main__
DelphiIdentAccess
p5662
(dp5663
g14
S'result'
p5664
sg16
(lp5665
(idelphi
DelphiFieldEndAccess
p5666
(dp5667
g382
S'x'
sbasbsba(i__main__
DelphiAssignStatement
p5668
(dp5669
g366
(idelphi
DelphiAddOp
p5670
(dp5671
g386
S'+'
sg388
(i__main__
DelphiIdentAccess
p5672
(dp5673
g14
S'center'
p5674
sg16
(lp5675
(idelphi
DelphiFieldEndAccess
p5676
(dp5677
g382
S'y'
sbasbsg393
(i__main__
DelphiIdentAccess
p5678
(dp5679
g14
S'result'
p5680
sg16
(lp5681
(idelphi
DelphiFieldEndAccess
p5682
(dp5683
g382
S'y'
sbasbsbsg367
(i__main__
DelphiIdentAccess
p5684
(dp5685
g14
S'result'
p5686
sg16
(lp5687
(idelphi
DelphiFieldEndAccess
p5688
(dp5689
g382
S'y'
sbasbsbasbsg1316
(lp5690
(i__main__
DelphiVarSection
p5691
(dp5692
g33
I0
sg1320
(lp5693
(idelphi
DelphiVarDecl
p5694
(dp5695
g11
Nsg1324
(lp5696
S'center'
p5697
asg19
(i__main__
DelphiNamedType
p5698
(dp5699
g22
S'TPoint'
p5700
sg59
g1
sg60
Nsbsba(idelphi
DelphiVarDecl
p5701
(dp5702
g11
Nsg1324
(lp5703
S'adjustedRect'
p5704
asg19
(i__main__
DelphiNamedType
p5705
(dp5706
g22
S'TRect'
p5707
sg59
g1
sg60
Nsbsba(idelphi
DelphiVarDecl
p5708
(dp5709
g11
Nsg1324
(lp5710
S'adjustedOrigin'
p5711
asg19
(i__main__
DelphiNamedType
p5712
(dp5713
g22
S'TPoint'
p5714
sg59
g1
sg60
NsbsbasbasbsbasS'includedUnits'
p5715
NsS'implementationUses'
p5716
(lp5717
S'USDomain'
p5718
aS'USRuleEditorForm'
p5719
asg40
S'usmapview'
p5720
sS'constSections'
p5721
(lp5722
g5
ag4441
asS'globalsInProperCase'
p5723
NsS'interfaceUses'
p5724
(lp5725
S'delphi_compatability'
p5726
aS'Windows'
p5727
aS'Classes'
p5728
aS'Controls'
p5729
aS'Graphics'
p5730
aS'SysUtils'
p5731
aS'USWorld'
p5732
aS'UCommand'
p5733
asS'finalCommentToken'
p5734
(i__main__
PassStatement
p5735
(dp5736
g1316
(lp5737
sbsS'varSections'
p5738
(lp5739
sS'globals'
p5740
NsS'originalFileName'
p5741
S'../../storyharp-js/converted_source/usmapview.pas'
p5742
sS'proceduralImplementations'
p5743
(dp5744
S'intersectionpointforlineandrectangle'
p5745
g5417
sS'adjustedintersectionpointforlineandrectangle'
p5746
g4459
ssS'fileName'
p5747
S'/home/pdfernhout/workspace/storyharp-js/converted_source/usmapview.pas'
p5748
sS'proceduralDeclarations'
p5749
(dp5750
sS'types'
p5751
(dp5752
S'tsmapview'
p5753
g34
ssb.