(i__main__
DelphiUnit
p1
(dp2
S'sectionsInOrderDefined'
p3
(lp4
(i__main__
DelphiClass
p5
(dp6
S'variableNamesInProperCase'
p7
(dp8
S'lastsaidtextwithmacros'
p9
S'lastSaidTextWithMacros'
p10
sS'mediaplayeropened'
p11
S'mediaPlayerOpened'
p12
sS'commandslistenedfor'
p13
S'commandsListenedFor'
p14
sS'systemshuttingdown'
p15
S'systemShuttingDown'
p16
sS'agent'
p17
S'agent'
p18
sS'sayoptionsmacroinforce'
p19
S'sayOptionsMacroInForce'
p20
sS'usingspeech'
p21
S'usingSpeech'
p22
sS'riddleindex'
p23
S'riddleIndex'
p24
sS'characterloaded'
p25
S'characterLoaded'
p26
ssS'name'
p27
S'TSSpeechSystem'
p28
sS'methodDeclarations'
p29
(dp30
S'docommand'
p31
(i__main__
DelphiMethodDeclaration
p32
(dp33
g27
S'doCommand'
p34
sS'formalParameters'
p35
(lp36
(i__main__
DelphiFormalParameter
p37
(dp38
S'initialValue'
p39
NsS'names'
p40
(lp41
S'utterance'
p42
asS'theType'
p43
(i__main__
DelphiPrimitiveType
p44
(dp45
S'typeName'
p46
S'string'
p47
sbsS'parameterVariety'
p48
S'const'
p49
sbasS'className'
p50
g28
sS'resultType'
p51
NsS'isClassMethod'
p52
I0
sS'methodType'
p53
S'procedure'
p54
sbsS'haltsound'
p55
(i__main__
DelphiMethodDeclaration
p56
(dp57
g27
S'haltSound'
p58
sg35
(lp59
sg50
g28
sg51
Nsg52
I0
sg53
g54
sbsS'disconnectfromspeechengine'
p60
(i__main__
DelphiMethodDeclaration
p61
(dp62
g27
S'disconnectFromSpeechEngine'
p63
sg35
(lp64
sg50
g28
sg51
Nsg52
I0
sg53
g54
sbsS'create'
p65
(i__main__
DelphiMethodDeclaration
p66
(dp67
g27
S'create'
p68
sg35
(lp69
sg50
g28
sg51
Nsg52
I0
sg53
S'constructor'
p70
sbsS'stripmacros'
p71
(i__main__
DelphiMethodDeclaration
p72
(dp73
g27
S'stripMacros'
p74
sg35
(lp75
(i__main__
DelphiFormalParameter
p76
(dp77
g39
Nsg40
(lp78
S'aString'
p79
asg43
(i__main__
DelphiPrimitiveType
p80
(dp81
g46
g47
sbsg48
g49
sbasg50
g28
sg51
(i__main__
DelphiPrimitiveType
p82
(dp83
g46
g47
sbsg52
I0
sg53
S'function'
p84
sbsS'listenforphrasecaptioncommand'
p85
(i__main__
DelphiMethodDeclaration
p86
(dp87
g27
S'listenForPhraseCaptionCommand'
p88
sg35
(lp89
(i__main__
DelphiFormalParameter
p90
(dp91
g39
Nsg40
(lp92
S'listenFor'
p93
asg43
(i__main__
DelphiPrimitiveType
p94
(dp95
g46
g47
sbsg48
g49
sba(i__main__
DelphiFormalParameter
p96
(dp97
g39
Nsg40
(lp98
S'commandCaption'
p99
asg43
(i__main__
DelphiPrimitiveType
p100
(dp101
g46
g47
sbsg48
g49
sba(i__main__
DelphiFormalParameter
p102
(dp103
g39
Nsg40
(lp104
S'command'
p105
asg43
(i__main__
DelphiPrimitiveType
p106
(dp107
g46
g47
sbsg48
g49
sbasg50
g28
sg51
Nsg52
I0
sg53
g54
sbsS'speaktext'
p108
(i__main__
DelphiMethodDeclaration
p109
(dp110
g27
S'speakText'
p111
sg35
(lp112
(i__main__
DelphiFormalParameter
p113
(dp114
g39
Nsg40
(lp115
S'somethingToSay'
p116
asg43
(i__main__
DelphiPrimitiveType
p117
(dp118
g46
g47
sbsg48
g49
sbasg50
g28
sg51
Nsg52
I0
sg53
g54
sbsS'destroy'
p119
(i__main__
DelphiMethodDeclaration
p120
(dp121
g27
S'destroy'
p122
sg35
(lp123
sg50
g28
sg51
Nsg52
I0
sg53
S'destructor'
p124
sbsS'hideriddleanswerforcommand'
p125
(i__main__
DelphiMethodDeclaration
p126
(dp127
g27
S'hideRiddleAnswerForCommand'
p128
sg35
(lp129
(i__main__
DelphiFormalParameter
p130
(dp131
g39
Nsg40
(lp132
S'aString'
p133
asg43
(i__main__
DelphiPrimitiveType
p134
(dp135
g46
g47
sbsg48
g49
sbasg50
g28
sg51
(i__main__
DelphiPrimitiveType
p136
(dp137
g46
g47
sbsg52
I0
sg53
g84
sbsS'listenforcommand'
p138
(i__main__
DelphiMethodDeclaration
p139
(dp140
g27
S'listenForCommand'
p141
sg35
(lp142
(i__main__
DelphiFormalParameter
p143
(dp144
g39
Nsg40
(lp145
S'aString'
p146
asg43
(i__main__
DelphiPrimitiveType
p147
(dp148
g46
g47
sbsg48
g49
sbasg50
g28
sg51
Nsg52
I0
sg53
g54
sbsS'checkforsayoptionsmacro'
p149
(i__main__
DelphiMethodDeclaration
p150
(dp151
g27
S'checkForSayOptionsMacro'
p152
sg35
(lp153
sg50
g28
sg51
Nsg52
I0
sg53
g54
sbsS'agentcommand'
p154
(i__main__
DelphiMethodDeclaration
p155
(dp156
g27
S'AgentCommand'
p157
sg35
(lp158
(i__main__
DelphiFormalParameter
p159
(dp160
g39
Nsg40
(lp161
S'Sender'
p162
asg43
(i__main__
DelphiNamedType
p163
(dp164
g46
S'TObject'
p165
sS'unitDefinedIn'
p166
g1
sS'unitName'
p167
Nsbsg48
Nsba(i__main__
DelphiFormalParameter
p168
(dp169
g39
Nsg40
(lp170
S'UserInput'
p171
asg43
(i__main__
DelphiNamedType
p172
(dp173
g46
S'IDispatch'
p174
sg166
g1
sg167
Nsbsg48
Nsbasg50
g28
sg51
Nsg52
I0
sg53
g54
sbsS'listenforavailablecommands'
p175
(i__main__
DelphiMethodDeclaration
p176
(dp177
g27
S'listenForAvailableCommands'
p178
sg35
(lp179
sg50
g28
sg51
Nsg52
I0
sg53
g54
sbsS'connecttospeechengine'
p180
(i__main__
DelphiMethodDeclaration
p181
(dp182
g27
S'connectToSpeechEngine'
p183
sg35
(lp184
sg50
g28
sg51
Nsg52
I0
sg53
g54
sbsS'loadagentcharacter'
p185
(i__main__
DelphiMethodDeclaration
p186
(dp187
g27
S'loadAgentCharacter'
p188
sg35
(lp189
(i__main__
DelphiFormalParameter
p190
(dp191
g39
Nsg40
(lp192
S'fileName'
p193
asg43
(i__main__
DelphiPrimitiveType
p194
(dp195
g46
g47
sbsg48
Nsbasg50
g28
sg51
Nsg52
I0
sg53
g54
sbsS'speaksound'
p196
(i__main__
DelphiMethodDeclaration
p197
(dp198
g27
S'speakSound'
p199
sg35
(lp200
(i__main__
DelphiFormalParameter
p201
(dp202
g39
Nsg40
(lp203
S'soundDesignation'
p204
asg43
(i__main__
DelphiPrimitiveType
p205
(dp206
g46
g47
sbsg48
g49
sbasg50
g28
sg51
Nsg52
I0
sg53
g54
sbsS'sayoptions'
p207
(i__main__
DelphiMethodDeclaration
p208
(dp209
g27
S'sayOptions'
p210
sg35
(lp211
sg50
g28
sg51
Nsg52
I0
sg53
g54
sbsS'haltspeechandsound'
p212
(i__main__
DelphiMethodDeclaration
p213
(dp214
g27
S'haltSpeechAndSound'
p215
sg35
(lp216
sg50
g28
sg51
Nsg52
I0
sg53
g54
sbsS'clearvoicecommands'
p217
(i__main__
DelphiMethodDeclaration
p218
(dp219
g27
S'clearVoiceCommands'
p220
sg35
(lp221
sg50
g28
sg51
Nsg52
I0
sg53
g54
sbsS'showpicture'
p222
(i__main__
DelphiMethodDeclaration
p223
(dp224
g27
S'showPicture'
p225
sg35
(lp226
(i__main__
DelphiFormalParameter
p227
(dp228
g39
Nsg40
(lp229
S'pictureName'
p230
asg43
(i__main__
DelphiPrimitiveType
p231
(dp232
g46
g47
sbsg48
g49
sba(i__main__
DelphiFormalParameter
p233
(dp234
g39
Nsg40
(lp235
S'reply'
p236
asg43
(i__main__
DelphiPrimitiveType
p237
(dp238
g46
g47
sbsg48
g49
sbasg50
g28
sg51
Nsg52
I0
sg53
g54
sbsS'haltspeech'
p239
(i__main__
DelphiMethodDeclaration
p240
(dp241
g27
S'haltSpeech'
p242
sg35
(lp243
sg50
g28
sg51
Nsg52
I0
sg53
g54
sbsS'saytextwithmacros'
p244
(i__main__
DelphiMethodDeclaration
p245
(dp246
g27
S'sayTextWithMacros'
p247
sg35
(lp248
(i__main__
DelphiFormalParameter
p249
(dp250
g39
Nsg40
(lp251
S'aString'
p252
asg43
(i__main__
DelphiPrimitiveType
p253
(dp254
g46
g47
sbsg48
g49
sbasg50
g28
sg51
Nsg52
I0
sg53
g54
sbssS'superclassNamedTypes'
p255
(lp256
(i__main__
DelphiNamedType
p257
(dp258
g46
S'TObject'
p259
sg166
g1
sg167
NsbasS'variableNames'
p260
(dp261
S'lastsaidtextwithmacros'
p262
(i__main__
DelphiPrimitiveType
p263
(dp264
g46
g47
sbsS'mediaplayeropened'
p265
(i__main__
DelphiPrimitiveType
p266
(dp267
g46
S'boolean'
p268
sbsS'commandslistenedfor'
p269
(i__main__
DelphiNamedType
p270
(dp271
g46
S'TStringList'
p272
sg166
g1
sg167
NsbsS'systemshuttingdown'
p273
(i__main__
DelphiPrimitiveType
p274
(dp275
g46
g268
sbsS'agent'
p276
(i__main__
DelphiNamedType
p277
(dp278
g46
S'TAgent'
p279
sg166
g1
sg167
NsbsS'sayoptionsmacroinforce'
p280
(i__main__
DelphiPrimitiveType
p281
(dp282
g46
g268
sbsS'usingspeech'
p283
(i__main__
DelphiPrimitiveType
p284
(dp285
g46
g268
sbsS'riddleindex'
p286
(i__main__
DelphiPrimitiveType
p287
(dp288
g46
S'integer'
p289
sbsS'characterloaded'
p290
(i__main__
DelphiPrimitiveType
p291
(dp292
g46
g268
sbssS'methodNamesInDefinedOrder'
p293
(lp294
S'create'
p295
aS'connecttospeechengine'
p296
aS'loadagentcharacter'
p297
aS'disconnectfromspeechengine'
p298
aS'destroy'
p299
aS'agentcommand'
p300
aS'docommand'
p301
aS'sayoptions'
p302
aS'stripmacros'
p303
aS'saytextwithmacros'
p304
aS'checkforsayoptionsmacro'
p305
aS'speaktext'
p306
aS'haltspeechandsound'
p307
aS'haltspeech'
p308
aS'haltsound'
p309
aS'speaksound'
p310
aS'showpicture'
p311
aS'clearvoicecommands'
p312
aS'hideriddleanswerforcommand'
p313
aS'listenforphrasecaptioncommand'
p314
aS'listenforcommand'
p315
aS'listenforavailablecommands'
p316
asS'methodImplementations'
p317
(dp318
S'docommand'
p319
(i__main__
DelphiMethodImplementation
p320
(dp321
S'originalDeclaration'
p322
g32
sg27
g34
sg35
(lp323
(i__main__
DelphiFormalParameter
p324
(dp325
g39
Nsg40
(lp326
S'utterance'
p327
asg43
(i__main__
DelphiPrimitiveType
p328
(dp329
g46
g47
sbsg48
g49
sbasS'varParamIndexes'
p330
(lp331
sS'varParamsSkipped'
p332
(lp333
sS'argNames'
p334
(lp335
S'self'
p336
ag327
asS'argTypes'
p337
(dp338
g327
g328
ssg50
S'TSSpeechSystem'
p339
sg51
NsS'varParamNames'
p340
(lp341
sg52
I0
sg53
g54
sS'block'
p342
(i__main__
DelphiBlock
p343
(dp344
S'compoundStatement'
p345
(idelphi
DelphiCompoundStatement
p346
(dp347
S'statements'
p348
(lp349
(i__main__
DelphiAssignStatement
p350
(dp351
S'newValueExpression'
p352
NsS'destinationExpression'
p353
(i__main__
DelphiIdentAccess
p354
(dp355
S'ident'
p356
S'self'
p357
sS'endAccessList'
p358
(lp359
(idelphi
DelphiFieldEndAccess
p360
(dp361
S'field'
p362
S'haltSpeechAndSound'
p363
sbasbsS'commentLinesBefore'
p364
(lp365
S'command: TSDoCommandPhrase;'
p366
asba(i__main__
DelphiAssignStatement
p367
(dp368
g352
(i__main__
DelphiIdentAccess
p369
(dp370
g356
S'utterance'
p371
sg358
(lp372
sbsg353
(i__main__
DelphiIdentAccess
p373
(dp374
g356
S'commandPhrase'
p375
sg358
(lp376
sbsba(idelphi
DelphiIfStatement
p377
(dp378
S'expression'
p379
(idelphi
DelphiRelOp
p380
(dp381
S'simpleExpression1'
p382
(i__main__
DelphiIdentAccess
p383
(dp384
g356
S'commandPhrase'
p385
sg358
(lp386
sbsS'simpleExpression2'
p387
(i__main__
DelphiIdentAccess
p388
(dp389
g356
S'undoCommand'
p390
sg358
(lp391
sbsS'relOp'
p392
S'='
sbsS'ifFalseStatement'
p393
NsS'ifTrueStatement'
p394
(idelphi
DelphiCompoundStatement
p395
(dp396
g348
(lp397
(idelphi
DelphiIfStatement
p398
(dp399
g379
(i__main__
DelphiIdentAccess
p400
(dp401
g356
S'domain'
p402
sg358
(lp403
(idelphi
DelphiFieldEndAccess
p404
(dp405
g362
S'sessionCommandList'
p406
sba(idelphi
DelphiFieldEndAccess
p407
(dp408
g362
S'isUndoEnabled'
p409
sbasbsg393
(i__main__
DelphiAssignStatement
p410
(dp411
g352
Nsg353
(i__main__
DelphiIdentAccess
p412
(dp413
g356
S'self'
p414
sg358
(lp415
(idelphi
DelphiFieldEndAccess
p416
(dp417
g362
S'speakText'
p418
sba(idelphi
DelphiFunctionEndAccess
p419
(dp420
S'expressionList'
p421
(lp422
(idelphi
DelphiStringAccess
p423
(dp424
g358
(lp425
sg47
(idelphi
DelphiStringValue
p426
(dp427
g47
S'There is nothing to undo.'
p428
sbsbasbasbsbsg394
(i__main__
DelphiAssignStatement
p429
(dp430
g352
Nsg353
(i__main__
DelphiIdentAccess
p431
(dp432
g356
S'domain'
p433
sg358
(lp434
(idelphi
DelphiFieldEndAccess
p435
(dp436
g362
S'sessionCommandList'
p437
sba(idelphi
DelphiFieldEndAccess
p438
(dp439
g362
S'undoLast'
p440
sbasbsbsba(i__main__
DelphiExitStatement
p441
(dp442
S'proceduralOrMethodImplementation'
p443
g320
sbasbsba(idelphi
DelphiIfStatement
p444
(dp445
g379
(idelphi
DelphiRelOp
p446
(dp447
g382
(i__main__
DelphiIdentAccess
p448
(dp449
g356
S'commandPhrase'
p450
sg358
(lp451
sbsg387
(i__main__
DelphiIdentAccess
p452
(dp453
g356
S'redoCommand'
p454
sg358
(lp455
sbsg392
S'='
sbsg393
Nsg394
(idelphi
DelphiCompoundStatement
p456
(dp457
g348
(lp458
(idelphi
DelphiIfStatement
p459
(dp460
g379
(i__main__
DelphiIdentAccess
p461
(dp462
g356
S'domain'
p463
sg358
(lp464
(idelphi
DelphiFieldEndAccess
p465
(dp466
g362
S'sessionCommandList'
p467
sba(idelphi
DelphiFieldEndAccess
p468
(dp469
g362
S'isRedoEnabled'
p470
sbasbsg393
(i__main__
DelphiAssignStatement
p471
(dp472
g352
Nsg353
(i__main__
DelphiIdentAccess
p473
(dp474
g356
S'self'
p475
sg358
(lp476
(idelphi
DelphiFieldEndAccess
p477
(dp478
g362
S'speakText'
p479
sba(idelphi
DelphiFunctionEndAccess
p480
(dp481
g421
(lp482
(idelphi
DelphiStringAccess
p483
(dp484
g358
(lp485
sg47
(idelphi
DelphiStringValue
p486
(dp487
g47
S'There is nothing to redo.'
p488
sbsbasbasbsbsg394
(i__main__
DelphiAssignStatement
p489
(dp490
g352
Nsg353
(i__main__
DelphiIdentAccess
p491
(dp492
g356
S'domain'
p493
sg358
(lp494
(idelphi
DelphiFieldEndAccess
p495
(dp496
g362
S'sessionCommandList'
p497
sba(idelphi
DelphiFieldEndAccess
p498
(dp499
g362
S'redoLast'
p500
sbasbsbsba(i__main__
DelphiExitStatement
p501
(dp502
g443
g320
sbasbsba(idelphi
DelphiIfStatement
p503
(dp504
g379
(idelphi
DelphiRelOp
p505
(dp506
g382
(i__main__
DelphiIdentAccess
p507
(dp508
g356
S'commandPhrase'
p509
sg358
(lp510
sbsg387
(i__main__
DelphiIdentAccess
p511
(dp512
g356
S'repeatLastSayCommand'
p513
sg358
(lp514
sbsg392
S'='
sbsg393
Nsg394
(idelphi
DelphiCompoundStatement
p515
(dp516
g348
(lp517
(i__main__
DelphiAssignStatement
p518
(dp519
g352
Nsg353
(i__main__
DelphiIdentAccess
p520
(dp521
g356
S'self'
p522
sg358
(lp523
(idelphi
DelphiFieldEndAccess
p524
(dp525
g362
S'sayTextWithMacros'
p526
sba(idelphi
DelphiFunctionEndAccess
p527
(dp528
g421
(lp529
(i__main__
DelphiIdentAccess
p530
(dp531
g356
S'lastSaidTextWithMacros'
p532
sg358
(lp533
sbasbasbsba(i__main__
DelphiExitStatement
p534
(dp535
g443
g320
sbasbsba(idelphi
DelphiIfStatement
p536
(dp537
g379
(idelphi
DelphiNestedExpressionListAccess
p538
(dp539
g358
(lp540
sg421
(lp541
(idelphi
DelphiRelOp
p542
(dp543
g382
(i__main__
DelphiIdentAccess
p544
(dp545
g356
S'commandPhrase'
p546
sg358
(lp547
sbsg387
(i__main__
DelphiIdentAccess
p548
(dp549
g356
S'commandListCommand'
p550
sg358
(lp551
sbsg392
S'='
sbasbsg393
Nsg394
(idelphi
DelphiCompoundStatement
p552
(dp553
g348
(lp554
(i__main__
DelphiAssignStatement
p555
(dp556
g352
Nsg353
(i__main__
DelphiIdentAccess
p557
(dp558
g356
S'self'
p559
sg358
(lp560
(idelphi
DelphiFieldEndAccess
p561
(dp562
g362
S'sayOptions'
p563
sbasbsba(i__main__
DelphiExitStatement
p564
(dp565
g443
g320
sbasbsba(idelphi
DelphiIfStatement
p566
(dp567
g379
(idelphi
DelphiRelOp
p568
(dp569
g382
(i__main__
DelphiIdentAccess
p570
(dp571
g356
S'commandPhrase'
p572
sg358
(lp573
sbsg387
(i__main__
DelphiIdentAccess
p574
(dp575
g356
S'firstRiddleAnswer'
p576
sg358
(lp577
sbsg392
S'='
sbsg393
Nsg394
(idelphi
DelphiCompoundStatement
p578
(dp579
g348
(lp580
(i__main__
DelphiAssignStatement
p581
(dp582
g352
(idelphi
DelphiStringAccess
p583
(dp584
g358
(lp585
sg47
(idelphi
DelphiStringValue
p586
(dp587
g47
S'answer '
p588
sbsbsg353
(i__main__
DelphiIdentAccess
p589
(dp590
g356
S'commandPhrase'
p591
sg358
(lp592
sbsg364
(lp593
S' for riddles - need to be reassembled into command string first\r'
p594
asba(idelphi
DelphiIfStatement
p595
(dp596
g379
(idelphi
DelphiNot
p597
(dp598
S'factor'
p599
(i__main__
DelphiIdentAccess
p600
(dp601
g356
S'InputQuery'
p602
sg358
(lp603
(idelphi
DelphiFunctionEndAccess
p604
(dp605
g421
(lp606
(idelphi
DelphiStringAccess
p607
(dp608
g358
(lp609
sg47
(idelphi
DelphiStringValue
p610
(dp611
g47
S'Riddle answer'
p612
sbsba(idelphi
DelphiStringAccess
p613
(dp614
g358
(lp615
sg47
(idelphi
DelphiStringValue
p616
(dp617
g47
S'Please enter the answer to a riddle.'
p618
sbsba(i__main__
DelphiIdentAccess
p619
(dp620
g356
S'commandPhrase'
p621
sg358
(lp622
sbasbasbsbsg393
Nsg394
(i__main__
DelphiExitStatement
p623
(dp624
g443
g320
sbsbasbsba(idelphi
DelphiIfStatement
p625
(dp626
g379
(idelphi
DelphiNestedExpressionListAccess
p627
(dp628
g358
(lp629
sg421
(lp630
(idelphi
DelphiRelOp
p631
(dp632
g382
(i__main__
DelphiIdentAccess
p633
(dp634
g356
S'commandsListenedFor'
p635
sg358
(lp636
(idelphi
DelphiFieldEndAccess
p637
(dp638
g362
S'indexOf'
p639
sba(idelphi
DelphiFunctionEndAccess
p640
(dp641
g421
(lp642
(i__main__
DelphiIdentAccess
p643
(dp644
g356
S'commandPhrase'
p645
sg358
(lp646
sbasbasbsg387
(idelphi
DelphiSign
p647
(dp648
g599
(idelphi
DelphiIntegerValue
p649
(dp650
g47
S'1'
sbsS'sign'
p651
S'-'
sbsg392
S'='
sbasbsg393
(i__main__
DelphiAssignStatement
p652
(dp653
g352
(i__main__
DelphiIdentAccess
p654
(dp655
g356
S'commandPhrase'
p656
sg358
(lp657
sbsg353
(i__main__
DelphiIdentAccess
p658
(dp659
g356
S'commandPhraseModified'
p660
sg358
(lp661
sbsbsg394
(i__main__
DelphiAssignStatement
p662
(dp663
g352
(idelphi
DelphiAddOp
p664
(dp665
S'addOp'
p666
S'+'
sS'term2'
p667
(i__main__
DelphiIdentAccess
p668
(dp669
g356
S'commandPhrase'
p670
sg358
(lp671
sbsS'term1'
p672
(idelphi
DelphiStringAccess
p673
(dp674
g358
(lp675
sg47
(idelphi
DelphiStringValue
p676
(dp677
g47
S'$'
sbsbsbsg353
(i__main__
DelphiIdentAccess
p678
(dp679
g356
S'commandPhraseModified'
p680
sg358
(lp681
sbsbsba(idelphi
DelphiIfStatement
p682
(dp683
g379
(idelphi
DelphiNestedExpressionListAccess
p684
(dp685
g358
(lp686
sg421
(lp687
(idelphi
DelphiRelOp
p688
(dp689
g382
(i__main__
DelphiIdentAccess
p690
(dp691
g356
S'ConsoleForm'
p692
sg358
(lp693
(idelphi
DelphiFieldEndAccess
p694
(dp695
g362
S'speechSystem'
p696
sba(idelphi
DelphiFieldEndAccess
p697
(dp698
g362
S'commandsListenedFor'
p699
sba(idelphi
DelphiFieldEndAccess
p700
(dp701
g362
S'indexOf'
p702
sba(idelphi
DelphiFunctionEndAccess
p703
(dp704
g421
(lp705
(i__main__
DelphiIdentAccess
p706
(dp707
g356
S'commandPhraseModified'
p708
sg358
(lp709
sbasbasbsg387
(idelphi
DelphiSign
p710
(dp711
g599
(idelphi
DelphiIntegerValue
p712
(dp713
g47
S'1'
sbsg651
S'-'
sbsg392
S'='
sbasbsg393
Nsg394
(idelphi
DelphiCompoundStatement
p714
(dp715
g348
(lp716
(idelphi
DelphiIfStatement
p717
(dp718
g379
(idelphi
DelphiMulOp
p719
(dp720
S'signedFactor2'
p721
(idelphi
DelphiNestedExpressionListAccess
p722
(dp723
g358
(lp724
sg421
(lp725
(idelphi
DelphiRelOp
p726
(dp727
g382
(i__main__
DelphiIdentAccess
p728
(dp729
g356
S'commandPhrase'
p730
sg358
(lp731
(idelphi
DelphiArrayEndAccess
p732
(dp733
g421
(lp734
(idelphi
DelphiIntegerValue
p735
(dp736
g47
S'1'
sbasbasbsg387
(idelphi
DelphiStringAccess
p737
(dp738
g358
(lp739
sg47
(idelphi
DelphiStringValue
p740
(dp741
g47
S'$'
sbsbsg392
S'='
sbasbsS'mulOp'
p742
S'and'
p743
sS'signedFactor1'
p744
(idelphi
DelphiNestedExpressionListAccess
p745
(dp746
g358
(lp747
sg421
(lp748
(idelphi
DelphiRelOp
p749
(dp750
g382
(i__main__
DelphiIdentAccess
p751
(dp752
g356
S'length'
p753
sg358
(lp754
(idelphi
DelphiFunctionEndAccess
p755
(dp756
g421
(lp757
(i__main__
DelphiIdentAccess
p758
(dp759
g356
S'commandPhrase'
p760
sg358
(lp761
sbasbasbsg387
(idelphi
DelphiIntegerValue
p762
(dp763
g47
S'1'
sbsg392
S'>'
sbasbsbsg393
Nsg394
(i__main__
DelphiAssignStatement
p764
(dp765
g352
(i__main__
DelphiIdentAccess
p766
(dp767
g356
S'copy'
p768
sg358
(lp769
(idelphi
DelphiFunctionEndAccess
p770
(dp771
g421
(lp772
(i__main__
DelphiIdentAccess
p773
(dp774
g356
S'commandPhrase'
p775
sg358
(lp776
sba(idelphi
DelphiIntegerValue
p777
(dp778
g47
S'2'
sba(i__main__
DelphiIdentAccess
p779
(dp780
g356
S'length'
p781
sg358
(lp782
(idelphi
DelphiFunctionEndAccess
p783
(dp784
g421
(lp785
(i__main__
DelphiIdentAccess
p786
(dp787
g356
S'commandPhrase'
p788
sg358
(lp789
sbasbasbasbasbsg353
(i__main__
DelphiIdentAccess
p790
(dp791
g356
S'commandPhrase'
p792
sg358
(lp793
sbsg364
(lp794
S' elimitate leading $\r'
p795
asbsba(i__main__
DelphiAssignStatement
p796
(dp797
g352
Nsg353
(i__main__
DelphiIdentAccess
p798
(dp799
g356
S'ConsoleForm'
p800
sg358
(lp801
(idelphi
DelphiFieldEndAccess
p802
(dp803
g362
S'addLineToTranscript'
p804
sba(idelphi
DelphiFunctionEndAccess
p805
(dp806
g421
(lp807
(idelphi
DelphiAddOp
p808
(dp809
g666
S'+'
sg667
(i__main__
DelphiIdentAccess
p810
(dp811
g356
S'commandPhrase'
p812
sg358
(lp813
sbsg672
(idelphi
DelphiStringAccess
p814
(dp815
g358
(lp816
sg47
(idelphi
DelphiStringValue
p817
(dp818
g47
S'> '
p819
sbsbsba(i__main__
DelphiIdentAccess
p820
(dp821
g356
S'clRed'
p822
sg358
(lp823
sbasbasbsba(i__main__
DelphiAssignStatement
p824
(dp825
g352
Nsg353
(i__main__
DelphiIdentAccess
p826
(dp827
g356
S'ConsoleForm'
p828
sg358
(lp829
(idelphi
DelphiFieldEndAccess
p830
(dp831
g362
S'addLineToTranscript'
p832
sba(idelphi
DelphiFunctionEndAccess
p833
(dp834
g421
(lp835
(idelphi
DelphiStringAccess
p836
(dp837
g358
(lp838
sg47
(idelphi
DelphiStringValue
p839
(dp840
g47
S'That accomplishes nothing.'
p841
sbsba(i__main__
DelphiIdentAccess
p842
(dp843
g356
S'clBlue'
p844
sg358
(lp845
sbasbasbsg364
(lp846
S' bug - or bad riddle answer.\r'
p847
asba(i__main__
DelphiAssignStatement
p848
(dp849
g352
Nsg353
(i__main__
DelphiIdentAccess
p850
(dp851
g356
S'ConsoleForm'
p852
sg358
(lp853
(idelphi
DelphiFieldEndAccess
p854
(dp855
g362
S'scrollTranscriptEndIntoView'
p856
sbasbsba(i__main__
DelphiExitStatement
p857
(dp858
g443
g320
sbasbsba(i__main__
DelphiAssignStatement
p859
(dp860
g352
Nsg353
(i__main__
DelphiIdentAccess
p861
(dp862
g356
S'domain'
p863
sg358
(lp864
(idelphi
DelphiFieldEndAccess
p865
(dp866
g362
S'sessionCommandList'
p867
sba(idelphi
DelphiFieldEndAccess
p868
(dp869
g362
S'doCommandPhrase'
p870
sba(idelphi
DelphiFunctionEndAccess
p871
(dp872
g421
(lp873
(i__main__
DelphiIdentAccess
p874
(dp875
g356
S'commandPhraseModified'
p876
sg358
(lp877
sbasbasbsg364
(lp878
S'command := '
p879
asba(idelphi
DelphiIfStatement
p880
(dp881
g379
(idelphi
DelphiMulOp
p882
(dp883
g721
(idelphi
DelphiNestedExpressionListAccess
p884
(dp885
g358
(lp886
sg421
(lp887
(i__main__
DelphiIdentAccess
p888
(dp889
g356
S'domain'
p890
sg358
(lp891
(idelphi
DelphiFieldEndAccess
p892
(dp893
g362
S'options'
p894
sba(idelphi
DelphiFieldEndAccess
p895
(dp896
g362
S'sayOptionsAfterLook'
p897
sbasbasbsg742
g743
sg744
(idelphi
DelphiNestedExpressionListAccess
p898
(dp899
g358
(lp900
sg421
(lp901
(idelphi
DelphiRelOp
p902
(dp903
g382
(i__main__
DelphiIdentAccess
p904
(dp905
g356
S'commandPhrase'
p906
sg358
(lp907
sbsg387
(idelphi
DelphiStringAccess
p908
(dp909
g358
(lp910
sg47
(idelphi
DelphiStringValue
p911
(dp912
g47
S'look'
p913
sbsbsg392
S'='
sbasbsbsg393
Nsg394
(idelphi
DelphiCompoundStatement
p914
(dp915
g348
(lp916
(i__main__
DelphiAssignStatement
p917
(dp918
g352
Nsg353
(i__main__
DelphiIdentAccess
p919
(dp920
g356
S'self'
p921
sg358
(lp922
(idelphi
DelphiFieldEndAccess
p923
(dp924
g362
S'sayOptions'
p925
sbasbsg364
(lp926
S'if command.shiftsFocus then  - might lead to recursion if do look commands...'
p927
asbasbsbasbsS'limitedDeclSectionList'
p928
(lp929
(i__main__
DelphiVarSection
p930
(dp931
S'atTopLevel'
p932
I0
sS'varDeclList'
p933
(lp934
(idelphi
DelphiVarDecl
p935
(dp936
S'constExpression'
p937
NsS'identList'
p938
(lp939
S'commandPhrase'
p940
asg43
(i__main__
DelphiPrimitiveType
p941
(dp942
g46
g47
sbsba(idelphi
DelphiVarDecl
p943
(dp944
g937
Nsg938
(lp945
S'commandPhraseModified'
p946
asg43
(i__main__
DelphiPrimitiveType
p947
(dp948
g46
g47
sbsbasbasbsbsS'haltsound'
p949
(i__main__
DelphiMethodImplementation
p950
(dp951
g322
g56
sg27
g58
sg35
(lp952
sg330
(lp953
sg332
(lp954
sg334
(lp955
g336
asg337
(dp956
sg50
S'TSSpeechSystem'
p957
sg51
Nsg340
(lp958
sg52
I0
sg53
g54
sg342
(i__main__
DelphiBlock
p959
(dp960
g345
(idelphi
DelphiCompoundStatement
p961
(dp962
g348
(lp963
(idelphi
DelphiIfStatement
p964
(dp965
g379
(idelphi
DelphiNot
p966
(dp967
g599
(i__main__
DelphiIdentAccess
p968
(dp969
g356
S'usingSpeech'
p970
sg358
(lp971
sbsbsg393
Nsg394
(i__main__
DelphiExitStatement
p972
(dp973
g443
g950
sbsba(i__main__
DelphiAssignStatement
p974
(dp975
g352
Nsg353
(i__main__
DelphiIdentAccess
p976
(dp977
g356
S'agent'
p978
sg358
(lp979
(idelphi
DelphiFieldEndAccess
p980
(dp981
g362
S'Characters'
p982
sba(idelphi
DelphiArrayEndAccess
p983
(dp984
g421
(lp985
(i__main__
DelphiIdentAccess
p986
(dp987
g356
S'agentName'
p988
sg358
(lp989
sbasba(idelphi
DelphiFieldEndAccess
p990
(dp991
g362
S'StopAll'
p992
sba(idelphi
DelphiFunctionEndAccess
p993
(dp994
g421
(lp995
(idelphi
DelphiStringAccess
p996
(dp997
g358
(lp998
sg47
(idelphi
DelphiStringValue
p999
(dp1000
g47
S'Play'
p1001
sbsbasbasbsg364
(lp1002
S'if not domain.options.playerPlaySounds then exit;\r'
p1003
asbasbsg928
(lp1004
sbsbsS'disconnectfromspeechengine'
p1005
(i__main__
DelphiMethodImplementation
p1006
(dp1007
g322
g61
sg27
g63
sg35
(lp1008
sg330
(lp1009
sg332
(lp1010
sg334
(lp1011
g336
asg337
(dp1012
sg50
S'TSSpeechSystem'
p1013
sg51
Nsg340
(lp1014
sg52
I0
sg53
g54
sg342
(i__main__
DelphiBlock
p1015
(dp1016
g345
(idelphi
DelphiCompoundStatement
p1017
(dp1018
g348
(lp1019
(idelphi
DelphiIfStatement
p1020
(dp1021
g379
(idelphi
DelphiNot
p1022
(dp1023
g599
(i__main__
DelphiIdentAccess
p1024
(dp1025
g356
S'usingSpeech'
p1026
sg358
(lp1027
sbsbsg393
Nsg394
(i__main__
DelphiExitStatement
p1028
(dp1029
g443
g1006
sbsba(idelphi
DelphiIfStatement
p1030
(dp1031
g379
(idelphi
DelphiNot
p1032
(dp1033
g599
(i__main__
DelphiIdentAccess
p1034
(dp1035
g356
S'systemShuttingDown'
p1036
sg358
(lp1037
sbsbsg393
Nsg394
(idelphi
DelphiIfStatement
p1038
(dp1039
g379
(idelphi
DelphiRelOp
p1040
(dp1041
g382
(i__main__
DelphiIdentAccess
p1042
(dp1043
g356
S'agent'
p1044
sg358
(lp1045
sbsg387
(idelphi
DelphiNilValue
p1046
(dp1047
bsg392
S'<>'
p1048
sbsg393
Nsg394
(i__main__
DelphiAssignStatement
p1049
(dp1050
g352
(i__main__
DelphiIdentAccess
p1051
(dp1052
g356
S'False'
p1053
sg358
(lp1054
sbsg353
(i__main__
DelphiIdentAccess
p1055
(dp1056
g356
S'agent'
p1057
sg358
(lp1058
(idelphi
DelphiFieldEndAccess
p1059
(dp1060
g362
S'Connected'
p1061
sbasbsbsbsba(i__main__
DelphiAssignStatement
p1062
(dp1063
g352
(i__main__
DelphiIdentAccess
p1064
(dp1065
g356
S'false'
p1066
sg358
(lp1067
sbsg353
(i__main__
DelphiIdentAccess
p1068
(dp1069
g356
S'usingSpeech'
p1070
sg358
(lp1071
sbsbasbsg928
(lp1072
sbsg364
(lp1073
S'looks like bug in Agent that if shutting down will hang'
p1074
asbsS'create'
p1075
(i__main__
DelphiMethodImplementation
p1076
(dp1077
g322
g66
sg27
g68
sg35
(lp1078
sg330
(lp1079
sg332
(lp1080
sg334
(lp1081
g336
asg337
(dp1082
sg50
S'TSSpeechSystem'
p1083
sg51
Nsg340
(lp1084
sg52
I0
sg53
g70
sg342
(i__main__
DelphiBlock
p1085
(dp1086
g345
(idelphi
DelphiCompoundStatement
p1087
(dp1088
g348
(lp1089
(i__main__
DelphiAssignStatement
p1090
(dp1091
g352
(i__main__
DelphiIdentAccess
p1092
(dp1093
g356
S'TStringList'
p1094
sg358
(lp1095
(idelphi
DelphiFieldEndAccess
p1096
(dp1097
g362
S'create'
p1098
sbasbsg353
(i__main__
DelphiIdentAccess
p1099
(dp1100
g356
S'commandsListenedFor'
p1101
sg358
(lp1102
sbsg364
(lp1103
S'registry: TRegistry;\r'
p1104
aS' theKey: string;\r'
p1105
asba(i__main__
DelphiAssignStatement
p1106
(dp1107
g352
(i__main__
DelphiIdentAccess
p1108
(dp1109
g356
S'false'
p1110
sg358
(lp1111
sbsg353
(i__main__
DelphiIdentAccess
p1112
(dp1113
g356
S'usingSpeech'
p1114
sg358
(lp1115
sbsba(i__main__
DelphiAssignStatement
p1116
(dp1117
g352
(i__main__
DelphiIdentAccess
p1118
(dp1119
g356
S'true'
p1120
sg358
(lp1121
sbsg353
(i__main__
DelphiIdentAccess
p1122
(dp1123
g356
S'tryToLaunchAgent'
p1124
sg358
(lp1125
sbsba(idelphi
DelphiTryFinallyStatement
p1126
(dp1127
S'tryStatements'
p1128
(lp1129
(idelphi
DelphiIfStatement
p1130
(dp1131
g379
(i__main__
DelphiIdentAccess
p1132
(dp1133
g356
S'tryToLaunchAgent'
p1134
sg358
(lp1135
sbsg393
Nsg394
(idelphi
DelphiTryExceptStatement
p1136
(dp1137
g1128
(lp1138
(i__main__
DelphiAssignStatement
p1139
(dp1140
g352
(i__main__
DelphiIdentAccess
p1141
(dp1142
g356
S'TAgent'
p1143
sg358
(lp1144
(idelphi
DelphiFieldEndAccess
p1145
(dp1146
g362
S'create'
p1147
sba(idelphi
DelphiFunctionEndAccess
p1148
(dp1149
g421
(lp1150
(i__main__
DelphiIdentAccess
p1151
(dp1152
g356
S'ConsoleForm'
p1153
sg358
(lp1154
sbasbasbsg353
(i__main__
DelphiIdentAccess
p1155
(dp1156
g356
S'agent'
p1157
sg358
(lp1158
sbsg364
(lp1159
S'registry := TRegistry.create;\r'
p1160
aS'  try                       //\\HKEY_CLASSES_ROOT\\Agent.Server\r'
p1161
aS'  //registry.           HKEY_USERS\\S-1-5-21-114899144-1244818041-1703228666-1000\\Software\\Microsoft\\Microsoft Agent\r'
p1162
aS'  theKey := registry.currentPath;\r'
p1163
aS"  // theKey := theKey + 'd';\r"
p1164
aS'  registry.rootKey := HKEY_CLASSES_ROOT;\r'
p1165
aS"\tif not registry.KeyExists('Agent.Server') then\r"
p1166
aS"//\tif not registry.KeyExists('Software\\Microsoft\\Microsoft Agent') then\r"
p1167
aS'    begin\r'
p1168
aS"    tryToLaunchAgent :=\tMessageDlg('Microsoft Agent does not appear to be installed.' + chr(13) +\r"
p1169
aS"      'Do you want to try to use it anyway?' + chr(13) +\r"
p1170
aS"      '(Choose No unless you have installed it.)', mtConfirmation, [mbYes, mbNo, mbCancel], 0) = IDYES;\r"
p1171
aS'    end;\r'
p1172
aS'  finally\r'
p1173
aS'  registry.free;\r'
p1174
aS'  end;  '
p1175
aS" for testing -- raise Exception.Create('Test exception');\r"
p1176
asba(i__main__
DelphiAssignStatement
p1177
(dp1178
g352
(i__main__
DelphiIdentAccess
p1179
(dp1180
g356
S'true'
p1181
sg358
(lp1182
sbsg353
(i__main__
DelphiIdentAccess
p1183
(dp1184
g356
S'usingSpeech'
p1185
sg358
(lp1186
sbsbasS'exceptionHandlers'
p1187
(idelphi
DelphiExceptionHandlers
p1188
(dp1189
S'exceptionHandlerList'
p1190
NsS'statementList'
p1191
(lp1192
(idelphi
DelphiIfStatement
p1193
(dp1194
g379
(idelphi
DelphiNot
p1195
(dp1196
g599
(i__main__
DelphiIdentAccess
p1197
(dp1198
g356
S'domain'
p1199
sg358
(lp1200
(idelphi
DelphiFieldEndAccess
p1201
(dp1202
g362
S'options'
p1203
sba(idelphi
DelphiFieldEndAccess
p1204
(dp1205
g362
S'suppressAgentNotPresentWarning'
p1206
sbasbsbsg393
Nsg394
(idelphi
DelphiCompoundStatement
p1207
(dp1208
g348
(lp1209
(i__main__
DelphiAssignStatement
p1210
(dp1211
g352
(i__main__
DelphiIdentAccess
p1212
(dp1213
g356
S'TAgentWarningForm'
p1214
sg358
(lp1215
(idelphi
DelphiFieldEndAccess
p1216
(dp1217
g362
S'create'
p1218
sba(idelphi
DelphiFunctionEndAccess
p1219
(dp1220
g421
(lp1221
(idelphi
DelphiNilValue
p1222
(dp1223
basbasbsg353
(i__main__
DelphiIdentAccess
p1224
(dp1225
g356
S'AgentWarningForm'
p1226
sg358
(lp1227
sbsba(idelphi
DelphiTryFinallyStatement
p1228
(dp1229
g1128
(lp1230
(i__main__
DelphiAssignStatement
p1231
(dp1232
g352
Nsg353
(i__main__
DelphiIdentAccess
p1233
(dp1234
g356
S'AgentWarningForm'
p1235
sg358
(lp1236
(idelphi
DelphiFieldEndAccess
p1237
(dp1238
g362
S'showModal'
p1239
sbasbsbasS'finallyStatements'
p1240
(lp1241
(i__main__
DelphiAssignStatement
p1242
(dp1243
g352
Nsg353
(i__main__
DelphiIdentAccess
p1244
(dp1245
g356
S'AgentWarningForm'
p1246
sg358
(lp1247
(idelphi
DelphiFieldEndAccess
p1248
(dp1249
g362
S'free'
p1250
sbasbsbasbasbsbasbsbsba(idelphi
DelphiIfStatement
p1251
(dp1252
g379
(i__main__
DelphiIdentAccess
p1253
(dp1254
g356
S'usingSpeech'
p1255
sg358
(lp1256
sbsg393
Nsg394
(idelphi
DelphiCompoundStatement
p1257
(dp1258
g348
(lp1259
(i__main__
DelphiAssignStatement
p1260
(dp1261
g352
(i__main__
DelphiIdentAccess
p1262
(dp1263
g356
S'AgentCommand'
p1264
sg358
(lp1265
sbsg353
(i__main__
DelphiIdentAccess
p1266
(dp1267
g356
S'agent'
p1268
sg358
(lp1269
(idelphi
DelphiFieldEndAccess
p1270
(dp1271
g362
S'OnCommand'
p1272
sbasbsbasbsba(i__main__
DelphiAssignStatement
p1273
(dp1274
g352
Nsg353
(i__main__
DelphiIdentAccess
p1275
(dp1276
g356
S'self'
p1277
sg358
(lp1278
(idelphi
DelphiFieldEndAccess
p1279
(dp1280
g362
S'connectToSpeechEngine'
p1281
sbasbsbasg1240
(lp1282
(idelphi
DelphiIfStatement
p1283
(dp1284
g379
(idelphi
DelphiNot
p1285
(dp1286
g599
(i__main__
DelphiIdentAccess
p1287
(dp1288
g356
S'usingSpeech'
p1289
sg358
(lp1290
sbsbsg393
(i__main__
DelphiAssignStatement
p1291
(dp1292
g352
(i__main__
DelphiIdentAccess
p1293
(dp1294
g356
S'false'
p1295
sg358
(lp1296
sbsg353
(i__main__
DelphiIdentAccess
p1297
(dp1298
g356
S'domain'
p1299
sg358
(lp1300
(idelphi
DelphiFieldEndAccess
p1301
(dp1302
g362
S'options'
p1303
sba(idelphi
DelphiFieldEndAccess
p1304
(dp1305
g362
S'suppressAgentNotPresentWarning'
p1306
sbasbsg364
(lp1307
S' reset this flag if it ever works\r'
p1308
asbsg394
(idelphi
DelphiCompoundStatement
p1309
(dp1310
g348
(lp1311
(i__main__
DelphiAssignStatement
p1312
(dp1313
g352
(i__main__
DelphiIdentAccess
p1314
(dp1315
g356
S'false'
p1316
sg358
(lp1317
sbsg353
(i__main__
DelphiIdentAccess
p1318
(dp1319
g356
S'ConsoleForm'
p1320
sg358
(lp1321
(idelphi
DelphiFieldEndAccess
p1322
(dp1323
g362
S'MenuOptionsSpeak'
p1324
sba(idelphi
DelphiFieldEndAccess
p1325
(dp1326
g362
S'enabled'
p1327
sbasbsba(i__main__
DelphiAssignStatement
p1328
(dp1329
g352
(i__main__
DelphiIdentAccess
p1330
(dp1331
g356
S'false'
p1332
sg358
(lp1333
sbsg353
(i__main__
DelphiIdentAccess
p1334
(dp1335
g356
S'ConsoleForm'
p1336
sg358
(lp1337
(idelphi
DelphiFieldEndAccess
p1338
(dp1339
g362
S'MenuOptionsSounds'
p1340
sba(idelphi
DelphiFieldEndAccess
p1341
(dp1342
g362
S'enabled'
p1343
sbasbsba(i__main__
DelphiAssignStatement
p1344
(dp1345
g352
(i__main__
DelphiIdentAccess
p1346
(dp1347
g356
S'false'
p1348
sg358
(lp1349
sbsg353
(i__main__
DelphiIdentAccess
p1350
(dp1351
g356
S'ConsoleForm'
p1352
sg358
(lp1353
(idelphi
DelphiFieldEndAccess
p1354
(dp1355
g362
S'MenuSettingsCharacter'
p1356
sba(idelphi
DelphiFieldEndAccess
p1357
(dp1358
g362
S'enabled'
p1359
sbasbsba(i__main__
DelphiAssignStatement
p1360
(dp1361
g352
(i__main__
DelphiIdentAccess
p1362
(dp1363
g356
S'false'
p1364
sg358
(lp1365
sbsg353
(i__main__
DelphiIdentAccess
p1366
(dp1367
g356
S'ConsoleForm'
p1368
sg358
(lp1369
(idelphi
DelphiFieldEndAccess
p1370
(dp1371
g362
S'MenuSettingsSayOptionsAfterLook'
p1372
sba(idelphi
DelphiFieldEndAccess
p1373
(dp1374
g362
S'enabled'
p1375
sbasbsba(i__main__
DelphiAssignStatement
p1376
(dp1377
g352
(i__main__
DelphiIdentAccess
p1378
(dp1379
g356
S'false'
p1380
sg358
(lp1381
sbsg353
(i__main__
DelphiIdentAccess
p1382
(dp1383
g356
S'ConsoleForm'
p1384
sg358
(lp1385
(idelphi
DelphiFieldEndAccess
p1386
(dp1387
g362
S'MenuOptionsVoiceUndo'
p1388
sba(idelphi
DelphiFieldEndAccess
p1389
(dp1390
g362
S'enabled'
p1391
sbasbsba(i__main__
DelphiAssignStatement
p1392
(dp1393
g352
(i__main__
DelphiIdentAccess
p1394
(dp1395
g356
S'false'
p1396
sg358
(lp1397
sbsg353
(i__main__
DelphiIdentAccess
p1398
(dp1399
g356
S'ConsoleForm'
p1400
sg358
(lp1401
(idelphi
DelphiFieldEndAccess
p1402
(dp1403
g362
S'MenuOptionsVoiceRedo'
p1404
sba(idelphi
DelphiFieldEndAccess
p1405
(dp1406
g362
S'enabled'
p1407
sbasbsbasbsbasbasbsg928
(lp1408
(i__main__
DelphiVarSection
p1409
(dp1410
g932
I0
sg933
(lp1411
(idelphi
DelphiVarDecl
p1412
(dp1413
g937
Nsg938
(lp1414
S'tryToLaunchAgent'
p1415
asg43
(i__main__
DelphiPrimitiveType
p1416
(dp1417
g46
g268
sbsba(idelphi
DelphiVarDecl
p1418
(dp1419
g937
Nsg938
(lp1420
S'AgentWarningForm'
p1421
asg43
(i__main__
DelphiNamedType
p1422
(dp1423
g46
S'TAgentWarningForm'
p1424
sg166
g1
sg167
NsbsbasbasbsbsS'stripmacros'
p1425
(i__main__
DelphiMethodImplementation
p1426
(dp1427
g322
g72
sg27
g74
sg35
(lp1428
(i__main__
DelphiFormalParameter
p1429
(dp1430
g39
Nsg40
(lp1431
S'aString'
p1432
asg43
(i__main__
DelphiPrimitiveType
p1433
(dp1434
g46
g47
sbsg48
g49
sbasg330
(lp1435
sg332
(lp1436
sg334
(lp1437
g336
ag1432
asg337
(dp1438
g1432
g1433
ssg50
S'TSSpeechSystem'
p1439
sg51
(i__main__
DelphiPrimitiveType
p1440
(dp1441
g46
g47
sbsg340
(lp1442
sg52
I0
sg53
g84
sg342
(i__main__
DelphiBlock
p1443
(dp1444
g345
(idelphi
DelphiCompoundStatement
p1445
(dp1446
g348
(lp1447
(i__main__
DelphiAssignStatement
p1448
(dp1449
g352
(i__main__
DelphiIdentAccess
p1450
(dp1451
g356
S'aString'
p1452
sg358
(lp1453
sbsg353
(i__main__
DelphiIdentAccess
p1454
(dp1455
g356
S'remaining'
p1456
sg358
(lp1457
sbsba(i__main__
DelphiAssignStatement
p1458
(dp1459
g352
(idelphi
DelphiStringAccess
p1460
(dp1461
g358
(lp1462
sg47
(idelphi
DelphiStringValue
p1463
(dp1464
g47
S''
sbsbsg353
(i__main__
DelphiIdentAccess
p1465
(dp1466
g356
S'result'
p1467
sg358
(lp1468
sbsba(i__main__
DelphiAssignStatement
p1469
(dp1470
g352
(i__main__
DelphiIdentAccess
p1471
(dp1472
g356
S'Length'
p1473
sg358
(lp1474
(idelphi
DelphiFunctionEndAccess
p1475
(dp1476
g421
(lp1477
(i__main__
DelphiIdentAccess
p1478
(dp1479
g356
S'remaining'
p1480
sg358
(lp1481
sbasbasbsg353
(i__main__
DelphiIdentAccess
p1482
(dp1483
g356
S'wholeLength'
p1484
sg358
(lp1485
sbsba(idelphi
DelphiWhileStatement
p1486
(dp1487
S'statement'
p1488
(idelphi
DelphiCompoundStatement
p1489
(dp1490
g348
(lp1491
(i__main__
DelphiAssignStatement
p1492
(dp1493
g352
(i__main__
DelphiIdentAccess
p1494
(dp1495
g356
S'pos'
p1496
sg358
(lp1497
(idelphi
DelphiFunctionEndAccess
p1498
(dp1499
g421
(lp1500
(idelphi
DelphiStringAccess
p1501
(dp1502
g358
(lp1503
sg47
(idelphi
DelphiStringValue
p1504
(dp1505
g47
S'{'
sbsba(i__main__
DelphiIdentAccess
p1506
(dp1507
g356
S'remaining'
p1508
sg358
(lp1509
sbasbasbsg353
(i__main__
DelphiIdentAccess
p1510
(dp1511
g356
S'startPosition'
p1512
sg358
(lp1513
sbsba(idelphi
DelphiIfStatement
p1514
(dp1515
g379
(idelphi
DelphiRelOp
p1516
(dp1517
g382
(i__main__
DelphiIdentAccess
p1518
(dp1519
g356
S'startPosition'
p1520
sg358
(lp1521
sbsg387
(idelphi
DelphiIntegerValue
p1522
(dp1523
g47
S'0'
sbsg392
S'>'
sbsg393
(idelphi
DelphiCompoundStatement
p1524
(dp1525
g348
(lp1526
(i__main__
DelphiAssignStatement
p1527
(dp1528
g352
(i__main__
DelphiIdentAccess
p1529
(dp1530
g356
S'joinSentences'
p1531
sg358
(lp1532
(idelphi
DelphiFunctionEndAccess
p1533
(dp1534
g421
(lp1535
(i__main__
DelphiIdentAccess
p1536
(dp1537
g356
S'result'
p1538
sg358
(lp1539
sba(i__main__
DelphiIdentAccess
p1540
(dp1541
g356
S'remaining'
p1542
sg358
(lp1543
sbasbasbsg353
(i__main__
DelphiIdentAccess
p1544
(dp1545
g356
S'result'
p1546
sg358
(lp1547
sbsba(i__main__
DelphiExitStatement
p1548
(dp1549
g443
g1426
sbasbsg394
(idelphi
DelphiCompoundStatement
p1550
(dp1551
g348
(lp1552
(i__main__
DelphiAssignStatement
p1553
(dp1554
g352
(i__main__
DelphiIdentAccess
p1555
(dp1556
g356
S'Copy'
p1557
sg358
(lp1558
(idelphi
DelphiFunctionEndAccess
p1559
(dp1560
g421
(lp1561
(i__main__
DelphiIdentAccess
p1562
(dp1563
g356
S'remaining'
p1564
sg358
(lp1565
sba(idelphi
DelphiIntegerValue
p1566
(dp1567
g47
S'1'
sba(idelphi
DelphiAddOp
p1568
(dp1569
g666
S'-'
sg667
(idelphi
DelphiIntegerValue
p1570
(dp1571
g47
S'1'
sbsg672
(i__main__
DelphiIdentAccess
p1572
(dp1573
g356
S'startPosition'
p1574
sg358
(lp1575
sbsbasbasbsg353
(i__main__
DelphiIdentAccess
p1576
(dp1577
g356
S'toSay'
p1578
sg358
(lp1579
sbsba(i__main__
DelphiAssignStatement
p1580
(dp1581
g352
(i__main__
DelphiIdentAccess
p1582
(dp1583
g356
S'joinSentences'
p1584
sg358
(lp1585
(idelphi
DelphiFunctionEndAccess
p1586
(dp1587
g421
(lp1588
(i__main__
DelphiIdentAccess
p1589
(dp1590
g356
S'result'
p1591
sg358
(lp1592
sba(i__main__
DelphiIdentAccess
p1593
(dp1594
g356
S'toSay'
p1595
sg358
(lp1596
sbasbasbsg353
(i__main__
DelphiIdentAccess
p1597
(dp1598
g356
S'result'
p1599
sg358
(lp1600
sbsba(i__main__
DelphiAssignStatement
p1601
(dp1602
g352
(i__main__
DelphiIdentAccess
p1603
(dp1604
g356
S'Copy'
p1605
sg358
(lp1606
(idelphi
DelphiFunctionEndAccess
p1607
(dp1608
g421
(lp1609
(i__main__
DelphiIdentAccess
p1610
(dp1611
g356
S'remaining'
p1612
sg358
(lp1613
sba(idelphi
DelphiAddOp
p1614
(dp1615
g666
S'+'
sg667
(idelphi
DelphiIntegerValue
p1616
(dp1617
g47
S'1'
sbsg672
(i__main__
DelphiIdentAccess
p1618
(dp1619
g356
S'startPosition'
p1620
sg358
(lp1621
sbsba(i__main__
DelphiIdentAccess
p1622
(dp1623
g356
S'wholeLength'
p1624
sg358
(lp1625
sbasbasbsg353
(i__main__
DelphiIdentAccess
p1626
(dp1627
g356
S'remaining'
p1628
sg358
(lp1629
sbsbasbsba(i__main__
DelphiAssignStatement
p1630
(dp1631
g352
(i__main__
DelphiIdentAccess
p1632
(dp1633
g356
S'pos'
p1634
sg358
(lp1635
(idelphi
DelphiFunctionEndAccess
p1636
(dp1637
g421
(lp1638
(idelphi
DelphiStringAccess
p1639
(dp1640
g358
(lp1641
sg47
(idelphi
DelphiStringValue
p1642
(dp1643
g47
S'}'
sbsba(i__main__
DelphiIdentAccess
p1644
(dp1645
g356
S'remaining'
p1646
sg358
(lp1647
sbasbasbsg353
(i__main__
DelphiIdentAccess
p1648
(dp1649
g356
S'endPosition'
p1650
sg358
(lp1651
sbsba(idelphi
DelphiIfStatement
p1652
(dp1653
g379
(idelphi
DelphiRelOp
p1654
(dp1655
g382
(i__main__
DelphiIdentAccess
p1656
(dp1657
g356
S'endPosition'
p1658
sg358
(lp1659
sbsg387
(idelphi
DelphiIntegerValue
p1660
(dp1661
g47
S'0'
sbsg392
S'='
sbsg393
Nsg394
(idelphi
DelphiCompoundStatement
p1662
(dp1663
g348
(lp1664
(i__main__
DelphiAssignStatement
p1665
(dp1666
g352
(i__main__
DelphiIdentAccess
p1667
(dp1668
g356
S'joinSentences'
p1669
sg358
(lp1670
(idelphi
DelphiFunctionEndAccess
p1671
(dp1672
g421
(lp1673
(i__main__
DelphiIdentAccess
p1674
(dp1675
g356
S'result'
p1676
sg358
(lp1677
sba(i__main__
DelphiIdentAccess
p1678
(dp1679
g356
S'remaining'
p1680
sg358
(lp1681
sbasbasbsg353
(i__main__
DelphiIdentAccess
p1682
(dp1683
g356
S'result'
p1684
sg358
(lp1685
sbsg364
(lp1686
S' error - unmatched braces\r'
p1687
asba(i__main__
DelphiExitStatement
p1688
(dp1689
g443
g1426
sbasbsba(i__main__
DelphiAssignStatement
p1690
(dp1691
g352
(i__main__
DelphiIdentAccess
p1692
(dp1693
g356
S'Copy'
p1694
sg358
(lp1695
(idelphi
DelphiFunctionEndAccess
p1696
(dp1697
g421
(lp1698
(i__main__
DelphiIdentAccess
p1699
(dp1700
g356
S'remaining'
p1701
sg358
(lp1702
sba(idelphi
DelphiIntegerValue
p1703
(dp1704
g47
S'1'
sba(idelphi
DelphiAddOp
p1705
(dp1706
g666
S'-'
sg667
(idelphi
DelphiIntegerValue
p1707
(dp1708
g47
S'1'
sbsg672
(i__main__
DelphiIdentAccess
p1709
(dp1710
g356
S'endPosition'
p1711
sg358
(lp1712
sbsbasbasbsg353
(i__main__
DelphiIdentAccess
p1713
(dp1714
g356
S'macro'
p1715
sg358
(lp1716
sbsba(i__main__
DelphiAssignStatement
p1717
(dp1718
g352
(i__main__
DelphiIdentAccess
p1719
(dp1720
g356
S'Copy'
p1721
sg358
(lp1722
(idelphi
DelphiFunctionEndAccess
p1723
(dp1724
g421
(lp1725
(i__main__
DelphiIdentAccess
p1726
(dp1727
g356
S'remaining'
p1728
sg358
(lp1729
sba(idelphi
DelphiAddOp
p1730
(dp1731
g666
S'+'
sg667
(idelphi
DelphiIntegerValue
p1732
(dp1733
g47
S'1'
sbsg672
(i__main__
DelphiIdentAccess
p1734
(dp1735
g356
S'endPosition'
p1736
sg358
(lp1737
sbsba(i__main__
DelphiIdentAccess
p1738
(dp1739
g356
S'wholeLength'
p1740
sg358
(lp1741
sbasbasbsg353
(i__main__
DelphiIdentAccess
p1742
(dp1743
g356
S'remaining'
p1744
sg358
(lp1745
sbsbasbsS'whileExpression'
p1746
(idelphi
DelphiNestedExpressionListAccess
p1747
(dp1748
g358
(lp1749
sg421
(lp1750
(idelphi
DelphiRelOp
p1751
(dp1752
g382
(i__main__
DelphiIdentAccess
p1753
(dp1754
g356
S'Length'
p1755
sg358
(lp1756
(idelphi
DelphiFunctionEndAccess
p1757
(dp1758
g421
(lp1759
(i__main__
DelphiIdentAccess
p1760
(dp1761
g356
S'remaining'
p1762
sg358
(lp1763
sbasbasbsg387
(idelphi
DelphiIntegerValue
p1764
(dp1765
g47
S'0'
sbsg392
S'>'
sbasbsbasbsg928
(lp1766
(i__main__
DelphiVarSection
p1767
(dp1768
g932
I0
sg933
(lp1769
(idelphi
DelphiVarDecl
p1770
(dp1771
g937
Nsg938
(lp1772
S'remaining'
p1773
aS'macro'
p1774
aS'toSay'
p1775
asg43
(i__main__
DelphiPrimitiveType
p1776
(dp1777
g46
g47
sbsba(idelphi
DelphiVarDecl
p1778
(dp1779
g937
Nsg938
(lp1780
S'startPosition'
p1781
aS'endPosition'
p1782
aS'wholeLength'
p1783
asg43
(i__main__
DelphiPrimitiveType
p1784
(dp1785
g46
g289
sbsbasbasbsbsS'listenforphrasecaptioncommand'
p1786
(i__main__
DelphiMethodImplementation
p1787
(dp1788
g322
g86
sg27
g88
sg35
(lp1789
(i__main__
DelphiFormalParameter
p1790
(dp1791
g39
Nsg40
(lp1792
S'listenFor'
p1793
asg43
(i__main__
DelphiPrimitiveType
p1794
(dp1795
g46
g47
sbsg48
g49
sba(i__main__
DelphiFormalParameter
p1796
(dp1797
g39
Nsg40
(lp1798
S'commandCaption'
p1799
asg43
(i__main__
DelphiPrimitiveType
p1800
(dp1801
g46
g47
sbsg48
g49
sba(i__main__
DelphiFormalParameter
p1802
(dp1803
g39
Nsg40
(lp1804
S'command'
p1805
asg43
(i__main__
DelphiPrimitiveType
p1806
(dp1807
g46
g47
sbsg48
g49
sbasg330
(lp1808
sg332
(lp1809
sg334
(lp1810
g336
ag1793
ag1799
ag1805
asg337
(dp1811
g1793
g1794
sg1805
g1806
sg1799
g1800
ssg50
S'TSSpeechSystem'
p1812
sg51
Nsg340
(lp1813
sg52
I0
sg53
g54
sg342
(i__main__
DelphiBlock
p1814
(dp1815
g345
(idelphi
DelphiCompoundStatement
p1816
(dp1817
g348
(lp1818
(idelphi
DelphiIfStatement
p1819
(dp1820
g379
(idelphi
DelphiAddOp
p1821
(dp1822
g666
S'or'
p1823
sg667
(idelphi
DelphiNestedExpressionListAccess
p1824
(dp1825
g358
(lp1826
sg421
(lp1827
(idelphi
DelphiRelOp
p1828
(dp1829
g382
(i__main__
DelphiIdentAccess
p1830
(dp1831
g356
S'commandCaption'
p1832
sg358
(lp1833
sbsg387
(idelphi
DelphiStringAccess
p1834
(dp1835
g358
(lp1836
sg47
(idelphi
DelphiStringValue
p1837
(dp1838
g47
S''
sbsbsg392
S'='
sbasbsg672
(idelphi
DelphiAddOp
p1839
(dp1840
g666
g1823
sg667
(idelphi
DelphiNestedExpressionListAccess
p1841
(dp1842
g358
(lp1843
sg421
(lp1844
(idelphi
DelphiRelOp
p1845
(dp1846
g382
(i__main__
DelphiIdentAccess
p1847
(dp1848
g356
S'command'
p1849
sg358
(lp1850
sbsg387
(idelphi
DelphiStringAccess
p1851
(dp1852
g358
(lp1853
sg47
(idelphi
DelphiStringValue
p1854
(dp1855
g47
S''
sbsbsg392
S'='
sbasbsg672
(idelphi
DelphiNestedExpressionListAccess
p1856
(dp1857
g358
(lp1858
sg421
(lp1859
(idelphi
DelphiRelOp
p1860
(dp1861
g382
(i__main__
DelphiIdentAccess
p1862
(dp1863
g356
S'listenFor'
p1864
sg358
(lp1865
sbsg387
(idelphi
DelphiStringAccess
p1866
(dp1867
g358
(lp1868
sg47
(idelphi
DelphiStringValue
p1869
(dp1870
g47
S''
sbsbsg392
S'='
sbasbsbsbsg393
Nsg394
(i__main__
DelphiExitStatement
p1871
(dp1872
g443
g1787
sbsba(idelphi
DelphiIfStatement
p1873
(dp1874
g379
(i__main__
DelphiIdentAccess
p1875
(dp1876
g356
S'usingSpeech'
p1877
sg358
(lp1878
sbsg393
Nsg394
(i__main__
DelphiAssignStatement
p1879
(dp1880
g352
Nsg353
(i__main__
DelphiIdentAccess
p1881
(dp1882
g356
S'agent'
p1883
sg358
(lp1884
(idelphi
DelphiFieldEndAccess
p1885
(dp1886
g362
S'Characters'
p1887
sba(idelphi
DelphiArrayEndAccess
p1888
(dp1889
g421
(lp1890
(i__main__
DelphiIdentAccess
p1891
(dp1892
g356
S'agentName'
p1893
sg358
(lp1894
sbasba(idelphi
DelphiFieldEndAccess
p1895
(dp1896
g362
S'Commands'
p1897
sba(idelphi
DelphiFieldEndAccess
p1898
(dp1899
g362
S'Add'
p1900
sba(idelphi
DelphiFunctionEndAccess
p1901
(dp1902
g421
(lp1903
(i__main__
DelphiIdentAccess
p1904
(dp1905
g356
S'commandCaption'
p1906
sg358
(lp1907
sba(i__main__
DelphiIdentAccess
p1908
(dp1909
g356
S'commandCaption'
p1910
sg358
(lp1911
sba(i__main__
DelphiIdentAccess
p1912
(dp1913
g356
S'listenFor'
p1914
sg358
(lp1915
sba(i__main__
DelphiIdentAccess
p1916
(dp1917
g356
S'true'
p1918
sg358
(lp1919
sba(i__main__
DelphiIdentAccess
p1920
(dp1921
g356
S'true'
p1922
sg358
(lp1923
sbasbasbsbsba(i__main__
DelphiAssignStatement
p1924
(dp1925
g352
Nsg353
(i__main__
DelphiIdentAccess
p1926
(dp1927
g356
S'commandsListenedFor'
p1928
sg358
(lp1929
(idelphi
DelphiFieldEndAccess
p1930
(dp1931
g362
S'add'
p1932
sba(idelphi
DelphiFunctionEndAccess
p1933
(dp1934
g421
(lp1935
(i__main__
DelphiIdentAccess
p1936
(dp1937
g356
S'command'
p1938
sg358
(lp1939
sbasbasbsbasbsg928
(lp1940
sbsbsS'speaktext'
p1941
(i__main__
DelphiMethodImplementation
p1942
(dp1943
g322
g109
sg27
g111
sg35
(lp1944
(i__main__
DelphiFormalParameter
p1945
(dp1946
g39
Nsg40
(lp1947
S'somethingToSay'
p1948
asg43
(i__main__
DelphiPrimitiveType
p1949
(dp1950
g46
g47
sbsg48
g49
sbasg330
(lp1951
sg332
(lp1952
sg334
(lp1953
g336
ag1948
asg337
(dp1954
g1948
g1949
ssg50
S'TSSpeechSystem'
p1955
sg51
Nsg340
(lp1956
sg52
I0
sg53
g54
sg342
(i__main__
DelphiBlock
p1957
(dp1958
g345
(idelphi
DelphiCompoundStatement
p1959
(dp1960
g348
(lp1961
(idelphi
DelphiIfStatement
p1962
(dp1963
g379
(idelphi
DelphiNot
p1964
(dp1965
g599
(i__main__
DelphiIdentAccess
p1966
(dp1967
g356
S'usingSpeech'
p1968
sg358
(lp1969
sbsbsg393
Nsg394
(i__main__
DelphiExitStatement
p1970
(dp1971
g443
g1942
sbsba(idelphi
DelphiIfStatement
p1972
(dp1973
g379
(idelphi
DelphiNot
p1974
(dp1975
g599
(i__main__
DelphiIdentAccess
p1976
(dp1977
g356
S'domain'
p1978
sg358
(lp1979
(idelphi
DelphiFieldEndAccess
p1980
(dp1981
g362
S'options'
p1982
sba(idelphi
DelphiFieldEndAccess
p1983
(dp1984
g362
S'playerSpeak'
p1985
sbasbsbsg393
Nsg394
(i__main__
DelphiExitStatement
p1986
(dp1987
g443
g1942
sbsba(i__main__
DelphiAssignStatement
p1988
(dp1989
g352
Nsg353
(i__main__
DelphiIdentAccess
p1990
(dp1991
g356
S'agent'
p1992
sg358
(lp1993
(idelphi
DelphiFieldEndAccess
p1994
(dp1995
g362
S'Characters'
p1996
sba(idelphi
DelphiArrayEndAccess
p1997
(dp1998
g421
(lp1999
(i__main__
DelphiIdentAccess
p2000
(dp2001
g356
S'agentName'
p2002
sg358
(lp2003
sbasba(idelphi
DelphiFieldEndAccess
p2004
(dp2005
g362
S'Speak'
p2006
sba(idelphi
DelphiFunctionEndAccess
p2007
(dp2008
g421
(lp2009
(i__main__
DelphiIdentAccess
p2010
(dp2011
g356
S'somethingToSay'
p2012
sg358
(lp2013
sba(idelphi
DelphiStringAccess
p2014
(dp2015
g358
(lp2016
sg47
(idelphi
DelphiStringValue
p2017
(dp2018
g47
S''
sbsbasbasbsbasbsg928
(lp2019
sbsbsS'destroy'
p2020
(i__main__
DelphiMethodImplementation
p2021
(dp2022
g322
g120
sg27
g122
sg35
(lp2023
sg330
(lp2024
sg332
(lp2025
sg334
(lp2026
g336
asg337
(dp2027
sg50
S'TSSpeechSystem'
p2028
sg51
Nsg340
(lp2029
sg52
I0
sg53
g124
sg342
(i__main__
DelphiBlock
p2030
(dp2031
g345
(idelphi
DelphiCompoundStatement
p2032
(dp2033
g348
(lp2034
(i__main__
DelphiAssignStatement
p2035
(dp2036
g352
Nsg353
(i__main__
DelphiIdentAccess
p2037
(dp2038
g356
S'commandsListenedFor'
p2039
sg358
(lp2040
(idelphi
DelphiFieldEndAccess
p2041
(dp2042
g362
S'free'
p2043
sbasbsba(i__main__
DelphiAssignStatement
p2044
(dp2045
g352
(idelphi
DelphiNilValue
p2046
(dp2047
bsg353
(i__main__
DelphiIdentAccess
p2048
(dp2049
g356
S'commandsListenedFor'
p2050
sg358
(lp2051
sbsba(i__main__
DelphiAssignStatement
p2052
(dp2053
g352
Nsg353
(i__main__
DelphiIdentAccess
p2054
(dp2055
g356
S'self'
p2056
sg358
(lp2057
(idelphi
DelphiFieldEndAccess
p2058
(dp2059
g362
S'disconnectFromSpeechEngine'
p2060
sbasbsba(idelphi
DelphiIfStatement
p2061
(dp2062
g379
(idelphi
DelphiNot
p2063
(dp2064
g599
(i__main__
DelphiIdentAccess
p2065
(dp2066
g356
S'systemShuttingDown'
p2067
sg358
(lp2068
sbsbsg393
Nsg394
(idelphi
DelphiCompoundStatement
p2069
(dp2070
g348
(lp2071
(i__main__
DelphiAssignStatement
p2072
(dp2073
g352
Nsg353
(i__main__
DelphiIdentAccess
p2074
(dp2075
g356
S'agent'
p2076
sg358
(lp2077
(idelphi
DelphiFieldEndAccess
p2078
(dp2079
g362
S'free'
p2080
sbasbsba(i__main__
DelphiAssignStatement
p2081
(dp2082
g352
(idelphi
DelphiNilValue
p2083
(dp2084
bsg353
(i__main__
DelphiIdentAccess
p2085
(dp2086
g356
S'agent'
p2087
sg358
(lp2088
sbsbasbsba(i__main__
DelphiAssignStatement
p2089
(dp2090
g352
Nsg353
(idelphi
DelphiInheritedCall
p2091
(dp2092
g356
S'Destroy'
p2093
sg421
Nsbsbasbsg928
(lp2094
sbsg364
(lp2095
S'looks like bug in Agent that if shutting down will hang'
p2096
asbsS'hideriddleanswerforcommand'
p2097
(i__main__
DelphiMethodImplementation
p2098
(dp2099
g322
g126
sg27
g128
sg35
(lp2100
(i__main__
DelphiFormalParameter
p2101
(dp2102
g39
Nsg40
(lp2103
S'aString'
p2104
asg43
(i__main__
DelphiPrimitiveType
p2105
(dp2106
g46
g47
sbsg48
g49
sbasg330
(lp2107
sg332
(lp2108
sg334
(lp2109
g336
ag2104
asg337
(dp2110
g2104
g2105
ssg50
S'TSSpeechSystem'
p2111
sg51
(i__main__
DelphiPrimitiveType
p2112
(dp2113
g46
g47
sbsg340
(lp2114
sg52
I0
sg53
g84
sg342
(i__main__
DelphiBlock
p2115
(dp2116
g345
(idelphi
DelphiCompoundStatement
p2117
(dp2118
g348
(lp2119
(idelphi
DelphiIfStatement
p2120
(dp2121
g379
(idelphi
DelphiRelOp
p2122
(dp2123
g382
(i__main__
DelphiIdentAccess
p2124
(dp2125
g356
S'Pos'
p2126
sg358
(lp2127
(idelphi
DelphiFunctionEndAccess
p2128
(dp2129
g421
(lp2130
(idelphi
DelphiStringAccess
p2131
(dp2132
g358
(lp2133
sg47
(idelphi
DelphiStringValue
p2134
(dp2135
g47
S'$'
sbsba(i__main__
DelphiIdentAccess
p2136
(dp2137
g356
S'aString'
p2138
sg358
(lp2139
sbasbasbsg387
(idelphi
DelphiIntegerValue
p2140
(dp2141
g47
S'1'
sbsg392
S'='
sbsg393
(i__main__
DelphiAssignStatement
p2142
(dp2143
g352
(i__main__
DelphiIdentAccess
p2144
(dp2145
g356
S'aString'
p2146
sg358
(lp2147
sbsg353
(i__main__
DelphiIdentAccess
p2148
(dp2149
g356
S'result'
p2150
sg358
(lp2151
sbsbsg394
(idelphi
DelphiCompoundStatement
p2152
(dp2153
g348
(lp2154
(idelphi
DelphiIfStatement
p2155
(dp2156
g379
(idelphi
DelphiRelOp
p2157
(dp2158
g382
(i__main__
DelphiIdentAccess
p2159
(dp2160
g356
S'riddleIndex'
p2161
sg358
(lp2162
sbsg387
(idelphi
DelphiIntegerValue
p2163
(dp2164
g47
S'1'
sbsg392
S'='
sbsg393
(idelphi
DelphiIfStatement
p2165
(dp2166
g379
(idelphi
DelphiRelOp
p2167
(dp2168
g382
(i__main__
DelphiIdentAccess
p2169
(dp2170
g356
S'riddleIndex'
p2171
sg358
(lp2172
sbsg387
(idelphi
DelphiIntegerValue
p2173
(dp2174
g47
S'2'
sbsg392
S'='
sbsg393
(i__main__
DelphiAssignStatement
p2175
(dp2176
g352
(idelphi
DelphiAddOp
p2177
(dp2178
g666
S'+'
sg667
(i__main__
DelphiIdentAccess
p2179
(dp2180
g356
S'IntToStr'
p2181
sg358
(lp2182
(idelphi
DelphiFunctionEndAccess
p2183
(dp2184
g421
(lp2185
(i__main__
DelphiIdentAccess
p2186
(dp2187
g356
S'riddleIndex'
p2188
sg358
(lp2189
sbasbasbsg672
(idelphi
DelphiStringAccess
p2190
(dp2191
g358
(lp2192
sg47
(idelphi
DelphiStringValue
p2193
(dp2194
g47
S'say yet another answer for a riddle - number '
p2195
sbsbsbsg353
(i__main__
DelphiIdentAccess
p2196
(dp2197
g356
S'result'
p2198
sg358
(lp2199
sbsbsg394
(i__main__
DelphiAssignStatement
p2200
(dp2201
g352
(idelphi
DelphiStringAccess
p2202
(dp2203
g358
(lp2204
sg47
(idelphi
DelphiStringValue
p2205
(dp2206
g47
S'say another answer for a riddle'
p2207
sbsbsg353
(i__main__
DelphiIdentAccess
p2208
(dp2209
g356
S'result'
p2210
sg358
(lp2211
sbsbsbsg394
(i__main__
DelphiAssignStatement
p2212
(dp2213
g352
(i__main__
DelphiIdentAccess
p2214
(dp2215
g356
S'firstRiddleAnswer'
p2216
sg358
(lp2217
sbsg353
(i__main__
DelphiIdentAccess
p2218
(dp2219
g356
S'result'
p2220
sg358
(lp2221
sbsbsba(i__main__
DelphiAssignStatement
p2222
(dp2223
g352
(idelphi
DelphiAddOp
p2224
(dp2225
g666
S'+'
sg667
(idelphi
DelphiIntegerValue
p2226
(dp2227
g47
S'1'
sbsg672
(i__main__
DelphiIdentAccess
p2228
(dp2229
g356
S'riddleIndex'
p2230
sg358
(lp2231
sbsbsg353
(i__main__
DelphiIdentAccess
p2232
(dp2233
g356
S'riddleIndex'
p2234
sg358
(lp2235
sbsbasbsbasbsg928
(lp2236
sbsbsS'listenforcommand'
p2237
(i__main__
DelphiMethodImplementation
p2238
(dp2239
g322
g139
sg27
g141
sg35
(lp2240
(i__main__
DelphiFormalParameter
p2241
(dp2242
g39
Nsg40
(lp2243
S'aString'
p2244
asg43
(i__main__
DelphiPrimitiveType
p2245
(dp2246
g46
g47
sbsg48
g49
sbasg330
(lp2247
sg332
(lp2248
sg334
(lp2249
g336
ag2244
asg337
(dp2250
g2244
g2245
ssg50
S'TSSpeechSystem'
p2251
sg51
Nsg340
(lp2252
sg52
I0
sg53
g54
sg342
(i__main__
DelphiBlock
p2253
(dp2254
g345
(idelphi
DelphiCompoundStatement
p2255
(dp2256
g348
(lp2257
(idelphi
DelphiIfStatement
p2258
(dp2259
g379
(idelphi
DelphiNestedExpressionListAccess
p2260
(dp2261
g358
(lp2262
sg421
(lp2263
(idelphi
DelphiRelOp
p2264
(dp2265
g382
(i__main__
DelphiIdentAccess
p2266
(dp2267
g356
S'commandsListenedFor'
p2268
sg358
(lp2269
(idelphi
DelphiFieldEndAccess
p2270
(dp2271
g362
S'indexOf'
p2272
sba(idelphi
DelphiFunctionEndAccess
p2273
(dp2274
g421
(lp2275
(i__main__
DelphiIdentAccess
p2276
(dp2277
g356
S'aString'
p2278
sg358
(lp2279
sbasbasbsg387
(idelphi
DelphiSign
p2280
(dp2281
g599
(idelphi
DelphiIntegerValue
p2282
(dp2283
g47
S'1'
sbsg651
S'-'
sbsg392
S'='
sbasbsg393
Nsg394
(idelphi
DelphiCompoundStatement
p2284
(dp2285
g348
(lp2286
(i__main__
DelphiAssignStatement
p2287
(dp2288
g352
(i__main__
DelphiIdentAccess
p2289
(dp2290
g356
S'self'
p2291
sg358
(lp2292
(idelphi
DelphiFieldEndAccess
p2293
(dp2294
g362
S'hideRiddleAnswerForCommand'
p2295
sba(idelphi
DelphiFunctionEndAccess
p2296
(dp2297
g421
(lp2298
(i__main__
DelphiIdentAccess
p2299
(dp2300
g356
S'aString'
p2301
sg358
(lp2302
sbasbasbsg353
(i__main__
DelphiIdentAccess
p2303
(dp2304
g356
S'commandCaption'
p2305
sg358
(lp2306
sbsba(idelphi
DelphiIfStatement
p2307
(dp2308
g379
(idelphi
DelphiRelOp
p2309
(dp2310
g382
(i__main__
DelphiIdentAccess
p2311
(dp2312
g356
S'commandCaption'
p2313
sg358
(lp2314
sbsg387
(i__main__
DelphiIdentAccess
p2315
(dp2316
g356
S'aString'
p2317
sg358
(lp2318
sbsg392
g1048
sbsg393
(i__main__
DelphiAssignStatement
p2319
(dp2320
g352
(i__main__
DelphiIdentAccess
p2321
(dp2322
g356
S'aString'
p2323
sg358
(lp2324
sbsg353
(i__main__
DelphiIdentAccess
p2325
(dp2326
g356
S'listenFor'
p2327
sg358
(lp2328
sbsbsg394
(i__main__
DelphiAssignStatement
p2329
(dp2330
g352
(i__main__
DelphiIdentAccess
p2331
(dp2332
g356
S'Trim'
p2333
sg358
(lp2334
(idelphi
DelphiFunctionEndAccess
p2335
(dp2336
g421
(lp2337
(i__main__
DelphiIdentAccess
p2338
(dp2339
g356
S'Copy'
p2340
sg358
(lp2341
(idelphi
DelphiFunctionEndAccess
p2342
(dp2343
g421
(lp2344
(i__main__
DelphiIdentAccess
p2345
(dp2346
g356
S'aString'
p2347
sg358
(lp2348
sba(idelphi
DelphiIntegerValue
p2349
(dp2350
g47
S'2'
sba(i__main__
DelphiIdentAccess
p2351
(dp2352
g356
S'Length'
p2353
sg358
(lp2354
(idelphi
DelphiFunctionEndAccess
p2355
(dp2356
g421
(lp2357
(i__main__
DelphiIdentAccess
p2358
(dp2359
g356
S'aString'
p2360
sg358
(lp2361
sbasbasbasbasbasbasbsg353
(i__main__
DelphiIdentAccess
p2362
(dp2363
g356
S'listenFor'
p2364
sg358
(lp2365
sbsbsba(i__main__
DelphiAssignStatement
p2366
(dp2367
g352
Nsg353
(i__main__
DelphiIdentAccess
p2368
(dp2369
g356
S'self'
p2370
sg358
(lp2371
(idelphi
DelphiFieldEndAccess
p2372
(dp2373
g362
S'listenForPhraseCaptionCommand'
p2374
sba(idelphi
DelphiFunctionEndAccess
p2375
(dp2376
g421
(lp2377
(i__main__
DelphiIdentAccess
p2378
(dp2379
g356
S'listenFor'
p2380
sg358
(lp2381
sba(i__main__
DelphiIdentAccess
p2382
(dp2383
g356
S'commandCaption'
p2384
sg358
(lp2385
sba(i__main__
DelphiIdentAccess
p2386
(dp2387
g356
S'aString'
p2388
sg358
(lp2389
sbasbasbsbasbsbasbsg928
(lp2390
(i__main__
DelphiVarSection
p2391
(dp2392
g932
I0
sg933
(lp2393
(idelphi
DelphiVarDecl
p2394
(dp2395
g937
Nsg938
(lp2396
S'listenFor'
p2397
asg43
(i__main__
DelphiPrimitiveType
p2398
(dp2399
g46
g47
sbsba(idelphi
DelphiVarDecl
p2400
(dp2401
g937
Nsg938
(lp2402
S'commandCaption'
p2403
asg43
(i__main__
DelphiPrimitiveType
p2404
(dp2405
g46
g47
sbsbasbasbsbsS'checkforsayoptionsmacro'
p2406
(i__main__
DelphiMethodImplementation
p2407
(dp2408
g322
g150
sg27
g152
sg35
(lp2409
sg330
(lp2410
sg332
(lp2411
sg334
(lp2412
g336
asg337
(dp2413
sg50
S'TSSpeechSystem'
p2414
sg51
Nsg340
(lp2415
sg52
I0
sg53
g54
sg342
(i__main__
DelphiBlock
p2416
(dp2417
g345
(idelphi
DelphiCompoundStatement
p2418
(dp2419
g348
(lp2420
(idelphi
DelphiIfStatement
p2421
(dp2422
g379
(idelphi
DelphiNot
p2423
(dp2424
g599
(i__main__
DelphiIdentAccess
p2425
(dp2426
g356
S'sayOptionsMacroInForce'
p2427
sg358
(lp2428
sbsbsg393
Nsg394
(i__main__
DelphiExitStatement
p2429
(dp2430
g443
g2407
sbsba(idelphi
DelphiTryFinallyStatement
p2431
(dp2432
g1128
(lp2433
(i__main__
DelphiAssignStatement
p2434
(dp2435
g352
Nsg353
(i__main__
DelphiIdentAccess
p2436
(dp2437
g356
S'self'
p2438
sg358
(lp2439
(idelphi
DelphiFieldEndAccess
p2440
(dp2441
g362
S'sayOptions'
p2442
sbasbsbasg1240
(lp2443
(i__main__
DelphiAssignStatement
p2444
(dp2445
g352
(i__main__
DelphiIdentAccess
p2446
(dp2447
g356
S'false'
p2448
sg358
(lp2449
sbsg353
(i__main__
DelphiIdentAccess
p2450
(dp2451
g356
S'sayOptionsMacroInForce'
p2452
sg358
(lp2453
sbsbasbasbsg928
(lp2454
sbsg364
(lp2455
S' cfk added\r'
p2456
asbsS'agentcommand'
p2457
(i__main__
DelphiMethodImplementation
p2458
(dp2459
g322
g155
sg27
g157
sg35
(lp2460
(i__main__
DelphiFormalParameter
p2461
(dp2462
g39
Nsg40
(lp2463
S'Sender'
p2464
asg43
(i__main__
DelphiNamedType
p2465
(dp2466
g46
S'TObject'
p2467
sg166
g1
sg167
Nsbsg48
Nsba(i__main__
DelphiFormalParameter
p2468
(dp2469
g39
Nsg40
(lp2470
S'UserInput'
p2471
asg43
(i__main__
DelphiNamedType
p2472
(dp2473
g46
S'IDispatch'
p2474
sg166
g1
sg167
Nsbsg48
Nsbasg330
(lp2475
sg332
(lp2476
sg334
(lp2477
g336
ag2464
ag2471
asg337
(dp2478
g2471
g2472
sg2464
g2465
ssg50
S'TSSpeechSystem'
p2479
sg51
Nsg340
(lp2480
sg52
I0
sg53
g54
sg342
(i__main__
DelphiBlock
p2481
(dp2482
g345
(idelphi
DelphiCompoundStatement
p2483
(dp2484
g348
(lp2485
(i__main__
DelphiAssignStatement
p2486
(dp2487
g352
(i__main__
DelphiIdentAccess
p2488
(dp2489
g356
S'IAgentCtlUserInput'
p2490
sg358
(lp2491
(idelphi
DelphiFunctionEndAccess
p2492
(dp2493
g421
(lp2494
(i__main__
DelphiIdentAccess
p2495
(dp2496
g356
S'UserInput'
p2497
sg358
(lp2498
sbasba(idelphi
DelphiFieldEndAccess
p2499
(dp2500
g362
S'Voice'
p2501
sbasbsg353
(i__main__
DelphiIdentAccess
p2502
(dp2503
g356
S'commandString'
p2504
sg358
(lp2505
sbsba(idelphi
DelphiIfStatement
p2506
(dp2507
g379
(idelphi
DelphiRelOp
p2508
(dp2509
g382
(i__main__
DelphiIdentAccess
p2510
(dp2511
g356
S'commandString'
p2512
sg358
(lp2513
sbsg387
(idelphi
DelphiStringAccess
p2514
(dp2515
g358
(lp2516
sg47
(idelphi
DelphiStringValue
p2517
(dp2518
g47
S''
sbsbsg392
g1048
sbsg393
Nsg394
(idelphi
DelphiCompoundStatement
p2519
(dp2520
g348
(lp2521
(i__main__
DelphiAssignStatement
p2522
(dp2523
g352
Nsg353
(i__main__
DelphiIdentAccess
p2524
(dp2525
g356
S'self'
p2526
sg358
(lp2527
(idelphi
DelphiFieldEndAccess
p2528
(dp2529
g362
S'doCommand'
p2530
sba(idelphi
DelphiFunctionEndAccess
p2531
(dp2532
g421
(lp2533
(i__main__
DelphiIdentAccess
p2534
(dp2535
g356
S'commandString'
p2536
sg358
(lp2537
sbasbasbsg364
(lp2538
S" I don't know why blank entries get sent\r"
p2539
asba(idelphi
DelphiIfStatement
p2540
(dp2541
g379
(i__main__
DelphiIdentAccess
p2542
(dp2543
g356
S'domain'
p2544
sg358
(lp2545
(idelphi
DelphiFieldEndAccess
p2546
(dp2547
g362
S'options'
p2548
sba(idelphi
DelphiFieldEndAccess
p2549
(dp2550
g362
S'updateEditorAfterCommandDone'
p2551
sbasbsg393
Nsg394
(i__main__
DelphiAssignStatement
p2552
(dp2553
g352
Nsg353
(i__main__
DelphiIdentAccess
p2554
(dp2555
g356
S'RuleEditorForm'
p2556
sg358
(lp2557
(idelphi
DelphiFieldEndAccess
p2558
(dp2559
g362
S'trackLastCommand'
p2560
sbasbsbsbasbsbasbsg928
(lp2561
(i__main__
DelphiVarSection
p2562
(dp2563
g932
I0
sg933
(lp2564
(idelphi
DelphiVarDecl
p2565
(dp2566
g937
Nsg938
(lp2567
S'commandString'
p2568
asg43
(i__main__
DelphiPrimitiveType
p2569
(dp2570
g46
g47
sbsbasbasbsbsS'listenforavailablecommands'
p2571
(i__main__
DelphiMethodImplementation
p2572
(dp2573
g322
g176
sg27
g178
sg35
(lp2574
sg330
(lp2575
sg332
(lp2576
sg334
(lp2577
g336
asg337
(dp2578
sg50
S'TSSpeechSystem'
p2579
sg51
Nsg340
(lp2580
sg52
I0
sg53
g54
sg342
(i__main__
DelphiBlock
p2581
(dp2582
g345
(idelphi
DelphiCompoundStatement
p2583
(dp2584
g348
(lp2585
(i__main__
DelphiAssignStatement
p2586
(dp2587
g352
Nsg353
(i__main__
DelphiIdentAccess
p2588
(dp2589
g356
S'self'
p2590
sg358
(lp2591
(idelphi
DelphiFieldEndAccess
p2592
(dp2593
g362
S'clearVoiceCommands'
p2594
sbasbsba(i__main__
DelphiAssignStatement
p2595
(dp2596
g352
Nsg353
(i__main__
DelphiIdentAccess
p2597
(dp2598
g356
S'commandsListenedFor'
p2599
sg358
(lp2600
(idelphi
DelphiFieldEndAccess
p2601
(dp2602
g362
S'clear'
p2603
sbasbsba(i__main__
DelphiAssignStatement
p2604
(dp2605
g352
Nsg353
(i__main__
DelphiIdentAccess
p2606
(dp2607
g356
S'ConsoleForm'
p2608
sg358
(lp2609
(idelphi
DelphiFieldEndAccess
p2610
(dp2611
g362
S'VisibleCommandsList'
p2612
sba(idelphi
DelphiFieldEndAccess
p2613
(dp2614
g362
S'clear'
p2615
sbasbsba(i__main__
DelphiAssignStatement
p2616
(dp2617
g352
(idelphi
DelphiIntegerValue
p2618
(dp2619
g47
S'1'
sbsg353
(i__main__
DelphiIdentAccess
p2620
(dp2621
g356
S'riddleIndex'
p2622
sg358
(lp2623
sbsba(idelphi
DelphiIfStatement
p2624
(dp2625
g379
(idelphi
DelphiRelOp
p2626
(dp2627
g382
(i__main__
DelphiIdentAccess
p2628
(dp2629
g356
S'domain'
p2630
sg358
(lp2631
(idelphi
DelphiFieldEndAccess
p2632
(dp2633
g362
S'world'
p2634
sba(idelphi
DelphiFieldEndAccess
p2635
(dp2636
g362
S'rules'
p2637
sba(idelphi
DelphiFieldEndAccess
p2638
(dp2639
g362
S'count'
p2640
sbasbsg387
(idelphi
DelphiIntegerValue
p2641
(dp2642
g47
S'0'
sbsg392
S'<='
p2643
sbsg393
Nsg394
(i__main__
DelphiExitStatement
p2644
(dp2645
g443
g2572
sbsba(i__main__
DelphiAssignStatement
p2646
(dp2647
g352
Nsg353
(i__main__
DelphiIdentAccess
p2648
(dp2649
g356
S'self'
p2650
sg358
(lp2651
(idelphi
DelphiFieldEndAccess
p2652
(dp2653
g362
S'listenForCommand'
p2654
sba(idelphi
DelphiFunctionEndAccess
p2655
(dp2656
g421
(lp2657
(i__main__
DelphiIdentAccess
p2658
(dp2659
g356
S'commandListCommand'
p2660
sg358
(lp2661
sbasbasbsba(i__main__
DelphiAssignStatement
p2662
(dp2663
g352
Nsg353
(i__main__
DelphiIdentAccess
p2664
(dp2665
g356
S'self'
p2666
sg358
(lp2667
(idelphi
DelphiFieldEndAccess
p2668
(dp2669
g362
S'listenForCommand'
p2670
sba(idelphi
DelphiFunctionEndAccess
p2671
(dp2672
g421
(lp2673
(i__main__
DelphiIdentAccess
p2674
(dp2675
g356
S'repeatLastSayCommand'
p2676
sg358
(lp2677
sbasbasbsba(idelphi
DelphiIfStatement
p2678
(dp2679
g379
(i__main__
DelphiIdentAccess
p2680
(dp2681
g356
S'domain'
p2682
sg358
(lp2683
(idelphi
DelphiFieldEndAccess
p2684
(dp2685
g362
S'options'
p2686
sba(idelphi
DelphiFieldEndAccess
p2687
(dp2688
g362
S'useVoiceToUndo'
p2689
sbasbsg393
Nsg394
(i__main__
DelphiAssignStatement
p2690
(dp2691
g352
Nsg353
(i__main__
DelphiIdentAccess
p2692
(dp2693
g356
S'self'
p2694
sg358
(lp2695
(idelphi
DelphiFieldEndAccess
p2696
(dp2697
g362
S'listenForCommand'
p2698
sba(idelphi
DelphiFunctionEndAccess
p2699
(dp2700
g421
(lp2701
(i__main__
DelphiIdentAccess
p2702
(dp2703
g356
S'undoCommand'
p2704
sg358
(lp2705
sbasbasbsbsba(idelphi
DelphiIfStatement
p2706
(dp2707
g379
(i__main__
DelphiIdentAccess
p2708
(dp2709
g356
S'domain'
p2710
sg358
(lp2711
(idelphi
DelphiFieldEndAccess
p2712
(dp2713
g362
S'options'
p2714
sba(idelphi
DelphiFieldEndAccess
p2715
(dp2716
g362
S'useVoiceToRedo'
p2717
sbasbsg393
Nsg394
(i__main__
DelphiAssignStatement
p2718
(dp2719
g352
Nsg353
(i__main__
DelphiIdentAccess
p2720
(dp2721
g356
S'self'
p2722
sg358
(lp2723
(idelphi
DelphiFieldEndAccess
p2724
(dp2725
g362
S'listenForCommand'
p2726
sba(idelphi
DelphiFunctionEndAccess
p2727
(dp2728
g421
(lp2729
(i__main__
DelphiIdentAccess
p2730
(dp2731
g356
S'redoCommand'
p2732
sg358
(lp2733
sbasbasbsbsba(idelphi
DelphiForStatement
p2734
(dp2735
S'variable'
p2736
S'i'
sS'finalValue'
p2737
(idelphi
DelphiAddOp
p2738
(dp2739
g666
S'-'
sg667
(idelphi
DelphiIntegerValue
p2740
(dp2741
g47
S'1'
sbsg672
(i__main__
DelphiIdentAccess
p2742
(dp2743
g356
S'domain'
p2744
sg358
(lp2745
(idelphi
DelphiFieldEndAccess
p2746
(dp2747
g362
S'world'
p2748
sba(idelphi
DelphiFieldEndAccess
p2749
(dp2750
g362
S'rules'
p2751
sba(idelphi
DelphiFieldEndAccess
p2752
(dp2753
g362
S'count'
p2754
sbasbsbsS'direction'
p2755
S'to'
p2756
sg39
(idelphi
DelphiIntegerValue
p2757
(dp2758
g47
S'0'
sbsg1488
(idelphi
DelphiCompoundStatement
p2759
(dp2760
g348
(lp2761
(i__main__
DelphiAssignStatement
p2762
(dp2763
g352
(i__main__
DelphiIdentAccess
p2764
(dp2765
g356
S'TSRule'
p2766
sg358
(lp2767
(idelphi
DelphiFunctionEndAccess
p2768
(dp2769
g421
(lp2770
(i__main__
DelphiIdentAccess
p2771
(dp2772
g356
S'domain'
p2773
sg358
(lp2774
(idelphi
DelphiFieldEndAccess
p2775
(dp2776
g362
S'world'
p2777
sba(idelphi
DelphiFieldEndAccess
p2778
(dp2779
g362
S'rules'
p2780
sba(idelphi
DelphiFieldEndAccess
p2781
(dp2782
g362
S'items'
p2783
sba(idelphi
DelphiArrayEndAccess
p2784
(dp2785
g421
(lp2786
(i__main__
DelphiIdentAccess
p2787
(dp2788
g356
S'i'
sg358
(lp2789
sbasbasbasbasbsg353
(i__main__
DelphiIdentAccess
p2790
(dp2791
g356
S'rule'
p2792
sg358
(lp2793
sbsba(idelphi
DelphiIfStatement
p2794
(dp2795
g379
(i__main__
DelphiIdentAccess
p2796
(dp2797
g356
S'rule'
p2798
sg358
(lp2799
(idelphi
DelphiFieldEndAccess
p2800
(dp2801
g362
S'available'
p2802
sbasbsg393
Nsg394
(idelphi
DelphiCompoundStatement
p2803
(dp2804
g348
(lp2805
(idelphi
DelphiIfStatement
p2806
(dp2807
g379
(idelphi
DelphiRelOp
p2808
(dp2809
g382
(i__main__
DelphiIdentAccess
p2810
(dp2811
g356
S'rule'
p2812
sg358
(lp2813
(idelphi
DelphiFieldEndAccess
p2814
(dp2815
g362
S'command'
p2816
sba(idelphi
DelphiFieldEndAccess
p2817
(dp2818
g362
S'phrase'
p2819
sbasbsg387
(idelphi
DelphiStringAccess
p2820
(dp2821
g358
(lp2822
sg47
(idelphi
DelphiStringValue
p2823
(dp2824
g47
S''
sbsbsg392
S'='
sbsg393
Nsg394
(idelphi
DelphiContinueStatement
p2825
(dp2826
bsba(i__main__
DelphiAssignStatement
p2827
(dp2828
g352
Nsg353
(i__main__
DelphiIdentAccess
p2829
(dp2830
g356
S'self'
p2831
sg358
(lp2832
(idelphi
DelphiFieldEndAccess
p2833
(dp2834
g362
S'listenForCommand'
p2835
sba(idelphi
DelphiFunctionEndAccess
p2836
(dp2837
g421
(lp2838
(i__main__
DelphiIdentAccess
p2839
(dp2840
g356
S'rule'
p2841
sg358
(lp2842
(idelphi
DelphiFieldEndAccess
p2843
(dp2844
g362
S'command'
p2845
sba(idelphi
DelphiFieldEndAccess
p2846
(dp2847
g362
S'phrase'
p2848
sbasbasbasbsba(i__main__
DelphiAssignStatement
p2849
(dp2850
g352
(i__main__
DelphiIdentAccess
p2851
(dp2852
g356
S'rule'
p2853
sg358
(lp2854
(idelphi
DelphiFieldEndAccess
p2855
(dp2856
g362
S'command'
p2857
sba(idelphi
DelphiFieldEndAccess
p2858
(dp2859
g362
S'phrase'
p2860
sbasbsg353
(i__main__
DelphiIdentAccess
p2861
(dp2862
g356
S'command'
p2863
sg358
(lp2864
sbsba(idelphi
DelphiIfStatement
p2865
(dp2866
g379
(idelphi
DelphiNestedExpressionListAccess
p2867
(dp2868
g358
(lp2869
sg421
(lp2870
(idelphi
DelphiRelOp
p2871
(dp2872
g382
(i__main__
DelphiIdentAccess
p2873
(dp2874
g356
S'pos'
p2875
sg358
(lp2876
(idelphi
DelphiFunctionEndAccess
p2877
(dp2878
g421
(lp2879
(idelphi
DelphiStringAccess
p2880
(dp2881
g358
(lp2882
sg47
(idelphi
DelphiStringValue
p2883
(dp2884
g47
S'$'
sbsba(i__main__
DelphiIdentAccess
p2885
(dp2886
g356
S'rule'
p2887
sg358
(lp2888
(idelphi
DelphiFieldEndAccess
p2889
(dp2890
g362
S'command'
p2891
sba(idelphi
DelphiFieldEndAccess
p2892
(dp2893
g362
S'phrase'
p2894
sbasbasbasbsg387
(idelphi
DelphiIntegerValue
p2895
(dp2896
g47
S'1'
sbsg392
S'='
sbasbsg393
Nsg394
(i__main__
DelphiAssignStatement
p2897
(dp2898
g352
(i__main__
DelphiIdentAccess
p2899
(dp2900
g356
S'firstRiddleAnswer'
p2901
sg358
(lp2902
sbsg353
(i__main__
DelphiIdentAccess
p2903
(dp2904
g356
S'command'
p2905
sg358
(lp2906
sbsg364
(lp2907
S' only list first riddle answer\r'
p2908
asbsba(idelphi
DelphiIfStatement
p2909
(dp2910
g379
(idelphi
DelphiRelOp
p2911
(dp2912
g382
(i__main__
DelphiIdentAccess
p2913
(dp2914
g356
S'ConsoleForm'
p2915
sg358
(lp2916
(idelphi
DelphiFieldEndAccess
p2917
(dp2918
g362
S'VisibleCommandsList'
p2919
sba(idelphi
DelphiFieldEndAccess
p2920
(dp2921
g362
S'items'
p2922
sba(idelphi
DelphiFieldEndAccess
p2923
(dp2924
g362
S'indexOf'
p2925
sba(idelphi
DelphiFunctionEndAccess
p2926
(dp2927
g421
(lp2928
(i__main__
DelphiIdentAccess
p2929
(dp2930
g356
S'command'
p2931
sg358
(lp2932
sbasbasbsg387
(idelphi
DelphiSign
p2933
(dp2934
g599
(idelphi
DelphiIntegerValue
p2935
(dp2936
g47
S'1'
sbsg651
S'-'
sbsg392
S'='
sbsg393
Nsg394
(i__main__
DelphiAssignStatement
p2937
(dp2938
g352
Nsg353
(i__main__
DelphiIdentAccess
p2939
(dp2940
g356
S'ConsoleForm'
p2941
sg358
(lp2942
(idelphi
DelphiFieldEndAccess
p2943
(dp2944
g362
S'VisibleCommandsList'
p2945
sba(idelphi
DelphiFieldEndAccess
p2946
(dp2947
g362
S'items'
p2948
sba(idelphi
DelphiFieldEndAccess
p2949
(dp2950
g362
S'addObject'
p2951
sba(idelphi
DelphiFunctionEndAccess
p2952
(dp2953
g421
(lp2954
(i__main__
DelphiIdentAccess
p2955
(dp2956
g356
S'command'
p2957
sg358
(lp2958
sba(i__main__
DelphiIdentAccess
p2959
(dp2960
g356
S'rule'
p2961
sg358
(lp2962
sbasbasbsbsbasbsbasbsbasbsg928
(lp2963
(i__main__
DelphiVarSection
p2964
(dp2965
g932
I0
sg933
(lp2966
(idelphi
DelphiVarDecl
p2967
(dp2968
g937
Nsg938
(lp2969
S'rule'
p2970
asg43
(i__main__
DelphiNamedType
p2971
(dp2972
g46
S'TSRule'
p2973
sg166
g1
sg167
Nsbsba(idelphi
DelphiVarDecl
p2974
(dp2975
g937
Nsg938
(lp2976
S'i'
asg43
(i__main__
DelphiPrimitiveType
p2977
(dp2978
g46
g289
sbsba(idelphi
DelphiVarDecl
p2979
(dp2980
g937
Nsg938
(lp2981
S'command'
p2982
asg43
(i__main__
DelphiPrimitiveType
p2983
(dp2984
g46
g47
sbsbasbasbsg364
(lp2985
S' setsa up speech system and also updates GUI list of commands\r'
p2986
asbsS'connecttospeechengine'
p2987
(i__main__
DelphiMethodImplementation
p2988
(dp2989
g322
g181
sg27
g183
sg35
(lp2990
sg330
(lp2991
sg332
(lp2992
sg334
(lp2993
g336
asg337
(dp2994
sg50
S'TSSpeechSystem'
p2995
sg51
Nsg340
(lp2996
sg52
I0
sg53
g54
sg342
(i__main__
DelphiBlock
p2997
(dp2998
g345
(idelphi
DelphiCompoundStatement
p2999
(dp3000
g348
(lp3001
(idelphi
DelphiIfStatement
p3002
(dp3003
g379
(idelphi
DelphiNot
p3004
(dp3005
g599
(i__main__
DelphiIdentAccess
p3006
(dp3007
g356
S'usingSpeech'
p3008
sg358
(lp3009
sbsbsg393
Nsg394
(i__main__
DelphiExitStatement
p3010
(dp3011
g443
g2988
sbsba(idelphi
DelphiTryExceptStatement
p3012
(dp3013
g1128
(lp3014
(i__main__
DelphiAssignStatement
p3015
(dp3016
g352
(i__main__
DelphiIdentAccess
p3017
(dp3018
g356
S'True'
p3019
sg358
(lp3020
sbsg353
(i__main__
DelphiIdentAccess
p3021
(dp3022
g356
S'agent'
p3023
sg358
(lp3024
(idelphi
DelphiFieldEndAccess
p3025
(dp3026
g362
S'Connected'
p3027
sbasbsbasg1187
(idelphi
DelphiExceptionHandlers
p3028
(dp3029
g1190
Nsg1191
(lp3030
(i__main__
DelphiAssignStatement
p3031
(dp3032
g352
Nsg353
(i__main__
DelphiIdentAccess
p3033
(dp3034
g356
S'ShowMessage'
p3035
sg358
(lp3036
(idelphi
DelphiFunctionEndAccess
p3037
(dp3038
g421
(lp3039
(idelphi
DelphiStringAccess
p3040
(dp3041
g358
(lp3042
sg47
(idelphi
DelphiStringValue
p3043
(dp3044
g47
S'Could not properly connect to Microsoft agent'
p3045
sbsbasbasbsba(i__main__
DelphiAssignStatement
p3046
(dp3047
g352
(i__main__
DelphiIdentAccess
p3048
(dp3049
g356
S'false'
p3050
sg358
(lp3051
sbsg353
(i__main__
DelphiIdentAccess
p3052
(dp3053
g356
S'usingSpeech'
p3054
sg358
(lp3055
sbsba(i__main__
DelphiExitStatement
p3056
(dp3057
g443
g2988
sbasbsba(idelphi
DelphiTryExceptStatement
p3058
(dp3059
g1128
(lp3060
(i__main__
DelphiAssignStatement
p3061
(dp3062
g352
Nsg353
(i__main__
DelphiIdentAccess
p3063
(dp3064
g356
S'self'
p3065
sg358
(lp3066
(idelphi
DelphiFieldEndAccess
p3067
(dp3068
g362
S'loadAgentCharacter'
p3069
sba(idelphi
DelphiFunctionEndAccess
p3070
(dp3071
g421
(lp3072
(i__main__
DelphiIdentAccess
p3073
(dp3074
g356
S'domain'
p3075
sg358
(lp3076
(idelphi
DelphiFieldEndAccess
p3077
(dp3078
g362
S'options'
p3079
sba(idelphi
DelphiFieldEndAccess
p3080
(dp3081
g362
S'agentCharacterFileName'
p3082
sbasbasbasbsbasg1187
(idelphi
DelphiExceptionHandlers
p3083
(dp3084
g1190
Nsg1191
(lp3085
(i__main__
DelphiAssignStatement
p3086
(dp3087
g352
Nsg353
(i__main__
DelphiIdentAccess
p3088
(dp3089
g356
S'ShowMessage'
p3090
sg358
(lp3091
(idelphi
DelphiFunctionEndAccess
p3092
(dp3093
g421
(lp3094
(idelphi
DelphiStringAccess
p3095
(dp3096
g358
(lp3097
sg47
(idelphi
DelphiStringValue
p3098
(dp3099
g47
S'Could not properly load Microsoft Agent character from EXE directory'
p3100
sbsbasbasbsba(i__main__
DelphiAssignStatement
p3101
(dp3102
g352
(i__main__
DelphiIdentAccess
p3103
(dp3104
g356
S'false'
p3105
sg358
(lp3106
sbsg353
(i__main__
DelphiIdentAccess
p3107
(dp3108
g356
S'usingSpeech'
p3109
sg358
(lp3110
sbsba(i__main__
DelphiExitStatement
p3111
(dp3112
g443
g2988
sbasbsbasbsg928
(lp3113
sbsbsS'loadagentcharacter'
p3114
(i__main__
DelphiMethodImplementation
p3115
(dp3116
g322
g186
sg27
g188
sg35
(lp3117
(i__main__
DelphiFormalParameter
p3118
(dp3119
g39
Nsg40
(lp3120
S'fileName'
p3121
asg43
(i__main__
DelphiPrimitiveType
p3122
(dp3123
g46
g47
sbsg48
Nsbasg330
(lp3124
sg332
(lp3125
sg334
(lp3126
g336
ag3121
asg337
(dp3127
g3121
g3122
ssg50
S'TSSpeechSystem'
p3128
sg51
Nsg340
(lp3129
sg52
I0
sg53
g54
sg342
(i__main__
DelphiBlock
p3130
(dp3131
g345
(idelphi
DelphiCompoundStatement
p3132
(dp3133
g348
(lp3134
(idelphi
DelphiIfStatement
p3135
(dp3136
g379
(idelphi
DelphiMulOp
p3137
(dp3138
g721
(idelphi
DelphiNestedExpressionListAccess
p3139
(dp3140
g358
(lp3141
sg421
(lp3142
(idelphi
DelphiRelOp
p3143
(dp3144
g382
(i__main__
DelphiIdentAccess
p3145
(dp3146
g356
S'pos'
p3147
sg358
(lp3148
(idelphi
DelphiFunctionEndAccess
p3149
(dp3150
g421
(lp3151
(idelphi
DelphiStringAccess
p3152
(dp3153
g358
(lp3154
sg47
(idelphi
DelphiStringValue
p3155
(dp3156
g47
S':'
sbsba(i__main__
DelphiIdentAccess
p3157
(dp3158
g356
S'fileName'
p3159
sg358
(lp3160
sbasbasbsg387
(idelphi
DelphiIntegerValue
p3161
(dp3162
g47
S'0'
sbsg392
g2643
sbasbsg742
g743
sg744
(idelphi
DelphiNestedExpressionListAccess
p3163
(dp3164
g358
(lp3165
sg421
(lp3166
(idelphi
DelphiNot
p3167
(dp3168
g599
(i__main__
DelphiIdentAccess
p3169
(dp3170
g356
S'fileExists'
p3171
sg358
(lp3172
(idelphi
DelphiFunctionEndAccess
p3173
(dp3174
g421
(lp3175
(i__main__
DelphiIdentAccess
p3176
(dp3177
g356
S'fileName'
p3178
sg358
(lp3179
sbasbasbsbasbsbsg393
Nsg394
(i__main__
DelphiAssignStatement
p3180
(dp3181
g352
(idelphi
DelphiAddOp
p3182
(dp3183
g666
S'+'
sg667
(i__main__
DelphiIdentAccess
p3184
(dp3185
g356
S'fileName'
p3186
sg358
(lp3187
sbsg672
(i__main__
DelphiIdentAccess
p3188
(dp3189
g356
S'ExtractFilePath'
p3190
sg358
(lp3191
(idelphi
DelphiFunctionEndAccess
p3192
(dp3193
g421
(lp3194
(i__main__
DelphiIdentAccess
p3195
(dp3196
g356
S'Application'
p3197
sg358
(lp3198
(idelphi
DelphiFieldEndAccess
p3199
(dp3200
g362
S'exeName'
p3201
sbasbasbasbsbsg353
(i__main__
DelphiIdentAccess
p3202
(dp3203
g356
S'fileName'
p3204
sg358
(lp3205
sbsbsba(idelphi
DelphiIfStatement
p3206
(dp3207
g379
(idelphi
DelphiNot
p3208
(dp3209
g599
(i__main__
DelphiIdentAccess
p3210
(dp3211
g356
S'fileExists'
p3212
sg358
(lp3213
(idelphi
DelphiFunctionEndAccess
p3214
(dp3215
g421
(lp3216
(i__main__
DelphiIdentAccess
p3217
(dp3218
g356
S'fileName'
p3219
sg358
(lp3220
sbasbasbsbsg393
Nsg394
(idelphi
DelphiCompoundStatement
p3221
(dp3222
g348
(lp3223
(i__main__
DelphiAssignStatement
p3224
(dp3225
g352
Nsg353
(i__main__
DelphiIdentAccess
p3226
(dp3227
g356
S'ShowMessage'
p3228
sg358
(lp3229
(idelphi
DelphiFunctionEndAccess
p3230
(dp3231
g421
(lp3232
(idelphi
DelphiAddOp
p3233
(dp3234
g666
S'+'
sg667
(idelphi
DelphiStringAccess
p3235
(dp3236
g358
(lp3237
sg47
(idelphi
DelphiStringValue
p3238
(dp3239
g47
S' not found; using default.'
p3240
sbsbsg672
(idelphi
DelphiAddOp
p3241
(dp3242
g666
S'+'
sg667
(i__main__
DelphiIdentAccess
p3243
(dp3244
g356
S'fileName'
p3245
sg358
(lp3246
sbsg672
(idelphi
DelphiStringAccess
p3247
(dp3248
g358
(lp3249
sg47
(idelphi
DelphiStringValue
p3250
(dp3251
g47
S'Agent character file '
p3252
sbsbsbsbasbasbsba(i__main__
DelphiAssignStatement
p3253
(dp3254
g352
(idelphi
DelphiAddOp
p3255
(dp3256
g666
S'+'
sg667
(i__main__
DelphiIdentAccess
p3257
(dp3258
g356
S'kDefaultAgentCharacterFileName'
p3259
sg358
(lp3260
sbsg672
(i__main__
DelphiIdentAccess
p3261
(dp3262
g356
S'ExtractFilePath'
p3263
sg358
(lp3264
(idelphi
DelphiFunctionEndAccess
p3265
(dp3266
g421
(lp3267
(i__main__
DelphiIdentAccess
p3268
(dp3269
g356
S'Application'
p3270
sg358
(lp3271
(idelphi
DelphiFieldEndAccess
p3272
(dp3273
g362
S'exeName'
p3274
sbasbasbasbsbsg353
(i__main__
DelphiIdentAccess
p3275
(dp3276
g356
S'fileName'
p3277
sg358
(lp3278
sbsbasbsba(idelphi
DelphiTryExceptStatement
p3279
(dp3280
g1128
(lp3281
(idelphi
DelphiIfStatement
p3282
(dp3283
g379
(i__main__
DelphiIdentAccess
p3284
(dp3285
g356
S'characterLoaded'
p3286
sg358
(lp3287
sbsg393
Nsg394
(i__main__
DelphiAssignStatement
p3288
(dp3289
g352
Nsg353
(i__main__
DelphiIdentAccess
p3290
(dp3291
g356
S'agent'
p3292
sg358
(lp3293
(idelphi
DelphiFieldEndAccess
p3294
(dp3295
g362
S'Characters'
p3296
sba(idelphi
DelphiFieldEndAccess
p3297
(dp3298
g362
S'Unload'
p3299
sba(idelphi
DelphiFunctionEndAccess
p3300
(dp3301
g421
(lp3302
(i__main__
DelphiIdentAccess
p3303
(dp3304
g356
S'agentName'
p3305
sg358
(lp3306
sbasbasbsbsba(i__main__
DelphiAssignStatement
p3307
(dp3308
g352
Nsg353
(i__main__
DelphiIdentAccess
p3309
(dp3310
g356
S'agent'
p3311
sg358
(lp3312
(idelphi
DelphiFieldEndAccess
p3313
(dp3314
g362
S'Characters'
p3315
sba(idelphi
DelphiFieldEndAccess
p3316
(dp3317
g362
S'Load'
p3318
sba(idelphi
DelphiFunctionEndAccess
p3319
(dp3320
g421
(lp3321
(i__main__
DelphiIdentAccess
p3322
(dp3323
g356
S'agentName'
p3324
sg358
(lp3325
sba(i__main__
DelphiIdentAccess
p3326
(dp3327
g356
S'fileName'
p3328
sg358
(lp3329
sbasbasbsba(i__main__
DelphiAssignStatement
p3330
(dp3331
g352
(i__main__
DelphiIdentAccess
p3332
(dp3333
g356
S'true'
p3334
sg358
(lp3335
sbsg353
(i__main__
DelphiIdentAccess
p3336
(dp3337
g356
S'characterLoaded'
p3338
sg358
(lp3339
sbsba(i__main__
DelphiAssignStatement
p3340
(dp3341
g352
(i__main__
DelphiIdentAccess
p3342
(dp3343
g356
S'fileName'
p3344
sg358
(lp3345
sbsg353
(i__main__
DelphiIdentAccess
p3346
(dp3347
g356
S'domain'
p3348
sg358
(lp3349
(idelphi
DelphiFieldEndAccess
p3350
(dp3351
g362
S'options'
p3352
sba(idelphi
DelphiFieldEndAccess
p3353
(dp3354
g362
S'agentCharacterFileName'
p3355
sbasbsba(idelphi
DelphiTryExceptStatement
p3356
(dp3357
g1128
(lp3358
(i__main__
DelphiAssignStatement
p3359
(dp3360
g352
Nsg353
(i__main__
DelphiIdentAccess
p3361
(dp3362
g356
S'agent'
p3363
sg358
(lp3364
(idelphi
DelphiFieldEndAccess
p3365
(dp3366
g362
S'Characters'
p3367
sba(idelphi
DelphiArrayEndAccess
p3368
(dp3369
g421
(lp3370
(i__main__
DelphiIdentAccess
p3371
(dp3372
g356
S'agentName'
p3373
sg358
(lp3374
sbasba(idelphi
DelphiFieldEndAccess
p3375
(dp3376
g362
S'Show'
p3377
sba(idelphi
DelphiFunctionEndAccess
p3378
(dp3379
g421
(lp3380
(i__main__
DelphiIdentAccess
p3381
(dp3382
g356
S'false'
p3383
sg358
(lp3384
sbasbasbsba(i__main__
DelphiAssignStatement
p3385
(dp3386
g352
(i__main__
DelphiIdentAccess
p3387
(dp3388
g356
S'true'
p3389
sg358
(lp3390
sbsg353
(i__main__
DelphiIdentAccess
p3391
(dp3392
g356
S'agent'
p3393
sg358
(lp3394
(idelphi
DelphiFieldEndAccess
p3395
(dp3396
g362
S'Characters'
p3397
sba(idelphi
DelphiArrayEndAccess
p3398
(dp3399
g421
(lp3400
(i__main__
DelphiIdentAccess
p3401
(dp3402
g356
S'agentName'
p3403
sg358
(lp3404
sbasba(idelphi
DelphiFieldEndAccess
p3405
(dp3406
g362
S'SoundEffectsOn'
p3407
sbasbsbasg1187
(idelphi
DelphiExceptionHandlers
p3408
(dp3409
g1190
Nsg1191
(lp3410
(i__main__
DelphiAssignStatement
p3411
(dp3412
g352
Nsg353
(i__main__
DelphiIdentAccess
p3413
(dp3414
g356
S'ShowMessage'
p3415
sg358
(lp3416
(idelphi
DelphiFunctionEndAccess
p3417
(dp3418
g421
(lp3419
(idelphi
DelphiStringAccess
p3420
(dp3421
g358
(lp3422
sg47
(idelphi
DelphiStringValue
p3423
(dp3424
g47
S'Could not properly configure Microsoft agent'
p3425
sbsbasbasbsg364
(lp3426
S"self.say('I am a genie who will tell you stories.');\r"
p3427
asba(i__main__
DelphiAssignStatement
p3428
(dp3429
g352
(i__main__
DelphiIdentAccess
p3430
(dp3431
g356
S'false'
p3432
sg358
(lp3433
sbsg353
(i__main__
DelphiIdentAccess
p3434
(dp3435
g356
S'usingSpeech'
p3436
sg358
(lp3437
sbsbasbsbasg1187
(idelphi
DelphiExceptionHandlers
p3438
(dp3439
g1190
Nsg1191
(lp3440
(i__main__
DelphiAssignStatement
p3441
(dp3442
g352
Nsg353
(i__main__
DelphiIdentAccess
p3443
(dp3444
g356
S'ShowMessage'
p3445
sg358
(lp3446
(idelphi
DelphiFunctionEndAccess
p3447
(dp3448
g421
(lp3449
(idelphi
DelphiStringAccess
p3450
(dp3451
g358
(lp3452
sg47
(idelphi
DelphiStringValue
p3453
(dp3454
g47
S'Could not properly load Microsoft Agent character.'
p3455
sbsbasbasbsba(i__main__
DelphiAssignStatement
p3456
(dp3457
g352
(i__main__
DelphiIdentAccess
p3458
(dp3459
g356
S'false'
p3460
sg358
(lp3461
sbsg353
(i__main__
DelphiIdentAccess
p3462
(dp3463
g356
S'usingSpeech'
p3464
sg358
(lp3465
sbsbasbsbasbsg928
(lp3466
sbsbsS'speaksound'
p3467
(i__main__
DelphiMethodImplementation
p3468
(dp3469
g322
g197
sg27
g199
sg35
(lp3470
(i__main__
DelphiFormalParameter
p3471
(dp3472
g39
Nsg40
(lp3473
S'soundDesignation'
p3474
asg43
(i__main__
DelphiPrimitiveType
p3475
(dp3476
g46
g47
sbsg48
g49
sbasg330
(lp3477
sg332
(lp3478
sg334
(lp3479
g336
ag3474
asg337
(dp3480
g3474
g3475
ssg50
S'TSSpeechSystem'
p3481
sg51
Nsg340
(lp3482
sg52
I0
sg53
g54
sg342
(i__main__
DelphiBlock
p3483
(dp3484
g345
(idelphi
DelphiCompoundStatement
p3485
(dp3486
g348
(lp3487
(i__main__
DelphiAssignStatement
p3488
(dp3489
g352
(i__main__
DelphiIdentAccess
p3490
(dp3491
g356
S'trim'
p3492
sg358
(lp3493
(idelphi
DelphiFunctionEndAccess
p3494
(dp3495
g421
(lp3496
(i__main__
DelphiIdentAccess
p3497
(dp3498
g356
S'soundDesignation'
p3499
sg358
(lp3500
sbasbasbsg353
(i__main__
DelphiIdentAccess
p3501
(dp3502
g356
S'soundFile'
p3503
sg358
(lp3504
sbsba(i__main__
DelphiAssignStatement
p3505
(dp3506
g352
(idelphi
DelphiRelOp
p3507
(dp3508
g382
(i__main__
DelphiIdentAccess
p3509
(dp3510
g356
S'pos'
p3511
sg358
(lp3512
(idelphi
DelphiFunctionEndAccess
p3513
(dp3514
g421
(lp3515
(idelphi
DelphiStringAccess
p3516
(dp3517
g358
(lp3518
sg47
(idelphi
DelphiStringValue
p3519
(dp3520
g47
S'music '
p3521
sbsba(i__main__
DelphiIdentAccess
p3522
(dp3523
g356
S'soundFile'
p3524
sg358
(lp3525
sbasbasbsg387
(idelphi
DelphiIntegerValue
p3526
(dp3527
g47
S'1'
sbsg392
S'='
sbsg353
(i__main__
DelphiIdentAccess
p3528
(dp3529
g356
S'music'
p3530
sg358
(lp3531
sbsba(i__main__
DelphiAssignStatement
p3532
(dp3533
g352
(idelphi
DelphiRelOp
p3534
(dp3535
g382
(i__main__
DelphiIdentAccess
p3536
(dp3537
g356
S'pos'
p3538
sg358
(lp3539
(idelphi
DelphiFunctionEndAccess
p3540
(dp3541
g421
(lp3542
(idelphi
DelphiStringAccess
p3543
(dp3544
g358
(lp3545
sg47
(idelphi
DelphiStringValue
p3546
(dp3547
g47
S'musiconce '
p3548
sbsba(i__main__
DelphiIdentAccess
p3549
(dp3550
g356
S'soundFile'
p3551
sg358
(lp3552
sbasbasbsg387
(idelphi
DelphiIntegerValue
p3553
(dp3554
g47
S'1'
sbsg392
S'='
sbsg353
(i__main__
DelphiIdentAccess
p3555
(dp3556
g356
S'musiconce'
p3557
sg358
(lp3558
sbsba(i__main__
DelphiAssignStatement
p3559
(dp3560
g352
(idelphi
DelphiAddOp
p3561
(dp3562
g666
g1823
sg667
(idelphi
DelphiNestedExpressionListAccess
p3563
(dp3564
g358
(lp3565
sg421
(lp3566
(idelphi
DelphiRelOp
p3567
(dp3568
g382
(i__main__
DelphiIdentAccess
p3569
(dp3570
g356
S'soundFile'
p3571
sg358
(lp3572
sbsg387
(idelphi
DelphiStringAccess
p3573
(dp3574
g358
(lp3575
sg47
(idelphi
DelphiStringValue
p3576
(dp3577
g47
S'music'
p3578
sbsbsg392
S'='
sbasbsg672
(i__main__
DelphiIdentAccess
p3579
(dp3580
g356
S'music'
p3581
sg358
(lp3582
sbsbsg353
(i__main__
DelphiIdentAccess
p3583
(dp3584
g356
S'music'
p3585
sg358
(lp3586
sbsba(i__main__
DelphiAssignStatement
p3587
(dp3588
g352
(idelphi
DelphiAddOp
p3589
(dp3590
g666
g1823
sg667
(idelphi
DelphiNestedExpressionListAccess
p3591
(dp3592
g358
(lp3593
sg421
(lp3594
(idelphi
DelphiRelOp
p3595
(dp3596
g382
(i__main__
DelphiIdentAccess
p3597
(dp3598
g356
S'soundFile'
p3599
sg358
(lp3600
sbsg387
(idelphi
DelphiStringAccess
p3601
(dp3602
g358
(lp3603
sg47
(idelphi
DelphiStringValue
p3604
(dp3605
g47
S'musiconce'
p3606
sbsbsg392
S'='
sbasbsg672
(i__main__
DelphiIdentAccess
p3607
(dp3608
g356
S'musiconce'
p3609
sg358
(lp3610
sbsbsg353
(i__main__
DelphiIdentAccess
p3611
(dp3612
g356
S'musiconce'
p3613
sg358
(lp3614
sbsba(idelphi
DelphiIfStatement
p3615
(dp3616
g379
(idelphi
DelphiAddOp
p3617
(dp3618
g666
g1823
sg667
(i__main__
DelphiIdentAccess
p3619
(dp3620
g356
S'musiconce'
p3621
sg358
(lp3622
sbsg672
(i__main__
DelphiIdentAccess
p3623
(dp3624
g356
S'music'
p3625
sg358
(lp3626
sbsbsg393
Nsg394
(idelphi
DelphiCompoundStatement
p3627
(dp3628
g348
(lp3629
(idelphi
DelphiIfStatement
p3630
(dp3631
g379
(idelphi
DelphiNot
p3632
(dp3633
g599
(i__main__
DelphiIdentAccess
p3634
(dp3635
g356
S'domain'
p3636
sg358
(lp3637
(idelphi
DelphiFieldEndAccess
p3638
(dp3639
g362
S'options'
p3640
sba(idelphi
DelphiFieldEndAccess
p3641
(dp3642
g362
S'playerPlayMusic'
p3643
sbasbsbsg393
Nsg394
(i__main__
DelphiExitStatement
p3644
(dp3645
g443
g3468
sg364
(lp3646
S' or musicwait then\r'
p3647
asbsba(idelphi
DelphiIfStatement
p3648
(dp3649
g379
(i__main__
DelphiIdentAccess
p3650
(dp3651
g356
S'music'
p3652
sg358
(lp3653
sbsg393
(i__main__
DelphiAssignStatement
p3654
(dp3655
g352
(i__main__
DelphiIdentAccess
p3656
(dp3657
g356
S'Copy'
p3658
sg358
(lp3659
(idelphi
DelphiFunctionEndAccess
p3660
(dp3661
g421
(lp3662
(i__main__
DelphiIdentAccess
p3663
(dp3664
g356
S'soundFile'
p3665
sg358
(lp3666
sba(idelphi
DelphiAddOp
p3667
(dp3668
g666
S'+'
sg667
(idelphi
DelphiIntegerValue
p3669
(dp3670
g47
S'1'
sbsg672
(i__main__
DelphiIdentAccess
p3671
(dp3672
g356
S'length'
p3673
sg358
(lp3674
(idelphi
DelphiFunctionEndAccess
p3675
(dp3676
g421
(lp3677
(idelphi
DelphiStringAccess
p3678
(dp3679
g358
(lp3680
sg47
(idelphi
DelphiStringValue
p3681
(dp3682
g47
S'musiconce '
p3683
sbsbasbasbsba(i__main__
DelphiIdentAccess
p3684
(dp3685
g356
S'length'
p3686
sg358
(lp3687
(idelphi
DelphiFunctionEndAccess
p3688
(dp3689
g421
(lp3690
(i__main__
DelphiIdentAccess
p3691
(dp3692
g356
S'soundFile'
p3693
sg358
(lp3694
sbasbasbasbasbsg353
(i__main__
DelphiIdentAccess
p3695
(dp3696
g356
S'soundFile'
p3697
sg358
(lp3698
sbsbsg394
(i__main__
DelphiAssignStatement
p3699
(dp3700
g352
(i__main__
DelphiIdentAccess
p3701
(dp3702
g356
S'Copy'
p3703
sg358
(lp3704
(idelphi
DelphiFunctionEndAccess
p3705
(dp3706
g421
(lp3707
(i__main__
DelphiIdentAccess
p3708
(dp3709
g356
S'soundFile'
p3710
sg358
(lp3711
sba(idelphi
DelphiAddOp
p3712
(dp3713
g666
S'+'
sg667
(idelphi
DelphiIntegerValue
p3714
(dp3715
g47
S'1'
sbsg672
(i__main__
DelphiIdentAccess
p3716
(dp3717
g356
S'length'
p3718
sg358
(lp3719
(idelphi
DelphiFunctionEndAccess
p3720
(dp3721
g421
(lp3722
(idelphi
DelphiStringAccess
p3723
(dp3724
g358
(lp3725
sg47
(idelphi
DelphiStringValue
p3726
(dp3727
g47
S'music '
p3728
sbsbasbasbsba(i__main__
DelphiIdentAccess
p3729
(dp3730
g356
S'length'
p3731
sg358
(lp3732
(idelphi
DelphiFunctionEndAccess
p3733
(dp3734
g421
(lp3735
(i__main__
DelphiIdentAccess
p3736
(dp3737
g356
S'soundFile'
p3738
sg358
(lp3739
sbasbasbasbasbsg353
(i__main__
DelphiIdentAccess
p3740
(dp3741
g356
S'soundFile'
p3742
sg358
(lp3743
sbsbsba(i__main__
DelphiAssignStatement
p3744
(dp3745
g352
(i__main__
DelphiIdentAccess
p3746
(dp3747
g356
S'trim'
p3748
sg358
(lp3749
(idelphi
DelphiFunctionEndAccess
p3750
(dp3751
g421
(lp3752
(i__main__
DelphiIdentAccess
p3753
(dp3754
g356
S'soundFile'
p3755
sg358
(lp3756
sbasbasbsg353
(i__main__
DelphiIdentAccess
p3757
(dp3758
g356
S'soundFile'
p3759
sg358
(lp3760
sbsba(idelphi
DelphiIfStatement
p3761
(dp3762
g379
(idelphi
DelphiRelOp
p3763
(dp3764
g382
(i__main__
DelphiIdentAccess
p3765
(dp3766
g356
S'soundFile'
p3767
sg358
(lp3768
sbsg387
(idelphi
DelphiStringAccess
p3769
(dp3770
g358
(lp3771
sg47
(idelphi
DelphiStringValue
p3772
(dp3773
g47
S''
sbsbsg392
S'='
sbsg393
Nsg394
(idelphi
DelphiCompoundStatement
p3774
(dp3775
g348
(lp3776
(i__main__
DelphiAssignStatement
p3777
(dp3778
g352
Nsg353
(i__main__
DelphiIdentAccess
p3779
(dp3780
g356
S'RuleEditorForm'
p3781
sg358
(lp3782
(idelphi
DelphiFieldEndAccess
p3783
(dp3784
g362
S'mediaPlayer'
p3785
sba(idelphi
DelphiFieldEndAccess
p3786
(dp3787
g362
S'close'
p3788
sbasbsba(i__main__
DelphiAssignStatement
p3789
(dp3790
g352
(idelphi
DelphiStringAccess
p3791
(dp3792
g358
(lp3793
sg47
(idelphi
DelphiStringValue
p3794
(dp3795
g47
S''
sbsbsg353
(i__main__
DelphiIdentAccess
p3796
(dp3797
g356
S'RuleEditorForm'
p3798
sg358
(lp3799
(idelphi
DelphiFieldEndAccess
p3800
(dp3801
g362
S'mediaPlayer'
p3802
sba(idelphi
DelphiFieldEndAccess
p3803
(dp3804
g362
S'fileName'
p3805
sbasbsba(i__main__
DelphiExitStatement
p3806
(dp3807
g443
g3468
sbasbsba(idelphi
DelphiIfStatement
p3808
(dp3809
g379
(idelphi
DelphiRelOp
p3810
(dp3811
g382
(i__main__
DelphiIdentAccess
p3812
(dp3813
g356
S'pos'
p3814
sg358
(lp3815
(idelphi
DelphiFunctionEndAccess
p3816
(dp3817
g421
(lp3818
(idelphi
DelphiStringAccess
p3819
(dp3820
g358
(lp3821
sg47
(idelphi
DelphiStringValue
p3822
(dp3823
g47
S'.'
sbsba(i__main__
DelphiIdentAccess
p3824
(dp3825
g356
S'soundFile'
p3826
sg358
(lp3827
sbasbasbsg387
(idelphi
DelphiIntegerValue
p3828
(dp3829
g47
S'0'
sbsg392
g2643
sbsg393
Nsg394
(i__main__
DelphiAssignStatement
p3830
(dp3831
g352
(idelphi
DelphiAddOp
p3832
(dp3833
g666
S'+'
sg667
(idelphi
DelphiStringAccess
p3834
(dp3835
g358
(lp3836
sg47
(idelphi
DelphiStringValue
p3837
(dp3838
g47
S'.mid'
p3839
sbsbsg672
(i__main__
DelphiIdentAccess
p3840
(dp3841
g356
S'soundFile'
p3842
sg358
(lp3843
sbsbsg353
(i__main__
DelphiIdentAccess
p3844
(dp3845
g356
S'soundFile'
p3846
sg358
(lp3847
sbsbsba(i__main__
DelphiAssignStatement
p3848
(dp3849
g352
(i__main__
DelphiIdentAccess
p3850
(dp3851
g356
S'soundFile'
p3852
sg358
(lp3853
sbsg353
(i__main__
DelphiIdentAccess
p3854
(dp3855
g356
S'soundFileWithPath'
p3856
sg358
(lp3857
sbsba(idelphi
DelphiIfStatement
p3858
(dp3859
g379
(idelphi
DelphiRelOp
p3860
(dp3861
g382
(i__main__
DelphiIdentAccess
p3862
(dp3863
g356
S'pos'
p3864
sg358
(lp3865
(idelphi
DelphiFunctionEndAccess
p3866
(dp3867
g421
(lp3868
(idelphi
DelphiStringAccess
p3869
(dp3870
g358
(lp3871
sg47
(idelphi
DelphiStringValue
p3872
(dp3873
g47
S':'
sbsba(i__main__
DelphiIdentAccess
p3874
(dp3875
g356
S'soundFileWithPath'
p3876
sg358
(lp3877
sbasbasbsg387
(idelphi
DelphiIntegerValue
p3878
(dp3879
g47
S'0'
sbsg392
g2643
sbsg393
Nsg394
(i__main__
DelphiAssignStatement
p3880
(dp3881
g352
(i__main__
DelphiIdentAccess
p3882
(dp3883
g356
S'findFileRecursivelyInMediaDirectories'
p3884
sg358
(lp3885
(idelphi
DelphiFunctionEndAccess
p3886
(dp3887
g421
(lp3888
(i__main__
DelphiIdentAccess
p3889
(dp3890
g356
S'soundFile'
p3891
sg358
(lp3892
sba(i__main__
DelphiIdentAccess
p3893
(dp3894
g356
S'domain'
p3895
sg358
(lp3896
(idelphi
DelphiFieldEndAccess
p3897
(dp3898
g362
S'options'
p3899
sba(idelphi
DelphiFieldEndAccess
p3900
(dp3901
g362
S'extraMediaDirectory'
p3902
sbasbasbasbsg353
(i__main__
DelphiIdentAccess
p3903
(dp3904
g356
S'soundFileWithPath'
p3905
sg358
(lp3906
sbsbsba(idelphi
DelphiIfStatement
p3907
(dp3908
g379
(idelphi
DelphiMulOp
p3909
(dp3910
g721
(idelphi
DelphiNestedExpressionListAccess
p3911
(dp3912
g358
(lp3913
sg421
(lp3914
(idelphi
DelphiRelOp
p3915
(dp3916
g382
(i__main__
DelphiIdentAccess
p3917
(dp3918
g356
S'pos'
p3919
sg358
(lp3920
(idelphi
DelphiFunctionEndAccess
p3921
(dp3922
g421
(lp3923
(idelphi
DelphiStringAccess
p3924
(dp3925
g358
(lp3926
sg47
(idelphi
DelphiStringValue
p3927
(dp3928
g47
S':'
sbsba(i__main__
DelphiIdentAccess
p3929
(dp3930
g356
S'soundFileWithPath'
p3931
sg358
(lp3932
sbasbasbsg387
(idelphi
DelphiIntegerValue
p3933
(dp3934
g47
S'0'
sbsg392
g2643
sbasbsg742
g743
sg744
(idelphi
DelphiNestedExpressionListAccess
p3935
(dp3936
g358
(lp3937
sg421
(lp3938
(idelphi
DelphiRelOp
p3939
(dp3940
g382
(i__main__
DelphiIdentAccess
p3941
(dp3942
g356
S'soundFileWithPath'
p3943
sg358
(lp3944
sbsg387
(idelphi
DelphiStringAccess
p3945
(dp3946
g358
(lp3947
sg47
(idelphi
DelphiStringValue
p3948
(dp3949
g47
S''
sbsbsg392
g1048
sbasbsbsg393
Nsg394
(i__main__
DelphiAssignStatement
p3950
(dp3951
g352
(idelphi
DelphiAddOp
p3952
(dp3953
g666
S'+'
sg667
(i__main__
DelphiIdentAccess
p3954
(dp3955
g356
S'soundFileWithPath'
p3956
sg358
(lp3957
sbsg672
(idelphi
DelphiAddOp
p3958
(dp3959
g666
S'+'
sg667
(idelphi
DelphiStringAccess
p3960
(dp3961
g358
(lp3962
sg47
(idelphi
DelphiStringValue
p3963
(dp3964
g47
S'\\'
sbsbsg672
(i__main__
DelphiIdentAccess
p3965
(dp3966
g356
S'GetCurrentDir'
p3967
sg358
(lp3968
sbsbsbsg353
(i__main__
DelphiIdentAccess
p3969
(dp3970
g356
S'soundFileWithPath'
p3971
sg358
(lp3972
sbsbsba(idelphi
DelphiIfStatement
p3973
(dp3974
g379
(i__main__
DelphiIdentAccess
p3975
(dp3976
g356
S'FileExists'
p3977
sg358
(lp3978
(idelphi
DelphiFunctionEndAccess
p3979
(dp3980
g421
(lp3981
(i__main__
DelphiIdentAccess
p3982
(dp3983
g356
S'soundFileWithPath'
p3984
sg358
(lp3985
sbasbasbsg393
(i__main__
DelphiAssignStatement
p3986
(dp3987
g352
Nsg353
(i__main__
DelphiIdentAccess
p3988
(dp3989
g356
S'RuleEditorForm'
p3990
sg358
(lp3991
(idelphi
DelphiFieldEndAccess
p3992
(dp3993
g362
S'mediaPlayer'
p3994
sba(idelphi
DelphiFieldEndAccess
p3995
(dp3996
g362
S'close'
p3997
sbasbsbsg394
(idelphi
DelphiCompoundStatement
p3998
(dp3999
g348
(lp4000
(idelphi
DelphiIfStatement
p4001
(dp4002
g379
(idelphi
DelphiRelOp
p4003
(dp4004
g382
(i__main__
DelphiIdentAccess
p4005
(dp4006
g356
S'RuleEditorForm'
p4007
sg358
(lp4008
(idelphi
DelphiFieldEndAccess
p4009
(dp4010
g362
S'mediaPlayer'
p4011
sba(idelphi
DelphiFieldEndAccess
p4012
(dp4013
g362
S'fileName'
p4014
sbasbsg387
(i__main__
DelphiIdentAccess
p4015
(dp4016
g356
S'soundFileWithPath'
p4017
sg358
(lp4018
sbsg392
S'='
sbsg393
Nsg394
(idelphi
DelphiCompoundStatement
p4019
(dp4020
g348
(lp4021
(idelphi
DelphiIfStatement
p4022
(dp4023
g379
(idelphi
DelphiRelOp
p4024
(dp4025
g382
(i__main__
DelphiIdentAccess
p4026
(dp4027
g356
S'RuleEditorForm'
p4028
sg358
(lp4029
(idelphi
DelphiFieldEndAccess
p4030
(dp4031
g362
S'mediaPlayer'
p4032
sba(idelphi
DelphiFieldEndAccess
p4033
(dp4034
g362
S'mode'
p4035
sbasbsg387
(i__main__
DelphiIdentAccess
p4036
(dp4037
g356
S'mpPlaying'
p4038
sg358
(lp4039
sbsg392
S'='
sbsg393
Nsg394
(i__main__
DelphiExitStatement
p4040
(dp4041
g443
g3468
sg364
(lp4042
S' already playing\r'
p4043
asbsbasbsba(i__main__
DelphiAssignStatement
p4044
(dp4045
g352
(i__main__
DelphiIdentAccess
p4046
(dp4047
g356
S'soundFileWithPath'
p4048
sg358
(lp4049
sbsg353
(i__main__
DelphiIdentAccess
p4050
(dp4051
g356
S'RuleEditorForm'
p4052
sg358
(lp4053
(idelphi
DelphiFieldEndAccess
p4054
(dp4055
g362
S'mediaPlayer'
p4056
sba(idelphi
DelphiFieldEndAccess
p4057
(dp4058
g362
S'fileName'
p4059
sbasbsba(i__main__
DelphiAssignStatement
p4060
(dp4061
g352
Nsg353
(i__main__
DelphiIdentAccess
p4062
(dp4063
g356
S'RuleEditorForm'
p4064
sg358
(lp4065
(idelphi
DelphiFieldEndAccess
p4066
(dp4067
g362
S'mediaPlayer'
p4068
sba(idelphi
DelphiFieldEndAccess
p4069
(dp4070
g362
S'open'
p4071
sbasbsg364
(lp4072
S'if not mediaPlayerOpened then\r'
p4073
asba(i__main__
DelphiAssignStatement
p4074
(dp4075
g352
(idelphi
DelphiNot
p4076
(dp4077
g599
(i__main__
DelphiIdentAccess
p4078
(dp4079
g356
S'musiconce'
p4080
sg358
(lp4081
sbsbsg353
(i__main__
DelphiIdentAccess
p4082
(dp4083
g356
S'RuleEditorForm'
p4084
sg358
(lp4085
(idelphi
DelphiFieldEndAccess
p4086
(dp4087
g362
S'MediaPlayer'
p4088
sba(idelphi
DelphiFieldEndAccess
p4089
(dp4090
g362
S'Notify'
p4091
sbasbsg364
(lp4092
S'mediaPlayerOpened := true;\r'
p4093
aS'RuleEditorForm.mediaPlayer.wait := musicwait;'
p4094
asba(i__main__
DelphiAssignStatement
p4095
(dp4096
g352
(i__main__
DelphiIdentAccess
p4097
(dp4098
g356
S'true'
p4099
sg358
(lp4100
sbsg353
(i__main__
DelphiIdentAccess
p4101
(dp4102
g356
S'RuleEditorForm'
p4103
sg358
(lp4104
(idelphi
DelphiFieldEndAccess
p4105
(dp4106
g362
S'loopMusic'
p4107
sbasbsba(i__main__
DelphiAssignStatement
p4108
(dp4109
g352
Nsg353
(i__main__
DelphiIdentAccess
p4110
(dp4111
g356
S'RuleEditorForm'
p4112
sg358
(lp4113
(idelphi
DelphiFieldEndAccess
p4114
(dp4115
g362
S'mediaPlayer'
p4116
sba(idelphi
DelphiFieldEndAccess
p4117
(dp4118
g362
S'play'
p4119
sbasbsbasbsba(i__main__
DelphiExitStatement
p4120
(dp4121
g443
g3468
sbasbsba(idelphi
DelphiIfStatement
p4122
(dp4123
g379
(idelphi
DelphiNot
p4124
(dp4125
g599
(i__main__
DelphiIdentAccess
p4126
(dp4127
g356
S'usingSpeech'
p4128
sg358
(lp4129
sbsbsg393
Nsg394
(i__main__
DelphiExitStatement
p4130
(dp4131
g443
g3468
sbsba(idelphi
DelphiIfStatement
p4132
(dp4133
g379
(idelphi
DelphiNot
p4134
(dp4135
g599
(i__main__
DelphiIdentAccess
p4136
(dp4137
g356
S'domain'
p4138
sg358
(lp4139
(idelphi
DelphiFieldEndAccess
p4140
(dp4141
g362
S'options'
p4142
sba(idelphi
DelphiFieldEndAccess
p4143
(dp4144
g362
S'playerPlaySounds'
p4145
sbasbsbsg393
Nsg394
(i__main__
DelphiExitStatement
p4146
(dp4147
g443
g3468
sbsba(idelphi
DelphiIfStatement
p4148
(dp4149
g379
(idelphi
DelphiRelOp
p4150
(dp4151
g382
(i__main__
DelphiIdentAccess
p4152
(dp4153
g356
S'pos'
p4154
sg358
(lp4155
(idelphi
DelphiFunctionEndAccess
p4156
(dp4157
g421
(lp4158
(i__main__
DelphiIdentAccess
p4159
(dp4160
g356
S'kPlaySoundMacroStart'
p4161
sg358
(lp4162
sba(i__main__
DelphiIdentAccess
p4163
(dp4164
g356
S'soundFile'
p4165
sg358
(lp4166
sbasbasbsg387
(idelphi
DelphiIntegerValue
p4167
(dp4168
g47
S'1'
sbsg392
S'='
sbsg393
(idelphi
DelphiIfStatement
p4169
(dp4170
g379
(idelphi
DelphiRelOp
p4171
(dp4172
g382
(i__main__
DelphiIdentAccess
p4173
(dp4174
g356
S'soundFile'
p4175
sg358
(lp4176
sbsg387
(idelphi
DelphiStringAccess
p4177
(dp4178
g358
(lp4179
sg47
(idelphi
DelphiStringValue
p4180
(dp4181
g47
S'sound'
p4182
sbsbsg392
S'='
sbsg393
Nsg394
(i__main__
DelphiAssignStatement
p4183
(dp4184
g352
(idelphi
DelphiStringAccess
p4185
(dp4186
g358
(lp4187
sg47
(idelphi
DelphiStringValue
p4188
(dp4189
g47
S''
sbsbsg353
(i__main__
DelphiIdentAccess
p4190
(dp4191
g356
S'soundFile'
p4192
sg358
(lp4193
sbsbsbsg394
(i__main__
DelphiAssignStatement
p4194
(dp4195
g352
(i__main__
DelphiIdentAccess
p4196
(dp4197
g356
S'Copy'
p4198
sg358
(lp4199
(idelphi
DelphiFunctionEndAccess
p4200
(dp4201
g421
(lp4202
(i__main__
DelphiIdentAccess
p4203
(dp4204
g356
S'soundFile'
p4205
sg358
(lp4206
sba(idelphi
DelphiAddOp
p4207
(dp4208
g666
S'+'
sg667
(idelphi
DelphiIntegerValue
p4209
(dp4210
g47
S'1'
sbsg672
(i__main__
DelphiIdentAccess
p4211
(dp4212
g356
S'length'
p4213
sg358
(lp4214
(idelphi
DelphiFunctionEndAccess
p4215
(dp4216
g421
(lp4217
(i__main__
DelphiIdentAccess
p4218
(dp4219
g356
S'kPlaySoundMacroStart'
p4220
sg358
(lp4221
sbasbasbsba(i__main__
DelphiIdentAccess
p4222
(dp4223
g356
S'length'
p4224
sg358
(lp4225
(idelphi
DelphiFunctionEndAccess
p4226
(dp4227
g421
(lp4228
(i__main__
DelphiIdentAccess
p4229
(dp4230
g356
S'soundFile'
p4231
sg358
(lp4232
sbasbasbasbasbsg353
(i__main__
DelphiIdentAccess
p4233
(dp4234
g356
S'soundFile'
p4235
sg358
(lp4236
sbsg364
(lp4237
S" if pos('run ', soundFile) = 1 then\r"
p4238
aS'    begin\r'
p4239
aS"    soundFile := Copy(soundFile, length('run ') + 1, length(soundFile));\r"
p4240
aS'    WinExec(pchar(soundFile), SW_SHOWNORMAL);\r'
p4241
aS'    exit;\r'
p4242
aS'    end;'
p4243
asbsba(i__main__
DelphiAssignStatement
p4244
(dp4245
g352
(i__main__
DelphiIdentAccess
p4246
(dp4247
g356
S'trim'
p4248
sg358
(lp4249
(idelphi
DelphiFunctionEndAccess
p4250
(dp4251
g421
(lp4252
(i__main__
DelphiIdentAccess
p4253
(dp4254
g356
S'soundFile'
p4255
sg358
(lp4256
sbasbasbsg353
(i__main__
DelphiIdentAccess
p4257
(dp4258
g356
S'soundFile'
p4259
sg358
(lp4260
sbsba(idelphi
DelphiIfStatement
p4261
(dp4262
g379
(idelphi
DelphiMulOp
p4263
(dp4264
g721
(idelphi
DelphiNestedExpressionListAccess
p4265
(dp4266
g358
(lp4267
sg421
(lp4268
(idelphi
DelphiRelOp
p4269
(dp4270
g382
(i__main__
DelphiIdentAccess
p4271
(dp4272
g356
S'pos'
p4273
sg358
(lp4274
(idelphi
DelphiFunctionEndAccess
p4275
(dp4276
g421
(lp4277
(idelphi
DelphiStringAccess
p4278
(dp4279
g358
(lp4280
sg47
(idelphi
DelphiStringValue
p4281
(dp4282
g47
S'.'
sbsba(i__main__
DelphiIdentAccess
p4283
(dp4284
g356
S'soundFile'
p4285
sg358
(lp4286
sbasbasbsg387
(idelphi
DelphiIntegerValue
p4287
(dp4288
g47
S'0'
sbsg392
g2643
sbasbsg742
g743
sg744
(idelphi
DelphiNestedExpressionListAccess
p4289
(dp4290
g358
(lp4291
sg421
(lp4292
(idelphi
DelphiRelOp
p4293
(dp4294
g382
(i__main__
DelphiIdentAccess
p4295
(dp4296
g356
S'length'
p4297
sg358
(lp4298
(idelphi
DelphiFunctionEndAccess
p4299
(dp4300
g421
(lp4301
(i__main__
DelphiIdentAccess
p4302
(dp4303
g356
S'soundFile'
p4304
sg358
(lp4305
sbasbasbsg387
(idelphi
DelphiIntegerValue
p4306
(dp4307
g47
S'0'
sbsg392
S'>'
sbasbsbsg393
Nsg394
(i__main__
DelphiAssignStatement
p4308
(dp4309
g352
(idelphi
DelphiAddOp
p4310
(dp4311
g666
S'+'
sg667
(idelphi
DelphiStringAccess
p4312
(dp4313
g358
(lp4314
sg47
(idelphi
DelphiStringValue
p4315
(dp4316
g47
S'.wav'
p4317
sbsbsg672
(i__main__
DelphiIdentAccess
p4318
(dp4319
g356
S'soundFile'
p4320
sg358
(lp4321
sbsbsg353
(i__main__
DelphiIdentAccess
p4322
(dp4323
g356
S'soundFile'
p4324
sg358
(lp4325
sbsbsba(i__main__
DelphiAssignStatement
p4326
(dp4327
g352
(i__main__
DelphiIdentAccess
p4328
(dp4329
g356
S'soundFile'
p4330
sg358
(lp4331
sbsg353
(i__main__
DelphiIdentAccess
p4332
(dp4333
g356
S'soundFileWithPath'
p4334
sg358
(lp4335
sbsba(idelphi
DelphiIfStatement
p4336
(dp4337
g379
(idelphi
DelphiRelOp
p4338
(dp4339
g382
(i__main__
DelphiIdentAccess
p4340
(dp4341
g356
S'pos'
p4342
sg358
(lp4343
(idelphi
DelphiFunctionEndAccess
p4344
(dp4345
g421
(lp4346
(idelphi
DelphiStringAccess
p4347
(dp4348
g358
(lp4349
sg47
(idelphi
DelphiStringValue
p4350
(dp4351
g47
S':'
sbsba(i__main__
DelphiIdentAccess
p4352
(dp4353
g356
S'soundFileWithPath'
p4354
sg358
(lp4355
sbasbasbsg387
(idelphi
DelphiIntegerValue
p4356
(dp4357
g47
S'0'
sbsg392
g2643
sbsg393
Nsg394
(i__main__
DelphiAssignStatement
p4358
(dp4359
g352
(i__main__
DelphiIdentAccess
p4360
(dp4361
g356
S'findFileRecursivelyInMediaDirectories'
p4362
sg358
(lp4363
(idelphi
DelphiFunctionEndAccess
p4364
(dp4365
g421
(lp4366
(i__main__
DelphiIdentAccess
p4367
(dp4368
g356
S'soundFile'
p4369
sg358
(lp4370
sba(i__main__
DelphiIdentAccess
p4371
(dp4372
g356
S'domain'
p4373
sg358
(lp4374
(idelphi
DelphiFieldEndAccess
p4375
(dp4376
g362
S'options'
p4377
sba(idelphi
DelphiFieldEndAccess
p4378
(dp4379
g362
S'extraMediaDirectory'
p4380
sbasbasbasbsg353
(i__main__
DelphiIdentAccess
p4381
(dp4382
g356
S'soundFileWithPath'
p4383
sg358
(lp4384
sbsbsba(idelphi
DelphiIfStatement
p4385
(dp4386
g379
(idelphi
DelphiMulOp
p4387
(dp4388
g721
(idelphi
DelphiNestedExpressionListAccess
p4389
(dp4390
g358
(lp4391
sg421
(lp4392
(idelphi
DelphiRelOp
p4393
(dp4394
g382
(i__main__
DelphiIdentAccess
p4395
(dp4396
g356
S'pos'
p4397
sg358
(lp4398
(idelphi
DelphiFunctionEndAccess
p4399
(dp4400
g421
(lp4401
(idelphi
DelphiStringAccess
p4402
(dp4403
g358
(lp4404
sg47
(idelphi
DelphiStringValue
p4405
(dp4406
g47
S':'
sbsba(i__main__
DelphiIdentAccess
p4407
(dp4408
g356
S'soundFileWithPath'
p4409
sg358
(lp4410
sbasbasbsg387
(idelphi
DelphiIntegerValue
p4411
(dp4412
g47
S'0'
sbsg392
g2643
sbasbsg742
g743
sg744
(idelphi
DelphiNestedExpressionListAccess
p4413
(dp4414
g358
(lp4415
sg421
(lp4416
(idelphi
DelphiRelOp
p4417
(dp4418
g382
(i__main__
DelphiIdentAccess
p4419
(dp4420
g356
S'soundFileWithPath'
p4421
sg358
(lp4422
sbsg387
(idelphi
DelphiStringAccess
p4423
(dp4424
g358
(lp4425
sg47
(idelphi
DelphiStringValue
p4426
(dp4427
g47
S''
sbsbsg392
g1048
sbasbsbsg393
Nsg394
(i__main__
DelphiAssignStatement
p4428
(dp4429
g352
(idelphi
DelphiAddOp
p4430
(dp4431
g666
S'+'
sg667
(i__main__
DelphiIdentAccess
p4432
(dp4433
g356
S'soundFileWithPath'
p4434
sg358
(lp4435
sbsg672
(idelphi
DelphiAddOp
p4436
(dp4437
g666
S'+'
sg667
(idelphi
DelphiStringAccess
p4438
(dp4439
g358
(lp4440
sg47
(idelphi
DelphiStringValue
p4441
(dp4442
g47
S'\\'
sbsbsg672
(i__main__
DelphiIdentAccess
p4443
(dp4444
g356
S'GetCurrentDir'
p4445
sg358
(lp4446
sbsbsbsg353
(i__main__
DelphiIdentAccess
p4447
(dp4448
g356
S'soundFileWithPath'
p4449
sg358
(lp4450
sbsbsba(idelphi
DelphiIfStatement
p4451
(dp4452
g379
(i__main__
DelphiIdentAccess
p4453
(dp4454
g356
S'FileExists'
p4455
sg358
(lp4456
(idelphi
DelphiFunctionEndAccess
p4457
(dp4458
g421
(lp4459
(i__main__
DelphiIdentAccess
p4460
(dp4461
g356
S'soundFileWithPath'
p4462
sg358
(lp4463
sbasbasbsg393
Nsg394
(i__main__
DelphiAssignStatement
p4464
(dp4465
g352
Nsg353
(i__main__
DelphiIdentAccess
p4466
(dp4467
g356
S'agent'
p4468
sg358
(lp4469
(idelphi
DelphiFieldEndAccess
p4470
(dp4471
g362
S'Characters'
p4472
sba(idelphi
DelphiArrayEndAccess
p4473
(dp4474
g421
(lp4475
(i__main__
DelphiIdentAccess
p4476
(dp4477
g356
S'agentName'
p4478
sg358
(lp4479
sbasba(idelphi
DelphiFieldEndAccess
p4480
(dp4481
g362
S'Speak'
p4482
sba(idelphi
DelphiFunctionEndAccess
p4483
(dp4484
g421
(lp4485
(idelphi
DelphiStringAccess
p4486
(dp4487
g358
(lp4488
sg47
(idelphi
DelphiStringValue
p4489
(dp4490
g47
S''
sbsba(i__main__
DelphiIdentAccess
p4491
(dp4492
g356
S'soundFileWithPath'
p4493
sg358
(lp4494
sbasbasbsbsbasbsg928
(lp4495
(i__main__
DelphiVarSection
p4496
(dp4497
g932
I0
sg933
(lp4498
(idelphi
DelphiVarDecl
p4499
(dp4500
g937
Nsg938
(lp4501
S'soundFile'
p4502
aS'soundFileWithPath'
p4503
asg43
(i__main__
DelphiPrimitiveType
p4504
(dp4505
g46
g47
sbsba(idelphi
DelphiVarDecl
p4506
(dp4507
g937
Nsg938
(lp4508
S'music'
p4509
asg43
(i__main__
DelphiPrimitiveType
p4510
(dp4511
g46
g268
sbsba(idelphi
DelphiVarDecl
p4512
(dp4513
g937
Nsg938
(lp4514
S'musiconce'
p4515
asg43
(i__main__
DelphiPrimitiveType
p4516
(dp4517
g46
g268
sbsbasbasbsbsS'sayoptions'
p4518
(i__main__
DelphiMethodImplementation
p4519
(dp4520
g322
g208
sg27
g210
sg35
(lp4521
sg330
(lp4522
sg332
(lp4523
sg334
(lp4524
g336
asg337
(dp4525
sg50
S'TSSpeechSystem'
p4526
sg51
Nsg340
(lp4527
sg52
I0
sg53
g54
sg342
(i__main__
DelphiBlock
p4528
(dp4529
g345
(idelphi
DelphiCompoundStatement
p4530
(dp4531
g348
(lp4532
(i__main__
DelphiAssignStatement
p4533
(dp4534
g352
(idelphi
DelphiIntegerValue
p4535
(dp4536
g47
S'1'
sbsg353
(i__main__
DelphiIdentAccess
p4537
(dp4538
g356
S'riddleIndex'
p4539
sg358
(lp4540
sbsba(i__main__
DelphiAssignStatement
p4541
(dp4542
g352
(idelphi
DelphiStringAccess
p4543
(dp4544
g358
(lp4545
sg47
(idelphi
DelphiStringValue
p4546
(dp4547
g47
S''
sbsbsg353
(i__main__
DelphiIdentAccess
p4548
(dp4549
g356
S'thingsToSay'
p4550
sg358
(lp4551
sbsba(idelphi
DelphiIfStatement
p4552
(dp4553
g379
(idelphi
DelphiRelOp
p4554
(dp4555
g382
(i__main__
DelphiIdentAccess
p4556
(dp4557
g356
S'commandsListenedFor'
p4558
sg358
(lp4559
(idelphi
DelphiFieldEndAccess
p4560
(dp4561
g362
S'count'
p4562
sbasbsg387
(idelphi
DelphiIntegerValue
p4563
(dp4564
g47
S'0'
sbsg392
S'>'
sbsg393
Nsg394
(idelphi
DelphiForStatement
p4565
(dp4566
g2736
S'i'
sg2737
(idelphi
DelphiAddOp
p4567
(dp4568
g666
S'-'
sg667
(idelphi
DelphiIntegerValue
p4569
(dp4570
g47
S'1'
sbsg672
(i__main__
DelphiIdentAccess
p4571
(dp4572
g356
S'commandsListenedFor'
p4573
sg358
(lp4574
(idelphi
DelphiFieldEndAccess
p4575
(dp4576
g362
S'count'
p4577
sbasbsbsg2755
g2756
sg39
(idelphi
DelphiIntegerValue
p4578
(dp4579
g47
S'0'
sbsg1488
(idelphi
DelphiCompoundStatement
p4580
(dp4581
g348
(lp4582
(i__main__
DelphiAssignStatement
p4583
(dp4584
g352
(i__main__
DelphiIdentAccess
p4585
(dp4586
g356
S'commandsListenedFor'
p4587
sg358
(lp4588
(idelphi
DelphiArrayEndAccess
p4589
(dp4590
g421
(lp4591
(i__main__
DelphiIdentAccess
p4592
(dp4593
g356
S'i'
sg358
(lp4594
sbasbasbsg353
(i__main__
DelphiIdentAccess
p4595
(dp4596
g356
S'thing'
p4597
sg358
(lp4598
sbsba(i__main__
DelphiAssignStatement
p4599
(dp4600
g352
(i__main__
DelphiIdentAccess
p4601
(dp4602
g356
S'self'
p4603
sg358
(lp4604
(idelphi
DelphiFieldEndAccess
p4605
(dp4606
g362
S'hideRiddleAnswerForCommand'
p4607
sba(idelphi
DelphiFunctionEndAccess
p4608
(dp4609
g421
(lp4610
(i__main__
DelphiIdentAccess
p4611
(dp4612
g356
S'thing'
p4613
sg358
(lp4614
sbasbasbsg353
(i__main__
DelphiIdentAccess
p4615
(dp4616
g356
S'thing'
p4617
sg358
(lp4618
sbsba(idelphi
DelphiIfStatement
p4619
(dp4620
g379
(idelphi
DelphiMulOp
p4621
(dp4622
g721
(idelphi
DelphiNestedExpressionListAccess
p4623
(dp4624
g358
(lp4625
sg421
(lp4626
(idelphi
DelphiRelOp
p4627
(dp4628
g382
(i__main__
DelphiIdentAccess
p4629
(dp4630
g356
S'riddleIndex'
p4631
sg358
(lp4632
sbsg387
(idelphi
DelphiIntegerValue
p4633
(dp4634
g47
S'2'
sbsg392
S'>'
sbasbsg742
g743
sg744
(idelphi
DelphiNestedExpressionListAccess
p4635
(dp4636
g358
(lp4637
sg421
(lp4638
(idelphi
DelphiRelOp
p4639
(dp4640
g382
(i__main__
DelphiIdentAccess
p4641
(dp4642
g356
S'pos'
p4643
sg358
(lp4644
(idelphi
DelphiFunctionEndAccess
p4645
(dp4646
g421
(lp4647
(idelphi
DelphiStringAccess
p4648
(dp4649
g358
(lp4650
sg47
(idelphi
DelphiStringValue
p4651
(dp4652
g47
S'$'
sbsba(i__main__
DelphiIdentAccess
p4653
(dp4654
g356
S'commandsListenedFor'
p4655
sg358
(lp4656
(idelphi
DelphiArrayEndAccess
p4657
(dp4658
g421
(lp4659
(i__main__
DelphiIdentAccess
p4660
(dp4661
g356
S'i'
sg358
(lp4662
sbasbasbasbasbsg387
(idelphi
DelphiIntegerValue
p4663
(dp4664
g47
S'1'
sbsg392
S'='
sbasbsbsg393
Nsg394
(i__main__
DelphiAssignStatement
p4665
(dp4666
g352
(i__main__
DelphiIdentAccess
p4667
(dp4668
g356
S'commandListCommand'
p4669
sg358
(lp4670
sbsg353
(i__main__
DelphiIdentAccess
p4671
(dp4672
g356
S'thing'
p4673
sg358
(lp4674
sbsg364
(lp4675
S' only tell of first riddle answer\r'
p4676
asbsba(idelphi
DelphiIfStatement
p4677
(dp4678
g379
(idelphi
DelphiMulOp
p4679
(dp4680
g721
(idelphi
DelphiNestedExpressionListAccess
p4681
(dp4682
g358
(lp4683
sg421
(lp4684
(idelphi
DelphiRelOp
p4685
(dp4686
g382
(i__main__
DelphiIdentAccess
p4687
(dp4688
g356
S'thing'
p4689
sg358
(lp4690
sbsg387
(i__main__
DelphiIdentAccess
p4691
(dp4692
g356
S'repeatLastSayCommand'
p4693
sg358
(lp4694
sbsg392
g1048
sbasbsg742
g743
sg744
(idelphi
DelphiMulOp
p4695
(dp4696
g721
(idelphi
DelphiNestedExpressionListAccess
p4697
(dp4698
g358
(lp4699
sg421
(lp4700
(idelphi
DelphiRelOp
p4701
(dp4702
g382
(i__main__
DelphiIdentAccess
p4703
(dp4704
g356
S'thing'
p4705
sg358
(lp4706
sbsg387
(i__main__
DelphiIdentAccess
p4707
(dp4708
g356
S'redoCommand'
p4709
sg358
(lp4710
sbsg392
g1048
sbasbsg742
g743
sg744
(idelphi
DelphiMulOp
p4711
(dp4712
g721
(idelphi
DelphiNestedExpressionListAccess
p4713
(dp4714
g358
(lp4715
sg421
(lp4716
(idelphi
DelphiRelOp
p4717
(dp4718
g382
(i__main__
DelphiIdentAccess
p4719
(dp4720
g356
S'thing'
p4721
sg358
(lp4722
sbsg387
(i__main__
DelphiIdentAccess
p4723
(dp4724
g356
S'undoCommand'
p4725
sg358
(lp4726
sbsg392
g1048
sbasbsg742
g743
sg744
(idelphi
DelphiNestedExpressionListAccess
p4727
(dp4728
g358
(lp4729
sg421
(lp4730
(idelphi
DelphiRelOp
p4731
(dp4732
g382
(i__main__
DelphiIdentAccess
p4733
(dp4734
g356
S'thing'
p4735
sg358
(lp4736
sbsg387
(i__main__
DelphiIdentAccess
p4737
(dp4738
g356
S'commandListCommand'
p4739
sg358
(lp4740
sbsg392
g1048
sbasbsbsbsbsg393
Nsg394
(idelphi
DelphiCompoundStatement
p4741
(dp4742
g348
(lp4743
(idelphi
DelphiIfStatement
p4744
(dp4745
g379
(idelphi
DelphiRelOp
p4746
(dp4747
g382
(i__main__
DelphiIdentAccess
p4748
(dp4749
g356
S'Length'
p4750
sg358
(lp4751
(idelphi
DelphiFunctionEndAccess
p4752
(dp4753
g421
(lp4754
(i__main__
DelphiIdentAccess
p4755
(dp4756
g356
S'thingsToSay'
p4757
sg358
(lp4758
sbasbasbsg387
(idelphi
DelphiIntegerValue
p4759
(dp4760
g47
S'0'
sbsg392
g1048
sbsg393
Nsg394
(idelphi
DelphiCompoundStatement
p4761
(dp4762
g348
(lp4763
(i__main__
DelphiAssignStatement
p4764
(dp4765
g352
(idelphi
DelphiAddOp
p4766
(dp4767
g666
S'+'
sg667
(idelphi
DelphiStringAccess
p4768
(dp4769
g358
(lp4770
sg47
(idelphi
DelphiStringValue
p4771
(dp4772
g47
S', '
p4773
sbsbsg672
(i__main__
DelphiIdentAccess
p4774
(dp4775
g356
S'thingsToSay'
p4776
sg358
(lp4777
sbsbsg353
(i__main__
DelphiIdentAccess
p4778
(dp4779
g356
S'thingsToSay'
p4780
sg358
(lp4781
sbsg364
(lp4782
S" and (thing <> 'look') then\r"
p4783
asbasg364
(lp4784
S" won't work if options are last\r"
p4785
aS' works, but sounds wrong\r'
p4786
aS'if i = commandsListenedFor.count - 1 then\r'
p4787
aS"\tthingsToSay := thingsToSay + 'and ';\r"
p4788
asbsba(i__main__
DelphiAssignStatement
p4789
(dp4790
g352
(idelphi
DelphiAddOp
p4791
(dp4792
g666
S'+'
sg667
(i__main__
DelphiIdentAccess
p4793
(dp4794
g356
S'thing'
p4795
sg358
(lp4796
sbsg672
(i__main__
DelphiIdentAccess
p4797
(dp4798
g356
S'thingsToSay'
p4799
sg358
(lp4800
sbsbsg353
(i__main__
DelphiIdentAccess
p4801
(dp4802
g356
S'thingsToSay'
p4803
sg358
(lp4804
sbsbasbsbasbsbsba(idelphi
DelphiIfStatement
p4805
(dp4806
g379
(idelphi
DelphiRelOp
p4807
(dp4808
g382
(i__main__
DelphiIdentAccess
p4809
(dp4810
g356
S'Length'
p4811
sg358
(lp4812
(idelphi
DelphiFunctionEndAccess
p4813
(dp4814
g421
(lp4815
(i__main__
DelphiIdentAccess
p4816
(dp4817
g356
S'Trim'
p4818
sg358
(lp4819
(idelphi
DelphiFunctionEndAccess
p4820
(dp4821
g421
(lp4822
(i__main__
DelphiIdentAccess
p4823
(dp4824
g356
S'thingsToSay'
p4825
sg358
(lp4826
sbasbasbasbasbsg387
(idelphi
DelphiIntegerValue
p4827
(dp4828
g47
S'0'
sbsg392
S'='
sbsg393
Nsg394
(i__main__
DelphiAssignStatement
p4829
(dp4830
g352
(idelphi
DelphiAddOp
p4831
(dp4832
g666
S'+'
sg667
(idelphi
DelphiStringAccess
p4833
(dp4834
g358
(lp4835
sg47
(idelphi
DelphiStringValue
p4836
(dp4837
g47
S'.'
sbsbsg672
(idelphi
DelphiAddOp
p4838
(dp4839
g666
S'+'
sg667
(i__main__
DelphiIdentAccess
p4840
(dp4841
g356
S'commandListCommand'
p4842
sg358
(lp4843
sbsg672
(idelphi
DelphiStringAccess
p4844
(dp4845
g358
(lp4846
sg47
(idelphi
DelphiStringValue
p4847
(dp4848
g47
S'nothing except '
p4849
sbsbsbsbsg353
(i__main__
DelphiIdentAccess
p4850
(dp4851
g356
S'thingsToSay'
p4852
sg358
(lp4853
sbsbsba(i__main__
DelphiAssignStatement
p4854
(dp4855
g352
Nsg353
(i__main__
DelphiIdentAccess
p4856
(dp4857
g356
S'self'
p4858
sg358
(lp4859
(idelphi
DelphiFieldEndAccess
p4860
(dp4861
g362
S'speakText'
p4862
sba(idelphi
DelphiFunctionEndAccess
p4863
(dp4864
g421
(lp4865
(idelphi
DelphiAddOp
p4866
(dp4867
g666
S'+'
sg667
(idelphi
DelphiStringAccess
p4868
(dp4869
g358
(lp4870
sg47
(idelphi
DelphiStringValue
p4871
(dp4872
g47
S'.'
sbsbsg672
(idelphi
DelphiAddOp
p4873
(dp4874
g666
S'+'
sg667
(i__main__
DelphiIdentAccess
p4875
(dp4876
g356
S'thingsToSay'
p4877
sg358
(lp4878
sbsg672
(idelphi
DelphiStringAccess
p4879
(dp4880
g358
(lp4881
sg47
(idelphi
DelphiStringValue
p4882
(dp4883
g47
S'You can say: '
p4884
sbsbsbsbasbasbsbasbsg928
(lp4885
(i__main__
DelphiVarSection
p4886
(dp4887
g932
I0
sg933
(lp4888
(idelphi
DelphiVarDecl
p4889
(dp4890
g937
Nsg938
(lp4891
S'thingsToSay'
p4892
asg43
(i__main__
DelphiPrimitiveType
p4893
(dp4894
g46
g47
sbsba(idelphi
DelphiVarDecl
p4895
(dp4896
g937
Nsg938
(lp4897
S'thing'
p4898
asg43
(i__main__
DelphiPrimitiveType
p4899
(dp4900
g46
g47
sbsba(idelphi
DelphiVarDecl
p4901
(dp4902
g937
Nsg938
(lp4903
S'i'
asg43
(i__main__
DelphiPrimitiveType
p4904
(dp4905
g46
g289
sbsbasbasbsbsS'haltspeechandsound'
p4906
(i__main__
DelphiMethodImplementation
p4907
(dp4908
g322
g213
sg27
g215
sg35
(lp4909
sg330
(lp4910
sg332
(lp4911
sg334
(lp4912
g336
asg337
(dp4913
sg50
S'TSSpeechSystem'
p4914
sg51
Nsg340
(lp4915
sg52
I0
sg53
g54
sg342
(i__main__
DelphiBlock
p4916
(dp4917
g345
(idelphi
DelphiCompoundStatement
p4918
(dp4919
g348
(lp4920
(idelphi
DelphiIfStatement
p4921
(dp4922
g379
(idelphi
DelphiNot
p4923
(dp4924
g599
(i__main__
DelphiIdentAccess
p4925
(dp4926
g356
S'usingSpeech'
p4927
sg358
(lp4928
sbsbsg393
Nsg394
(i__main__
DelphiExitStatement
p4929
(dp4930
g443
g4907
sbsba(i__main__
DelphiAssignStatement
p4931
(dp4932
g352
Nsg353
(i__main__
DelphiIdentAccess
p4933
(dp4934
g356
S'agent'
p4935
sg358
(lp4936
(idelphi
DelphiFieldEndAccess
p4937
(dp4938
g362
S'Characters'
p4939
sba(idelphi
DelphiArrayEndAccess
p4940
(dp4941
g421
(lp4942
(i__main__
DelphiIdentAccess
p4943
(dp4944
g356
S'agentName'
p4945
sg358
(lp4946
sbasba(idelphi
DelphiFieldEndAccess
p4947
(dp4948
g362
S'StopAll'
p4949
sba(idelphi
DelphiFunctionEndAccess
p4950
(dp4951
g421
(lp4952
(idelphi
DelphiStringAccess
p4953
(dp4954
g358
(lp4955
sg47
(idelphi
DelphiStringValue
p4956
(dp4957
g47
S'Play,Speak'
p4958
sbsbasbasbsg364
(lp4959
S'if not domain.options.playerSpeak then exit;\r'
p4960
aS'if not domain.options.playerPlaySounds then exit;\r'
p4961
asbasbsg928
(lp4962
sbsbsS'clearvoicecommands'
p4963
(i__main__
DelphiMethodImplementation
p4964
(dp4965
g322
g218
sg27
g220
sg35
(lp4966
sg330
(lp4967
sg332
(lp4968
sg334
(lp4969
g336
asg337
(dp4970
sg50
S'TSSpeechSystem'
p4971
sg51
Nsg340
(lp4972
sg52
I0
sg53
g54
sg342
(i__main__
DelphiBlock
p4973
(dp4974
g345
(idelphi
DelphiCompoundStatement
p4975
(dp4976
g348
(lp4977
(idelphi
DelphiIfStatement
p4978
(dp4979
g379
(idelphi
DelphiNot
p4980
(dp4981
g599
(i__main__
DelphiIdentAccess
p4982
(dp4983
g356
S'usingSpeech'
p4984
sg358
(lp4985
sbsbsg393
Nsg394
(i__main__
DelphiExitStatement
p4986
(dp4987
g443
g4964
sbsba(i__main__
DelphiAssignStatement
p4988
(dp4989
g352
Nsg353
(i__main__
DelphiIdentAccess
p4990
(dp4991
g356
S'agent'
p4992
sg358
(lp4993
(idelphi
DelphiFieldEndAccess
p4994
(dp4995
g362
S'Characters'
p4996
sba(idelphi
DelphiArrayEndAccess
p4997
(dp4998
g421
(lp4999
(i__main__
DelphiIdentAccess
p5000
(dp5001
g356
S'agentName'
p5002
sg358
(lp5003
sbasba(idelphi
DelphiFieldEndAccess
p5004
(dp5005
g362
S'Commands'
p5006
sba(idelphi
DelphiFieldEndAccess
p5007
(dp5008
g362
S'RemoveAll'
p5009
sbasbsbasbsg928
(lp5010
sbsbsS'showpicture'
p5011
(i__main__
DelphiMethodImplementation
p5012
(dp5013
g322
g223
sg27
g225
sg35
(lp5014
(i__main__
DelphiFormalParameter
p5015
(dp5016
g39
Nsg40
(lp5017
S'pictureName'
p5018
asg43
(i__main__
DelphiPrimitiveType
p5019
(dp5020
g46
g47
sbsg48
g49
sba(i__main__
DelphiFormalParameter
p5021
(dp5022
g39
Nsg40
(lp5023
S'reply'
p5024
asg43
(i__main__
DelphiPrimitiveType
p5025
(dp5026
g46
g47
sbsg48
g49
sbasg330
(lp5027
sg332
(lp5028
sg334
(lp5029
g336
ag5018
ag5024
asg337
(dp5030
g5018
g5019
sg5024
g5025
ssg50
S'TSSpeechSystem'
p5031
sg51
Nsg340
(lp5032
sg52
I0
sg53
g54
sg342
(i__main__
DelphiBlock
p5033
(dp5034
g345
(idelphi
DelphiCompoundStatement
p5035
(dp5036
g348
(lp5037
(i__main__
DelphiAssignStatement
p5038
(dp5039
g352
(i__main__
DelphiIdentAccess
p5040
(dp5041
g356
S'Copy'
p5042
sg358
(lp5043
(idelphi
DelphiFunctionEndAccess
p5044
(dp5045
g421
(lp5046
(i__main__
DelphiIdentAccess
p5047
(dp5048
g356
S'pictureName'
p5049
sg358
(lp5050
sba(idelphi
DelphiAddOp
p5051
(dp5052
g666
S'+'
sg667
(idelphi
DelphiIntegerValue
p5053
(dp5054
g47
S'1'
sbsg672
(i__main__
DelphiIdentAccess
p5055
(dp5056
g356
S'length'
p5057
sg358
(lp5058
(idelphi
DelphiFunctionEndAccess
p5059
(dp5060
g421
(lp5061
(idelphi
DelphiStringAccess
p5062
(dp5063
g358
(lp5064
sg47
(idelphi
DelphiStringValue
p5065
(dp5066
g47
S'picture '
p5067
sbsbasbasbsba(i__main__
DelphiIdentAccess
p5068
(dp5069
g356
S'length'
p5070
sg358
(lp5071
(idelphi
DelphiFunctionEndAccess
p5072
(dp5073
g421
(lp5074
(i__main__
DelphiIdentAccess
p5075
(dp5076
g356
S'pictureName'
p5077
sg358
(lp5078
sbasbasbasbasbsg353
(i__main__
DelphiIdentAccess
p5079
(dp5080
g356
S'pictureFile'
p5081
sg358
(lp5082
sbsba(i__main__
DelphiAssignStatement
p5083
(dp5084
g352
(i__main__
DelphiIdentAccess
p5085
(dp5086
g356
S'trim'
p5087
sg358
(lp5088
(idelphi
DelphiFunctionEndAccess
p5089
(dp5090
g421
(lp5091
(i__main__
DelphiIdentAccess
p5092
(dp5093
g356
S'pictureFile'
p5094
sg358
(lp5095
sbasbasbsg353
(i__main__
DelphiIdentAccess
p5096
(dp5097
g356
S'pictureFile'
p5098
sg358
(lp5099
sbsba(idelphi
DelphiIfStatement
p5100
(dp5101
g379
(idelphi
DelphiRelOp
p5102
(dp5103
g382
(i__main__
DelphiIdentAccess
p5104
(dp5105
g356
S'pictureFile'
p5106
sg358
(lp5107
sbsg387
(idelphi
DelphiStringAccess
p5108
(dp5109
g358
(lp5110
sg47
(idelphi
DelphiStringValue
p5111
(dp5112
g47
S''
sbsbsg392
S'='
sbsg393
Nsg394
(i__main__
DelphiExitStatement
p5113
(dp5114
g443
g5012
sbsba(idelphi
DelphiIfStatement
p5115
(dp5116
g379
(idelphi
DelphiRelOp
p5117
(dp5118
g382
(i__main__
DelphiIdentAccess
p5119
(dp5120
g356
S'pos'
p5121
sg358
(lp5122
(idelphi
DelphiFunctionEndAccess
p5123
(dp5124
g421
(lp5125
(idelphi
DelphiStringAccess
p5126
(dp5127
g358
(lp5128
sg47
(idelphi
DelphiStringValue
p5129
(dp5130
g47
S'.'
sbsba(i__main__
DelphiIdentAccess
p5131
(dp5132
g356
S'pictureFile'
p5133
sg358
(lp5134
sbasbasbsg387
(idelphi
DelphiIntegerValue
p5135
(dp5136
g47
S'0'
sbsg392
g2643
sbsg393
Nsg394
(i__main__
DelphiAssignStatement
p5137
(dp5138
g352
(idelphi
DelphiAddOp
p5139
(dp5140
g666
S'+'
sg667
(idelphi
DelphiStringAccess
p5141
(dp5142
g358
(lp5143
sg47
(idelphi
DelphiStringValue
p5144
(dp5145
g47
S'.bmp'
p5146
sbsbsg672
(i__main__
DelphiIdentAccess
p5147
(dp5148
g356
S'pictureFile'
p5149
sg358
(lp5150
sbsbsg353
(i__main__
DelphiIdentAccess
p5151
(dp5152
g356
S'pictureFile'
p5153
sg358
(lp5154
sbsbsba(i__main__
DelphiAssignStatement
p5155
(dp5156
g352
(i__main__
DelphiIdentAccess
p5157
(dp5158
g356
S'pictureFile'
p5159
sg358
(lp5160
sbsg353
(i__main__
DelphiIdentAccess
p5161
(dp5162
g356
S'pictureFileWithPath'
p5163
sg358
(lp5164
sbsba(idelphi
DelphiIfStatement
p5165
(dp5166
g379
(idelphi
DelphiRelOp
p5167
(dp5168
g382
(i__main__
DelphiIdentAccess
p5169
(dp5170
g356
S'pos'
p5171
sg358
(lp5172
(idelphi
DelphiFunctionEndAccess
p5173
(dp5174
g421
(lp5175
(idelphi
DelphiStringAccess
p5176
(dp5177
g358
(lp5178
sg47
(idelphi
DelphiStringValue
p5179
(dp5180
g47
S':'
sbsba(i__main__
DelphiIdentAccess
p5181
(dp5182
g356
S'pictureFileWithPath'
p5183
sg358
(lp5184
sbasbasbsg387
(idelphi
DelphiIntegerValue
p5185
(dp5186
g47
S'0'
sbsg392
g2643
sbsg393
Nsg394
(i__main__
DelphiAssignStatement
p5187
(dp5188
g352
(i__main__
DelphiIdentAccess
p5189
(dp5190
g356
S'findFileRecursivelyInMediaDirectories'
p5191
sg358
(lp5192
(idelphi
DelphiFunctionEndAccess
p5193
(dp5194
g421
(lp5195
(i__main__
DelphiIdentAccess
p5196
(dp5197
g356
S'pictureFile'
p5198
sg358
(lp5199
sba(i__main__
DelphiIdentAccess
p5200
(dp5201
g356
S'domain'
p5202
sg358
(lp5203
(idelphi
DelphiFieldEndAccess
p5204
(dp5205
g362
S'options'
p5206
sba(idelphi
DelphiFieldEndAccess
p5207
(dp5208
g362
S'extraMediaDirectory'
p5209
sbasbasbasbsg353
(i__main__
DelphiIdentAccess
p5210
(dp5211
g356
S'pictureFileWithPath'
p5212
sg358
(lp5213
sbsbsba(idelphi
DelphiIfStatement
p5214
(dp5215
g379
(idelphi
DelphiMulOp
p5216
(dp5217
g721
(idelphi
DelphiNestedExpressionListAccess
p5218
(dp5219
g358
(lp5220
sg421
(lp5221
(idelphi
DelphiRelOp
p5222
(dp5223
g382
(i__main__
DelphiIdentAccess
p5224
(dp5225
g356
S'pos'
p5226
sg358
(lp5227
(idelphi
DelphiFunctionEndAccess
p5228
(dp5229
g421
(lp5230
(idelphi
DelphiStringAccess
p5231
(dp5232
g358
(lp5233
sg47
(idelphi
DelphiStringValue
p5234
(dp5235
g47
S':'
sbsba(i__main__
DelphiIdentAccess
p5236
(dp5237
g356
S'pictureFileWithPath'
p5238
sg358
(lp5239
sbasbasbsg387
(idelphi
DelphiIntegerValue
p5240
(dp5241
g47
S'0'
sbsg392
g2643
sbasbsg742
g743
sg744
(idelphi
DelphiNestedExpressionListAccess
p5242
(dp5243
g358
(lp5244
sg421
(lp5245
(idelphi
DelphiRelOp
p5246
(dp5247
g382
(i__main__
DelphiIdentAccess
p5248
(dp5249
g356
S'pictureFileWithPath'
p5250
sg358
(lp5251
sbsg387
(idelphi
DelphiStringAccess
p5252
(dp5253
g358
(lp5254
sg47
(idelphi
DelphiStringValue
p5255
(dp5256
g47
S''
sbsbsg392
g1048
sbasbsbsg393
Nsg394
(i__main__
DelphiAssignStatement
p5257
(dp5258
g352
(idelphi
DelphiAddOp
p5259
(dp5260
g666
S'+'
sg667
(i__main__
DelphiIdentAccess
p5261
(dp5262
g356
S'pictureFileWithPath'
p5263
sg358
(lp5264
sbsg672
(idelphi
DelphiAddOp
p5265
(dp5266
g666
S'+'
sg667
(idelphi
DelphiStringAccess
p5267
(dp5268
g358
(lp5269
sg47
(idelphi
DelphiStringValue
p5270
(dp5271
g47
S'\\'
sbsbsg672
(i__main__
DelphiIdentAccess
p5272
(dp5273
g356
S'GetCurrentDir'
p5274
sg358
(lp5275
sbsbsbsg353
(i__main__
DelphiIdentAccess
p5276
(dp5277
g356
S'pictureFileWithPath'
p5278
sg358
(lp5279
sbsbsba(idelphi
DelphiIfStatement
p5280
(dp5281
g379
(i__main__
DelphiIdentAccess
p5282
(dp5283
g356
S'FileExists'
p5284
sg358
(lp5285
(idelphi
DelphiFunctionEndAccess
p5286
(dp5287
g421
(lp5288
(i__main__
DelphiIdentAccess
p5289
(dp5290
g356
S'pictureFileWithPath'
p5291
sg358
(lp5292
sbasbasbsg393
Nsg394
(i__main__
DelphiAssignStatement
p5293
(dp5294
g352
Nsg353
(i__main__
DelphiIdentAccess
p5295
(dp5296
g356
S'PictureForm'
p5297
sg358
(lp5298
(idelphi
DelphiFieldEndAccess
p5299
(dp5300
g362
S'addPictureFromFile'
p5301
sba(idelphi
DelphiFunctionEndAccess
p5302
(dp5303
g421
(lp5304
(i__main__
DelphiIdentAccess
p5305
(dp5306
g356
S'pictureFileWithPath'
p5307
sg358
(lp5308
sba(i__main__
DelphiIdentAccess
p5309
(dp5310
g356
S'reply'
p5311
sg358
(lp5312
sbasbasbsbsbasbsg928
(lp5313
(i__main__
DelphiVarSection
p5314
(dp5315
g932
I0
sg933
(lp5316
(idelphi
DelphiVarDecl
p5317
(dp5318
g937
Nsg938
(lp5319
S'pictureFile'
p5320
aS'pictureFileWithPath'
p5321
asg43
(i__main__
DelphiPrimitiveType
p5322
(dp5323
g46
g47
sbsbasbasbsbsS'haltspeech'
p5324
(i__main__
DelphiMethodImplementation
p5325
(dp5326
g322
g240
sg27
g242
sg35
(lp5327
sg330
(lp5328
sg332
(lp5329
sg334
(lp5330
g336
asg337
(dp5331
sg50
S'TSSpeechSystem'
p5332
sg51
Nsg340
(lp5333
sg52
I0
sg53
g54
sg342
(i__main__
DelphiBlock
p5334
(dp5335
g345
(idelphi
DelphiCompoundStatement
p5336
(dp5337
g348
(lp5338
(idelphi
DelphiIfStatement
p5339
(dp5340
g379
(idelphi
DelphiNot
p5341
(dp5342
g599
(i__main__
DelphiIdentAccess
p5343
(dp5344
g356
S'usingSpeech'
p5345
sg358
(lp5346
sbsbsg393
Nsg394
(i__main__
DelphiExitStatement
p5347
(dp5348
g443
g5325
sbsba(i__main__
DelphiAssignStatement
p5349
(dp5350
g352
Nsg353
(i__main__
DelphiIdentAccess
p5351
(dp5352
g356
S'agent'
p5353
sg358
(lp5354
(idelphi
DelphiFieldEndAccess
p5355
(dp5356
g362
S'Characters'
p5357
sba(idelphi
DelphiArrayEndAccess
p5358
(dp5359
g421
(lp5360
(i__main__
DelphiIdentAccess
p5361
(dp5362
g356
S'agentName'
p5363
sg358
(lp5364
sbasba(idelphi
DelphiFieldEndAccess
p5365
(dp5366
g362
S'StopAll'
p5367
sba(idelphi
DelphiFunctionEndAccess
p5368
(dp5369
g421
(lp5370
(idelphi
DelphiStringAccess
p5371
(dp5372
g358
(lp5373
sg47
(idelphi
DelphiStringValue
p5374
(dp5375
g47
S'Speak'
p5376
sbsbasbasbsg364
(lp5377
S'if not domain.options.playerSpeak then exit;\r'
p5378
asbasbsg928
(lp5379
sbsbsS'saytextwithmacros'
p5380
(i__main__
DelphiMethodImplementation
p5381
(dp5382
g322
g245
sg27
g247
sg35
(lp5383
(i__main__
DelphiFormalParameter
p5384
(dp5385
g39
Nsg40
(lp5386
S'aString'
p5387
asg43
(i__main__
DelphiPrimitiveType
p5388
(dp5389
g46
g47
sbsg48
g49
sbasg330
(lp5390
sg332
(lp5391
sg334
(lp5392
g336
ag5387
asg337
(dp5393
g5387
g5388
ssg50
S'TSSpeechSystem'
p5394
sg51
Nsg340
(lp5395
sg52
I0
sg53
g54
sg342
(i__main__
DelphiBlock
p5396
(dp5397
g345
(idelphi
DelphiCompoundStatement
p5398
(dp5399
g348
(lp5400
(i__main__
DelphiAssignStatement
p5401
(dp5402
g352
(i__main__
DelphiIdentAccess
p5403
(dp5404
g356
S'aString'
p5405
sg358
(lp5406
sbsg353
(i__main__
DelphiIdentAccess
p5407
(dp5408
g356
S'remaining'
p5409
sg358
(lp5410
sbsba(i__main__
DelphiAssignStatement
p5411
(dp5412
g352
(idelphi
DelphiStringAccess
p5413
(dp5414
g358
(lp5415
sg47
(idelphi
DelphiStringValue
p5416
(dp5417
g47
S''
sbsbsg353
(i__main__
DelphiIdentAccess
p5418
(dp5419
g356
S'toSay'
p5420
sg358
(lp5421
sbsba(i__main__
DelphiAssignStatement
p5422
(dp5423
g352
(i__main__
DelphiIdentAccess
p5424
(dp5425
g356
S'Length'
p5426
sg358
(lp5427
(idelphi
DelphiFunctionEndAccess
p5428
(dp5429
g421
(lp5430
(i__main__
DelphiIdentAccess
p5431
(dp5432
g356
S'remaining'
p5433
sg358
(lp5434
sbasbasbsg353
(i__main__
DelphiIdentAccess
p5435
(dp5436
g356
S'wholeLength'
p5437
sg358
(lp5438
sbsba(idelphi
DelphiWhileStatement
p5439
(dp5440
g1488
(idelphi
DelphiCompoundStatement
p5441
(dp5442
g348
(lp5443
(i__main__
DelphiAssignStatement
p5444
(dp5445
g352
(i__main__
DelphiIdentAccess
p5446
(dp5447
g356
S'pos'
p5448
sg358
(lp5449
(idelphi
DelphiFunctionEndAccess
p5450
(dp5451
g421
(lp5452
(idelphi
DelphiStringAccess
p5453
(dp5454
g358
(lp5455
sg47
(idelphi
DelphiStringValue
p5456
(dp5457
g47
S'{'
sbsba(i__main__
DelphiIdentAccess
p5458
(dp5459
g356
S'remaining'
p5460
sg358
(lp5461
sbasbasbsg353
(i__main__
DelphiIdentAccess
p5462
(dp5463
g356
S'startPosition'
p5464
sg358
(lp5465
sbsba(idelphi
DelphiIfStatement
p5466
(dp5467
g379
(idelphi
DelphiRelOp
p5468
(dp5469
g382
(i__main__
DelphiIdentAccess
p5470
(dp5471
g356
S'startPosition'
p5472
sg358
(lp5473
sbsg387
(idelphi
DelphiIntegerValue
p5474
(dp5475
g47
S'0'
sbsg392
S'>'
sbsg393
(idelphi
DelphiCompoundStatement
p5476
(dp5477
g348
(lp5478
(idelphi
DelphiIfStatement
p5479
(dp5480
g379
(idelphi
DelphiRelOp
p5481
(dp5482
g382
(i__main__
DelphiIdentAccess
p5483
(dp5484
g356
S'Trim'
p5485
sg358
(lp5486
(idelphi
DelphiFunctionEndAccess
p5487
(dp5488
g421
(lp5489
(i__main__
DelphiIdentAccess
p5490
(dp5491
g356
S'remaining'
p5492
sg358
(lp5493
sbasbasbsg387
(idelphi
DelphiStringAccess
p5494
(dp5495
g358
(lp5496
sg47
(idelphi
DelphiStringValue
p5497
(dp5498
g47
S''
sbsbsg392
g1048
sbsg393
Nsg394
(i__main__
DelphiAssignStatement
p5499
(dp5500
g352
Nsg353
(i__main__
DelphiIdentAccess
p5501
(dp5502
g356
S'self'
p5503
sg358
(lp5504
(idelphi
DelphiFieldEndAccess
p5505
(dp5506
g362
S'speakText'
p5507
sba(idelphi
DelphiFunctionEndAccess
p5508
(dp5509
g421
(lp5510
(i__main__
DelphiIdentAccess
p5511
(dp5512
g356
S'remaining'
p5513
sg358
(lp5514
sbasbasbsbsba(i__main__
DelphiExitStatement
p5515
(dp5516
g443
g5381
sbasbsg394
(idelphi
DelphiCompoundStatement
p5517
(dp5518
g348
(lp5519
(i__main__
DelphiAssignStatement
p5520
(dp5521
g352
(i__main__
DelphiIdentAccess
p5522
(dp5523
g356
S'Copy'
p5524
sg358
(lp5525
(idelphi
DelphiFunctionEndAccess
p5526
(dp5527
g421
(lp5528
(i__main__
DelphiIdentAccess
p5529
(dp5530
g356
S'remaining'
p5531
sg358
(lp5532
sba(idelphi
DelphiIntegerValue
p5533
(dp5534
g47
S'1'
sba(idelphi
DelphiAddOp
p5535
(dp5536
g666
S'-'
sg667
(idelphi
DelphiIntegerValue
p5537
(dp5538
g47
S'1'
sbsg672
(i__main__
DelphiIdentAccess
p5539
(dp5540
g356
S'startPosition'
p5541
sg358
(lp5542
sbsbasbasbsg353
(i__main__
DelphiIdentAccess
p5543
(dp5544
g356
S'toSay'
p5545
sg358
(lp5546
sbsba(idelphi
DelphiIfStatement
p5547
(dp5548
g379
(idelphi
DelphiRelOp
p5549
(dp5550
g382
(i__main__
DelphiIdentAccess
p5551
(dp5552
g356
S'Trim'
p5553
sg358
(lp5554
(idelphi
DelphiFunctionEndAccess
p5555
(dp5556
g421
(lp5557
(i__main__
DelphiIdentAccess
p5558
(dp5559
g356
S'toSay'
p5560
sg358
(lp5561
sbasbasbsg387
(idelphi
DelphiStringAccess
p5562
(dp5563
g358
(lp5564
sg47
(idelphi
DelphiStringValue
p5565
(dp5566
g47
S''
sbsbsg392
g1048
sbsg393
Nsg394
(i__main__
DelphiAssignStatement
p5567
(dp5568
g352
Nsg353
(i__main__
DelphiIdentAccess
p5569
(dp5570
g356
S'self'
p5571
sg358
(lp5572
(idelphi
DelphiFieldEndAccess
p5573
(dp5574
g362
S'speakText'
p5575
sba(idelphi
DelphiFunctionEndAccess
p5576
(dp5577
g421
(lp5578
(i__main__
DelphiIdentAccess
p5579
(dp5580
g356
S'toSay'
p5581
sg358
(lp5582
sbasbasbsbsba(i__main__
DelphiAssignStatement
p5583
(dp5584
g352
(i__main__
DelphiIdentAccess
p5585
(dp5586
g356
S'Copy'
p5587
sg358
(lp5588
(idelphi
DelphiFunctionEndAccess
p5589
(dp5590
g421
(lp5591
(i__main__
DelphiIdentAccess
p5592
(dp5593
g356
S'remaining'
p5594
sg358
(lp5595
sba(idelphi
DelphiAddOp
p5596
(dp5597
g666
S'+'
sg667
(idelphi
DelphiIntegerValue
p5598
(dp5599
g47
S'1'
sbsg672
(i__main__
DelphiIdentAccess
p5600
(dp5601
g356
S'startPosition'
p5602
sg358
(lp5603
sbsba(i__main__
DelphiIdentAccess
p5604
(dp5605
g356
S'wholeLength'
p5606
sg358
(lp5607
sbasbasbsg353
(i__main__
DelphiIdentAccess
p5608
(dp5609
g356
S'remaining'
p5610
sg358
(lp5611
sbsbasbsba(i__main__
DelphiAssignStatement
p5612
(dp5613
g352
(i__main__
DelphiIdentAccess
p5614
(dp5615
g356
S'pos'
p5616
sg358
(lp5617
(idelphi
DelphiFunctionEndAccess
p5618
(dp5619
g421
(lp5620
(idelphi
DelphiStringAccess
p5621
(dp5622
g358
(lp5623
sg47
(idelphi
DelphiStringValue
p5624
(dp5625
g47
S'}'
sbsba(i__main__
DelphiIdentAccess
p5626
(dp5627
g356
S'remaining'
p5628
sg358
(lp5629
sbasbasbsg353
(i__main__
DelphiIdentAccess
p5630
(dp5631
g356
S'endPosition'
p5632
sg358
(lp5633
sbsba(idelphi
DelphiIfStatement
p5634
(dp5635
g379
(idelphi
DelphiRelOp
p5636
(dp5637
g382
(i__main__
DelphiIdentAccess
p5638
(dp5639
g356
S'endPosition'
p5640
sg358
(lp5641
sbsg387
(idelphi
DelphiIntegerValue
p5642
(dp5643
g47
S'0'
sbsg392
S'='
sbsg393
Nsg394
(idelphi
DelphiCompoundStatement
p5644
(dp5645
g348
(lp5646
(i__main__
DelphiAssignStatement
p5647
(dp5648
g352
Nsg353
(i__main__
DelphiIdentAccess
p5649
(dp5650
g356
S'self'
p5651
sg358
(lp5652
(idelphi
DelphiFieldEndAccess
p5653
(dp5654
g362
S'speakText'
p5655
sba(idelphi
DelphiFunctionEndAccess
p5656
(dp5657
g421
(lp5658
(i__main__
DelphiIdentAccess
p5659
(dp5660
g356
S'remaining'
p5661
sg358
(lp5662
sbasbasbsg364
(lp5663
S' error - unmatched braces\r'
p5664
asba(i__main__
DelphiExitStatement
p5665
(dp5666
g443
g5381
sbasbsba(i__main__
DelphiAssignStatement
p5667
(dp5668
g352
(i__main__
DelphiIdentAccess
p5669
(dp5670
g356
S'Trim'
p5671
sg358
(lp5672
(idelphi
DelphiFunctionEndAccess
p5673
(dp5674
g421
(lp5675
(i__main__
DelphiIdentAccess
p5676
(dp5677
g356
S'Copy'
p5678
sg358
(lp5679
(idelphi
DelphiFunctionEndAccess
p5680
(dp5681
g421
(lp5682
(i__main__
DelphiIdentAccess
p5683
(dp5684
g356
S'remaining'
p5685
sg358
(lp5686
sba(idelphi
DelphiIntegerValue
p5687
(dp5688
g47
S'1'
sba(idelphi
DelphiAddOp
p5689
(dp5690
g666
S'-'
sg667
(idelphi
DelphiIntegerValue
p5691
(dp5692
g47
S'1'
sbsg672
(i__main__
DelphiIdentAccess
p5693
(dp5694
g356
S'endPosition'
p5695
sg358
(lp5696
sbsbasbasbasbasbsg353
(i__main__
DelphiIdentAccess
p5697
(dp5698
g356
S'macro'
p5699
sg358
(lp5700
sbsba(i__main__
DelphiAssignStatement
p5701
(dp5702
g352
(i__main__
DelphiIdentAccess
p5703
(dp5704
g356
S'Copy'
p5705
sg358
(lp5706
(idelphi
DelphiFunctionEndAccess
p5707
(dp5708
g421
(lp5709
(i__main__
DelphiIdentAccess
p5710
(dp5711
g356
S'remaining'
p5712
sg358
(lp5713
sba(idelphi
DelphiAddOp
p5714
(dp5715
g666
S'+'
sg667
(idelphi
DelphiIntegerValue
p5716
(dp5717
g47
S'1'
sbsg672
(i__main__
DelphiIdentAccess
p5718
(dp5719
g356
S'endPosition'
p5720
sg358
(lp5721
sbsba(i__main__
DelphiIdentAccess
p5722
(dp5723
g356
S'wholeLength'
p5724
sg358
(lp5725
sbasbasbsg353
(i__main__
DelphiIdentAccess
p5726
(dp5727
g356
S'remaining'
p5728
sg358
(lp5729
sbsba(idelphi
DelphiIfStatement
p5730
(dp5731
g379
(idelphi
DelphiRelOp
p5732
(dp5733
g382
(i__main__
DelphiIdentAccess
p5734
(dp5735
g356
S'pos'
p5736
sg358
(lp5737
(idelphi
DelphiFunctionEndAccess
p5738
(dp5739
g421
(lp5740
(idelphi
DelphiStringAccess
p5741
(dp5742
g358
(lp5743
sg47
(idelphi
DelphiStringValue
p5744
(dp5745
g47
S'options'
p5746
sbsba(i__main__
DelphiIdentAccess
p5747
(dp5748
g356
S'macro'
p5749
sg358
(lp5750
sbasbasbsg387
(idelphi
DelphiIntegerValue
p5751
(dp5752
g47
S'1'
sbsg392
S'='
sbsg393
(idelphi
DelphiIfStatement
p5753
(dp5754
g379
(idelphi
DelphiRelOp
p5755
(dp5756
g382
(i__main__
DelphiIdentAccess
p5757
(dp5758
g356
S'pos'
p5759
sg358
(lp5760
(idelphi
DelphiFunctionEndAccess
p5761
(dp5762
g421
(lp5763
(idelphi
DelphiStringAccess
p5764
(dp5765
g358
(lp5766
sg47
(idelphi
DelphiStringValue
p5767
(dp5768
g47
S'picture '
p5769
sbsba(i__main__
DelphiIdentAccess
p5770
(dp5771
g356
S'macro'
p5772
sg358
(lp5773
sbasbasbsg387
(idelphi
DelphiIntegerValue
p5774
(dp5775
g47
S'1'
sbsg392
S'='
sbsg393
(i__main__
DelphiAssignStatement
p5776
(dp5777
g352
Nsg353
(i__main__
DelphiIdentAccess
p5778
(dp5779
g356
S'self'
p5780
sg358
(lp5781
(idelphi
DelphiFieldEndAccess
p5782
(dp5783
g362
S'speakSound'
p5784
sba(idelphi
DelphiFunctionEndAccess
p5785
(dp5786
g421
(lp5787
(i__main__
DelphiIdentAccess
p5788
(dp5789
g356
S'macro'
p5790
sg358
(lp5791
sbasbasbsbsg394
(i__main__
DelphiAssignStatement
p5792
(dp5793
g352
Nsg353
(i__main__
DelphiIdentAccess
p5794
(dp5795
g356
S'self'
p5796
sg358
(lp5797
(idelphi
DelphiFieldEndAccess
p5798
(dp5799
g362
S'showPicture'
p5800
sba(idelphi
DelphiFunctionEndAccess
p5801
(dp5802
g421
(lp5803
(i__main__
DelphiIdentAccess
p5804
(dp5805
g356
S'macro'
p5806
sg358
(lp5807
sba(i__main__
DelphiIdentAccess
p5808
(dp5809
g356
S'stripMacros'
p5810
sg358
(lp5811
(idelphi
DelphiFunctionEndAccess
p5812
(dp5813
g421
(lp5814
(i__main__
DelphiIdentAccess
p5815
(dp5816
g356
S'aString'
p5817
sg358
(lp5818
sbasbasbasbasbsbsbsg394
(i__main__
DelphiAssignStatement
p5819
(dp5820
g352
(i__main__
DelphiIdentAccess
p5821
(dp5822
g356
S'true'
p5823
sg358
(lp5824
sbsg353
(i__main__
DelphiIdentAccess
p5825
(dp5826
g356
S'self'
p5827
sg358
(lp5828
(idelphi
DelphiFieldEndAccess
p5829
(dp5830
g362
S'sayOptionsMacroInForce'
p5831
sbasbsg364
(lp5832
S' cfk added\r'
p5833
asbsbasbsg1746
(idelphi
DelphiNestedExpressionListAccess
p5834
(dp5835
g358
(lp5836
sg421
(lp5837
(idelphi
DelphiRelOp
p5838
(dp5839
g382
(i__main__
DelphiIdentAccess
p5840
(dp5841
g356
S'Length'
p5842
sg358
(lp5843
(idelphi
DelphiFunctionEndAccess
p5844
(dp5845
g421
(lp5846
(i__main__
DelphiIdentAccess
p5847
(dp5848
g356
S'remaining'
p5849
sg358
(lp5850
sbasbasbsg387
(idelphi
DelphiIntegerValue
p5851
(dp5852
g47
S'0'
sbsg392
S'>'
sbasbsbasbsg928
(lp5853
(i__main__
DelphiVarSection
p5854
(dp5855
g932
I0
sg933
(lp5856
(idelphi
DelphiVarDecl
p5857
(dp5858
g937
Nsg938
(lp5859
S'remaining'
p5860
aS'macro'
p5861
aS'toSay'
p5862
asg43
(i__main__
DelphiPrimitiveType
p5863
(dp5864
g46
g47
sbsba(idelphi
DelphiVarDecl
p5865
(dp5866
g937
Nsg938
(lp5867
S'startPosition'
p5868
aS'endPosition'
p5869
aS'wholeLength'
p5870
asg43
(i__main__
DelphiPrimitiveType
p5871
(dp5872
g46
g289
sbsbasbasbsbssS'propertyDeclarations'
p5873
(dp5874
sS'variableNamesInDeclaredOrder'
p5875
(lp5876
g14
ag10
ag24
ag22
ag18
ag12
ag26
ag20
ag16
asba(i__main__
DelphiConstSection
p5877
(dp5878
S'constDeclList'
p5879
(lp5880
(idelphi
DelphiConstDeclaration
p5881
(dp5882
g937
(idelphi
DelphiStringAccess
p5883
(dp5884
g358
(lp5885
sg47
(idelphi
DelphiStringValue
p5886
(dp5887
g47
S'options'
p5888
sbsbsg356
S'commandListCommand'
p5889
sg43
(idelphi
DelphiPrimitiveType
p5890
(dp5891
g46
S'UNDEFINED_NEEDS_CALCULATION'
p5892
sbsbasg932
I1
sba(i__main__
DelphiConstSection
p5893
(dp5894
g5879
(lp5895
(idelphi
DelphiConstDeclaration
p5896
(dp5897
g937
(idelphi
DelphiStringAccess
p5898
(dp5899
g358
(lp5900
sg47
(idelphi
DelphiStringValue
p5901
(dp5902
g47
S'say that again'
p5903
sbsbsg356
S'repeatLastSayCommand'
p5904
sg43
(idelphi
DelphiPrimitiveType
p5905
(dp5906
g46
g5892
sbsbasg932
I1
sba(i__main__
DelphiConstSection
p5907
(dp5908
g5879
(lp5909
(idelphi
DelphiConstDeclaration
p5910
(dp5911
g937
(idelphi
DelphiStringAccess
p5912
(dp5913
g358
(lp5914
sg47
(idelphi
DelphiStringValue
p5915
(dp5916
g47
S'undo'
p5917
sbsbsg356
S'undoCommand'
p5918
sg43
(idelphi
DelphiPrimitiveType
p5919
(dp5920
g46
g5892
sbsbasg932
I1
sba(i__main__
DelphiConstSection
p5921
(dp5922
g5879
(lp5923
(idelphi
DelphiConstDeclaration
p5924
(dp5925
g937
(idelphi
DelphiStringAccess
p5926
(dp5927
g358
(lp5928
sg47
(idelphi
DelphiStringValue
p5929
(dp5930
g47
S'redo'
p5931
sbsbsg356
S'redoCommand'
p5932
sg43
(idelphi
DelphiPrimitiveType
p5933
(dp5934
g46
g5892
sbsbasg932
I1
sba(i__main__
DelphiConstSection
p5935
(dp5936
g5879
(lp5937
(idelphi
DelphiConstDeclaration
p5938
(dp5939
g937
(idelphi
DelphiStringAccess
p5940
(dp5941
g358
(lp5942
sg47
(idelphi
DelphiStringValue
p5943
(dp5944
g47
S'say an answer for a riddle'
p5945
sbsbsg356
S'firstRiddleAnswer'
p5946
sg43
(idelphi
DelphiPrimitiveType
p5947
(dp5948
g46
g5892
sbsbasg932
I1
sba(i__main__
DelphiConstSection
p5949
(dp5950
g5879
(lp5951
(idelphi
DelphiConstDeclaration
p5952
(dp5953
g937
(idelphi
DelphiStringAccess
p5954
(dp5955
g358
(lp5956
sg47
(idelphi
DelphiStringValue
p5957
(dp5958
g47
S'StoryHarp'
p5959
sbsbsg356
S'agentName'
p5960
sg43
(idelphi
DelphiPrimitiveType
p5961
(dp5962
g46
g5892
sbsbasg932
I1
sba(i__main__
DelphiProceduralImplementation
p5963
(dp5964
g322
g5963
sg27
S'joinSentences'
p5965
sg51
(i__main__
DelphiPrimitiveType
p5966
(dp5967
g46
g47
sbsg330
(lp5968
sg332
(lp5969
sg334
(lp5970
S'firstSentence'
p5971
aS'secondSentence'
p5972
asg337
(dp5973
g5971
(i__main__
DelphiPrimitiveType
p5974
(dp5975
g46
g47
sbsg5972
(i__main__
DelphiPrimitiveType
p5976
(dp5977
g46
g47
sbssg35
(lp5978
(i__main__
DelphiFormalParameter
p5979
(dp5980
g39
Nsg40
(lp5981
g5971
asg43
g5974
sg48
g49
sba(i__main__
DelphiFormalParameter
p5982
(dp5983
g39
Nsg40
(lp5984
g5972
asg43
g5976
sg48
g49
sbasg340
(lp5985
sg342
(i__main__
DelphiBlock
p5986
(dp5987
g345
(idelphi
DelphiCompoundStatement
p5988
(dp5989
g348
(lp5990
(i__main__
DelphiAssignStatement
p5991
(dp5992
g352
(i__main__
DelphiIdentAccess
p5993
(dp5994
g356
S'Trim'
p5995
sg358
(lp5996
(idelphi
DelphiFunctionEndAccess
p5997
(dp5998
g421
(lp5999
(i__main__
DelphiIdentAccess
p6000
(dp6001
g356
S'firstSentence'
p6002
sg358
(lp6003
sbasbasbsg353
(i__main__
DelphiIdentAccess
p6004
(dp6005
g356
S'result'
p6006
sg358
(lp6007
sbsba(idelphi
DelphiIfStatement
p6008
(dp6009
g379
(idelphi
DelphiRelOp
p6010
(dp6011
g382
(idelphi
DelphiNestedExpressionListAccess
p6012
(dp6013
g358
(lp6014
sg421
(lp6015
(i__main__
DelphiIdentAccess
p6016
(dp6017
g356
S'Trim'
p6018
sg358
(lp6019
(idelphi
DelphiFunctionEndAccess
p6020
(dp6021
g421
(lp6022
(i__main__
DelphiIdentAccess
p6023
(dp6024
g356
S'secondSentence'
p6025
sg358
(lp6026
sbasbasbasbsg387
(idelphi
DelphiStringAccess
p6027
(dp6028
g358
(lp6029
sg47
(idelphi
DelphiStringValue
p6030
(dp6031
g47
S''
sbsbsg392
g1048
sbsg393
Nsg394
(idelphi
DelphiCompoundStatement
p6032
(dp6033
g348
(lp6034
(idelphi
DelphiIfStatement
p6035
(dp6036
g379
(idelphi
DelphiRelOp
p6037
(dp6038
g382
(i__main__
DelphiIdentAccess
p6039
(dp6040
g356
S'result'
p6041
sg358
(lp6042
sbsg387
(idelphi
DelphiStringAccess
p6043
(dp6044
g358
(lp6045
sg47
(idelphi
DelphiStringValue
p6046
(dp6047
g47
S''
sbsbsg392
g1048
sbsg393
Nsg394
(i__main__
DelphiAssignStatement
p6048
(dp6049
g352
(idelphi
DelphiAddOp
p6050
(dp6051
g666
S'+'
sg667
(idelphi
DelphiStringAccess
p6052
(dp6053
g358
(lp6054
sg47
(idelphi
DelphiStringValue
p6055
(dp6056
g47
S' '
sbsbsg672
(i__main__
DelphiIdentAccess
p6057
(dp6058
g356
S'result'
p6059
sg358
(lp6060
sbsbsg353
(i__main__
DelphiIdentAccess
p6061
(dp6062
g356
S'result'
p6063
sg358
(lp6064
sbsbsba(i__main__
DelphiAssignStatement
p6065
(dp6066
g352
(idelphi
DelphiAddOp
p6067
(dp6068
g666
S'+'
sg667
(i__main__
DelphiIdentAccess
p6069
(dp6070
g356
S'Trim'
p6071
sg358
(lp6072
(idelphi
DelphiFunctionEndAccess
p6073
(dp6074
g421
(lp6075
(i__main__
DelphiIdentAccess
p6076
(dp6077
g356
S'secondSentence'
p6078
sg358
(lp6079
sbasbasbsg672
(i__main__
DelphiIdentAccess
p6080
(dp6081
g356
S'result'
p6082
sg358
(lp6083
sbsbsg353
(i__main__
DelphiIdentAccess
p6084
(dp6085
g356
S'result'
p6086
sg358
(lp6087
sbsbasbsbasbsg928
(lp6088
sbsba(i__main__
DelphiProceduralImplementation
p6089
(dp6090
g322
g6089
sg27
S'findFileInDirectoryRecursive'
p6091
sg51
(i__main__
DelphiPrimitiveType
p6092
(dp6093
g46
g47
sbsg330
(lp6094
sg332
(lp6095
sg334
(lp6096
S'fileName'
p6097
aS'searchDir'
p6098
asg337
(dp6099
g6098
(i__main__
DelphiPrimitiveType
p6100
(dp6101
g46
g47
sbsg6097
(i__main__
DelphiPrimitiveType
p6102
(dp6103
g46
g47
sbssg35
(lp6104
(i__main__
DelphiFormalParameter
p6105
(dp6106
g39
Nsg40
(lp6107
g6097
asg43
g6102
sg48
g49
sba(i__main__
DelphiFormalParameter
p6108
(dp6109
g39
Nsg40
(lp6110
g6098
asg43
g6100
sg48
g49
sbasg340
(lp6111
sg342
(i__main__
DelphiBlock
p6112
(dp6113
g345
(idelphi
DelphiCompoundStatement
p6114
(dp6115
g348
(lp6116
(i__main__
DelphiAssignStatement
p6117
(dp6118
g352
(idelphi
DelphiStringAccess
p6119
(dp6120
g358
(lp6121
sg47
(idelphi
DelphiStringValue
p6122
(dp6123
g47
S''
sbsbsg353
(i__main__
DelphiIdentAccess
p6124
(dp6125
g356
S'result'
p6126
sg358
(lp6127
sbsba(idelphi
DelphiIfStatement
p6128
(dp6129
g379
(idelphi
DelphiRelOp
p6130
(dp6131
g382
(i__main__
DelphiIdentAccess
p6132
(dp6133
g356
S'FindFirst'
p6134
sg358
(lp6135
(idelphi
DelphiFunctionEndAccess
p6136
(dp6137
g421
(lp6138
(idelphi
DelphiAddOp
p6139
(dp6140
g666
S'+'
sg667
(idelphi
DelphiStringAccess
p6141
(dp6142
g358
(lp6143
sg47
(idelphi
DelphiStringValue
p6144
(dp6145
g47
S'*.*'
p6146
sbsbsg672
(i__main__
DelphiIdentAccess
p6147
(dp6148
g356
S'searchDir'
p6149
sg358
(lp6150
sbsba(i__main__
DelphiIdentAccess
p6151
(dp6152
g356
S'faDirectory'
p6153
sg358
(lp6154
sba(i__main__
DelphiIdentAccess
p6155
(dp6156
g356
S'searchRec'
p6157
sg358
(lp6158
sbasbasbsg387
(idelphi
DelphiIntegerValue
p6159
(dp6160
g47
S'0'
sbsg392
S'='
sbsg393
Nsg394
(idelphi
DelphiRepeatStatement
p6161
(dp6162
S'untilExpression'
p6163
(idelphi
DelphiAddOp
p6164
(dp6165
g666
g1823
sg667
(idelphi
DelphiNestedExpressionListAccess
p6166
(dp6167
g358
(lp6168
sg421
(lp6169
(idelphi
DelphiRelOp
p6170
(dp6171
g382
(i__main__
DelphiIdentAccess
p6172
(dp6173
g356
S'FindNext'
p6174
sg358
(lp6175
(idelphi
DelphiFunctionEndAccess
p6176
(dp6177
g421
(lp6178
(i__main__
DelphiIdentAccess
p6179
(dp6180
g356
S'searchRec'
p6181
sg358
(lp6182
sbasbasbsg387
(idelphi
DelphiIntegerValue
p6183
(dp6184
g47
S'0'
sbsg392
g1048
sbasbsg672
(idelphi
DelphiNestedExpressionListAccess
p6185
(dp6186
g358
(lp6187
sg421
(lp6188
(idelphi
DelphiRelOp
p6189
(dp6190
g382
(i__main__
DelphiIdentAccess
p6191
(dp6192
g356
S'result'
p6193
sg358
(lp6194
sbsg387
(idelphi
DelphiStringAccess
p6195
(dp6196
g358
(lp6197
sg47
(idelphi
DelphiStringValue
p6198
(dp6199
g47
S''
sbsbsg392
g1048
sbasbsbsg1488
(idelphi
DelphiIfStatement
p6200
(dp6201
g379
(idelphi
DelphiRelOp
p6202
(dp6203
g382
(i__main__
DelphiIdentAccess
p6204
(dp6205
g356
S'searchRec'
p6206
sg358
(lp6207
(idelphi
DelphiFieldEndAccess
p6208
(dp6209
g362
S'Name'
p6210
sba(idelphi
DelphiArrayEndAccess
p6211
(dp6212
g421
(lp6213
(idelphi
DelphiIntegerValue
p6214
(dp6215
g47
S'1'
sbasbasbsg387
(idelphi
DelphiStringAccess
p6216
(dp6217
g358
(lp6218
sg47
(idelphi
DelphiStringValue
p6219
(dp6220
g47
S'.'
sbsbsg392
g1048
sbsg393
Nsg394
(idelphi
DelphiCompoundStatement
p6221
(dp6222
g348
(lp6223
(idelphi
DelphiIfStatement
p6224
(dp6225
g379
(idelphi
DelphiNestedExpressionListAccess
p6226
(dp6227
g358
(lp6228
sg421
(lp6229
(idelphi
DelphiRelOp
p6230
(dp6231
g382
(idelphi
DelphiNestedExpressionListAccess
p6232
(dp6233
g358
(lp6234
sg421
(lp6235
(idelphi
DelphiMulOp
p6236
(dp6237
g721
(i__main__
DelphiIdentAccess
p6238
(dp6239
g356
S'faDirectory'
p6240
sg358
(lp6241
sbsg742
g743
sg744
(i__main__
DelphiIdentAccess
p6242
(dp6243
g356
S'searchRec'
p6244
sg358
(lp6245
(idelphi
DelphiFieldEndAccess
p6246
(dp6247
g362
S'Attr'
p6248
sbasbsbasbsg387
(idelphi
DelphiIntegerValue
p6249
(dp6250
g47
S'0'
sbsg392
S'>'
sbasbsg393
(idelphi
DelphiCompoundStatement
p6251
(dp6252
g348
(lp6253
(idelphi
DelphiIfStatement
p6254
(dp6255
g379
(idelphi
DelphiRelOp
p6256
(dp6257
g382
(i__main__
DelphiIdentAccess
p6258
(dp6259
g356
S'AnsiCompareText'
p6260
sg358
(lp6261
(idelphi
DelphiFunctionEndAccess
p6262
(dp6263
g421
(lp6264
(i__main__
DelphiIdentAccess
p6265
(dp6266
g356
S'searchRec'
p6267
sg358
(lp6268
(idelphi
DelphiFieldEndAccess
p6269
(dp6270
g362
S'Name'
p6271
sbasba(i__main__
DelphiIdentAccess
p6272
(dp6273
g356
S'fileName'
p6274
sg358
(lp6275
sbasbasbsg387
(idelphi
DelphiIntegerValue
p6276
(dp6277
g47
S'0'
sbsg392
S'='
sbsg393
Nsg394
(i__main__
DelphiAssignStatement
p6278
(dp6279
g352
(idelphi
DelphiAddOp
p6280
(dp6281
g666
S'+'
sg667
(i__main__
DelphiIdentAccess
p6282
(dp6283
g356
S'searchRec'
p6284
sg358
(lp6285
(idelphi
DelphiFieldEndAccess
p6286
(dp6287
g362
S'Name'
p6288
sbasbsg672
(i__main__
DelphiIdentAccess
p6289
(dp6290
g356
S'searchDir'
p6291
sg358
(lp6292
sbsbsg353
(i__main__
DelphiIdentAccess
p6293
(dp6294
g356
S'result'
p6295
sg358
(lp6296
sbsbsbasbsg394
(i__main__
DelphiAssignStatement
p6297
(dp6298
g352
(i__main__
DelphiIdentAccess
p6299
(dp6300
g356
S'findFileInDirectoryRecursive'
p6301
sg358
(lp6302
(idelphi
DelphiFunctionEndAccess
p6303
(dp6304
g421
(lp6305
(i__main__
DelphiIdentAccess
p6306
(dp6307
g356
S'fileName'
p6308
sg358
(lp6309
sba(idelphi
DelphiAddOp
p6310
(dp6311
g666
S'+'
sg667
(idelphi
DelphiStringAccess
p6312
(dp6313
g358
(lp6314
sg47
(idelphi
DelphiStringValue
p6315
(dp6316
g47
S'\\'
sbsbsg672
(idelphi
DelphiAddOp
p6317
(dp6318
g666
S'+'
sg667
(i__main__
DelphiIdentAccess
p6319
(dp6320
g356
S'searchRec'
p6321
sg358
(lp6322
(idelphi
DelphiFieldEndAccess
p6323
(dp6324
g362
S'Name'
p6325
sbasbsg672
(i__main__
DelphiIdentAccess
p6326
(dp6327
g356
S'searchDir'
p6328
sg358
(lp6329
sbsbsbasbasbsg353
(i__main__
DelphiIdentAccess
p6330
(dp6331
g356
S'result'
p6332
sg358
(lp6333
sbsg364
(lp6334
S"if searchDir[Length(searchDir)] <> '\\' then\r"
p6335
aS"    searchDir := searchDir + '\\'; "
p6336
asbsbasbsbsg364
(lp6337
S' Application.ProcessMessages;  '
p6338
asbsba(i__main__
DelphiAssignStatement
p6339
(dp6340
g352
Nsg353
(i__main__
DelphiIdentAccess
p6341
(dp6342
g356
S'SysUtils'
p6343
sg358
(lp6344
(idelphi
DelphiFieldEndAccess
p6345
(dp6346
g362
S'FindClose'
p6347
sba(idelphi
DelphiFunctionEndAccess
p6348
(dp6349
g421
(lp6350
(i__main__
DelphiIdentAccess
p6351
(dp6352
g356
S'searchRec'
p6353
sg358
(lp6354
sbasbasbsbasbsg928
(lp6355
(i__main__
DelphiVarSection
p6356
(dp6357
g932
I0
sg933
(lp6358
(idelphi
DelphiVarDecl
p6359
(dp6360
g937
Nsg938
(lp6361
S'searchRec'
p6362
asg43
(i__main__
DelphiNamedType
p6363
(dp6364
g46
S'TSearchRec'
p6365
sg166
g1
sg167
S'SysUtils'
p6366
sbsbasbasbsba(i__main__
DelphiProceduralImplementation
p6367
(dp6368
g322
(i__main__
DelphiProceduralDeclaration
p6369
(dp6370
g35
(lp6371
sg27
S'getWindowsMediaDirectory'
p6372
sg51
(i__main__
DelphiPrimitiveType
p6373
(dp6374
g46
g47
sbsbsg27
g6372
sg51
(i__main__
DelphiPrimitiveType
p6375
(dp6376
g46
g47
sbsg330
(lp6377
sg332
(lp6378
sg334
(lp6379
sg337
(dp6380
sg35
(lp6381
sg340
(lp6382
sg342
(i__main__
DelphiBlock
p6383
(dp6384
g345
(idelphi
DelphiCompoundStatement
p6385
(dp6386
g348
(lp6387
(i__main__
DelphiAssignStatement
p6388
(dp6389
g352
(idelphi
DelphiStringAccess
p6390
(dp6391
g358
(lp6392
sg47
(idelphi
DelphiStringValue
p6393
(dp6394
g47
S''
sbsbsg353
(i__main__
DelphiIdentAccess
p6395
(dp6396
g356
S'result'
p6397
sg358
(lp6398
sbsba(i__main__
DelphiAssignStatement
p6399
(dp6400
g352
Nsg353
(i__main__
DelphiIdentAccess
p6401
(dp6402
g356
S'SetLength'
p6403
sg358
(lp6404
(idelphi
DelphiFunctionEndAccess
p6405
(dp6406
g421
(lp6407
(i__main__
DelphiIdentAccess
p6408
(dp6409
g356
S'windowsDirectory'
p6410
sg358
(lp6411
sba(idelphi
DelphiAddOp
p6412
(dp6413
g666
S'+'
sg667
(idelphi
DelphiIntegerValue
p6414
(dp6415
g47
S'3'
sbsg672
(i__main__
DelphiIdentAccess
p6416
(dp6417
g356
S'MAX_PATH'
p6418
sg358
(lp6419
sbsbasbasbsba(i__main__
DelphiAssignStatement
p6420
(dp6421
g352
Nsg353
(i__main__
DelphiIdentAccess
p6422
(dp6423
g356
S'GetWindowsDirectory'
p6424
sg358
(lp6425
(idelphi
DelphiFunctionEndAccess
p6426
(dp6427
g421
(lp6428
(i__main__
DelphiValueTypecastAccess
p6429
(dp6430
S'valueTypecast'
p6431
(i__main__
DelphiValueTypecast
p6432
(dp6433
g379
(i__main__
DelphiIdentAccess
p6434
(dp6435
g356
S'windowsDirectory'
p6436
sg358
(lp6437
sbsS'typeIdentPredefined'
p6438
(i__main__
DelphiPrimitiveType
p6439
(dp6440
g46
S'pchar'
p6441
sbsbsg358
(lp6442
sba(idelphi
DelphiAddOp
p6443
(dp6444
g666
S'+'
sg667
(idelphi
DelphiIntegerValue
p6445
(dp6446
g47
S'1'
sbsg672
(i__main__
DelphiIdentAccess
p6447
(dp6448
g356
S'MAX_PATH'
p6449
sg358
(lp6450
sbsbasbasbsba(i__main__
DelphiAssignStatement
p6451
(dp6452
g352
(i__main__
DelphiIdentAccess
p6453
(dp6454
g356
S'Copy'
p6455
sg358
(lp6456
(idelphi
DelphiFunctionEndAccess
p6457
(dp6458
g421
(lp6459
(i__main__
DelphiIdentAccess
p6460
(dp6461
g356
S'windowsDirectory'
p6462
sg358
(lp6463
sba(idelphi
DelphiIntegerValue
p6464
(dp6465
g47
S'1'
sba(i__main__
DelphiIdentAccess
p6466
(dp6467
g356
S'strlen'
p6468
sg358
(lp6469
(idelphi
DelphiFunctionEndAccess
p6470
(dp6471
g421
(lp6472
(i__main__
DelphiValueTypecastAccess
p6473
(dp6474
g6431
(i__main__
DelphiValueTypecast
p6475
(dp6476
g379
(i__main__
DelphiIdentAccess
p6477
(dp6478
g356
S'windowsDirectory'
p6479
sg358
(lp6480
sbsg6438
(i__main__
DelphiPrimitiveType
p6481
(dp6482
g46
g6441
sbsbsg358
(lp6483
sbasbasbasbasbsg353
(i__main__
DelphiIdentAccess
p6484
(dp6485
g356
S'windowsDirectory'
p6486
sg358
(lp6487
sbsba(idelphi
DelphiIfStatement
p6488
(dp6489
g379
(idelphi
DelphiMulOp
p6490
(dp6491
g721
(idelphi
DelphiNestedExpressionListAccess
p6492
(dp6493
g358
(lp6494
sg421
(lp6495
(idelphi
DelphiRelOp
p6496
(dp6497
g382
(i__main__
DelphiIdentAccess
p6498
(dp6499
g356
S'windowsDirectory'
p6500
sg358
(lp6501
(idelphi
DelphiArrayEndAccess
p6502
(dp6503
g421
(lp6504
(i__main__
DelphiIdentAccess
p6505
(dp6506
g356
S'length'
p6507
sg358
(lp6508
(idelphi
DelphiFunctionEndAccess
p6509
(dp6510
g421
(lp6511
(i__main__
DelphiIdentAccess
p6512
(dp6513
g356
S'windowsDirectory'
p6514
sg358
(lp6515
sbasbasbasbasbsg387
(idelphi
DelphiStringAccess
p6516
(dp6517
g358
(lp6518
sg47
(idelphi
DelphiStringValue
p6519
(dp6520
g47
S'\\'
sbsbsg392
g1048
sbasbsg742
g743
sg744
(idelphi
DelphiNestedExpressionListAccess
p6521
(dp6522
g358
(lp6523
sg421
(lp6524
(idelphi
DelphiRelOp
p6525
(dp6526
g382
(i__main__
DelphiIdentAccess
p6527
(dp6528
g356
S'windowsDirectory'
p6529
sg358
(lp6530
sbsg387
(idelphi
DelphiStringAccess
p6531
(dp6532
g358
(lp6533
sg47
(idelphi
DelphiStringValue
p6534
(dp6535
g47
S''
sbsbsg392
g1048
sbasbsbsg393
Nsg394
(i__main__
DelphiAssignStatement
p6536
(dp6537
g352
(idelphi
DelphiAddOp
p6538
(dp6539
g666
S'+'
sg667
(idelphi
DelphiStringAccess
p6540
(dp6541
g358
(lp6542
sg47
(idelphi
DelphiStringValue
p6543
(dp6544
g47
S'\\'
sbsbsg672
(i__main__
DelphiIdentAccess
p6545
(dp6546
g356
S'windowsDirectory'
p6547
sg358
(lp6548
sbsbsg353
(i__main__
DelphiIdentAccess
p6549
(dp6550
g356
S'windowsDirectory'
p6551
sg358
(lp6552
sbsbsba(i__main__
DelphiAssignStatement
p6553
(dp6554
g352
(idelphi
DelphiAddOp
p6555
(dp6556
g666
S'+'
sg667
(idelphi
DelphiStringAccess
p6557
(dp6558
g358
(lp6559
sg47
(idelphi
DelphiStringValue
p6560
(dp6561
g47
S'media\\'
p6562
sbsbsg672
(i__main__
DelphiIdentAccess
p6563
(dp6564
g356
S'windowsDirectory'
p6565
sg358
(lp6566
sbsbsg353
(i__main__
DelphiIdentAccess
p6567
(dp6568
g356
S'result'
p6569
sg358
(lp6570
sbsbasbsg928
(lp6571
(i__main__
DelphiVarSection
p6572
(dp6573
g932
I0
sg933
(lp6574
(idelphi
DelphiVarDecl
p6575
(dp6576
g937
Nsg938
(lp6577
S'windowsDirectory'
p6578
asg43
(i__main__
DelphiPrimitiveType
p6579
(dp6580
g46
g47
sbsbasbasbsba(i__main__
DelphiProceduralImplementation
p6581
(dp6582
g322
g6581
sg27
S'findFileRecursivelyInMediaDirectories'
p6583
sg51
(i__main__
DelphiPrimitiveType
p6584
(dp6585
g46
g47
sbsg330
(lp6586
sg332
(lp6587
sg334
(lp6588
S'fileName'
p6589
aS'extraMediaDirectory'
p6590
asg337
(dp6591
g6590
(i__main__
DelphiPrimitiveType
p6592
(dp6593
g46
g47
sbsg6589
(i__main__
DelphiPrimitiveType
p6594
(dp6595
g46
g47
sbssg35
(lp6596
(i__main__
DelphiFormalParameter
p6597
(dp6598
g39
Nsg40
(lp6599
g6589
asg43
g6594
sg48
g49
sba(i__main__
DelphiFormalParameter
p6600
(dp6601
g39
Nsg40
(lp6602
g6590
asg43
g6592
sg48
g49
sbasg340
(lp6603
sg342
(i__main__
DelphiBlock
p6604
(dp6605
g345
(idelphi
DelphiCompoundStatement
p6606
(dp6607
g348
(lp6608
(i__main__
DelphiAssignStatement
p6609
(dp6610
g352
(i__main__
DelphiIdentAccess
p6611
(dp6612
g356
S'ExtractFilePath'
p6613
sg358
(lp6614
(idelphi
DelphiFunctionEndAccess
p6615
(dp6616
g421
(lp6617
(i__main__
DelphiIdentAccess
p6618
(dp6619
g356
S'domain'
p6620
sg358
(lp6621
(idelphi
DelphiFieldEndAccess
p6622
(dp6623
g362
S'worldFileName'
p6624
sbasbasbasbsg353
(i__main__
DelphiIdentAccess
p6625
(dp6626
g356
S'worldFileDirectory'
p6627
sg358
(lp6628
sbsg364
(lp6629
S' search in world file directory -- new sounds probably are where world is\r'
p6630
asba(idelphi
DelphiIfStatement
p6631
(dp6632
g379
(idelphi
DelphiRelOp
p6633
(dp6634
g382
(i__main__
DelphiIdentAccess
p6635
(dp6636
g356
S'worldFileDirectory'
p6637
sg358
(lp6638
sbsg387
(idelphi
DelphiStringAccess
p6639
(dp6640
g358
(lp6641
sg47
(idelphi
DelphiStringValue
p6642
(dp6643
g47
S''
sbsbsg392
S'='
sbsg393
Nsg394
(i__main__
DelphiAssignStatement
p6644
(dp6645
g352
(idelphi
DelphiAddOp
p6646
(dp6647
g666
S'+'
sg667
(idelphi
DelphiStringAccess
p6648
(dp6649
g358
(lp6650
sg47
(idelphi
DelphiStringValue
p6651
(dp6652
g47
S'\\'
sbsbsg672
(i__main__
DelphiIdentAccess
p6653
(dp6654
g356
S'GetCurrentDir'
p6655
sg358
(lp6656
sbsbsg353
(i__main__
DelphiIdentAccess
p6657
(dp6658
g356
S'worldFileDirectory'
p6659
sg358
(lp6660
sbsbsba(idelphi
DelphiIfStatement
p6661
(dp6662
g379
(idelphi
DelphiRelOp
p6663
(dp6664
g382
(i__main__
DelphiIdentAccess
p6665
(dp6666
g356
S'worldFileDirectory'
p6667
sg358
(lp6668
sbsg387
(idelphi
DelphiStringAccess
p6669
(dp6670
g358
(lp6671
sg47
(idelphi
DelphiStringValue
p6672
(dp6673
g47
S''
sbsbsg392
g1048
sbsg393
Nsg394
(i__main__
DelphiAssignStatement
p6674
(dp6675
g352
(i__main__
DelphiIdentAccess
p6676
(dp6677
g356
S'findFileInDirectoryRecursive'
p6678
sg358
(lp6679
(idelphi
DelphiFunctionEndAccess
p6680
(dp6681
g421
(lp6682
(i__main__
DelphiIdentAccess
p6683
(dp6684
g356
S'fileName'
p6685
sg358
(lp6686
sba(i__main__
DelphiIdentAccess
p6687
(dp6688
g356
S'worldFileDirectory'
p6689
sg358
(lp6690
sbasbasbsg353
(i__main__
DelphiIdentAccess
p6691
(dp6692
g356
S'result'
p6693
sg358
(lp6694
sbsbsba(idelphi
DelphiIfStatement
p6695
(dp6696
g379
(idelphi
DelphiRelOp
p6697
(dp6698
g382
(i__main__
DelphiIdentAccess
p6699
(dp6700
g356
S'result'
p6701
sg358
(lp6702
sbsg387
(idelphi
DelphiStringAccess
p6703
(dp6704
g358
(lp6705
sg47
(idelphi
DelphiStringValue
p6706
(dp6707
g47
S''
sbsbsg392
g1048
sbsg393
Nsg394
(i__main__
DelphiExitStatement
p6708
(dp6709
g443
g6581
sbsba(idelphi
DelphiIfStatement
p6710
(dp6711
g379
(idelphi
DelphiRelOp
p6712
(dp6713
g382
(i__main__
DelphiIdentAccess
p6714
(dp6715
g356
S'extraMediaDirectory'
p6716
sg358
(lp6717
sbsg387
(idelphi
DelphiStringAccess
p6718
(dp6719
g358
(lp6720
sg47
(idelphi
DelphiStringValue
p6721
(dp6722
g47
S''
sbsbsg392
g1048
sbsg393
Nsg394
(i__main__
DelphiAssignStatement
p6723
(dp6724
g352
(i__main__
DelphiIdentAccess
p6725
(dp6726
g356
S'findFileInDirectoryRecursive'
p6727
sg358
(lp6728
(idelphi
DelphiFunctionEndAccess
p6729
(dp6730
g421
(lp6731
(i__main__
DelphiIdentAccess
p6732
(dp6733
g356
S'fileName'
p6734
sg358
(lp6735
sba(i__main__
DelphiIdentAccess
p6736
(dp6737
g356
S'extraMediaDirectory'
p6738
sg358
(lp6739
sbasbasbsg353
(i__main__
DelphiIdentAccess
p6740
(dp6741
g356
S'result'
p6742
sg358
(lp6743
sbsg364
(lp6744
S' search in auxillary directory -- there might be an auxially CD-ROM\r'
p6745
asbsba(idelphi
DelphiIfStatement
p6746
(dp6747
g379
(idelphi
DelphiRelOp
p6748
(dp6749
g382
(i__main__
DelphiIdentAccess
p6750
(dp6751
g356
S'result'
p6752
sg358
(lp6753
sbsg387
(idelphi
DelphiStringAccess
p6754
(dp6755
g358
(lp6756
sg47
(idelphi
DelphiStringValue
p6757
(dp6758
g47
S''
sbsbsg392
g1048
sbsg393
Nsg394
(i__main__
DelphiExitStatement
p6759
(dp6760
g443
g6581
sbsba(i__main__
DelphiAssignStatement
p6761
(dp6762
g352
(i__main__
DelphiIdentAccess
p6763
(dp6764
g356
S'ExtractFilePath'
p6765
sg358
(lp6766
(idelphi
DelphiFunctionEndAccess
p6767
(dp6768
g421
(lp6769
(i__main__
DelphiIdentAccess
p6770
(dp6771
g356
S'Application'
p6772
sg358
(lp6773
(idelphi
DelphiFieldEndAccess
p6774
(dp6775
g362
S'ExeName'
p6776
sbasbasbasbsg353
(i__main__
DelphiIdentAccess
p6777
(dp6778
g356
S'exeDirectory'
p6779
sg358
(lp6780
sbsg364
(lp6781
S' search in exe directory -- sounds might be shipped with the program\r'
p6782
asba(idelphi
DelphiIfStatement
p6783
(dp6784
g379
(idelphi
DelphiRelOp
p6785
(dp6786
g382
(i__main__
DelphiIdentAccess
p6787
(dp6788
g356
S'exeDirectory'
p6789
sg358
(lp6790
sbsg387
(idelphi
DelphiStringAccess
p6791
(dp6792
g358
(lp6793
sg47
(idelphi
DelphiStringValue
p6794
(dp6795
g47
S''
sbsbsg392
g1048
sbsg393
Nsg394
(i__main__
DelphiAssignStatement
p6796
(dp6797
g352
(i__main__
DelphiIdentAccess
p6798
(dp6799
g356
S'findFileInDirectoryRecursive'
p6800
sg358
(lp6801
(idelphi
DelphiFunctionEndAccess
p6802
(dp6803
g421
(lp6804
(i__main__
DelphiIdentAccess
p6805
(dp6806
g356
S'fileName'
p6807
sg358
(lp6808
sba(i__main__
DelphiIdentAccess
p6809
(dp6810
g356
S'exeDirectory'
p6811
sg358
(lp6812
sbasbasbsg353
(i__main__
DelphiIdentAccess
p6813
(dp6814
g356
S'result'
p6815
sg358
(lp6816
sbsbsba(idelphi
DelphiIfStatement
p6817
(dp6818
g379
(idelphi
DelphiRelOp
p6819
(dp6820
g382
(i__main__
DelphiIdentAccess
p6821
(dp6822
g356
S'result'
p6823
sg358
(lp6824
sbsg387
(idelphi
DelphiStringAccess
p6825
(dp6826
g358
(lp6827
sg47
(idelphi
DelphiStringValue
p6828
(dp6829
g47
S''
sbsbsg392
g1048
sbsg393
Nsg394
(i__main__
DelphiExitStatement
p6830
(dp6831
g443
g6581
sbsba(i__main__
DelphiAssignStatement
p6832
(dp6833
g352
(i__main__
DelphiIdentAccess
p6834
(dp6835
g356
S'getWindowsMediaDirectory'
p6836
sg358
(lp6837
sbsg353
(i__main__
DelphiIdentAccess
p6838
(dp6839
g356
S'windowsMediaDirectory'
p6840
sg358
(lp6841
sbsg364
(lp6842
S' search in windows media directory -- default windows supplied items\r'
p6843
asba(i__main__
DelphiAssignStatement
p6844
(dp6845
g352
Nsg353
(i__main__
DelphiIdentAccess
p6846
(dp6847
g356
S'consoleForm'
p6848
sg358
(lp6849
(idelphi
DelphiFieldEndAccess
p6850
(dp6851
g362
S'reportMode'
p6852
sba(idelphi
DelphiFunctionEndAccess
p6853
(dp6854
g421
(lp6855
(idelphi
DelphiStringAccess
p6856
(dp6857
g358
(lp6858
sg47
(idelphi
DelphiStringValue
p6859
(dp6860
g47
S'Searching'
p6861
sbsbasbasbsba(idelphi
DelphiIfStatement
p6862
(dp6863
g379
(idelphi
DelphiRelOp
p6864
(dp6865
g382
(i__main__
DelphiIdentAccess
p6866
(dp6867
g356
S'windowsMediaDirectory'
p6868
sg358
(lp6869
sbsg387
(idelphi
DelphiStringAccess
p6870
(dp6871
g358
(lp6872
sg47
(idelphi
DelphiStringValue
p6873
(dp6874
g47
S''
sbsbsg392
g1048
sbsg393
Nsg394
(i__main__
DelphiAssignStatement
p6875
(dp6876
g352
(i__main__
DelphiIdentAccess
p6877
(dp6878
g356
S'findFileInDirectoryRecursive'
p6879
sg358
(lp6880
(idelphi
DelphiFunctionEndAccess
p6881
(dp6882
g421
(lp6883
(i__main__
DelphiIdentAccess
p6884
(dp6885
g356
S'fileName'
p6886
sg358
(lp6887
sba(i__main__
DelphiIdentAccess
p6888
(dp6889
g356
S'windowsMediaDirectory'
p6890
sg358
(lp6891
sbasbasbsg353
(i__main__
DelphiIdentAccess
p6892
(dp6893
g356
S'result'
p6894
sg358
(lp6895
sbsbsba(i__main__
DelphiAssignStatement
p6896
(dp6897
g352
Nsg353
(i__main__
DelphiIdentAccess
p6898
(dp6899
g356
S'consoleForm'
p6900
sg358
(lp6901
(idelphi
DelphiFieldEndAccess
p6902
(dp6903
g362
S'reportMode'
p6904
sba(idelphi
DelphiFunctionEndAccess
p6905
(dp6906
g421
(lp6907
(idelphi
DelphiStringAccess
p6908
(dp6909
g358
(lp6910
sg47
(idelphi
DelphiStringValue
p6911
(dp6912
g47
S'Running'
p6913
sbsbasbasbsbasbsg928
(lp6914
(i__main__
DelphiVarSection
p6915
(dp6916
g932
I0
sg933
(lp6917
(idelphi
DelphiVarDecl
p6918
(dp6919
g937
Nsg938
(lp6920
S'worldFileDirectory'
p6921
aS'exeDirectory'
p6922
aS'windowsMediaDirectory'
p6923
asg43
(i__main__
DelphiPrimitiveType
p6924
(dp6925
g46
g47
sbsbasbasbsbasS'includedUnits'
p6926
NsS'implementationUses'
p6927
(lp6928
S'Forms'
p6929
aS'USConsoleForm'
p6930
aS'USDomain'
p6931
aS'USRuleEditorForm'
p6932
aS'MMSystem'
p6933
aS'MPlayer'
p6934
aS'USVariableCommands'
p6935
aS'registry'
p6936
aS'USAgentWarning'
p6937
aS'USPictureForm'
p6938
asg27
S'USSpeech'
p6939
sS'constSections'
p6940
(lp6941
g5877
ag5893
ag5907
ag5921
ag5935
ag5949
asS'globalsInProperCase'
p6942
NsS'interfaceUses'
p6943
(lp6944
S'delphi_compatability'
p6945
aS'Windows'
p6946
aS'Messages'
p6947
aS'SysUtils'
p6948
aS'Classes'
p6949
aS'Graphics'
p6950
aS'Dialogs'
p6951
aS'USWorld'
p6952
aS'OleCtrls'
p6953
aS'AgentObjects_TLB'
p6954
asS'finalCommentToken'
p6955
(i__main__
PassStatement
p6956
(dp6957
g928
(lp6958
sbsS'varSections'
p6959
(lp6960
sS'globals'
p6961
NsS'originalFileName'
p6962
S'../../storyharp-js/converted_source/usspeech.pas'
p6963
sS'proceduralImplementations'
p6964
(dp6965
S'findfileindirectoryrecursive'
p6966
g6089
sS'getwindowsmediadirectory'
p6967
g6367
sS'joinsentences'
p6968
g5963
sS'findfilerecursivelyinmediadirectories'
p6969
g6581
ssS'fileName'
p6970
S'/home/pdfernhout/workspace/storyharp-js/converted_source/usspeech.pas'
p6971
sS'proceduralDeclarations'
p6972
(dp6973
S'getwindowsmediadirectory'
p6974
g6369
ssS'types'
p6975
(dp6976
S'tsspeechsystem'
p6977
g5
ssb.