(i__main__
DelphiUnit
p1
(dp2
S'sectionsInOrderDefined'
p3
(lp4
(i__main__
DelphiClass
p5
(dp6
S'variableNamesInProperCase'
p7
(dp8
S'variable'
p9
S'variable'
p10
sS'newstate'
p11
S'newState'
p12
sS'oldstate'
p13
S'oldState'
p14
ssS'name'
p15
S'TSToggleVariableCommand'
p16
sS'methodDeclarations'
p17
(dp18
S'setvariablestatewithupdate'
p19
(i__main__
DelphiMethodDeclaration
p20
(dp21
g15
S'setVariableStateWithUpdate'
p22
sS'formalParameters'
p23
(lp24
(i__main__
DelphiFormalParameter
p25
(dp26
S'initialValue'
p27
NsS'names'
p28
(lp29
S'state'
p30
asS'theType'
p31
(i__main__
DelphiNamedType
p32
(dp33
S'typeName'
p34
S'TSVariableState'
p35
sS'unitDefinedIn'
p36
g1
sS'unitName'
p37
NsbsS'parameterVariety'
p38
NsbasS'className'
p39
g16
sS'resultType'
p40
NsS'isClassMethod'
p41
I0
sS'methodType'
p42
S'procedure'
p43
sbsS'docommand'
p44
(i__main__
DelphiMethodDeclaration
p45
(dp46
g15
S'doCommand'
p47
sg23
(lp48
sg39
g16
sg40
Nsg41
I0
sg42
g43
sbsS'undocommand'
p49
(i__main__
DelphiMethodDeclaration
p50
(dp51
g15
S'undoCommand'
p52
sg23
(lp53
sg39
g16
sg40
Nsg41
I0
sg42
g43
sbsS'createwithvariable'
p54
(i__main__
DelphiMethodDeclaration
p55
(dp56
g15
S'createWithVariable'
p57
sg23
(lp58
(i__main__
DelphiFormalParameter
p59
(dp60
g27
Nsg28
(lp61
S'variable'
p62
asg31
(i__main__
DelphiNamedType
p63
(dp64
g34
S'TSVariable'
p65
sg36
g1
sg37
Nsbsg38
Nsbasg39
g16
sg40
Nsg41
I0
sg42
S'constructor'
p66
sbsS'description'
p67
(i__main__
DelphiMethodDeclaration
p68
(dp69
g15
S'description'
p70
sg23
(lp71
sg39
g16
sg40
(i__main__
DelphiPrimitiveType
p72
(dp73
g34
S'string'
p74
sbsg41
I0
sg42
S'function'
p75
sbssS'superclassNamedTypes'
p76
(lp77
(i__main__
DelphiNamedType
p78
(dp79
g34
S'KfCommand'
p80
sg36
g1
sg37
NsbasS'variableNames'
p81
(dp82
S'variable'
p83
(i__main__
DelphiNamedType
p84
(dp85
g34
S'TSVariable'
p86
sg36
g1
sg37
NsbsS'newstate'
p87
(i__main__
DelphiNamedType
p88
(dp89
g34
S'TSVariableState'
p90
sg36
g1
sg37
NsbsS'oldstate'
p91
(i__main__
DelphiNamedType
p92
(dp93
g34
S'TSVariableState'
p94
sg36
g1
sg37
NsbssS'methodNamesInDefinedOrder'
p95
(lp96
S'createwithvariable'
p97
aS'setvariablestatewithupdate'
p98
aS'docommand'
p99
aS'undocommand'
p100
aS'description'
p101
asS'methodImplementations'
p102
(dp103
S'setvariablestatewithupdate'
p104
(i__main__
DelphiMethodImplementation
p105
(dp106
S'originalDeclaration'
p107
g20
sg15
g22
sg23
(lp108
(i__main__
DelphiFormalParameter
p109
(dp110
g27
Nsg28
(lp111
S'state'
p112
asg31
(i__main__
DelphiNamedType
p113
(dp114
g34
S'TSVariableState'
p115
sg36
g1
sg37
Nsbsg38
NsbasS'varParamIndexes'
p116
(lp117
sS'varParamsSkipped'
p118
(lp119
sS'argNames'
p120
(lp121
S'self'
p122
ag112
asS'argTypes'
p123
(dp124
g112
g113
ssg39
S'TSToggleVariableCommand'
p125
sg40
NsS'varParamNames'
p126
(lp127
sg41
I0
sg42
g43
sS'block'
p128
(i__main__
DelphiBlock
p129
(dp130
S'compoundStatement'
p131
(idelphi
DelphiCompoundStatement
p132
(dp133
S'statements'
p134
(lp135
(i__main__
DelphiAssignStatement
p136
(dp137
S'newValueExpression'
p138
NsS'destinationExpression'
p139
(i__main__
DelphiIdentAccess
p140
(dp141
S'ident'
p142
S'variable'
p143
sS'endAccessList'
p144
(lp145
(idelphi
DelphiFieldEndAccess
p146
(dp147
S'field'
p148
S'setState'
p149
sba(idelphi
DelphiFunctionEndAccess
p150
(dp151
S'expressionList'
p152
(lp153
(i__main__
DelphiIdentAccess
p154
(dp155
g142
S'state'
p156
sg144
(lp157
sbasbasbsba(idelphi
DelphiIfStatement
p158
(dp159
S'expression'
p160
(i__main__
DelphiIdentAccess
p161
(dp162
g142
S'ConsoleForm'
p163
sg144
(lp164
(idelphi
DelphiFieldEndAccess
p165
(dp166
g148
S'ShowOnlyTrueVariablesButton'
p167
sba(idelphi
DelphiFieldEndAccess
p168
(dp169
g148
S'down'
p170
sbasbsS'ifFalseStatement'
p171
(i__main__
DelphiAssignStatement
p172
(dp173
g138
Nsg139
(i__main__
DelphiIdentAccess
p174
(dp175
g142
S'ConsoleForm'
p176
sg144
(lp177
(idelphi
DelphiFieldEndAccess
p178
(dp179
g148
S'VariablesListBox'
p180
sba(idelphi
DelphiFieldEndAccess
p181
(dp182
g148
S'invalidate'
p183
sbasbsbsS'ifTrueStatement'
p184
(idelphi
DelphiCompoundStatement
p185
(dp186
g134
(lp187
(i__main__
DelphiAssignStatement
p188
(dp189
g138
Nsg139
(i__main__
DelphiIdentAccess
p190
(dp191
g142
S'ConsoleForm'
p192
sg144
(lp193
(idelphi
DelphiFieldEndAccess
p194
(dp195
g148
S'updateVariables'
p196
sbasbsba(i__main__
DelphiAssignStatement
p197
(dp198
g138
(i__main__
DelphiIdentAccess
p199
(dp200
g142
S'ConsoleForm'
p201
sg144
(lp202
(idelphi
DelphiFieldEndAccess
p203
(dp204
g148
S'VariablesListBox'
p205
sba(idelphi
DelphiFieldEndAccess
p206
(dp207
g148
S'items'
p208
sba(idelphi
DelphiFieldEndAccess
p209
(dp210
g148
S'indexOfObject'
p211
sba(idelphi
DelphiFunctionEndAccess
p212
(dp213
g152
(lp214
(i__main__
DelphiIdentAccess
p215
(dp216
g142
S'variable'
p217
sg144
(lp218
sbasbasbsg139
(i__main__
DelphiIdentAccess
p219
(dp220
g142
S'ConsoleForm'
p221
sg144
(lp222
(idelphi
DelphiFieldEndAccess
p223
(dp224
g148
S'VariablesListBox'
p225
sba(idelphi
DelphiFieldEndAccess
p226
(dp227
g148
S'itemIndex'
p228
sbasbsba(i__main__
DelphiAssignStatement
p229
(dp230
g138
Nsg139
(i__main__
DelphiIdentAccess
p231
(dp232
g142
S'ConsoleForm'
p233
sg144
(lp234
(idelphi
DelphiFieldEndAccess
p235
(dp236
g148
S'VariablesListBox'
p237
sba(idelphi
DelphiFieldEndAccess
p238
(dp239
g148
S'invalidate'
p240
sbasbsbasbsba(i__main__
DelphiAssignStatement
p241
(dp242
g138
Nsg139
(i__main__
DelphiIdentAccess
p243
(dp244
g142
S'domain'
p245
sg144
(lp246
(idelphi
DelphiFieldEndAccess
p247
(dp248
g148
S'world'
p249
sba(idelphi
DelphiFieldEndAccess
p250
(dp251
g148
S'updateAvailable'
p252
sbasbsba(i__main__
DelphiAssignStatement
p253
(dp254
g138
Nsg139
(i__main__
DelphiIdentAccess
p255
(dp256
g142
S'ConsoleForm'
p257
sg144
(lp258
(idelphi
DelphiFieldEndAccess
p259
(dp260
g148
S'speechSystem'
p261
sba(idelphi
DelphiFieldEndAccess
p262
(dp263
g148
S'listenForAvailableCommands'
p264
sbasbsbasbsS'limitedDeclSectionList'
p265
(lp266
sbsbsS'docommand'
p267
(i__main__
DelphiMethodImplementation
p268
(dp269
g107
g45
sg15
g47
sg23
(lp270
sg116
(lp271
sg118
(lp272
sg120
(lp273
g122
asg123
(dp274
sg39
S'TSToggleVariableCommand'
p275
sg40
Nsg126
(lp276
sg41
I0
sg42
g43
sg128
(i__main__
DelphiBlock
p277
(dp278
g131
(idelphi
DelphiCompoundStatement
p279
(dp280
g134
(lp281
(i__main__
DelphiAssignStatement
p282
(dp283
g138
Nsg139
(i__main__
DelphiIdentAccess
p284
(dp285
g142
S'self'
p286
sg144
(lp287
(idelphi
DelphiFieldEndAccess
p288
(dp289
g148
S'setVariableStateWithUpdate'
p290
sba(idelphi
DelphiFunctionEndAccess
p291
(dp292
g152
(lp293
(i__main__
DelphiIdentAccess
p294
(dp295
g142
S'newState'
p296
sg144
(lp297
sbasbasbsba(i__main__
DelphiAssignStatement
p298
(dp299
g138
Nsg139
(idelphi
DelphiInheritedCall
p300
(dp301
g142
S'doCommand'
p302
sg152
Nsbsbasbsg265
(lp303
sbsbsS'undocommand'
p304
(i__main__
DelphiMethodImplementation
p305
(dp306
g107
g50
sg15
g52
sg23
(lp307
sg116
(lp308
sg118
(lp309
sg120
(lp310
g122
asg123
(dp311
sg39
S'TSToggleVariableCommand'
p312
sg40
Nsg126
(lp313
sg41
I0
sg42
g43
sg128
(i__main__
DelphiBlock
p314
(dp315
g131
(idelphi
DelphiCompoundStatement
p316
(dp317
g134
(lp318
(i__main__
DelphiAssignStatement
p319
(dp320
g138
Nsg139
(i__main__
DelphiIdentAccess
p321
(dp322
g142
S'self'
p323
sg144
(lp324
(idelphi
DelphiFieldEndAccess
p325
(dp326
g148
S'setVariableStateWithUpdate'
p327
sba(idelphi
DelphiFunctionEndAccess
p328
(dp329
g152
(lp330
(i__main__
DelphiIdentAccess
p331
(dp332
g142
S'oldState'
p333
sg144
(lp334
sbasbasbsba(i__main__
DelphiAssignStatement
p335
(dp336
g138
Nsg139
(idelphi
DelphiInheritedCall
p337
(dp338
g142
S'undoCommand'
p339
sg152
Nsbsbasbsg265
(lp340
sbsbsS'createwithvariable'
p341
(i__main__
DelphiMethodImplementation
p342
(dp343
g107
g55
sg15
g57
sg23
(lp344
(i__main__
DelphiFormalParameter
p345
(dp346
g27
Nsg28
(lp347
S'variable'
p348
asg31
(i__main__
DelphiNamedType
p349
(dp350
g34
S'TSVariable'
p351
sg36
g1
sg37
Nsbsg38
Nsbasg116
(lp352
sg118
(lp353
sg120
(lp354
g122
ag348
asg123
(dp355
g348
g349
ssg39
S'TSToggleVariableCommand'
p356
sg40
Nsg126
(lp357
sg41
I0
sg42
g66
sg128
(i__main__
DelphiBlock
p358
(dp359
g131
(idelphi
DelphiCompoundStatement
p360
(dp361
g134
(lp362
(i__main__
DelphiAssignStatement
p363
(dp364
g138
Nsg139
(i__main__
DelphiIdentAccess
p365
(dp366
g142
S'self'
p367
sg144
(lp368
(idelphi
DelphiFieldEndAccess
p369
(dp370
g148
S'create'
p371
sbasbsba(i__main__
DelphiAssignStatement
p372
(dp373
g138
(i__main__
DelphiIdentAccess
p374
(dp375
g142
S'variable'
p376
sg144
(lp377
sbsg139
(i__main__
DelphiIdentAccess
p378
(dp379
g142
S'self'
p380
sg144
(lp381
(idelphi
DelphiFieldEndAccess
p382
(dp383
g148
S'variable'
p384
sbasbsba(i__main__
DelphiAssignStatement
p385
(dp386
g138
(i__main__
DelphiIdentAccess
p387
(dp388
g142
S'variable'
p389
sg144
(lp390
(idelphi
DelphiFieldEndAccess
p391
(dp392
g148
S'getState'
p393
sbasbsg139
(i__main__
DelphiIdentAccess
p394
(dp395
g142
S'self'
p396
sg144
(lp397
(idelphi
DelphiFieldEndAccess
p398
(dp399
g148
S'oldState'
p400
sbasbsba(idelphi
DelphiIfStatement
p401
(dp402
g160
(idelphi
DelphiRelOp
p403
(dp404
S'simpleExpression1'
p405
(i__main__
DelphiIdentAccess
p406
(dp407
g142
S'oldState'
p408
sg144
(lp409
sbsS'simpleExpression2'
p410
(i__main__
DelphiIdentAccess
p411
(dp412
g142
S'kPresent'
p413
sg144
(lp414
sbsS'relOp'
p415
S'='
sbsg171
(i__main__
DelphiAssignStatement
p416
(dp417
g138
(i__main__
DelphiIdentAccess
p418
(dp419
g142
S'kPresent'
p420
sg144
(lp421
sbsg139
(i__main__
DelphiIdentAccess
p422
(dp423
g142
S'newState'
p424
sg144
(lp425
sbsbsg184
(i__main__
DelphiAssignStatement
p426
(dp427
g138
(i__main__
DelphiIdentAccess
p428
(dp429
g142
S'kAbsent'
p430
sg144
(lp431
sbsg139
(i__main__
DelphiIdentAccess
p432
(dp433
g142
S'newState'
p434
sg144
(lp435
sbsbsbasbsg265
(lp436
sbsS'commentLinesBefore'
p437
(lp438
S' ----------------------------- TSToggleVariableCommand --------------------- '
p439
asbsS'description'
p440
(i__main__
DelphiMethodImplementation
p441
(dp442
g107
g68
sg15
g70
sg23
(lp443
sg116
(lp444
sg118
(lp445
sg120
(lp446
g122
asg123
(dp447
sg39
S'TSToggleVariableCommand'
p448
sg40
(i__main__
DelphiPrimitiveType
p449
(dp450
g34
g74
sbsg126
(lp451
sg41
I0
sg42
g75
sg128
(i__main__
DelphiBlock
p452
(dp453
g131
(idelphi
DelphiCompoundStatement
p454
(dp455
g134
(lp456
(idelphi
DelphiIfStatement
p457
(dp458
g160
(idelphi
DelphiRelOp
p459
(dp460
g405
(i__main__
DelphiIdentAccess
p461
(dp462
g142
S'newState'
p463
sg144
(lp464
sbsg410
(i__main__
DelphiIdentAccess
p465
(dp466
g142
S'kPresent'
p467
sg144
(lp468
sbsg415
S'='
sbsg171
(i__main__
DelphiAssignStatement
p469
(dp470
g138
(idelphi
DelphiAddOp
p471
(dp472
S'addOp'
p473
S'+'
sS'term2'
p474
(idelphi
DelphiStringAccess
p475
(dp476
g144
(lp477
sg74
(idelphi
DelphiStringValue
p478
(dp479
g74
S'" to false'
p480
sbsbsS'term1'
p481
(idelphi
DelphiAddOp
p482
(dp483
g473
S'+'
sg474
(i__main__
DelphiIdentAccess
p484
(dp485
g142
S'variable'
p486
sg144
(lp487
(idelphi
DelphiFieldEndAccess
p488
(dp489
g148
S'phrase'
p490
sbasbsg481
(idelphi
DelphiStringAccess
p491
(dp492
g144
(lp493
sg74
(idelphi
DelphiStringValue
p494
(dp495
g74
S'toggle "'
p496
sbsbsbsbsg139
(i__main__
DelphiIdentAccess
p497
(dp498
g142
S'result'
p499
sg144
(lp500
sbsbsg184
(i__main__
DelphiAssignStatement
p501
(dp502
g138
(idelphi
DelphiAddOp
p503
(dp504
g473
S'+'
sg474
(idelphi
DelphiStringAccess
p505
(dp506
g144
(lp507
sg74
(idelphi
DelphiStringValue
p508
(dp509
g74
S'" to true'
p510
sbsbsg481
(idelphi
DelphiAddOp
p511
(dp512
g473
S'+'
sg474
(i__main__
DelphiIdentAccess
p513
(dp514
g142
S'variable'
p515
sg144
(lp516
(idelphi
DelphiFieldEndAccess
p517
(dp518
g148
S'phrase'
p519
sbasbsg481
(idelphi
DelphiStringAccess
p520
(dp521
g144
(lp522
sg74
(idelphi
DelphiStringValue
p523
(dp524
g74
S'toggle "'
p525
sbsbsbsbsg139
(i__main__
DelphiIdentAccess
p526
(dp527
g142
S'result'
p528
sg144
(lp529
sbsbsbasbsg265
(lp530
sbsbssS'propertyDeclarations'
p531
(dp532
sS'variableNamesInDeclaredOrder'
p533
(lp534
g10
ag14
ag12
asba(i__main__
DelphiClass
p535
(dp536
g7
(dp537
S'newfocusoldstate'
p538
S'newFocusOldState'
p539
sS'oldfocus'
p540
S'oldFocus'
p541
sS'oldfocusoldstate'
p542
S'oldFocusOldState'
p543
sS'newfocus'
p544
S'newFocus'
p545
ssg15
S'TSAbstractMoveFocusCommand'
p546
sg17
(dp547
S'createwithnewfocus'
p548
(i__main__
DelphiMethodDeclaration
p549
(dp550
g15
S'createWithNewFocus'
p551
sg23
(lp552
(i__main__
DelphiFormalParameter
p553
(dp554
g27
Nsg28
(lp555
S'newFocus'
p556
asg31
(i__main__
DelphiNamedType
p557
(dp558
g34
S'TSVariable'
p559
sg36
g1
sg37
Nsbsg38
Nsbasg39
g546
sg40
Nsg41
I0
sg42
g66
sbsS'shiftsfocus'
p560
(i__main__
DelphiMethodDeclaration
p561
(dp562
g15
S'shiftsFocus'
p563
sg23
(lp564
sg39
g546
sg40
(i__main__
DelphiPrimitiveType
p565
(dp566
g34
S'boolean'
p567
sbsg41
I0
sg42
g75
sbsS'updateforchanges'
p568
(i__main__
DelphiMethodDeclaration
p569
(dp570
g15
S'updateForChanges'
p571
sg23
(lp572
sg39
g546
sg40
Nsg41
I0
sg42
g43
sbssg76
(lp573
(i__main__
DelphiNamedType
p574
(dp575
g34
S'KfCommand'
p576
sg36
g1
sg37
Nsbasg81
(dp577
S'newfocusoldstate'
p578
(i__main__
DelphiNamedType
p579
(dp580
g34
S'TsVariableState'
p581
sg36
g1
sg37
NsbsS'oldfocus'
p582
(i__main__
DelphiNamedType
p583
(dp584
g34
S'TSVariable'
p585
sg36
g1
sg37
NsbsS'oldfocusoldstate'
p586
(i__main__
DelphiNamedType
p587
(dp588
g34
S'TSVariableState'
p589
sg36
g1
sg37
NsbsS'newfocus'
p590
(i__main__
DelphiNamedType
p591
(dp592
g34
S'TSVariable'
p593
sg36
g1
sg37
Nsbssg95
(lp594
S'createwithnewfocus'
p595
aS'updateforchanges'
p596
aS'shiftsfocus'
p597
asg102
(dp598
S'createwithnewfocus'
p599
(i__main__
DelphiMethodImplementation
p600
(dp601
g107
g549
sg15
g551
sg23
(lp602
(i__main__
DelphiFormalParameter
p603
(dp604
g27
Nsg28
(lp605
S'newFocus'
p606
asg31
(i__main__
DelphiNamedType
p607
(dp608
g34
S'TSVariable'
p609
sg36
g1
sg37
Nsbsg38
Nsbasg116
(lp610
sg118
(lp611
sg120
(lp612
g122
ag606
asg123
(dp613
g606
g607
ssg39
S'TSAbstractMoveFocusCommand'
p614
sg40
Nsg126
(lp615
sg41
I0
sg42
g66
sg128
(i__main__
DelphiBlock
p616
(dp617
g131
(idelphi
DelphiCompoundStatement
p618
(dp619
g134
(lp620
(i__main__
DelphiAssignStatement
p621
(dp622
g138
Nsg139
(i__main__
DelphiIdentAccess
p623
(dp624
g142
S'self'
p625
sg144
(lp626
(idelphi
DelphiFieldEndAccess
p627
(dp628
g148
S'create'
p629
sbasbsba(i__main__
DelphiAssignStatement
p630
(dp631
g138
(i__main__
DelphiIdentAccess
p632
(dp633
g142
S'newFocus'
p634
sg144
(lp635
sbsg139
(i__main__
DelphiIdentAccess
p636
(dp637
g142
S'self'
p638
sg144
(lp639
(idelphi
DelphiFieldEndAccess
p640
(dp641
g148
S'newFocus'
p642
sbasbsg437
(lp643
S' the old states are stored for undo in case author has been toggling them individually\r'
p644
asba(i__main__
DelphiAssignStatement
p645
(dp646
g138
(i__main__
DelphiIdentAccess
p647
(dp648
g142
S'newFocus'
p649
sg144
(lp650
(idelphi
DelphiFieldEndAccess
p651
(dp652
g148
S'getState'
p653
sbasbsg139
(i__main__
DelphiIdentAccess
p654
(dp655
g142
S'self'
p656
sg144
(lp657
(idelphi
DelphiFieldEndAccess
p658
(dp659
g148
S'newFocusOldState'
p660
sbasbsba(idelphi
DelphiIfStatement
p661
(dp662
g160
(idelphi
DelphiRelOp
p663
(dp664
g405
(i__main__
DelphiIdentAccess
p665
(dp666
g142
S'domain'
p667
sg144
(lp668
(idelphi
DelphiFieldEndAccess
p669
(dp670
g148
S'world'
p671
sba(idelphi
DelphiFieldEndAccess
p672
(dp673
g148
S'focus'
p674
sbasbsg410
(idelphi
DelphiNilValue
p675
(dp676
bsg415
S'<>'
p677
sbsg171
(idelphi
DelphiCompoundStatement
p678
(dp679
g134
(lp680
(i__main__
DelphiAssignStatement
p681
(dp682
g138
(i__main__
DelphiIdentAccess
p683
(dp684
g142
S'newFocus'
p685
sg144
(lp686
sbsg139
(i__main__
DelphiIdentAccess
p687
(dp688
g142
S'self'
p689
sg144
(lp690
(idelphi
DelphiFieldEndAccess
p691
(dp692
g148
S'oldFocus'
p693
sbasbsba(i__main__
DelphiAssignStatement
p694
(dp695
g138
(i__main__
DelphiIdentAccess
p696
(dp697
g142
S'newFocus'
p698
sg144
(lp699
(idelphi
DelphiFieldEndAccess
p700
(dp701
g148
S'getState'
p702
sbasbsg139
(i__main__
DelphiIdentAccess
p703
(dp704
g142
S'self'
p705
sg144
(lp706
(idelphi
DelphiFieldEndAccess
p707
(dp708
g148
S'oldFocusOldState'
p709
sbasbsbasbsg184
(idelphi
DelphiCompoundStatement
p710
(dp711
g134
(lp712
(i__main__
DelphiAssignStatement
p713
(dp714
g138
(i__main__
DelphiIdentAccess
p715
(dp716
g142
S'domain'
p717
sg144
(lp718
(idelphi
DelphiFieldEndAccess
p719
(dp720
g148
S'world'
p721
sba(idelphi
DelphiFieldEndAccess
p722
(dp723
g148
S'focus'
p724
sbasbsg139
(i__main__
DelphiIdentAccess
p725
(dp726
g142
S'self'
p727
sg144
(lp728
(idelphi
DelphiFieldEndAccess
p729
(dp730
g148
S'oldFocus'
p731
sbasbsba(i__main__
DelphiAssignStatement
p732
(dp733
g138
(i__main__
DelphiIdentAccess
p734
(dp735
g142
S'self'
p736
sg144
(lp737
(idelphi
DelphiFieldEndAccess
p738
(dp739
g148
S'oldFocus'
p740
sba(idelphi
DelphiFieldEndAccess
p741
(dp742
g148
S'getState'
p743
sbasbsg139
(i__main__
DelphiIdentAccess
p744
(dp745
g142
S'self'
p746
sg144
(lp747
(idelphi
DelphiFieldEndAccess
p748
(dp749
g148
S'oldFocusOldState'
p750
sbasbsbasbsbasbsg265
(lp751
sbsg437
(lp752
S' ----------------------------- TSAbstractMoveFocusCommand --------------------- '
p753
asbsS'shiftsfocus'
p754
(i__main__
DelphiMethodImplementation
p755
(dp756
g107
g561
sg15
g563
sg23
(lp757
sg116
(lp758
sg118
(lp759
sg120
(lp760
g122
asg123
(dp761
sg39
S'TSAbstractMoveFocusCommand'
p762
sg40
(i__main__
DelphiPrimitiveType
p763
(dp764
g34
g567
sbsg126
(lp765
sg41
I0
sg42
g75
sg128
(i__main__
DelphiBlock
p766
(dp767
g131
(idelphi
DelphiCompoundStatement
p768
(dp769
g134
(lp770
(i__main__
DelphiAssignStatement
p771
(dp772
g138
(idelphi
DelphiMulOp
p773
(dp774
S'signedFactor2'
p775
(idelphi
DelphiNestedExpressionListAccess
p776
(dp777
g144
(lp778
sg152
(lp779
(idelphi
DelphiRelOp
p780
(dp781
g405
(i__main__
DelphiIdentAccess
p782
(dp783
g142
S'newFocus'
p784
sg144
(lp785
sbsg410
(i__main__
DelphiIdentAccess
p786
(dp787
g142
S'oldFocus'
p788
sg144
(lp789
sbsg415
g677
sbasbsS'mulOp'
p790
S'and'
p791
sS'signedFactor1'
p792
(idelphi
DelphiNestedExpressionListAccess
p793
(dp794
g144
(lp795
sg152
(lp796
(idelphi
DelphiRelOp
p797
(dp798
g405
(i__main__
DelphiIdentAccess
p799
(dp800
g142
S'newFocus'
p801
sg144
(lp802
sbsg410
(i__main__
DelphiIdentAccess
p803
(dp804
g142
S'domain'
p805
sg144
(lp806
(idelphi
DelphiFieldEndAccess
p807
(dp808
g148
S'world'
p809
sba(idelphi
DelphiFieldEndAccess
p810
(dp811
g148
S'emptyEntry'
p812
sbasbsg415
g677
sbasbsbsg139
(i__main__
DelphiIdentAccess
p813
(dp814
g142
S'result'
p815
sg144
(lp816
sbsbasbsg265
(lp817
sbsbsS'updateforchanges'
p818
(i__main__
DelphiMethodImplementation
p819
(dp820
g107
g569
sg15
g571
sg23
(lp821
sg116
(lp822
sg118
(lp823
sg120
(lp824
g122
asg123
(dp825
sg39
S'TSAbstractMoveFocusCommand'
p826
sg40
Nsg126
(lp827
sg41
I0
sg42
g43
sg128
(i__main__
DelphiBlock
p828
(dp829
g131
(idelphi
DelphiCompoundStatement
p830
(dp831
g134
(lp832
(i__main__
DelphiAssignStatement
p833
(dp834
g138
Nsg139
(i__main__
DelphiIdentAccess
p835
(dp836
g142
S'domain'
p837
sg144
(lp838
(idelphi
DelphiFieldEndAccess
p839
(dp840
g148
S'world'
p841
sba(idelphi
DelphiFieldEndAccess
p842
(dp843
g148
S'updateAvailable'
p844
sbasbsba(i__main__
DelphiAssignStatement
p845
(dp846
g138
Nsg139
(i__main__
DelphiIdentAccess
p847
(dp848
g142
S'ConsoleForm'
p849
sg144
(lp850
(idelphi
DelphiFieldEndAccess
p851
(dp852
g148
S'speechSystem'
p853
sba(idelphi
DelphiFieldEndAccess
p854
(dp855
g148
S'listenForAvailableCommands'
p856
sbasbsba(i__main__
DelphiAssignStatement
p857
(dp858
g138
Nsg139
(i__main__
DelphiIdentAccess
p859
(dp860
g142
S'ConsoleForm'
p861
sg144
(lp862
(idelphi
DelphiFieldEndAccess
p863
(dp864
g148
S'updateVariables'
p865
sbasbsba(i__main__
DelphiAssignStatement
p866
(dp867
g138
Nsg139
(i__main__
DelphiIdentAccess
p868
(dp869
g142
S'ConsoleForm'
p870
sg144
(lp871
(idelphi
DelphiFieldEndAccess
p872
(dp873
g148
S'VariablesListBox'
p874
sba(idelphi
DelphiFieldEndAccess
p875
(dp876
g148
S'invalidate'
p877
sbasbsbasbsg265
(lp878
sbsbssg531
(dp879
sg533
(lp880
g541
ag543
ag545
ag539
asg437
(lp881
S' need to have abstract base so TSDoCommandPhrase can defer updating till after changes\r'
p882
asba(i__main__
DelphiClass
p883
(dp884
g7
(dp885
sg15
S'TSMoveFocusCommand'
p886
sg17
(dp887
S'docommand'
p888
(i__main__
DelphiMethodDeclaration
p889
(dp890
g15
S'doCommand'
p891
sg23
(lp892
sg39
g886
sg40
Nsg41
I0
sg42
g43
sbsS'description'
p893
(i__main__
DelphiMethodDeclaration
p894
(dp895
g15
S'description'
p896
sg23
(lp897
sg39
g886
sg40
(i__main__
DelphiPrimitiveType
p898
(dp899
g34
g74
sbsg41
I0
sg42
g75
sbsS'undocommand'
p900
(i__main__
DelphiMethodDeclaration
p901
(dp902
g15
S'undoCommand'
p903
sg23
(lp904
sg39
g886
sg40
Nsg41
I0
sg42
g43
sbssg76
(lp905
(i__main__
DelphiNamedType
p906
(dp907
g34
S'TSAbstractMoveFocusCommand'
p908
sg36
g1
sg37
Nsbasg81
(dp909
sg95
(lp910
S'docommand'
p911
aS'undocommand'
p912
aS'description'
p913
asg102
(dp914
S'docommand'
p915
(i__main__
DelphiMethodImplementation
p916
(dp917
g107
g889
sg15
g891
sg23
(lp918
sg116
(lp919
sg118
(lp920
sg120
(lp921
g122
asg123
(dp922
sg39
S'TSMoveFocusCommand'
p923
sg40
Nsg126
(lp924
sg41
I0
sg42
g43
sg128
(i__main__
DelphiBlock
p925
(dp926
g131
(idelphi
DelphiCompoundStatement
p927
(dp928
g134
(lp929
(i__main__
DelphiAssignStatement
p930
(dp931
g138
Nsg139
(i__main__
DelphiIdentAccess
p932
(dp933
g142
S'oldFocus'
p934
sg144
(lp935
(idelphi
DelphiFieldEndAccess
p936
(dp937
g148
S'setState'
p938
sba(idelphi
DelphiFunctionEndAccess
p939
(dp940
g152
(lp941
(i__main__
DelphiIdentAccess
p942
(dp943
g142
S'kAbsent'
p944
sg144
(lp945
sbasbasbsba(i__main__
DelphiAssignStatement
p946
(dp947
g138
(i__main__
DelphiIdentAccess
p948
(dp949
g142
S'newFocus'
p950
sg144
(lp951
sbsg139
(i__main__
DelphiIdentAccess
p952
(dp953
g142
S'domain'
p954
sg144
(lp955
(idelphi
DelphiFieldEndAccess
p956
(dp957
g148
S'world'
p958
sba(idelphi
DelphiFieldEndAccess
p959
(dp960
g148
S'focus'
p961
sbasbsba(i__main__
DelphiAssignStatement
p962
(dp963
g138
Nsg139
(i__main__
DelphiIdentAccess
p964
(dp965
g142
S'newFocus'
p966
sg144
(lp967
(idelphi
DelphiFieldEndAccess
p968
(dp969
g148
S'setState'
p970
sba(idelphi
DelphiFunctionEndAccess
p971
(dp972
g152
(lp973
(i__main__
DelphiIdentAccess
p974
(dp975
g142
S'kPresent'
p976
sg144
(lp977
sbasbasbsba(i__main__
DelphiAssignStatement
p978
(dp979
g138
Nsg139
(i__main__
DelphiIdentAccess
p980
(dp981
g142
S'self'
p982
sg144
(lp983
(idelphi
DelphiFieldEndAccess
p984
(dp985
g148
S'updateForChanges'
p986
sbasbsba(i__main__
DelphiAssignStatement
p987
(dp988
g138
Nsg139
(idelphi
DelphiInheritedCall
p989
(dp990
g142
S'doCommand'
p991
sg152
Nsbsbasbsg265
(lp992
sbsg437
(lp993
S' ----------------------------- TSMoveFocusCommand --------------------- '
p994
asbsS'description'
p995
(i__main__
DelphiMethodImplementation
p996
(dp997
g107
g894
sg15
g896
sg23
(lp998
sg116
(lp999
sg118
(lp1000
sg120
(lp1001
g122
asg123
(dp1002
sg39
S'TSMoveFocusCommand'
p1003
sg40
(i__main__
DelphiPrimitiveType
p1004
(dp1005
g34
g74
sbsg126
(lp1006
sg41
I0
sg42
g75
sg128
(i__main__
DelphiBlock
p1007
(dp1008
g131
(idelphi
DelphiCompoundStatement
p1009
(dp1010
g134
(lp1011
(i__main__
DelphiAssignStatement
p1012
(dp1013
g138
(idelphi
DelphiAddOp
p1014
(dp1015
g473
S'+'
sg474
(i__main__
DelphiIdentAccess
p1016
(dp1017
g142
S'newFocus'
p1018
sg144
(lp1019
(idelphi
DelphiFieldEndAccess
p1020
(dp1021
g148
S'phrase'
p1022
sbasbsg481
(idelphi
DelphiStringAccess
p1023
(dp1024
g144
(lp1025
sg74
(idelphi
DelphiStringValue
p1026
(dp1027
g74
S'move focus to '
p1028
sbsbsbsg139
(i__main__
DelphiIdentAccess
p1029
(dp1030
g142
S'result'
p1031
sg144
(lp1032
sbsbasbsg265
(lp1033
sbsbsS'undocommand'
p1034
(i__main__
DelphiMethodImplementation
p1035
(dp1036
g107
g901
sg15
g903
sg23
(lp1037
sg116
(lp1038
sg118
(lp1039
sg120
(lp1040
g122
asg123
(dp1041
sg39
S'TSMoveFocusCommand'
p1042
sg40
Nsg126
(lp1043
sg41
I0
sg42
g43
sg128
(i__main__
DelphiBlock
p1044
(dp1045
g131
(idelphi
DelphiCompoundStatement
p1046
(dp1047
g134
(lp1048
(i__main__
DelphiAssignStatement
p1049
(dp1050
g138
Nsg139
(i__main__
DelphiIdentAccess
p1051
(dp1052
g142
S'newFocus'
p1053
sg144
(lp1054
(idelphi
DelphiFieldEndAccess
p1055
(dp1056
g148
S'setState'
p1057
sba(idelphi
DelphiFunctionEndAccess
p1058
(dp1059
g152
(lp1060
(i__main__
DelphiIdentAccess
p1061
(dp1062
g142
S'newFocusOldState'
p1063
sg144
(lp1064
sbasbasbsba(i__main__
DelphiAssignStatement
p1065
(dp1066
g138
(i__main__
DelphiIdentAccess
p1067
(dp1068
g142
S'oldFocus'
p1069
sg144
(lp1070
sbsg139
(i__main__
DelphiIdentAccess
p1071
(dp1072
g142
S'domain'
p1073
sg144
(lp1074
(idelphi
DelphiFieldEndAccess
p1075
(dp1076
g148
S'world'
p1077
sba(idelphi
DelphiFieldEndAccess
p1078
(dp1079
g148
S'focus'
p1080
sbasbsba(i__main__
DelphiAssignStatement
p1081
(dp1082
g138
Nsg139
(i__main__
DelphiIdentAccess
p1083
(dp1084
g142
S'oldFocus'
p1085
sg144
(lp1086
(idelphi
DelphiFieldEndAccess
p1087
(dp1088
g148
S'setState'
p1089
sba(idelphi
DelphiFunctionEndAccess
p1090
(dp1091
g152
(lp1092
(i__main__
DelphiIdentAccess
p1093
(dp1094
g142
S'oldFocusOldState'
p1095
sg144
(lp1096
sbasbasbsba(i__main__
DelphiAssignStatement
p1097
(dp1098
g138
Nsg139
(i__main__
DelphiIdentAccess
p1099
(dp1100
g142
S'self'
p1101
sg144
(lp1102
(idelphi
DelphiFieldEndAccess
p1103
(dp1104
g148
S'updateForChanges'
p1105
sbasbsba(i__main__
DelphiAssignStatement
p1106
(dp1107
g138
Nsg139
(idelphi
DelphiInheritedCall
p1108
(dp1109
g142
S'undoCommand'
p1110
sg152
Nsbsbasbsg265
(lp1111
sbsbssg531
(dp1112
sg533
(lp1113
sba(i__main__
DelphiClass
p1114
(dp1115
g7
(dp1116
S'changedvariables'
p1117
S'changedVariables'
p1118
sS'commandphrase'
p1119
S'commandPhrase'
p1120
sS'newfirstcommanddoneforlastcommandphrase'
p1121
S'newFirstCommandDoneForLastCommandPhrase'
p1122
sS'newlastsaidtextwithmacros'
p1123
S'newLastSaidTextWithMacros'
p1124
sS'oldfirstcommanddoneforlastcommandphrase'
p1125
S'oldFirstCommandDoneForLastCommandPhrase'
p1126
sS'oldlastsaidtextwithmacros'
p1127
S'oldLastSaidTextWithMacros'
p1128
ssg15
S'TSDoCommandPhrase'
p1129
sg17
(dp1130
S'description'
p1131
(i__main__
DelphiMethodDeclaration
p1132
(dp1133
g15
S'description'
p1134
sg23
(lp1135
sg39
g1129
sg40
(i__main__
DelphiPrimitiveType
p1136
(dp1137
g34
g74
sbsg41
I0
sg42
g75
sbsS'docommand'
p1138
(i__main__
DelphiMethodDeclaration
p1139
(dp1140
g15
S'doCommand'
p1141
sg23
(lp1142
sg39
g1129
sg40
Nsg41
I0
sg42
g43
sbsS'redocommand'
p1143
(i__main__
DelphiMethodDeclaration
p1144
(dp1145
g15
S'redoCommand'
p1146
sg23
(lp1147
sg39
g1129
sg40
Nsg41
I0
sg42
g43
sbsS'destroy'
p1148
(i__main__
DelphiMethodDeclaration
p1149
(dp1150
g15
S'destroy'
p1151
sg23
(lp1152
sg39
g1129
sg40
Nsg41
I0
sg42
S'destructor'
p1153
sbsS'undocommand'
p1154
(i__main__
DelphiMethodDeclaration
p1155
(dp1156
g15
S'undoCommand'
p1157
sg23
(lp1158
sg39
g1129
sg40
Nsg41
I0
sg42
g43
sbsS'createwithcommandphrase'
p1159
(i__main__
DelphiMethodDeclaration
p1160
(dp1161
g15
S'createWithCommandPhrase'
p1162
sg23
(lp1163
(i__main__
DelphiFormalParameter
p1164
(dp1165
g27
Nsg28
(lp1166
S'commandPhrase'
p1167
asg31
(i__main__
DelphiPrimitiveType
p1168
(dp1169
g34
g74
sbsg38
S'const'
p1170
sbasg39
g1129
sg40
Nsg41
I0
sg42
g66
sbssg76
(lp1171
(i__main__
DelphiNamedType
p1172
(dp1173
g34
S'TSAbstractMoveFocusCommand'
p1174
sg36
g1
sg37
Nsbasg81
(dp1175
S'changedvariables'
p1176
(i__main__
DelphiNamedType
p1177
(dp1178
g34
S'TList'
p1179
sg36
g1
sg37
NsbsS'commandphrase'
p1180
(i__main__
DelphiPrimitiveType
p1181
(dp1182
g34
g74
sbsS'newfirstcommanddoneforlastcommandphrase'
p1183
(i__main__
DelphiPrimitiveType
p1184
(dp1185
g34
S'integer'
p1186
sbsS'newlastsaidtextwithmacros'
p1187
(i__main__
DelphiPrimitiveType
p1188
(dp1189
g34
g74
sbsS'oldfirstcommanddoneforlastcommandphrase'
p1190
(i__main__
DelphiPrimitiveType
p1191
(dp1192
g34
g1186
sbsS'oldlastsaidtextwithmacros'
p1193
(i__main__
DelphiPrimitiveType
p1194
(dp1195
g34
g74
sbssg95
(lp1196
S'createwithcommandphrase'
p1197
aS'destroy'
p1198
aS'docommand'
p1199
aS'undocommand'
p1200
aS'redocommand'
p1201
aS'description'
p1202
asg102
(dp1203
S'description'
p1204
(i__main__
DelphiMethodImplementation
p1205
(dp1206
g107
g1132
sg15
g1134
sg23
(lp1207
sg116
(lp1208
sg118
(lp1209
sg120
(lp1210
g122
asg123
(dp1211
sg39
S'TSDoCommandPhrase'
p1212
sg40
(i__main__
DelphiPrimitiveType
p1213
(dp1214
g34
g74
sbsg126
(lp1215
sg41
I0
sg42
g75
sg128
(i__main__
DelphiBlock
p1216
(dp1217
g131
(idelphi
DelphiCompoundStatement
p1218
(dp1219
g134
(lp1220
(i__main__
DelphiAssignStatement
p1221
(dp1222
g138
(idelphi
DelphiAddOp
p1223
(dp1224
g473
S'+'
sg474
(i__main__
DelphiIdentAccess
p1225
(dp1226
g142
S'commandPhrase'
p1227
sg144
(lp1228
sbsg481
(idelphi
DelphiStringAccess
p1229
(dp1230
g144
(lp1231
sg74
(idelphi
DelphiStringValue
p1232
(dp1233
g74
S'command: '
p1234
sbsbsbsg139
(i__main__
DelphiIdentAccess
p1235
(dp1236
g142
S'result'
p1237
sg144
(lp1238
sbsbasbsg265
(lp1239
sbsbsS'docommand'
p1240
(i__main__
DelphiMethodImplementation
p1241
(dp1242
g107
g1139
sg15
g1141
sg23
(lp1243
sg116
(lp1244
sg118
(lp1245
sg120
(lp1246
g122
asg123
(dp1247
sg39
S'TSDoCommandPhrase'
p1248
sg40
Nsg126
(lp1249
sg41
I0
sg42
g43
sg128
(i__main__
DelphiBlock
p1250
(dp1251
g131
(idelphi
DelphiCompoundStatement
p1252
(dp1253
g134
(lp1254
(i__main__
DelphiAssignStatement
p1255
(dp1256
g138
Nsg139
(i__main__
DelphiIdentAccess
p1257
(dp1258
g142
S'ConsoleForm'
p1259
sg144
(lp1260
(idelphi
DelphiFieldEndAccess
p1261
(dp1262
g148
S'addLineToTranscript'
p1263
sba(idelphi
DelphiFunctionEndAccess
p1264
(dp1265
g152
(lp1266
(idelphi
DelphiAddOp
p1267
(dp1268
g473
S'+'
sg474
(i__main__
DelphiIdentAccess
p1269
(dp1270
g142
S'commandPhrase'
p1271
sg144
(lp1272
sbsg481
(idelphi
DelphiStringAccess
p1273
(dp1274
g144
(lp1275
sg74
(idelphi
DelphiStringValue
p1276
(dp1277
g74
S'> '
p1278
sbsbsba(i__main__
DelphiIdentAccess
p1279
(dp1280
g142
S'clRed'
p1281
sg144
(lp1282
sbasbasbsba(i__main__
DelphiAssignStatement
p1283
(dp1284
g138
Nsg139
(i__main__
DelphiIdentAccess
p1285
(dp1286
g142
S'ConsoleForm'
p1287
sg144
(lp1288
(idelphi
DelphiFieldEndAccess
p1289
(dp1290
g148
S'addLineToTranscript'
p1291
sba(idelphi
DelphiFunctionEndAccess
p1292
(dp1293
g152
(lp1294
(i__main__
DelphiIdentAccess
p1295
(dp1296
g142
S'ConsoleForm'
p1297
sg144
(lp1298
(idelphi
DelphiFieldEndAccess
p1299
(dp1300
g148
S'speechSystem'
p1301
sba(idelphi
DelphiFieldEndAccess
p1302
(dp1303
g148
S'stripMacros'
p1304
sba(idelphi
DelphiFunctionEndAccess
p1305
(dp1306
g152
(lp1307
(i__main__
DelphiIdentAccess
p1308
(dp1309
g142
S'newLastSaidTextWithMacros'
p1310
sg144
(lp1311
sbasbasba(i__main__
DelphiIdentAccess
p1312
(dp1313
g142
S'clBlue'
p1314
sg144
(lp1315
sbasbasbsba(i__main__
DelphiAssignStatement
p1316
(dp1317
g138
Nsg139
(i__main__
DelphiIdentAccess
p1318
(dp1319
g142
S'ConsoleForm'
p1320
sg144
(lp1321
(idelphi
DelphiFieldEndAccess
p1322
(dp1323
g148
S'scrollTranscriptEndIntoView'
p1324
sbasbsba(i__main__
DelphiAssignStatement
p1325
(dp1326
g138
Nsg139
(i__main__
DelphiIdentAccess
p1327
(dp1328
g142
S'ConsoleForm'
p1329
sg144
(lp1330
(idelphi
DelphiFieldEndAccess
p1331
(dp1332
g148
S'speechSystem'
p1333
sba(idelphi
DelphiFieldEndAccess
p1334
(dp1335
g148
S'sayTextWithMacros'
p1336
sba(idelphi
DelphiFunctionEndAccess
p1337
(dp1338
g152
(lp1339
(i__main__
DelphiIdentAccess
p1340
(dp1341
g142
S'newLastSaidTextWithMacros'
p1342
sg144
(lp1343
sbasbasbsba(i__main__
DelphiAssignStatement
p1344
(dp1345
g138
(i__main__
DelphiIdentAccess
p1346
(dp1347
g142
S'newLastSaidTextWithMacros'
p1348
sg144
(lp1349
sbsg139
(i__main__
DelphiIdentAccess
p1350
(dp1351
g142
S'ConsoleForm'
p1352
sg144
(lp1353
(idelphi
DelphiFieldEndAccess
p1354
(dp1355
g148
S'speechSystem'
p1356
sba(idelphi
DelphiFieldEndAccess
p1357
(dp1358
g148
S'lastSaidTextWithMacros'
p1359
sbasbsg437
(lp1360
S'common with undo'
p1361
asba(i__main__
DelphiAssignStatement
p1362
(dp1363
g138
(i__main__
DelphiIdentAccess
p1364
(dp1365
g142
S'newFirstCommandDoneForLastCommandPhrase'
p1366
sg144
(lp1367
sbsg139
(i__main__
DelphiIdentAccess
p1368
(dp1369
g142
S'domain'
p1370
sg144
(lp1371
(idelphi
DelphiFieldEndAccess
p1372
(dp1373
g148
S'world'
p1374
sba(idelphi
DelphiFieldEndAccess
p1375
(dp1376
g148
S'firstCommandDoneForLastCommandPhrase'
p1377
sbasbsba(idelphi
DelphiIfStatement
p1378
(dp1379
g160
(idelphi
DelphiRelOp
p1380
(dp1381
g405
(i__main__
DelphiIdentAccess
p1382
(dp1383
g142
S'newFocus'
p1384
sg144
(lp1385
sbsg410
(i__main__
DelphiIdentAccess
p1386
(dp1387
g142
S'domain'
p1388
sg144
(lp1389
(idelphi
DelphiFieldEndAccess
p1390
(dp1391
g148
S'world'
p1392
sba(idelphi
DelphiFieldEndAccess
p1393
(dp1394
g148
S'emptyEntry'
p1395
sbasbsg415
g677
sbsg171
Nsg184
(idelphi
DelphiCompoundStatement
p1396
(dp1397
g134
(lp1398
(i__main__
DelphiAssignStatement
p1399
(dp1400
g138
Nsg139
(i__main__
DelphiIdentAccess
p1401
(dp1402
g142
S'oldFocus'
p1403
sg144
(lp1404
(idelphi
DelphiFieldEndAccess
p1405
(dp1406
g148
S'setState'
p1407
sba(idelphi
DelphiFunctionEndAccess
p1408
(dp1409
g152
(lp1410
(i__main__
DelphiIdentAccess
p1411
(dp1412
g142
S'kAbsent'
p1413
sg144
(lp1414
sbasbasbsba(i__main__
DelphiAssignStatement
p1415
(dp1416
g138
(i__main__
DelphiIdentAccess
p1417
(dp1418
g142
S'newFocus'
p1419
sg144
(lp1420
sbsg139
(i__main__
DelphiIdentAccess
p1421
(dp1422
g142
S'domain'
p1423
sg144
(lp1424
(idelphi
DelphiFieldEndAccess
p1425
(dp1426
g148
S'world'
p1427
sba(idelphi
DelphiFieldEndAccess
p1428
(dp1429
g148
S'focus'
p1430
sbasbsba(i__main__
DelphiAssignStatement
p1431
(dp1432
g138
Nsg139
(i__main__
DelphiIdentAccess
p1433
(dp1434
g142
S'newFocus'
p1435
sg144
(lp1436
(idelphi
DelphiFieldEndAccess
p1437
(dp1438
g148
S'setState'
p1439
sba(idelphi
DelphiFunctionEndAccess
p1440
(dp1441
g152
(lp1442
(i__main__
DelphiIdentAccess
p1443
(dp1444
g142
S'kPresent'
p1445
sg144
(lp1446
sbasbasbsbasbsba(idelphi
DelphiForStatement
p1447
(dp1448
S'variable'
p1449
S'i'
sS'finalValue'
p1450
(idelphi
DelphiAddOp
p1451
(dp1452
g473
S'-'
sg474
(idelphi
DelphiIntegerValue
p1453
(dp1454
g74
S'1'
sbsg481
(i__main__
DelphiIdentAccess
p1455
(dp1456
g142
S'changedVariables'
p1457
sg144
(lp1458
(idelphi
DelphiFieldEndAccess
p1459
(dp1460
g148
S'count'
p1461
sbasbsbsS'direction'
p1462
S'to'
p1463
sg27
(idelphi
DelphiIntegerValue
p1464
(dp1465
g74
S'0'
sbsS'statement'
p1466
(i__main__
DelphiAssignStatement
p1467
(dp1468
g138
Nsg139
(i__main__
DelphiIdentAccess
p1469
(dp1470
g142
S'TSChangedVariableWrapper'
p1471
sg144
(lp1472
(idelphi
DelphiFunctionEndAccess
p1473
(dp1474
g152
(lp1475
(i__main__
DelphiIdentAccess
p1476
(dp1477
g142
S'changedVariables'
p1478
sg144
(lp1479
(idelphi
DelphiArrayEndAccess
p1480
(dp1481
g152
(lp1482
(i__main__
DelphiIdentAccess
p1483
(dp1484
g142
S'i'
sg144
(lp1485
sbasbasbasba(idelphi
DelphiFieldEndAccess
p1486
(dp1487
g148
S'doChange'
p1488
sbasbsbsba(i__main__
DelphiAssignStatement
p1489
(dp1490
g138
Nsg139
(i__main__
DelphiIdentAccess
p1491
(dp1492
g142
S'self'
p1493
sg144
(lp1494
(idelphi
DelphiFieldEndAccess
p1495
(dp1496
g148
S'updateForChanges'
p1497
sbasbsba(i__main__
DelphiAssignStatement
p1498
(dp1499
g138
Nsg139
(i__main__
DelphiIdentAccess
p1500
(dp1501
g142
S'ConsoleForm'
p1502
sg144
(lp1503
(idelphi
DelphiFieldEndAccess
p1504
(dp1505
g148
S'speechSystem'
p1506
sba(idelphi
DelphiFieldEndAccess
p1507
(dp1508
g148
S'checkForSayOptionsMacro'
p1509
sbasbsba(i__main__
DelphiAssignStatement
p1510
(dp1511
g138
Nsg139
(idelphi
DelphiInheritedCall
p1512
(dp1513
g142
S'doCommand'
p1514
sg152
Nsbsbasbsg265
(lp1515
(i__main__
DelphiVarSection
p1516
(dp1517
S'atTopLevel'
p1518
I0
sS'varDeclList'
p1519
(lp1520
(idelphi
DelphiVarDecl
p1521
(dp1522
S'constExpression'
p1523
NsS'identList'
p1524
(lp1525
S'i'
asg31
(i__main__
DelphiPrimitiveType
p1526
(dp1527
g34
g1186
sbsbasbasbsbsS'redocommand'
p1528
(i__main__
DelphiMethodImplementation
p1529
(dp1530
g107
g1144
sg15
g1146
sg23
(lp1531
sg116
(lp1532
sg118
(lp1533
sg120
(lp1534
g122
asg123
(dp1535
sg39
S'TSDoCommandPhrase'
p1536
sg40
Nsg126
(lp1537
sg41
I0
sg42
g43
sg128
(i__main__
DelphiBlock
p1538
(dp1539
g131
(idelphi
DelphiCompoundStatement
p1540
(dp1541
g134
(lp1542
(i__main__
DelphiAssignStatement
p1543
(dp1544
g138
Nsg139
(i__main__
DelphiIdentAccess
p1545
(dp1546
g142
S'ConsoleForm'
p1547
sg144
(lp1548
(idelphi
DelphiFieldEndAccess
p1549
(dp1550
g148
S'addLineToTranscript'
p1551
sba(idelphi
DelphiFunctionEndAccess
p1552
(dp1553
g152
(lp1554
(idelphi
DelphiStringAccess
p1555
(dp1556
g144
(lp1557
sg74
(idelphi
DelphiStringValue
p1558
(dp1559
g74
S'> redo'
p1560
sbsba(i__main__
DelphiIdentAccess
p1561
(dp1562
g142
S'clRed'
p1563
sg144
(lp1564
sbasbasbsba(i__main__
DelphiAssignStatement
p1565
(dp1566
g138
(idelphi
DelphiAddOp
p1567
(dp1568
g473
S'+'
sg474
(idelphi
DelphiStringAccess
p1569
(dp1570
g144
(lp1571
sg74
(idelphi
DelphiStringValue
p1572
(dp1573
g74
S'" anyway)'
p1574
sbsbsg481
(idelphi
DelphiAddOp
p1575
(dp1576
g473
S'+'
sg474
(i__main__
DelphiIdentAccess
p1577
(dp1578
g142
S'commandPhrase'
p1579
sg144
(lp1580
sbsg481
(idelphi
DelphiStringAccess
p1581
(dp1582
g144
(lp1583
sg74
(idelphi
DelphiStringValue
p1584
(dp1585
g74
S'(You decide to say "'
p1586
sbsbsbsbsg139
(i__main__
DelphiIdentAccess
p1587
(dp1588
g142
S'redoPhrase'
p1589
sg144
(lp1590
sbsba(i__main__
DelphiAssignStatement
p1591
(dp1592
g138
Nsg139
(i__main__
DelphiIdentAccess
p1593
(dp1594
g142
S'ConsoleForm'
p1595
sg144
(lp1596
(idelphi
DelphiFieldEndAccess
p1597
(dp1598
g148
S'addLineToTranscript'
p1599
sba(idelphi
DelphiFunctionEndAccess
p1600
(dp1601
g152
(lp1602
(i__main__
DelphiIdentAccess
p1603
(dp1604
g142
S'redoPhrase'
p1605
sg144
(lp1606
sba(i__main__
DelphiIdentAccess
p1607
(dp1608
g142
S'clBlue'
p1609
sg144
(lp1610
sbasbasbsba(i__main__
DelphiAssignStatement
p1611
(dp1612
g138
Nsg139
(i__main__
DelphiIdentAccess
p1613
(dp1614
g142
S'ConsoleForm'
p1615
sg144
(lp1616
(idelphi
DelphiFieldEndAccess
p1617
(dp1618
g148
S'scrollTranscriptEndIntoView'
p1619
sbasbsba(i__main__
DelphiAssignStatement
p1620
(dp1621
g138
Nsg139
(i__main__
DelphiIdentAccess
p1622
(dp1623
g142
S'ConsoleForm'
p1624
sg144
(lp1625
(idelphi
DelphiFieldEndAccess
p1626
(dp1627
g148
S'speechSystem'
p1628
sba(idelphi
DelphiFieldEndAccess
p1629
(dp1630
g148
S'speakText'
p1631
sba(idelphi
DelphiFunctionEndAccess
p1632
(dp1633
g152
(lp1634
(i__main__
DelphiIdentAccess
p1635
(dp1636
g142
S'redoPhrase'
p1637
sg144
(lp1638
sbasbasbsba(i__main__
DelphiAssignStatement
p1639
(dp1640
g138
(i__main__
DelphiIdentAccess
p1641
(dp1642
g142
S'newLastSaidTextWithMacros'
p1643
sg144
(lp1644
sbsg139
(i__main__
DelphiIdentAccess
p1645
(dp1646
g142
S'ConsoleForm'
p1647
sg144
(lp1648
(idelphi
DelphiFieldEndAccess
p1649
(dp1650
g148
S'speechSystem'
p1651
sba(idelphi
DelphiFieldEndAccess
p1652
(dp1653
g148
S'lastSaidTextWithMacros'
p1654
sbasbsg437
(lp1655
S'common with do'
p1656
asba(i__main__
DelphiAssignStatement
p1657
(dp1658
g138
(i__main__
DelphiIdentAccess
p1659
(dp1660
g142
S'newFirstCommandDoneForLastCommandPhrase'
p1661
sg144
(lp1662
sbsg139
(i__main__
DelphiIdentAccess
p1663
(dp1664
g142
S'domain'
p1665
sg144
(lp1666
(idelphi
DelphiFieldEndAccess
p1667
(dp1668
g148
S'world'
p1669
sba(idelphi
DelphiFieldEndAccess
p1670
(dp1671
g148
S'firstCommandDoneForLastCommandPhrase'
p1672
sbasbsba(idelphi
DelphiIfStatement
p1673
(dp1674
g160
(idelphi
DelphiRelOp
p1675
(dp1676
g405
(i__main__
DelphiIdentAccess
p1677
(dp1678
g142
S'newFocus'
p1679
sg144
(lp1680
sbsg410
(i__main__
DelphiIdentAccess
p1681
(dp1682
g142
S'domain'
p1683
sg144
(lp1684
(idelphi
DelphiFieldEndAccess
p1685
(dp1686
g148
S'world'
p1687
sba(idelphi
DelphiFieldEndAccess
p1688
(dp1689
g148
S'emptyEntry'
p1690
sbasbsg415
g677
sbsg171
Nsg184
(idelphi
DelphiCompoundStatement
p1691
(dp1692
g134
(lp1693
(i__main__
DelphiAssignStatement
p1694
(dp1695
g138
Nsg139
(i__main__
DelphiIdentAccess
p1696
(dp1697
g142
S'oldFocus'
p1698
sg144
(lp1699
(idelphi
DelphiFieldEndAccess
p1700
(dp1701
g148
S'setState'
p1702
sba(idelphi
DelphiFunctionEndAccess
p1703
(dp1704
g152
(lp1705
(i__main__
DelphiIdentAccess
p1706
(dp1707
g142
S'kAbsent'
p1708
sg144
(lp1709
sbasbasbsba(i__main__
DelphiAssignStatement
p1710
(dp1711
g138
(i__main__
DelphiIdentAccess
p1712
(dp1713
g142
S'newFocus'
p1714
sg144
(lp1715
sbsg139
(i__main__
DelphiIdentAccess
p1716
(dp1717
g142
S'domain'
p1718
sg144
(lp1719
(idelphi
DelphiFieldEndAccess
p1720
(dp1721
g148
S'world'
p1722
sba(idelphi
DelphiFieldEndAccess
p1723
(dp1724
g148
S'focus'
p1725
sbasbsba(i__main__
DelphiAssignStatement
p1726
(dp1727
g138
Nsg139
(i__main__
DelphiIdentAccess
p1728
(dp1729
g142
S'newFocus'
p1730
sg144
(lp1731
(idelphi
DelphiFieldEndAccess
p1732
(dp1733
g148
S'setState'
p1734
sba(idelphi
DelphiFunctionEndAccess
p1735
(dp1736
g152
(lp1737
(i__main__
DelphiIdentAccess
p1738
(dp1739
g142
S'kPresent'
p1740
sg144
(lp1741
sbasbasbsbasbsba(idelphi
DelphiForStatement
p1742
(dp1743
g1449
S'i'
sg1450
(idelphi
DelphiAddOp
p1744
(dp1745
g473
S'-'
sg474
(idelphi
DelphiIntegerValue
p1746
(dp1747
g74
S'1'
sbsg481
(i__main__
DelphiIdentAccess
p1748
(dp1749
g142
S'changedVariables'
p1750
sg144
(lp1751
(idelphi
DelphiFieldEndAccess
p1752
(dp1753
g148
S'count'
p1754
sbasbsbsg1462
g1463
sg27
(idelphi
DelphiIntegerValue
p1755
(dp1756
g74
S'0'
sbsg1466
(i__main__
DelphiAssignStatement
p1757
(dp1758
g138
Nsg139
(i__main__
DelphiIdentAccess
p1759
(dp1760
g142
S'TSChangedVariableWrapper'
p1761
sg144
(lp1762
(idelphi
DelphiFunctionEndAccess
p1763
(dp1764
g152
(lp1765
(i__main__
DelphiIdentAccess
p1766
(dp1767
g142
S'changedVariables'
p1768
sg144
(lp1769
(idelphi
DelphiArrayEndAccess
p1770
(dp1771
g152
(lp1772
(i__main__
DelphiIdentAccess
p1773
(dp1774
g142
S'i'
sg144
(lp1775
sbasbasbasba(idelphi
DelphiFieldEndAccess
p1776
(dp1777
g148
S'doChange'
p1778
sbasbsbsba(i__main__
DelphiAssignStatement
p1779
(dp1780
g138
Nsg139
(i__main__
DelphiIdentAccess
p1781
(dp1782
g142
S'self'
p1783
sg144
(lp1784
(idelphi
DelphiFieldEndAccess
p1785
(dp1786
g148
S'updateForChanges'
p1787
sbasbsba(i__main__
DelphiAssignStatement
p1788
(dp1789
g138
Nsg139
(idelphi
DelphiInheritedCall
p1790
(dp1791
g142
S'doCommand'
p1792
sg152
Nsbsbasbsg265
(lp1793
(i__main__
DelphiVarSection
p1794
(dp1795
g1518
I0
sg1519
(lp1796
(idelphi
DelphiVarDecl
p1797
(dp1798
g1523
Nsg1524
(lp1799
S'i'
asg31
(i__main__
DelphiPrimitiveType
p1800
(dp1801
g34
g1186
sbsba(idelphi
DelphiVarDecl
p1802
(dp1803
g1523
Nsg1524
(lp1804
S'redoPhrase'
p1805
asg31
(i__main__
DelphiPrimitiveType
p1806
(dp1807
g34
g74
sbsbasbasbsbsS'destroy'
p1808
(i__main__
DelphiMethodImplementation
p1809
(dp1810
g107
g1149
sg15
g1151
sg23
(lp1811
sg116
(lp1812
sg118
(lp1813
sg120
(lp1814
g122
asg123
(dp1815
sg39
S'TSDoCommandPhrase'
p1816
sg40
Nsg126
(lp1817
sg41
I0
sg42
g1153
sg128
(i__main__
DelphiBlock
p1818
(dp1819
g131
(idelphi
DelphiCompoundStatement
p1820
(dp1821
g134
(lp1822
(idelphi
DelphiForStatement
p1823
(dp1824
g1449
S'i'
sg1450
(idelphi
DelphiAddOp
p1825
(dp1826
g473
S'-'
sg474
(idelphi
DelphiIntegerValue
p1827
(dp1828
g74
S'1'
sbsg481
(i__main__
DelphiIdentAccess
p1829
(dp1830
g142
S'changedVariables'
p1831
sg144
(lp1832
(idelphi
DelphiFieldEndAccess
p1833
(dp1834
g148
S'count'
p1835
sbasbsbsg1462
g1463
sg27
(idelphi
DelphiIntegerValue
p1836
(dp1837
g74
S'0'
sbsg1466
(i__main__
DelphiAssignStatement
p1838
(dp1839
g138
Nsg139
(i__main__
DelphiIdentAccess
p1840
(dp1841
g142
S'TSChangedVariableWrapper'
p1842
sg144
(lp1843
(idelphi
DelphiFunctionEndAccess
p1844
(dp1845
g152
(lp1846
(i__main__
DelphiIdentAccess
p1847
(dp1848
g142
S'changedVariables'
p1849
sg144
(lp1850
(idelphi
DelphiArrayEndAccess
p1851
(dp1852
g152
(lp1853
(i__main__
DelphiIdentAccess
p1854
(dp1855
g142
S'i'
sg144
(lp1856
sbasbasbasba(idelphi
DelphiFieldEndAccess
p1857
(dp1858
g148
S'free'
p1859
sbasbsbsba(i__main__
DelphiAssignStatement
p1860
(dp1861
g138
Nsg139
(i__main__
DelphiIdentAccess
p1862
(dp1863
g142
S'changedVariables'
p1864
sg144
(lp1865
(idelphi
DelphiFieldEndAccess
p1866
(dp1867
g148
S'free'
p1868
sbasbsba(i__main__
DelphiAssignStatement
p1869
(dp1870
g138
(idelphi
DelphiNilValue
p1871
(dp1872
bsg139
(i__main__
DelphiIdentAccess
p1873
(dp1874
g142
S'changedVariables'
p1875
sg144
(lp1876
sbsba(i__main__
DelphiAssignStatement
p1877
(dp1878
g138
Nsg139
(idelphi
DelphiInheritedCall
p1879
(dp1880
g142
S'destroy'
p1881
sg152
Nsbsbasbsg265
(lp1882
(i__main__
DelphiVarSection
p1883
(dp1884
g1518
I0
sg1519
(lp1885
(idelphi
DelphiVarDecl
p1886
(dp1887
g1523
Nsg1524
(lp1888
S'i'
asg31
(i__main__
DelphiPrimitiveType
p1889
(dp1890
g34
g1186
sbsbasbasbsbsS'undocommand'
p1891
(i__main__
DelphiMethodImplementation
p1892
(dp1893
g107
g1155
sg15
g1157
sg23
(lp1894
sg116
(lp1895
sg118
(lp1896
sg120
(lp1897
g122
asg123
(dp1898
sg39
S'TSDoCommandPhrase'
p1899
sg40
Nsg126
(lp1900
sg41
I0
sg42
g43
sg128
(i__main__
DelphiBlock
p1901
(dp1902
g131
(idelphi
DelphiCompoundStatement
p1903
(dp1904
g134
(lp1905
(i__main__
DelphiAssignStatement
p1906
(dp1907
g138
Nsg139
(i__main__
DelphiIdentAccess
p1908
(dp1909
g142
S'ConsoleForm'
p1910
sg144
(lp1911
(idelphi
DelphiFieldEndAccess
p1912
(dp1913
g148
S'addLineToTranscript'
p1914
sba(idelphi
DelphiFunctionEndAccess
p1915
(dp1916
g152
(lp1917
(idelphi
DelphiStringAccess
p1918
(dp1919
g144
(lp1920
sg74
(idelphi
DelphiStringValue
p1921
(dp1922
g74
S'> undo'
p1923
sbsba(i__main__
DelphiIdentAccess
p1924
(dp1925
g142
S'clRed'
p1926
sg144
(lp1927
sbasbasbsba(i__main__
DelphiAssignStatement
p1928
(dp1929
g138
(idelphi
DelphiAddOp
p1930
(dp1931
g473
S'+'
sg474
(idelphi
DelphiStringAccess
p1932
(dp1933
g144
(lp1934
sg74
(idelphi
DelphiStringValue
p1935
(dp1936
g74
S'")'
p1937
sbsbsg481
(idelphi
DelphiAddOp
p1938
(dp1939
g473
S'+'
sg474
(i__main__
DelphiIdentAccess
p1940
(dp1941
g142
S'commandPhrase'
p1942
sg144
(lp1943
sbsg481
(idelphi
DelphiStringAccess
p1944
(dp1945
g144
(lp1946
sg74
(idelphi
DelphiStringValue
p1947
(dp1948
g74
S'(You decide not to say "'
p1949
sbsbsbsbsg139
(i__main__
DelphiIdentAccess
p1950
(dp1951
g142
S'undoPhrase'
p1952
sg144
(lp1953
sbsg437
(lp1954
S'  undoPhrase := \'It is as if "\' + commandPhrase + \'" had never been said.\';\r'
p1955
asba(i__main__
DelphiAssignStatement
p1956
(dp1957
g138
Nsg139
(i__main__
DelphiIdentAccess
p1958
(dp1959
g142
S'ConsoleForm'
p1960
sg144
(lp1961
(idelphi
DelphiFieldEndAccess
p1962
(dp1963
g148
S'addLineToTranscript'
p1964
sba(idelphi
DelphiFunctionEndAccess
p1965
(dp1966
g152
(lp1967
(i__main__
DelphiIdentAccess
p1968
(dp1969
g142
S'undoPhrase'
p1970
sg144
(lp1971
sba(i__main__
DelphiIdentAccess
p1972
(dp1973
g142
S'clBlue'
p1974
sg144
(lp1975
sbasbasbsba(i__main__
DelphiAssignStatement
p1976
(dp1977
g138
Nsg139
(i__main__
DelphiIdentAccess
p1978
(dp1979
g142
S'ConsoleForm'
p1980
sg144
(lp1981
(idelphi
DelphiFieldEndAccess
p1982
(dp1983
g148
S'scrollTranscriptEndIntoView'
p1984
sbasbsba(i__main__
DelphiAssignStatement
p1985
(dp1986
g138
Nsg139
(i__main__
DelphiIdentAccess
p1987
(dp1988
g142
S'ConsoleForm'
p1989
sg144
(lp1990
(idelphi
DelphiFieldEndAccess
p1991
(dp1992
g148
S'speechSystem'
p1993
sba(idelphi
DelphiFieldEndAccess
p1994
(dp1995
g148
S'speakText'
p1996
sba(idelphi
DelphiFunctionEndAccess
p1997
(dp1998
g152
(lp1999
(i__main__
DelphiIdentAccess
p2000
(dp2001
g142
S'undoPhrase'
p2002
sg144
(lp2003
sbasbasbsba(i__main__
DelphiAssignStatement
p2004
(dp2005
g138
(i__main__
DelphiIdentAccess
p2006
(dp2007
g142
S'oldLastSaidTextWithMacros'
p2008
sg144
(lp2009
sbsg139
(i__main__
DelphiIdentAccess
p2010
(dp2011
g142
S'ConsoleForm'
p2012
sg144
(lp2013
(idelphi
DelphiFieldEndAccess
p2014
(dp2015
g148
S'speechSystem'
p2016
sba(idelphi
DelphiFieldEndAccess
p2017
(dp2018
g148
S'lastSaidTextWithMacros'
p2019
sbasbsba(i__main__
DelphiAssignStatement
p2020
(dp2021
g138
(i__main__
DelphiIdentAccess
p2022
(dp2023
g142
S'oldFirstCommandDoneForLastCommandPhrase'
p2024
sg144
(lp2025
sbsg139
(i__main__
DelphiIdentAccess
p2026
(dp2027
g142
S'domain'
p2028
sg144
(lp2029
(idelphi
DelphiFieldEndAccess
p2030
(dp2031
g148
S'world'
p2032
sba(idelphi
DelphiFieldEndAccess
p2033
(dp2034
g148
S'firstCommandDoneForLastCommandPhrase'
p2035
sbasbsba(idelphi
DelphiForStatement
p2036
(dp2037
g1449
S'i'
sg1450
(idelphi
DelphiIntegerValue
p2038
(dp2039
g74
S'0'
sbsg1462
S'downto'
p2040
sg27
(idelphi
DelphiAddOp
p2041
(dp2042
g473
S'-'
sg474
(idelphi
DelphiIntegerValue
p2043
(dp2044
g74
S'1'
sbsg481
(i__main__
DelphiIdentAccess
p2045
(dp2046
g142
S'changedVariables'
p2047
sg144
(lp2048
(idelphi
DelphiFieldEndAccess
p2049
(dp2050
g148
S'count'
p2051
sbasbsbsg1466
(i__main__
DelphiAssignStatement
p2052
(dp2053
g138
Nsg139
(i__main__
DelphiIdentAccess
p2054
(dp2055
g142
S'TSChangedVariableWrapper'
p2056
sg144
(lp2057
(idelphi
DelphiFunctionEndAccess
p2058
(dp2059
g152
(lp2060
(i__main__
DelphiIdentAccess
p2061
(dp2062
g142
S'changedVariables'
p2063
sg144
(lp2064
(idelphi
DelphiArrayEndAccess
p2065
(dp2066
g152
(lp2067
(i__main__
DelphiIdentAccess
p2068
(dp2069
g142
S'i'
sg144
(lp2070
sbasbasbasba(idelphi
DelphiFieldEndAccess
p2071
(dp2072
g148
S'undoChange'
p2073
sbasbsbsba(idelphi
DelphiIfStatement
p2074
(dp2075
g160
(idelphi
DelphiRelOp
p2076
(dp2077
g405
(i__main__
DelphiIdentAccess
p2078
(dp2079
g142
S'newFocus'
p2080
sg144
(lp2081
sbsg410
(i__main__
DelphiIdentAccess
p2082
(dp2083
g142
S'domain'
p2084
sg144
(lp2085
(idelphi
DelphiFieldEndAccess
p2086
(dp2087
g148
S'world'
p2088
sba(idelphi
DelphiFieldEndAccess
p2089
(dp2090
g148
S'emptyEntry'
p2091
sbasbsg415
g677
sbsg171
Nsg184
(idelphi
DelphiCompoundStatement
p2092
(dp2093
g134
(lp2094
(i__main__
DelphiAssignStatement
p2095
(dp2096
g138
Nsg139
(i__main__
DelphiIdentAccess
p2097
(dp2098
g142
S'newFocus'
p2099
sg144
(lp2100
(idelphi
DelphiFieldEndAccess
p2101
(dp2102
g148
S'setState'
p2103
sba(idelphi
DelphiFunctionEndAccess
p2104
(dp2105
g152
(lp2106
(i__main__
DelphiIdentAccess
p2107
(dp2108
g142
S'newFocusOldState'
p2109
sg144
(lp2110
sbasbasbsba(i__main__
DelphiAssignStatement
p2111
(dp2112
g138
(i__main__
DelphiIdentAccess
p2113
(dp2114
g142
S'oldFocus'
p2115
sg144
(lp2116
sbsg139
(i__main__
DelphiIdentAccess
p2117
(dp2118
g142
S'domain'
p2119
sg144
(lp2120
(idelphi
DelphiFieldEndAccess
p2121
(dp2122
g148
S'world'
p2123
sba(idelphi
DelphiFieldEndAccess
p2124
(dp2125
g148
S'focus'
p2126
sbasbsba(i__main__
DelphiAssignStatement
p2127
(dp2128
g138
Nsg139
(i__main__
DelphiIdentAccess
p2129
(dp2130
g142
S'oldFocus'
p2131
sg144
(lp2132
(idelphi
DelphiFieldEndAccess
p2133
(dp2134
g148
S'setState'
p2135
sba(idelphi
DelphiFunctionEndAccess
p2136
(dp2137
g152
(lp2138
(i__main__
DelphiIdentAccess
p2139
(dp2140
g142
S'oldFocusOldState'
p2141
sg144
(lp2142
sbasbasbsbasbsba(i__main__
DelphiAssignStatement
p2143
(dp2144
g138
Nsg139
(i__main__
DelphiIdentAccess
p2145
(dp2146
g142
S'self'
p2147
sg144
(lp2148
(idelphi
DelphiFieldEndAccess
p2149
(dp2150
g148
S'updateForChanges'
p2151
sbasbsba(i__main__
DelphiAssignStatement
p2152
(dp2153
g138
Nsg139
(idelphi
DelphiInheritedCall
p2154
(dp2155
g142
S'undoCommand'
p2156
sg152
Nsbsbasbsg265
(lp2157
(i__main__
DelphiVarSection
p2158
(dp2159
g1518
I0
sg1519
(lp2160
(idelphi
DelphiVarDecl
p2161
(dp2162
g1523
Nsg1524
(lp2163
S'i'
asg31
(i__main__
DelphiPrimitiveType
p2164
(dp2165
g34
g1186
sbsba(idelphi
DelphiVarDecl
p2166
(dp2167
g1523
Nsg1524
(lp2168
S'undoPhrase'
p2169
asg31
(i__main__
DelphiPrimitiveType
p2170
(dp2171
g34
g74
sbsbasbasbsbsS'createwithcommandphrase'
p2172
(i__main__
DelphiMethodImplementation
p2173
(dp2174
g107
g1160
sg15
g1162
sg23
(lp2175
(i__main__
DelphiFormalParameter
p2176
(dp2177
g27
Nsg28
(lp2178
S'commandPhrase'
p2179
asg31
(i__main__
DelphiPrimitiveType
p2180
(dp2181
g34
g74
sbsg38
g1170
sbasg116
(lp2182
sg118
(lp2183
sg120
(lp2184
g122
ag2179
asg123
(dp2185
g2179
g2180
ssg39
S'TSDoCommandPhrase'
p2186
sg40
Nsg126
(lp2187
sg41
I0
sg42
g66
sg128
(i__main__
DelphiBlock
p2188
(dp2189
g131
(idelphi
DelphiCompoundStatement
p2190
(dp2191
g134
(lp2192
(i__main__
DelphiAssignStatement
p2193
(dp2194
g138
(i__main__
DelphiIdentAccess
p2195
(dp2196
g142
S'commandPhrase'
p2197
sg144
(lp2198
sbsg139
(i__main__
DelphiIdentAccess
p2199
(dp2200
g142
S'self'
p2201
sg144
(lp2202
(idelphi
DelphiFieldEndAccess
p2203
(dp2204
g148
S'commandPhrase'
p2205
sbasbsba(i__main__
DelphiAssignStatement
p2206
(dp2207
g138
(i__main__
DelphiIdentAccess
p2208
(dp2209
g142
S'TList'
p2210
sg144
(lp2211
(idelphi
DelphiFieldEndAccess
p2212
(dp2213
g148
S'create'
p2214
sbasbsg139
(i__main__
DelphiIdentAccess
p2215
(dp2216
g142
S'changedVariables'
p2217
sg144
(lp2218
sbsba(i__main__
DelphiAssignStatement
p2219
(dp2220
g138
(i__main__
DelphiIdentAccess
p2221
(dp2222
g142
S'domain'
p2223
sg144
(lp2224
(idelphi
DelphiFieldEndAccess
p2225
(dp2226
g148
S'world'
p2227
sba(idelphi
DelphiFieldEndAccess
p2228
(dp2229
g148
S'emptyEntry'
p2230
sbasbsg139
(i__main__
DelphiIdentAccess
p2231
(dp2232
g142
S'newFocus'
p2233
sg144
(lp2234
sbsg437
(lp2235
S' determine what would need to change - including new focus and all variables\r'
p2236
asba(i__main__
DelphiAssignStatement
p2237
(dp2238
g138
(i__main__
DelphiIdentAccess
p2239
(dp2240
g142
S'ConsoleForm'
p2241
sg144
(lp2242
(idelphi
DelphiFieldEndAccess
p2243
(dp2244
g148
S'speechSystem'
p2245
sba(idelphi
DelphiFieldEndAccess
p2246
(dp2247
g148
S'lastSaidTextWithMacros'
p2248
sbasbsg139
(i__main__
DelphiIdentAccess
p2249
(dp2250
g142
S'oldLastSaidTextWithMacros'
p2251
sg144
(lp2252
sbsba(i__main__
DelphiAssignStatement
p2253
(dp2254
g138
(idelphi
DelphiStringAccess
p2255
(dp2256
g144
(lp2257
sg74
(idelphi
DelphiStringValue
p2258
(dp2259
g74
S''
sbsbsg139
(i__main__
DelphiIdentAccess
p2260
(dp2261
g142
S'newLastSaidTextWithMacros'
p2262
sg144
(lp2263
sbsba(i__main__
DelphiAssignStatement
p2264
(dp2265
g138
(i__main__
DelphiIdentAccess
p2266
(dp2267
g142
S'domain'
p2268
sg144
(lp2269
(idelphi
DelphiFieldEndAccess
p2270
(dp2271
g148
S'world'
p2272
sba(idelphi
DelphiFieldEndAccess
p2273
(dp2274
g148
S'firstCommandDoneForLastCommandPhrase'
p2275
sbasbsg139
(i__main__
DelphiIdentAccess
p2276
(dp2277
g142
S'oldFirstCommandDoneForLastCommandPhrase'
p2278
sg144
(lp2279
sbsba(i__main__
DelphiAssignStatement
p2280
(dp2281
g138
(idelphi
DelphiSign
p2282
(dp2283
S'factor'
p2284
(idelphi
DelphiIntegerValue
p2285
(dp2286
g74
S'1'
sbsS'sign'
p2287
S'-'
sbsg139
(i__main__
DelphiIdentAccess
p2288
(dp2289
g142
S'newFirstCommandDoneForLastCommandPhrase'
p2290
sg144
(lp2291
sbsba(idelphi
DelphiIfStatement
p2292
(dp2293
g160
(idelphi
DelphiRelOp
p2294
(dp2295
g405
(i__main__
DelphiIdentAccess
p2296
(dp2297
g142
S'domain'
p2298
sg144
(lp2299
(idelphi
DelphiFieldEndAccess
p2300
(dp2301
g148
S'world'
p2302
sba(idelphi
DelphiFieldEndAccess
p2303
(dp2304
g148
S'rules'
p2305
sba(idelphi
DelphiFieldEndAccess
p2306
(dp2307
g148
S'count'
p2308
sbasbsg410
(idelphi
DelphiIntegerValue
p2309
(dp2310
g74
S'0'
sbsg415
S'>'
sbsg171
Nsg184
(idelphi
DelphiForStatement
p2311
(dp2312
g1449
S'i'
sg1450
(idelphi
DelphiAddOp
p2313
(dp2314
g473
S'-'
sg474
(idelphi
DelphiIntegerValue
p2315
(dp2316
g74
S'1'
sbsg481
(i__main__
DelphiIdentAccess
p2317
(dp2318
g142
S'domain'
p2319
sg144
(lp2320
(idelphi
DelphiFieldEndAccess
p2321
(dp2322
g148
S'world'
p2323
sba(idelphi
DelphiFieldEndAccess
p2324
(dp2325
g148
S'rules'
p2326
sba(idelphi
DelphiFieldEndAccess
p2327
(dp2328
g148
S'count'
p2329
sbasbsbsg1462
g1463
sg27
(idelphi
DelphiIntegerValue
p2330
(dp2331
g74
S'0'
sbsg1466
(idelphi
DelphiCompoundStatement
p2332
(dp2333
g134
(lp2334
(i__main__
DelphiAssignStatement
p2335
(dp2336
g138
(i__main__
DelphiIdentAccess
p2337
(dp2338
g142
S'TSRule'
p2339
sg144
(lp2340
(idelphi
DelphiFunctionEndAccess
p2341
(dp2342
g152
(lp2343
(i__main__
DelphiIdentAccess
p2344
(dp2345
g142
S'domain'
p2346
sg144
(lp2347
(idelphi
DelphiFieldEndAccess
p2348
(dp2349
g148
S'world'
p2350
sba(idelphi
DelphiFieldEndAccess
p2351
(dp2352
g148
S'rules'
p2353
sba(idelphi
DelphiFieldEndAccess
p2354
(dp2355
g148
S'items'
p2356
sba(idelphi
DelphiArrayEndAccess
p2357
(dp2358
g152
(lp2359
(i__main__
DelphiIdentAccess
p2360
(dp2361
g142
S'i'
sg144
(lp2362
sbasbasbasbasbsg139
(i__main__
DelphiIdentAccess
p2363
(dp2364
g142
S'rule'
p2365
sg144
(lp2366
sbsba(idelphi
DelphiIfStatement
p2367
(dp2368
g160
(idelphi
DelphiMulOp
p2369
(dp2370
g775
(idelphi
DelphiNestedExpressionListAccess
p2371
(dp2372
g144
(lp2373
sg152
(lp2374
(idelphi
DelphiRelOp
p2375
(dp2376
g405
(i__main__
DelphiIdentAccess
p2377
(dp2378
g142
S'AnsiCompareText'
p2379
sg144
(lp2380
(idelphi
DelphiFunctionEndAccess
p2381
(dp2382
g152
(lp2383
(i__main__
DelphiIdentAccess
p2384
(dp2385
g142
S'rule'
p2386
sg144
(lp2387
(idelphi
DelphiFieldEndAccess
p2388
(dp2389
g148
S'command'
p2390
sba(idelphi
DelphiFieldEndAccess
p2391
(dp2392
g148
S'phrase'
p2393
sbasba(i__main__
DelphiIdentAccess
p2394
(dp2395
g142
S'commandPhrase'
p2396
sg144
(lp2397
sbasbasbsg410
(idelphi
DelphiIntegerValue
p2398
(dp2399
g74
S'0'
sbsg415
S'='
sbasbsg790
g791
sg792
(i__main__
DelphiIdentAccess
p2400
(dp2401
g142
S'rule'
p2402
sg144
(lp2403
(idelphi
DelphiFieldEndAccess
p2404
(dp2405
g148
S'available'
p2406
sbasbsbsg171
Nsg184
(idelphi
DelphiCompoundStatement
p2407
(dp2408
g134
(lp2409
(i__main__
DelphiAssignStatement
p2410
(dp2411
g138
(i__main__
DelphiIdentAccess
p2412
(dp2413
g142
S'rule'
p2414
sg144
(lp2415
sbsg139
(i__main__
DelphiIdentAccess
p2416
(dp2417
g142
S'RuleEditorForm'
p2418
sg144
(lp2419
(idelphi
DelphiFieldEndAccess
p2420
(dp2421
g148
S'lastCommand'
p2422
sbasbsba(idelphi
DelphiIfStatement
p2423
(dp2424
g160
(idelphi
DelphiRelOp
p2425
(dp2426
g405
(i__main__
DelphiIdentAccess
p2427
(dp2428
g142
S'newFirstCommandDoneForLastCommandPhrase'
p2429
sg144
(lp2430
sbsg410
(idelphi
DelphiSign
p2431
(dp2432
g2284
(idelphi
DelphiIntegerValue
p2433
(dp2434
g74
S'1'
sbsg2287
S'-'
sbsg415
S'='
sbsg171
Nsg184
(i__main__
DelphiAssignStatement
p2435
(dp2436
g138
(i__main__
DelphiIdentAccess
p2437
(dp2438
g142
S'i'
sg144
(lp2439
sbsg139
(i__main__
DelphiIdentAccess
p2440
(dp2441
g142
S'newFirstCommandDoneForLastCommandPhrase'
p2442
sg144
(lp2443
sbsbsba(i__main__
DelphiAssignStatement
p2444
(dp2445
g138
Nsg139
(i__main__
DelphiIdentAccess
p2446
(dp2447
g142
S'rule'
p2448
sg144
(lp2449
(idelphi
DelphiFieldEndAccess
p2450
(dp2451
g148
S'recordReplyMoveChanges'
p2452
sba(idelphi
DelphiFunctionEndAccess
p2453
(dp2454
g152
(lp2455
(i__main__
DelphiIdentAccess
p2456
(dp2457
g142
S'changedVariables'
p2458
sg144
(lp2459
sba(i__main__
DelphiIdentAccess
p2460
(dp2461
g142
S'newLastSaidTextWithMacros'
p2462
sg144
(lp2463
sba(i__main__
DelphiIdentAccess
p2464
(dp2465
g142
S'newFocus'
p2466
sg144
(lp2467
sbasbasbsbasbsbasbsbsba(idelphi
DelphiIfStatement
p2468
(dp2469
g160
(idelphi
DelphiMulOp
p2470
(dp2471
g775
(idelphi
DelphiNestedExpressionListAccess
p2472
(dp2473
g144
(lp2474
sg152
(lp2475
(idelphi
DelphiRelOp
p2476
(dp2477
g405
(i__main__
DelphiIdentAccess
p2478
(dp2479
g142
S'self'
p2480
sg144
(lp2481
(idelphi
DelphiFieldEndAccess
p2482
(dp2483
g148
S'commandPhrase'
p2484
sba(idelphi
DelphiArrayEndAccess
p2485
(dp2486
g152
(lp2487
(idelphi
DelphiIntegerValue
p2488
(dp2489
g74
S'1'
sbasbasbsg410
(idelphi
DelphiStringAccess
p2490
(dp2491
g144
(lp2492
sg74
(idelphi
DelphiStringValue
p2493
(dp2494
g74
S'$'
sbsbsg415
S'='
sbasbsg790
g791
sg792
(idelphi
DelphiNestedExpressionListAccess
p2495
(dp2496
g144
(lp2497
sg152
(lp2498
(idelphi
DelphiRelOp
p2499
(dp2500
g405
(i__main__
DelphiIdentAccess
p2501
(dp2502
g142
S'length'
p2503
sg144
(lp2504
(idelphi
DelphiFunctionEndAccess
p2505
(dp2506
g152
(lp2507
(i__main__
DelphiIdentAccess
p2508
(dp2509
g142
S'self'
p2510
sg144
(lp2511
(idelphi
DelphiFieldEndAccess
p2512
(dp2513
g148
S'commandPhrase'
p2514
sbasbasbasbsg410
(idelphi
DelphiIntegerValue
p2515
(dp2516
g74
S'1'
sbsg415
S'>'
sbasbsbsg171
Nsg184
(i__main__
DelphiAssignStatement
p2517
(dp2518
g138
(i__main__
DelphiIdentAccess
p2519
(dp2520
g142
S'copy'
p2521
sg144
(lp2522
(idelphi
DelphiFunctionEndAccess
p2523
(dp2524
g152
(lp2525
(i__main__
DelphiIdentAccess
p2526
(dp2527
g142
S'self'
p2528
sg144
(lp2529
(idelphi
DelphiFieldEndAccess
p2530
(dp2531
g148
S'commandPhrase'
p2532
sbasba(idelphi
DelphiIntegerValue
p2533
(dp2534
g74
S'2'
sba(i__main__
DelphiIdentAccess
p2535
(dp2536
g142
S'length'
p2537
sg144
(lp2538
(idelphi
DelphiFunctionEndAccess
p2539
(dp2540
g152
(lp2541
(i__main__
DelphiIdentAccess
p2542
(dp2543
g142
S'self'
p2544
sg144
(lp2545
(idelphi
DelphiFieldEndAccess
p2546
(dp2547
g148
S'commandPhrase'
p2548
sbasbasbasbasbasbsg139
(i__main__
DelphiIdentAccess
p2549
(dp2550
g142
S'self'
p2551
sg144
(lp2552
(idelphi
DelphiFieldEndAccess
p2553
(dp2554
g148
S'commandPhrase'
p2555
sbasbsg437
(lp2556
S' elimitate leading $\r'
p2557
asbsba(i__main__
DelphiAssignStatement
p2558
(dp2559
g138
Nsg139
(i__main__
DelphiIdentAccess
p2560
(dp2561
g142
S'self'
p2562
sg144
(lp2563
(idelphi
DelphiFieldEndAccess
p2564
(dp2565
g148
S'createWithNewFocus'
p2566
sba(idelphi
DelphiFunctionEndAccess
p2567
(dp2568
g152
(lp2569
(i__main__
DelphiIdentAccess
p2570
(dp2571
g142
S'newFocus'
p2572
sg144
(lp2573
sbasbasbsbasbsg265
(lp2574
(i__main__
DelphiVarSection
p2575
(dp2576
g1518
I0
sg1519
(lp2577
(idelphi
DelphiVarDecl
p2578
(dp2579
g1523
Nsg1524
(lp2580
S'i'
asg31
(i__main__
DelphiPrimitiveType
p2581
(dp2582
g34
g1186
sbsba(idelphi
DelphiVarDecl
p2583
(dp2584
g1523
Nsg1524
(lp2585
S'rule'
p2586
asg31
(i__main__
DelphiNamedType
p2587
(dp2588
g34
S'TSRule'
p2589
sg36
g1
sg37
Nsbsbasbasbsg437
(lp2590
S' ----------------------------- TSDoCommandPhrase -------------------------------'
p2591
asbssg531
(dp2592
sg533
(lp2593
g1120
ag1118
ag1128
ag1124
ag1126
ag1122
asbasS'includedUnits'
p2594
NsS'implementationUses'
p2595
(lp2596
S'USConsoleForm'
p2597
aS'USDomain'
p2598
aS'USRuleEditorForm'
p2599
asg15
S'usvariablecommands'
p2600
sS'constSections'
p2601
(lp2602
sS'globalsInProperCase'
p2603
NsS'interfaceUses'
p2604
(lp2605
S'delphi_compatability'
p2606
aS'Windows'
p2607
aS'SysUtils'
p2608
aS'Graphics'
p2609
aS'Classes'
p2610
aS'Controls'
p2611
aS'StdCtrls'
p2612
aS'UCommand'
p2613
aS'USWorld'
p2614
asS'finalCommentToken'
p2615
(i__main__
PassStatement
p2616
(dp2617
g265
(lp2618
sbsS'varSections'
p2619
(lp2620
sS'globals'
p2621
NsS'originalFileName'
p2622
S'../../storyharp-js/converted_source/usvariablecommands.pas'
p2623
sS'proceduralImplementations'
p2624
(dp2625
sS'fileName'
p2626
S'/home/pdfernhout/workspace/storyharp-js/converted_source/usvariablecommands.pas'
p2627
sS'proceduralDeclarations'
p2628
(dp2629
sS'types'
p2630
(dp2631
S'tstogglevariablecommand'
p2632
g5
sS'tsdocommandphrase'
p2633
g1114
sS'tsmovefocuscommand'
p2634
g883
sS'tsabstractmovefocuscommand'
p2635
g535
ssb.