(i__main__
DelphiUnit
p1
(dp2
S'sectionsInOrderDefined'
p3
(lp4
(i__main__
DelphiConstSection
p5
(dp6
S'constDeclList'
p7
(lp8
(idelphi
DelphiConstDeclaration
p9
(dp10
S'constExpression'
p11
(idelphi
DelphiIntegerValue
p12
(dp13
S'string'
p14
S'1'
sbsS'ident'
p15
S'crMagMinus'
p16
sS'theType'
p17
(idelphi
DelphiPrimitiveType
p18
(dp19
S'typeName'
p20
S'UNDEFINED_NEEDS_CALCULATION'
p21
sbsba(idelphi
DelphiConstDeclaration
p22
(dp23
g11
(idelphi
DelphiIntegerValue
p24
(dp25
g14
S'2'
sbsg15
S'crMagPlus'
p26
sg17
(idelphi
DelphiPrimitiveType
p27
(dp28
g20
g21
sbsba(idelphi
DelphiConstDeclaration
p29
(dp30
g11
(idelphi
DelphiIntegerValue
p31
(dp32
g14
S'3'
sbsg15
S'crScroll'
p33
sg17
(idelphi
DelphiPrimitiveType
p34
(dp35
g20
g21
sbsba(idelphi
DelphiConstDeclaration
p36
(dp37
g11
(idelphi
DelphiIntegerValue
p38
(dp39
g14
S'4'
sbsg15
S'crRotate'
p40
sg17
(idelphi
DelphiPrimitiveType
p41
(dp42
g20
g21
sbsba(idelphi
DelphiConstDeclaration
p43
(dp44
g11
(idelphi
DelphiIntegerValue
p45
(dp46
g14
S'5'
sbsg15
S'crDragPlant'
p47
sg17
(idelphi
DelphiPrimitiveType
p48
(dp49
g20
g21
sbsba(idelphi
DelphiConstDeclaration
p50
(dp51
g11
(idelphi
DelphiIntegerValue
p52
(dp53
g14
S'6'
sbsg15
S'crAddTriangle'
p54
sg17
(idelphi
DelphiPrimitiveType
p55
(dp56
g20
g21
sbsba(idelphi
DelphiConstDeclaration
p57
(dp58
g11
(idelphi
DelphiIntegerValue
p59
(dp60
g14
S'7'
sbsg15
S'crDeleteTriangle'
p61
sg17
(idelphi
DelphiPrimitiveType
p62
(dp63
g20
g21
sbsba(idelphi
DelphiConstDeclaration
p64
(dp65
g11
(idelphi
DelphiIntegerValue
p66
(dp67
g14
S'8'
sbsg15
S'crFlipTriangle'
p68
sg17
(idelphi
DelphiPrimitiveType
p69
(dp70
g20
g21
sbsba(idelphi
DelphiConstDeclaration
p71
(dp72
g11
(idelphi
DelphiIntegerValue
p73
(dp74
g14
S'9'
sbsg15
S'crDragPoint'
p75
sg17
(idelphi
DelphiPrimitiveType
p76
(dp77
g20
g21
sbsbasS'atTopLevel'
p78
I1
sba(i__main__
DelphiVarSection
p79
(dp80
g78
I1
sS'varDeclList'
p81
(lp82
(idelphi
DelphiVarDecl
p83
(dp84
g11
NsS'identList'
p85
(lp86
S'waitState'
p87
asg17
(i__main__
DelphiPrimitiveType
p88
(dp89
g20
S'integer'
p90
sbsbasba(i__main__
DelphiProceduralImplementation
p91
(dp92
S'originalDeclaration'
p93
(i__main__
DelphiProceduralDeclaration
p94
(dp95
S'formalParameters'
p96
(lp97
sS'name'
p98
S'cursor_initializeWait'
p99
sS'resultType'
p100
Nsbsg98
g99
sg100
NsS'varParamIndexes'
p101
(lp102
sS'varParamsSkipped'
p103
(lp104
sS'argNames'
p105
(lp106
sS'argTypes'
p107
(dp108
sg96
(lp109
sS'varParamNames'
p110
(lp111
sS'block'
p112
(i__main__
DelphiBlock
p113
(dp114
S'compoundStatement'
p115
(idelphi
DelphiCompoundStatement
p116
(dp117
S'statements'
p118
(lp119
(i__main__
DelphiAssignStatement
p120
(dp121
S'newValueExpression'
p122
(idelphi
DelphiIntegerValue
p123
(dp124
g14
S'0'
sbsS'destinationExpression'
p125
(i__main__
DelphiIdentAccess
p126
(dp127
g15
S'waitState'
p128
sS'endAccessList'
p129
(lp130
sbsbasbsS'limitedDeclSectionList'
p131
(lp132
sbsS'commentLinesBefore'
p133
(lp134
S'$R CURSOR32'
p135
asba(i__main__
DelphiProceduralImplementation
p136
(dp137
g93
(i__main__
DelphiProceduralDeclaration
p138
(dp139
g96
(lp140
sg98
S'cursor_startWait'
p141
sg100
Nsbsg98
g141
sg100
Nsg101
(lp142
sg103
(lp143
sg105
(lp144
sg107
(dp145
sg96
(lp146
sg110
(lp147
sg112
(i__main__
DelphiBlock
p148
(dp149
g115
(idelphi
DelphiCompoundStatement
p150
(dp151
g118
(lp152
(i__main__
DelphiIncOrDecStatement
p153
(dp154
S'incOrDecString'
p155
S'inc'
p156
sS'incrementExpression'
p157
Nsg125
(i__main__
DelphiIdentAccess
p158
(dp159
g15
S'waitState'
p160
sg129
(lp161
sbsba(i__main__
DelphiAssignStatement
p162
(dp163
g122
(i__main__
DelphiIdentAccess
p164
(dp165
g15
S'crHourglass'
p166
sg129
(lp167
sbsg125
(i__main__
DelphiIdentAccess
p168
(dp169
g15
S'screen'
p170
sg129
(lp171
(idelphi
DelphiFieldEndAccess
p172
(dp173
S'field'
p174
S'cursor'
p175
sbasbsbasbsg131
(lp176
sbsba(i__main__
DelphiProceduralImplementation
p177
(dp178
g93
(i__main__
DelphiProceduralDeclaration
p179
(dp180
g96
(lp181
sg98
S'cursor_startWaitIfNotWaiting'
p182
sg100
Nsbsg98
g182
sg100
Nsg101
(lp183
sg103
(lp184
sg105
(lp185
sg107
(dp186
sg96
(lp187
sg110
(lp188
sg112
(i__main__
DelphiBlock
p189
(dp190
g115
(idelphi
DelphiCompoundStatement
p191
(dp192
g118
(lp193
(idelphi
DelphiIfStatement
p194
(dp195
S'expression'
p196
(idelphi
DelphiRelOp
p197
(dp198
S'simpleExpression1'
p199
(i__main__
DelphiIdentAccess
p200
(dp201
g15
S'waitState'
p202
sg129
(lp203
sbsS'simpleExpression2'
p204
(idelphi
DelphiIntegerValue
p205
(dp206
g14
S'0'
sbsS'relOp'
p207
S'='
sbsS'ifFalseStatement'
p208
NsS'ifTrueStatement'
p209
(i__main__
DelphiAssignStatement
p210
(dp211
g122
Nsg125
(i__main__
DelphiIdentAccess
p212
(dp213
g15
S'cursor_startWait'
p214
sg129
(lp215
sbsbsbasbsg131
(lp216
sbsba(i__main__
DelphiProceduralImplementation
p217
(dp218
g93
(i__main__
DelphiProceduralDeclaration
p219
(dp220
g96
(lp221
sg98
S'cursor_stopWait'
p222
sg100
Nsbsg98
g222
sg100
Nsg101
(lp223
sg103
(lp224
sg105
(lp225
sg107
(dp226
sg96
(lp227
sg110
(lp228
sg112
(i__main__
DelphiBlock
p229
(dp230
g115
(idelphi
DelphiCompoundStatement
p231
(dp232
g118
(lp233
(idelphi
DelphiIfStatement
p234
(dp235
g196
(idelphi
DelphiRelOp
p236
(dp237
g199
(i__main__
DelphiIdentAccess
p238
(dp239
g15
S'waitState'
p240
sg129
(lp241
sbsg204
(idelphi
DelphiIntegerValue
p242
(dp243
g14
S'0'
sbsg207
S'>'
sbsg208
Nsg209
(idelphi
DelphiCompoundStatement
p244
(dp245
g118
(lp246
(i__main__
DelphiIncOrDecStatement
p247
(dp248
g155
S'dec'
p249
sg157
Nsg125
(i__main__
DelphiIdentAccess
p250
(dp251
g15
S'waitState'
p252
sg129
(lp253
sbsba(idelphi
DelphiIfStatement
p254
(dp255
g196
(idelphi
DelphiRelOp
p256
(dp257
g199
(i__main__
DelphiIdentAccess
p258
(dp259
g15
S'waitState'
p260
sg129
(lp261
sbsg204
(idelphi
DelphiIntegerValue
p262
(dp263
g14
S'0'
sbsg207
S'='
sbsg208
Nsg209
(i__main__
DelphiAssignStatement
p264
(dp265
g122
(i__main__
DelphiIdentAccess
p266
(dp267
g15
S'crDefault'
p268
sg129
(lp269
sbsg125
(i__main__
DelphiIdentAccess
p270
(dp271
g15
S'screen'
p272
sg129
(lp273
(idelphi
DelphiFieldEndAccess
p274
(dp275
g174
S'cursor'
p276
sbasbsbsbasbsbasbsg131
(lp277
sbsba(i__main__
DelphiProceduralImplementation
p278
(dp279
g93
(i__main__
DelphiProceduralDeclaration
p280
(dp281
g96
(lp282
sg98
S'cursor_loadCustomCursors'
p283
sg100
Nsbsg98
g283
sg100
Nsg101
(lp284
sg103
(lp285
sg105
(lp286
sg107
(dp287
sg96
(lp288
sg110
(lp289
sg112
(i__main__
DelphiBlock
p290
(dp291
g115
(idelphi
DelphiCompoundStatement
p292
(dp293
g118
(lp294
(i__main__
DelphiAssignStatement
p295
(dp296
g122
(i__main__
DelphiIdentAccess
p297
(dp298
g15
S'LoadCursor'
p299
sg129
(lp300
(idelphi
DelphiFunctionEndAccess
p301
(dp302
S'expressionList'
p303
(lp304
(i__main__
DelphiIdentAccess
p305
(dp306
g15
S'HInstance'
p307
sg129
(lp308
sba(idelphi
DelphiStringAccess
p309
(dp310
g129
(lp311
sg14
(idelphi
DelphiStringValue
p312
(dp313
g14
S'MAGMINUS'
p314
sbsbasbasbsg125
(i__main__
DelphiIdentAccess
p315
(dp316
g15
S'Screen'
p317
sg129
(lp318
(idelphi
DelphiFieldEndAccess
p319
(dp320
g174
S'Cursors'
p321
sba(idelphi
DelphiArrayEndAccess
p322
(dp323
g303
(lp324
(i__main__
DelphiIdentAccess
p325
(dp326
g15
S'crMagMinus'
p327
sg129
(lp328
sbasbasbsba(i__main__
DelphiAssignStatement
p329
(dp330
g122
(i__main__
DelphiIdentAccess
p331
(dp332
g15
S'LoadCursor'
p333
sg129
(lp334
(idelphi
DelphiFunctionEndAccess
p335
(dp336
g303
(lp337
(i__main__
DelphiIdentAccess
p338
(dp339
g15
S'HInstance'
p340
sg129
(lp341
sba(idelphi
DelphiStringAccess
p342
(dp343
g129
(lp344
sg14
(idelphi
DelphiStringValue
p345
(dp346
g14
S'MAGPLUS'
p347
sbsbasbasbsg125
(i__main__
DelphiIdentAccess
p348
(dp349
g15
S'Screen'
p350
sg129
(lp351
(idelphi
DelphiFieldEndAccess
p352
(dp353
g174
S'Cursors'
p354
sba(idelphi
DelphiArrayEndAccess
p355
(dp356
g303
(lp357
(i__main__
DelphiIdentAccess
p358
(dp359
g15
S'crMagPlus'
p360
sg129
(lp361
sbasbasbsba(i__main__
DelphiAssignStatement
p362
(dp363
g122
(i__main__
DelphiIdentAccess
p364
(dp365
g15
S'LoadCursor'
p366
sg129
(lp367
(idelphi
DelphiFunctionEndAccess
p368
(dp369
g303
(lp370
(i__main__
DelphiIdentAccess
p371
(dp372
g15
S'HInstance'
p373
sg129
(lp374
sba(idelphi
DelphiStringAccess
p375
(dp376
g129
(lp377
sg14
(idelphi
DelphiStringValue
p378
(dp379
g14
S'SCROLL'
p380
sbsbasbasbsg125
(i__main__
DelphiIdentAccess
p381
(dp382
g15
S'Screen'
p383
sg129
(lp384
(idelphi
DelphiFieldEndAccess
p385
(dp386
g174
S'Cursors'
p387
sba(idelphi
DelphiArrayEndAccess
p388
(dp389
g303
(lp390
(i__main__
DelphiIdentAccess
p391
(dp392
g15
S'crScroll'
p393
sg129
(lp394
sbasbasbsba(i__main__
DelphiAssignStatement
p395
(dp396
g122
(i__main__
DelphiIdentAccess
p397
(dp398
g15
S'LoadCursor'
p399
sg129
(lp400
(idelphi
DelphiFunctionEndAccess
p401
(dp402
g303
(lp403
(i__main__
DelphiIdentAccess
p404
(dp405
g15
S'HInstance'
p406
sg129
(lp407
sba(idelphi
DelphiStringAccess
p408
(dp409
g129
(lp410
sg14
(idelphi
DelphiStringValue
p411
(dp412
g14
S'ROTATE'
p413
sbsbasbasbsg125
(i__main__
DelphiIdentAccess
p414
(dp415
g15
S'Screen'
p416
sg129
(lp417
(idelphi
DelphiFieldEndAccess
p418
(dp419
g174
S'Cursors'
p420
sba(idelphi
DelphiArrayEndAccess
p421
(dp422
g303
(lp423
(i__main__
DelphiIdentAccess
p424
(dp425
g15
S'crRotate'
p426
sg129
(lp427
sbasbasbsba(i__main__
DelphiAssignStatement
p428
(dp429
g122
(i__main__
DelphiIdentAccess
p430
(dp431
g15
S'LoadCursor'
p432
sg129
(lp433
(idelphi
DelphiFunctionEndAccess
p434
(dp435
g303
(lp436
(i__main__
DelphiIdentAccess
p437
(dp438
g15
S'HInstance'
p439
sg129
(lp440
sba(idelphi
DelphiStringAccess
p441
(dp442
g129
(lp443
sg14
(idelphi
DelphiStringValue
p444
(dp445
g14
S'DRAGPLANT'
p446
sbsbasbasbsg125
(i__main__
DelphiIdentAccess
p447
(dp448
g15
S'Screen'
p449
sg129
(lp450
(idelphi
DelphiFieldEndAccess
p451
(dp452
g174
S'Cursors'
p453
sba(idelphi
DelphiArrayEndAccess
p454
(dp455
g303
(lp456
(i__main__
DelphiIdentAccess
p457
(dp458
g15
S'crDragPlant'
p459
sg129
(lp460
sbasbasbsba(i__main__
DelphiAssignStatement
p461
(dp462
g122
(i__main__
DelphiIdentAccess
p463
(dp464
g15
S'LoadCursor'
p465
sg129
(lp466
(idelphi
DelphiFunctionEndAccess
p467
(dp468
g303
(lp469
(i__main__
DelphiIdentAccess
p470
(dp471
g15
S'HInstance'
p472
sg129
(lp473
sba(idelphi
DelphiStringAccess
p474
(dp475
g129
(lp476
sg14
(idelphi
DelphiStringValue
p477
(dp478
g14
S'ADDTRIANGLEPOINT'
p479
sbsbasbasbsg125
(i__main__
DelphiIdentAccess
p480
(dp481
g15
S'Screen'
p482
sg129
(lp483
(idelphi
DelphiFieldEndAccess
p484
(dp485
g174
S'Cursors'
p486
sba(idelphi
DelphiArrayEndAccess
p487
(dp488
g303
(lp489
(i__main__
DelphiIdentAccess
p490
(dp491
g15
S'crAddTriangle'
p492
sg129
(lp493
sbasbasbsba(i__main__
DelphiAssignStatement
p494
(dp495
g122
(i__main__
DelphiIdentAccess
p496
(dp497
g15
S'LoadCursor'
p498
sg129
(lp499
(idelphi
DelphiFunctionEndAccess
p500
(dp501
g303
(lp502
(i__main__
DelphiIdentAccess
p503
(dp504
g15
S'HInstance'
p505
sg129
(lp506
sba(idelphi
DelphiStringAccess
p507
(dp508
g129
(lp509
sg14
(idelphi
DelphiStringValue
p510
(dp511
g14
S'DELETETRIANGLE'
p512
sbsbasbasbsg125
(i__main__
DelphiIdentAccess
p513
(dp514
g15
S'Screen'
p515
sg129
(lp516
(idelphi
DelphiFieldEndAccess
p517
(dp518
g174
S'Cursors'
p519
sba(idelphi
DelphiArrayEndAccess
p520
(dp521
g303
(lp522
(i__main__
DelphiIdentAccess
p523
(dp524
g15
S'crDeleteTriangle'
p525
sg129
(lp526
sbasbasbsba(i__main__
DelphiAssignStatement
p527
(dp528
g122
(i__main__
DelphiIdentAccess
p529
(dp530
g15
S'LoadCursor'
p531
sg129
(lp532
(idelphi
DelphiFunctionEndAccess
p533
(dp534
g303
(lp535
(i__main__
DelphiIdentAccess
p536
(dp537
g15
S'HInstance'
p538
sg129
(lp539
sba(idelphi
DelphiStringAccess
p540
(dp541
g129
(lp542
sg14
(idelphi
DelphiStringValue
p543
(dp544
g14
S'FLIPTRIANGLE'
p545
sbsbasbasbsg125
(i__main__
DelphiIdentAccess
p546
(dp547
g15
S'Screen'
p548
sg129
(lp549
(idelphi
DelphiFieldEndAccess
p550
(dp551
g174
S'Cursors'
p552
sba(idelphi
DelphiArrayEndAccess
p553
(dp554
g303
(lp555
(i__main__
DelphiIdentAccess
p556
(dp557
g15
S'crFlipTriangle'
p558
sg129
(lp559
sbasbasbsba(i__main__
DelphiAssignStatement
p560
(dp561
g122
(i__main__
DelphiIdentAccess
p562
(dp563
g15
S'LoadCursor'
p564
sg129
(lp565
(idelphi
DelphiFunctionEndAccess
p566
(dp567
g303
(lp568
(i__main__
DelphiIdentAccess
p569
(dp570
g15
S'HInstance'
p571
sg129
(lp572
sba(idelphi
DelphiStringAccess
p573
(dp574
g129
(lp575
sg14
(idelphi
DelphiStringValue
p576
(dp577
g14
S'DRAGPOINT'
p578
sbsbasbasbsg125
(i__main__
DelphiIdentAccess
p579
(dp580
g15
S'Screen'
p581
sg129
(lp582
(idelphi
DelphiFieldEndAccess
p583
(dp584
g174
S'Cursors'
p585
sba(idelphi
DelphiArrayEndAccess
p586
(dp587
g303
(lp588
(i__main__
DelphiIdentAccess
p589
(dp590
g15
S'crDragPoint'
p591
sg129
(lp592
sbasbasbsbasbsg131
(lp593
sbsg133
(lp594
S"Note:\tYou don't need to call the WinAPI function DestroyCursor when you are finished using the custom\r"
p595
aS'cursor; Delphi does this automatically. '
p596
asbasS'includedUnits'
p597
NsS'implementationUses'
p598
(lp599
S'SysUtils'
p600
aS'Controls'
p601
aS'Forms'
p602
asg98
S'ucursor'
p603
sS'constSections'
p604
(lp605
g5
asS'globalsInProperCase'
p606
NsS'interfaceUses'
p607
(lp608
S'delphi_compatability'
p609
aS'WinProcs'
p610
aS'WinTypes'
p611
aS'ExtCtrls'
p612
aS'Classes'
p613
asS'finalCommentToken'
p614
(i__main__
PassStatement
p615
(dp616
g131
(lp617
sbsS'varSections'
p618
(lp619
g79
asS'globals'
p620
NsS'originalFileName'
p621
S'../../storyharp-js/converted_source/ucursor.pas'
p622
sS'proceduralImplementations'
p623
(dp624
S'cursor_startwait'
p625
g136
sS'cursor_startwaitifnotwaiting'
p626
g177
sS'cursor_initializewait'
p627
g91
sS'cursor_loadcustomcursors'
p628
g278
sS'cursor_stopwait'
p629
g217
ssS'fileName'
p630
S'/home/pdfernhout/workspace/storyharp-js/converted_source/ucursor.pas'
p631
sS'proceduralDeclarations'
p632
(dp633
S'cursor_startwait'
p634
g138
sS'cursor_startwaitifnotwaiting'
p635
g179
sS'cursor_initializewait'
p636
g94
sS'cursor_loadcustomcursors'
p637
g280
sS'cursor_stopwait'
p638
g219
ssS'types'
p639
(dp640
sb.