(i__main__
DelphiUnit
p1
(dp2
S'sectionsInOrderDefined'
p3
(lp4
(i__main__
DelphiClass
p5
(dp6
S'variableNamesInProperCase'
p7
(dp8
S'dontshowthisdialogagain'
p9
S'dontShowThisDialogAgain'
p10
sS'okbutton'
p11
S'okButton'
p12
sS'label1'
p13
S'Label1'
p14
sS'label2'
p15
S'Label2'
p16
sS'label3'
p17
S'Label3'
p18
sS'label4'
p19
S'Label4'
p20
ssS'name'
p21
S'TAgentWarningForm'
p22
sS'methodDeclarations'
p23
(dp24
S'okbuttonclick'
p25
(i__main__
DelphiMethodDeclaration
p26
(dp27
g21
S'okButtonClick'
p28
sS'formalParameters'
p29
(lp30
(i__main__
DelphiFormalParameter
p31
(dp32
S'initialValue'
p33
NsS'names'
p34
(lp35
S'Sender'
p36
asS'theType'
p37
(i__main__
DelphiNamedType
p38
(dp39
S'typeName'
p40
S'TObject'
p41
sS'unitDefinedIn'
p42
g1
sS'unitName'
p43
NsbsS'parameterVariety'
p44
NsbasS'className'
p45
g22
sS'resultType'
p46
NsS'isClassMethod'
p47
I0
sS'methodType'
p48
S'procedure'
p49
sbssS'superclassNamedTypes'
p50
(lp51
(i__main__
DelphiNamedType
p52
(dp53
g40
S'TForm'
p54
sg42
g1
sg43
NsbasS'variableNames'
p55
(dp56
S'dontshowthisdialogagain'
p57
(i__main__
DelphiNamedType
p58
(dp59
g40
S'TCheckBox'
p60
sg42
g1
sg43
NsbsS'okbutton'
p61
(i__main__
DelphiNamedType
p62
(dp63
g40
S'TButton'
p64
sg42
g1
sg43
NsbsS'label1'
p65
(i__main__
DelphiNamedType
p66
(dp67
g40
S'TLabel'
p68
sg42
g1
sg43
NsbsS'label2'
p69
(i__main__
DelphiNamedType
p70
(dp71
g40
S'TLabel'
p72
sg42
g1
sg43
NsbsS'label3'
p73
(i__main__
DelphiNamedType
p74
(dp75
g40
S'TLabel'
p76
sg42
g1
sg43
NsbsS'label4'
p77
(i__main__
DelphiNamedType
p78
(dp79
g40
S'TLabel'
p80
sg42
g1
sg43
NsbssS'methodNamesInDefinedOrder'
p81
(lp82
S'okbuttonclick'
p83
asS'methodImplementations'
p84
(dp85
S'okbuttonclick'
p86
(i__main__
DelphiMethodImplementation
p87
(dp88
S'originalDeclaration'
p89
g26
sg21
g28
sg29
(lp90
(i__main__
DelphiFormalParameter
p91
(dp92
g33
Nsg34
(lp93
S'Sender'
p94
asg37
(i__main__
DelphiNamedType
p95
(dp96
g40
S'TObject'
p97
sg42
g1
sg43
Nsbsg44
NsbasS'varParamIndexes'
p98
(lp99
sS'varParamsSkipped'
p100
(lp101
sS'argNames'
p102
(lp103
S'self'
p104
ag94
asS'argTypes'
p105
(dp106
g94
g95
ssg45
S'TAgentWarningForm'
p107
sg46
NsS'varParamNames'
p108
(lp109
sg47
I0
sg48
g49
sS'block'
p110
(i__main__
DelphiBlock
p111
(dp112
S'compoundStatement'
p113
(idelphi
DelphiCompoundStatement
p114
(dp115
S'statements'
p116
(lp117
(i__main__
DelphiAssignStatement
p118
(dp119
S'newValueExpression'
p120
(i__main__
DelphiIdentAccess
p121
(dp122
S'ident'
p123
S'dontShowThisDialogAgain'
p124
sS'endAccessList'
p125
(lp126
(idelphi
DelphiFieldEndAccess
p127
(dp128
S'field'
p129
S'checked'
p130
sbasbsS'destinationExpression'
p131
(i__main__
DelphiIdentAccess
p132
(dp133
g123
S'domain'
p134
sg125
(lp135
(idelphi
DelphiFieldEndAccess
p136
(dp137
g129
S'options'
p138
sba(idelphi
DelphiFieldEndAccess
p139
(dp140
g129
S'suppressAgentNotPresentWarning'
p141
sbasbsba(i__main__
DelphiAssignStatement
p142
(dp143
g120
(i__main__
DelphiIdentAccess
p144
(dp145
g123
S'mrOK'
p146
sg125
(lp147
sbsg131
(i__main__
DelphiIdentAccess
p148
(dp149
g123
S'ModalResult'
p150
sg125
(lp151
sbsbasbsS'limitedDeclSectionList'
p152
(lp153
sbsS'commentLinesBefore'
p154
(lp155
S' Private declarations '
p156
aS' Public declarations '
p157
aS'$R *.DFM'
p158
asbssS'propertyDeclarations'
p159
(dp160
sS'variableNamesInDeclaredOrder'
p161
(lp162
g14
ag10
ag12
ag16
ag18
ag20
asbasS'includedUnits'
p163
NsS'implementationUses'
p164
(lp165
S'USDomain'
p166
asg21
S'usagentwarning'
p167
sS'constSections'
p168
(lp169
sS'globalsInProperCase'
p170
NsS'interfaceUses'
p171
(lp172
S'delphi_compatability'
p173
aS'Windows'
p174
aS'Messages'
p175
aS'SysUtils'
p176
aS'Classes'
p177
aS'Graphics'
p178
aS'Controls'
p179
aS'Forms'
p180
aS'Dialogs'
p181
aS'StdCtrls'
p182
asS'finalCommentToken'
p183
(i__main__
PassStatement
p184
(dp185
g152
(lp186
sbsS'varSections'
p187
(lp188
sS'globals'
p189
NsS'originalFileName'
p190
S'../../storyharp-js/converted_source/usagentwarning.pas'
p191
sS'proceduralImplementations'
p192
(dp193
sS'fileName'
p194
S'/home/pdfernhout/workspace/storyharp-js/converted_source/usagentwarning.pas'
p195
sS'proceduralDeclarations'
p196
(dp197
sS'types'
p198
(dp199
S'tagentwarningform'
p200
g5
ssb.