(i__main__
DelphiUnit
p1
(dp2
S'sectionsInOrderDefined'
p3
(lp4
(i__main__
DelphiClass
p5
(dp6
S'variableNamesInProperCase'
p7
(dp8
S'clearlogfile'
p9
S'clearLogFile'
p10
sS'bottompanel'
p11
S'bottomPanel'
p12
sS'helpbutton'
p13
S'helpButton'
p14
sS'logcontentsrichedit'
p15
S'LogContentsRichEdit'
p16
sS'changelogfile'
p17
S'changeLogFile'
p18
sS'issuedwarning'
p19
S'issuedWarning'
p20
sS'opendialog'
p21
S'OpenDialog'
p22
sS'copyselectedtextbutton'
p23
S'CopySelectedTextButton'
p24
sS'updatebutton'
p25
S'UpdateButton'
p26
ssS'name'
p27
S'TChangeLogForm'
p28
sS'methodDeclarations'
p29
(dp30
S'helpbuttonclick'
p31
(i__main__
DelphiMethodDeclaration
p32
(dp33
g27
S'helpButtonClick'
p34
sS'formalParameters'
p35
(lp36
(i__main__
DelphiFormalParameter
p37
(dp38
S'initialValue'
p39
NsS'names'
p40
(lp41
S'Sender'
p42
asS'theType'
p43
(i__main__
DelphiNamedType
p44
(dp45
S'typeName'
p46
S'TObject'
p47
sS'unitDefinedIn'
p48
g1
sS'unitName'
p49
NsbsS'parameterVariety'
p50
NsbasS'className'
p51
g28
sS'resultType'
p52
NsS'isClassMethod'
p53
I0
sS'methodType'
p54
S'procedure'
p55
sbsS'formkeyup'
p56
(i__main__
DelphiMethodDeclaration
p57
(dp58
g27
S'FormKeyUp'
p59
sg35
(lp60
(i__main__
DelphiFormalParameter
p61
(dp62
g39
Nsg40
(lp63
S'Sender'
p64
asg43
(i__main__
DelphiNamedType
p65
(dp66
g46
S'TObject'
p67
sg48
g1
sg49
Nsbsg50
Nsba(i__main__
DelphiFormalParameter
p68
(dp69
g39
Nsg40
(lp70
S'Key'
p71
asg43
(i__main__
DelphiPrimitiveType
p72
(dp73
g46
S'word'
p74
sbsg50
S'var'
p75
sba(i__main__
DelphiFormalParameter
p76
(dp77
g39
Nsg40
(lp78
S'Shift'
p79
asg43
(i__main__
DelphiNamedType
p80
(dp81
g46
S'TShiftState'
p82
sg48
g1
sg49
Nsbsg50
Nsbasg51
g28
sg52
Nsg53
I0
sg54
g55
sbsS'scrolllogendintoview'
p83
(i__main__
DelphiMethodDeclaration
p84
(dp85
g27
S'scrollLogEndIntoView'
p86
sg35
(lp87
sg51
g28
sg52
Nsg53
I0
sg54
g55
sbsS'loadchangelog'
p88
(i__main__
DelphiMethodDeclaration
p89
(dp90
g27
S'loadChangeLog'
p91
sg35
(lp92
sg51
g28
sg52
Nsg53
I0
sg54
g55
sbsS'formcreate'
p93
(i__main__
DelphiMethodDeclaration
p94
(dp95
g27
S'FormCreate'
p96
sg35
(lp97
(i__main__
DelphiFormalParameter
p98
(dp99
g39
Nsg40
(lp100
S'Sender'
p101
asg43
(i__main__
DelphiNamedType
p102
(dp103
g46
S'TObject'
p104
sg48
g1
sg49
Nsbsg50
Nsbasg51
g28
sg52
Nsg53
I0
sg54
g55
sbsS'clearlogfileclick'
p105
(i__main__
DelphiMethodDeclaration
p106
(dp107
g27
S'clearLogFileClick'
p108
sg35
(lp109
(i__main__
DelphiFormalParameter
p110
(dp111
g39
Nsg40
(lp112
S'Sender'
p113
asg43
(i__main__
DelphiNamedType
p114
(dp115
g46
S'TObject'
p116
sg48
g1
sg49
Nsbsg50
Nsbasg51
g28
sg52
Nsg53
I0
sg54
g55
sbsS'clearlog'
p117
(i__main__
DelphiMethodDeclaration
p118
(dp119
g27
S'clearLog'
p120
sg35
(lp121
sg51
g28
sg52
Nsg53
I0
sg54
g55
sbsS'wmgetminmaxinfo'
p122
(i__main__
DelphiMethodDeclaration
p123
(dp124
g27
S'WMGetMinMaxInfo'
p125
sg35
(lp126
(i__main__
DelphiFormalParameter
p127
(dp128
g39
Nsg40
(lp129
S'MSG'
p130
asg43
(i__main__
DelphiNamedType
p131
(dp132
g46
S'Tmessage'
p133
sg48
g1
sg49
Nsbsg50
g75
sbasg51
g28
sg52
Nsg53
I0
sg54
g55
sS'commentLinesBefore'
p134
(lp135
S' Private declarations '
p136
asbsS'changelogfileclick'
p137
(i__main__
DelphiMethodDeclaration
p138
(dp139
g27
S'changeLogFileClick'
p140
sg35
(lp141
(i__main__
DelphiFormalParameter
p142
(dp143
g39
Nsg40
(lp144
S'Sender'
p145
asg43
(i__main__
DelphiNamedType
p146
(dp147
g46
S'TObject'
p148
sg48
g1
sg49
Nsbsg50
Nsbasg51
g28
sg52
Nsg53
I0
sg54
g55
sbsS'bottompanelresize'
p149
(i__main__
DelphiMethodDeclaration
p150
(dp151
g27
S'bottomPanelResize'
p152
sg35
(lp153
(i__main__
DelphiFormalParameter
p154
(dp155
g39
Nsg40
(lp156
S'Sender'
p157
asg43
(i__main__
DelphiNamedType
p158
(dp159
g46
S'TObject'
p160
sg48
g1
sg49
Nsbsg50
Nsbasg51
g28
sg52
Nsg53
I0
sg54
g55
sbsS'addtolog'
p161
(i__main__
DelphiMethodDeclaration
p162
(dp163
g27
S'addToLog'
p164
sg35
(lp165
(i__main__
DelphiFormalParameter
p166
(dp167
g39
Nsg40
(lp168
S'change'
p169
asg43
(i__main__
DelphiPrimitiveType
p170
(dp171
g46
S'string'
p172
sbsg50
Nsbasg51
g28
sg52
Nsg53
I0
sg54
g55
sbsS'okbuttonclick'
p173
(i__main__
DelphiMethodDeclaration
p174
(dp175
g27
S'OKButtonClick'
p176
sg35
(lp177
(i__main__
DelphiFormalParameter
p178
(dp179
g39
Nsg40
(lp180
S'Sender'
p181
asg43
(i__main__
DelphiNamedType
p182
(dp183
g46
S'TObject'
p184
sg48
g1
sg49
Nsbsg50
Nsbasg51
g28
sg52
Nsg53
I0
sg54
g55
sbsS'updatebuttonclick'
p185
(i__main__
DelphiMethodDeclaration
p186
(dp187
g27
S'UpdateButtonClick'
p188
sg35
(lp189
(i__main__
DelphiFormalParameter
p190
(dp191
g39
Nsg40
(lp192
S'Sender'
p193
asg43
(i__main__
DelphiNamedType
p194
(dp195
g46
S'TObject'
p196
sg48
g1
sg49
Nsbsg50
Nsbasg51
g28
sg52
Nsg53
I0
sg54
g55
sbsS'getosinfo'
p197
(i__main__
DelphiMethodDeclaration
p198
(dp199
g27
S'GetOSInfo'
p200
sg35
(lp201
sg51
g28
sg52
Nsg53
I0
sg54
g55
sbsS'fileerrorwarning'
p202
(i__main__
DelphiMethodDeclaration
p203
(dp204
g27
S'fileErrorWarning'
p205
sg35
(lp206
sg51
g28
sg52
Nsg53
I0
sg54
g55
sg134
(lp207
S' Public declarations '
p208
asbsS'ensurelogfilename'
p209
(i__main__
DelphiMethodDeclaration
p210
(dp211
g27
S'ensureLogFileName'
p212
sg35
(lp213
sg51
g28
sg52
Nsg53
I0
sg54
g55
sbsS'showtechsupportinfoinchangelog'
p214
(i__main__
DelphiMethodDeclaration
p215
(dp216
g27
S'showTechSupportInfoInChangeLog'
p217
sg35
(lp218
sg51
g28
sg52
Nsg53
I0
sg54
g55
sbsS'copyselectedtextbuttonclick'
p219
(i__main__
DelphiMethodDeclaration
p220
(dp221
g27
S'CopySelectedTextButtonClick'
p222
sg35
(lp223
(i__main__
DelphiFormalParameter
p224
(dp225
g39
Nsg40
(lp226
S'Sender'
p227
asg43
(i__main__
DelphiNamedType
p228
(dp229
g46
S'TObject'
p230
sg48
g1
sg49
Nsbsg50
Nsbasg51
g28
sg52
Nsg53
I0
sg54
g55
sbssS'superclassNamedTypes'
p231
(lp232
(i__main__
DelphiNamedType
p233
(dp234
g46
S'TForm'
p235
sg48
g1
sg49
NsbasS'variableNames'
p236
(dp237
S'clearlogfile'
p238
(i__main__
DelphiNamedType
p239
(dp240
g46
S'TButton'
p241
sg48
g1
sg49
NsbsS'bottompanel'
p242
(i__main__
DelphiNamedType
p243
(dp244
g46
S'TPanel'
p245
sg48
g1
sg49
NsbsS'helpbutton'
p246
(i__main__
DelphiNamedType
p247
(dp248
g46
S'TButton'
p249
sg48
g1
sg49
NsbsS'logcontentsrichedit'
p250
(i__main__
DelphiNamedType
p251
(dp252
g46
S'TRichEdit'
p253
sg48
g1
sg49
NsbsS'changelogfile'
p254
(i__main__
DelphiNamedType
p255
(dp256
g46
S'TButton'
p257
sg48
g1
sg49
NsbsS'issuedwarning'
p258
(i__main__
DelphiPrimitiveType
p259
(dp260
g46
S'boolean'
p261
sbsS'opendialog'
p262
(i__main__
DelphiNamedType
p263
(dp264
g46
S'TOpenDialog'
p265
sg48
g1
sg49
NsbsS'copyselectedtextbutton'
p266
(i__main__
DelphiNamedType
p267
(dp268
g46
S'TButton'
p269
sg48
g1
sg49
NsbsS'updatebutton'
p270
(i__main__
DelphiNamedType
p271
(dp272
g46
S'TButton'
p273
sg48
g1
sg49
NsbssS'methodNamesInDefinedOrder'
p274
(lp275
S'formcreate'
p276
aS'fileerrorwarning'
p277
aS'ensurelogfilename'
p278
aS'addtolog'
p279
aS'clearlog'
p280
aS'copyselectedtextbuttonclick'
p281
aS'okbuttonclick'
p282
aS'loadchangelog'
p283
aS'scrolllogendintoview'
p284
aS'updatebuttonclick'
p285
aS'bottompanelresize'
p286
aS'clearlogfileclick'
p287
aS'changelogfileclick'
p288
aS'wmgetminmaxinfo'
p289
aS'helpbuttonclick'
p290
aS'formkeyup'
p291
aS'showtechsupportinfoinchangelog'
p292
aS'getosinfo'
p293
asS'methodImplementations'
p294
(dp295
S'helpbuttonclick'
p296
(i__main__
DelphiMethodImplementation
p297
(dp298
S'originalDeclaration'
p299
g32
sg27
g34
sg35
(lp300
(i__main__
DelphiFormalParameter
p301
(dp302
g39
Nsg40
(lp303
S'Sender'
p304
asg43
(i__main__
DelphiNamedType
p305
(dp306
g46
S'TObject'
p307
sg48
g1
sg49
Nsbsg50
NsbasS'varParamIndexes'
p308
(lp309
sS'varParamsSkipped'
p310
(lp311
sS'argNames'
p312
(lp313
S'self'
p314
ag304
asS'argTypes'
p315
(dp316
g304
g305
ssg51
S'TChangeLogForm'
p317
sg52
NsS'varParamNames'
p318
(lp319
sg53
I0
sg54
g55
sS'block'
p320
(i__main__
DelphiBlock
p321
(dp322
S'compoundStatement'
p323
(idelphi
DelphiCompoundStatement
p324
(dp325
S'statements'
p326
(lp327
(i__main__
DelphiAssignStatement
p328
(dp329
S'newValueExpression'
p330
NsS'destinationExpression'
p331
(i__main__
DelphiIdentAccess
p332
(dp333
S'ident'
p334
S'application'
p335
sS'endAccessList'
p336
(lp337
(idelphi
DelphiFieldEndAccess
p338
(dp339
S'field'
p340
S'helpJump'
p341
sba(idelphi
DelphiFunctionEndAccess
p342
(dp343
S'expressionList'
p344
(lp345
(idelphi
DelphiStringAccess
p346
(dp347
g336
(lp348
sg172
(idelphi
DelphiStringValue
p349
(dp350
g172
S'Using_the_Change_Log_file_to_recover_text'
p351
sbsbasbasbsbasbsS'limitedDeclSectionList'
p352
(lp353
sbsbsS'formkeyup'
p354
(i__main__
DelphiMethodImplementation
p355
(dp356
g299
g57
sg27
g59
sg35
(lp357
(i__main__
DelphiFormalParameter
p358
(dp359
g39
Nsg40
(lp360
S'Sender'
p361
asg43
(i__main__
DelphiNamedType
p362
(dp363
g46
S'TObject'
p364
sg48
g1
sg49
Nsbsg50
Nsba(i__main__
DelphiFormalParameter
p365
(dp366
g39
Nsg40
(lp367
S'Key'
p368
asg43
(i__main__
DelphiPrimitiveType
p369
(dp370
g46
g74
sbsg50
g75
sba(i__main__
DelphiFormalParameter
p371
(dp372
g39
Nsg40
(lp373
S'Shift'
p374
asg43
(i__main__
DelphiNamedType
p375
(dp376
g46
S'TShiftState'
p377
sg48
g1
sg49
Nsbsg50
Nsbasg308
(lp378
I1
asg310
(lp379
sg312
(lp380
g314
ag361
ag368
ag374
asg315
(dp381
g374
g375
sg361
g362
sg368
g369
ssg51
S'TChangeLogForm'
p382
sg52
Nsg318
(lp383
g368
asg53
I0
sg54
g55
sg320
(i__main__
DelphiBlock
p384
(dp385
g323
(idelphi
DelphiCompoundStatement
p386
(dp387
g326
(lp388
(idelphi
DelphiIfStatement
p389
(dp390
S'expression'
p391
(idelphi
DelphiRelOp
p392
(dp393
S'simpleExpression1'
p394
(i__main__
DelphiIdentAccess
p395
(dp396
g334
S'key'
p397
sg336
(lp398
sbsS'simpleExpression2'
p399
(i__main__
DelphiIdentAccess
p400
(dp401
g334
S'VK_F2'
p402
sg336
(lp403
sbsS'relOp'
p404
S'='
sbsS'ifFalseStatement'
p405
NsS'ifTrueStatement'
p406
(i__main__
DelphiAssignStatement
p407
(dp408
g330
Nsg331
(i__main__
DelphiIdentAccess
p409
(dp410
g334
S'self'
p411
sg336
(lp412
(idelphi
DelphiFieldEndAccess
p413
(dp414
g340
S'showTechSupportInfoInChangeLog'
p415
sbasbsbsbasbsg352
(lp416
sbsbsS'scrolllogendintoview'
p417
(i__main__
DelphiMethodImplementation
p418
(dp419
g299
g84
sg27
g86
sg35
(lp420
sg308
(lp421
sg310
(lp422
sg312
(lp423
g314
asg315
(dp424
sg51
S'TChangeLogForm'
p425
sg52
Nsg318
(lp426
sg53
I0
sg54
g55
sg320
(i__main__
DelphiBlock
p427
(dp428
g323
(idelphi
DelphiCompoundStatement
p429
(dp430
g326
(lp431
(i__main__
DelphiAssignStatement
p432
(dp433
g330
(i__main__
DelphiIdentAccess
p434
(dp435
g334
S'Length'
p436
sg336
(lp437
(idelphi
DelphiFunctionEndAccess
p438
(dp439
g344
(lp440
(i__main__
DelphiIdentAccess
p441
(dp442
g334
S'LogContentsRichEdit'
p443
sg336
(lp444
(idelphi
DelphiFieldEndAccess
p445
(dp446
g340
S'Text'
p447
sbasbasbasbsg331
(i__main__
DelphiIdentAccess
p448
(dp449
g334
S'LogContentsRichEdit'
p450
sg336
(lp451
(idelphi
DelphiFieldEndAccess
p452
(dp453
g340
S'SelStart'
p454
sbasbsba(i__main__
DelphiAssignStatement
p455
(dp456
g330
(idelphi
DelphiIntegerValue
p457
(dp458
g172
S'0'
sbsg331
(i__main__
DelphiIdentAccess
p459
(dp460
g334
S'LogContentsRichEdit'
p461
sg336
(lp462
(idelphi
DelphiFieldEndAccess
p463
(dp464
g340
S'SelLength'
p465
sbasbsba(i__main__
DelphiAssignStatement
p466
(dp467
g330
Nsg331
(i__main__
DelphiIdentAccess
p468
(dp469
g334
S'LogContentsRichEdit'
p470
sg336
(lp471
(idelphi
DelphiFieldEndAccess
p472
(dp473
g340
S'Perform'
p474
sba(idelphi
DelphiFunctionEndAccess
p475
(dp476
g344
(lp477
(i__main__
DelphiIdentAccess
p478
(dp479
g334
S'EM_SCROLLCARET'
p480
sg336
(lp481
sba(idelphi
DelphiIntegerValue
p482
(dp483
g172
S'0'
sba(idelphi
DelphiIntegerValue
p484
(dp485
g172
S'0'
sbasbasbsbasbsg352
(lp486
sbsbsS'loadchangelog'
p487
(i__main__
DelphiMethodImplementation
p488
(dp489
g299
g89
sg27
g91
sg35
(lp490
sg308
(lp491
sg310
(lp492
sg312
(lp493
g314
asg315
(dp494
sg51
S'TChangeLogForm'
p495
sg52
Nsg318
(lp496
sg53
I0
sg54
g55
sg320
(i__main__
DelphiBlock
p497
(dp498
g323
(idelphi
DelphiCompoundStatement
p499
(dp500
g326
(lp501
(i__main__
DelphiAssignStatement
p502
(dp503
g330
Nsg331
(i__main__
DelphiIdentAccess
p504
(dp505
g334
S'self'
p506
sg336
(lp507
(idelphi
DelphiFieldEndAccess
p508
(dp509
g340
S'ensureLogFileName'
p510
sbasbsba(idelphi
DelphiIfStatement
p511
(dp512
g391
(idelphi
DelphiNot
p513
(dp514
S'factor'
p515
(i__main__
DelphiIdentAccess
p516
(dp517
g334
S'FileExists'
p518
sg336
(lp519
(idelphi
DelphiFunctionEndAccess
p520
(dp521
g344
(lp522
(i__main__
DelphiIdentAccess
p523
(dp524
g334
S'domain'
p525
sg336
(lp526
(idelphi
DelphiFieldEndAccess
p527
(dp528
g340
S'options'
p529
sba(idelphi
DelphiFieldEndAccess
p530
(dp531
g340
S'logFileName'
p532
sbasbasbasbsbsg405
Nsg406
(i__main__
DelphiExitStatement
p533
(dp534
S'proceduralOrMethodImplementation'
p535
g488
sbsba(i__main__
DelphiAssignStatement
p536
(dp537
g330
(idelphi
DelphiStringAccess
p538
(dp539
g336
(lp540
sg172
(idelphi
DelphiStringValue
p541
(dp542
g172
S''
sbsbsg331
(i__main__
DelphiIdentAccess
p543
(dp544
g334
S'LogContentsRichEdit'
p545
sg336
(lp546
(idelphi
DelphiFieldEndAccess
p547
(dp548
g340
S'Text'
p549
sbasbsba(i__main__
DelphiAssignStatement
p550
(dp551
g330
Nsg331
(i__main__
DelphiIdentAccess
p552
(dp553
g334
S'LogContentsRichEdit'
p554
sg336
(lp555
(idelphi
DelphiFieldEndAccess
p556
(dp557
g340
S'lines'
p558
sba(idelphi
DelphiFieldEndAccess
p559
(dp560
g340
S'loadFromFile'
p561
sba(idelphi
DelphiFunctionEndAccess
p562
(dp563
g344
(lp564
(i__main__
DelphiIdentAccess
p565
(dp566
g334
S'domain'
p567
sg336
(lp568
(idelphi
DelphiFieldEndAccess
p569
(dp570
g340
S'options'
p571
sba(idelphi
DelphiFieldEndAccess
p572
(dp573
g340
S'logFileName'
p574
sbasbasbasbsba(i__main__
DelphiAssignStatement
p575
(dp576
g330
(idelphi
DelphiAddOp
p577
(dp578
S'addOp'
p579
S'+'
sS'term2'
p580
(i__main__
DelphiIdentAccess
p581
(dp582
g334
S'ExtractFileName'
p583
sg336
(lp584
(idelphi
DelphiFunctionEndAccess
p585
(dp586
g344
(lp587
(i__main__
DelphiIdentAccess
p588
(dp589
g334
S'domain'
p590
sg336
(lp591
(idelphi
DelphiFieldEndAccess
p592
(dp593
g340
S'options'
p594
sba(idelphi
DelphiFieldEndAccess
p595
(dp596
g340
S'logFileName'
p597
sbasbasbasbsS'term1'
p598
(idelphi
DelphiStringAccess
p599
(dp600
g336
(lp601
sg172
(idelphi
DelphiStringValue
p602
(dp603
g172
S'Log file '
p604
sbsbsbsg331
(i__main__
DelphiIdentAccess
p605
(dp606
g334
S'self'
p607
sg336
(lp608
(idelphi
DelphiFieldEndAccess
p609
(dp610
g340
S'caption'
p611
sbasbsbasbsg352
(lp612
sbsbsS'copyselectedtextbuttonclick'
p613
(i__main__
DelphiMethodImplementation
p614
(dp615
g299
g220
sg27
g222
sg35
(lp616
(i__main__
DelphiFormalParameter
p617
(dp618
g39
Nsg40
(lp619
S'Sender'
p620
asg43
(i__main__
DelphiNamedType
p621
(dp622
g46
S'TObject'
p623
sg48
g1
sg49
Nsbsg50
Nsbasg308
(lp624
sg310
(lp625
sg312
(lp626
g314
ag620
asg315
(dp627
g620
g621
ssg51
S'TChangeLogForm'
p628
sg52
Nsg318
(lp629
sg53
I0
sg54
g55
sg320
(i__main__
DelphiBlock
p630
(dp631
g323
(idelphi
DelphiCompoundStatement
p632
(dp633
g326
(lp634
(i__main__
DelphiAssignStatement
p635
(dp636
g330
Nsg331
(i__main__
DelphiIdentAccess
p637
(dp638
g334
S'LogContentsRichEdit'
p639
sg336
(lp640
(idelphi
DelphiFieldEndAccess
p641
(dp642
g340
S'CopyToClipboard'
p643
sbasbsbasg134
(lp644
S'self.modalResult := 1;   '
p645
asbsg352
(lp646
sbsbsS'clearlogfileclick'
p647
(i__main__
DelphiMethodImplementation
p648
(dp649
g299
g106
sg27
g108
sg35
(lp650
(i__main__
DelphiFormalParameter
p651
(dp652
g39
Nsg40
(lp653
S'Sender'
p654
asg43
(i__main__
DelphiNamedType
p655
(dp656
g46
S'TObject'
p657
sg48
g1
sg49
Nsbsg50
Nsbasg308
(lp658
sg310
(lp659
sg312
(lp660
g314
ag654
asg315
(dp661
g654
g655
ssg51
S'TChangeLogForm'
p662
sg52
Nsg318
(lp663
sg53
I0
sg54
g55
sg320
(i__main__
DelphiBlock
p664
(dp665
g323
(idelphi
DelphiCompoundStatement
p666
(dp667
g326
(lp668
(idelphi
DelphiIfStatement
p669
(dp670
g391
(idelphi
DelphiRelOp
p671
(dp672
g394
(i__main__
DelphiIdentAccess
p673
(dp674
g334
S'MessageDlg'
p675
sg336
(lp676
(idelphi
DelphiFunctionEndAccess
p677
(dp678
g344
(lp679
(idelphi
DelphiAddOp
p680
(dp681
g579
S'+'
sg580
(idelphi
DelphiStringAccess
p682
(dp683
g336
(lp684
sg172
(idelphi
DelphiStringValue
p685
(dp686
g172
S'This is not undoable, but a backup file will be made.'
p687
sbsbsg598
(idelphi
DelphiAddOp
p688
(dp689
g579
S'+'
sg580
(i__main__
DelphiIdentAccess
p690
(dp691
g334
S'chr'
p692
sg336
(lp693
(idelphi
DelphiFunctionEndAccess
p694
(dp695
g344
(lp696
(idelphi
DelphiIntegerValue
p697
(dp698
g172
S'13'
p699
sbasbasbsg598
(idelphi
DelphiStringAccess
p700
(dp701
g336
(lp702
sg172
(idelphi
DelphiStringValue
p703
(dp704
g172
S'Are you sure you want to clear the log file?'
p705
sbsbsbsba(i__main__
DelphiIdentAccess
p706
(dp707
g334
S'mtConfirmation'
p708
sg336
(lp709
sba(idelphi
DelphiSetConstructor
p710
(dp711
S'setElementList'
p712
(lp713
(i__main__
DelphiIdentAccess
p714
(dp715
g334
S'mbYes'
p716
sg336
(lp717
sba(i__main__
DelphiIdentAccess
p718
(dp719
g334
S'mbNo'
p720
sg336
(lp721
sbasba(idelphi
DelphiIntegerValue
p722
(dp723
g172
S'0'
sbasbasbsg399
(i__main__
DelphiIdentAccess
p724
(dp725
g334
S'idNo'
p726
sg336
(lp727
sbsg404
S'='
sbsg405
Nsg406
(i__main__
DelphiExitStatement
p728
(dp729
g535
g648
sbsba(i__main__
DelphiAssignStatement
p730
(dp731
g330
(i__main__
DelphiIdentAccess
p732
(dp733
g334
S'changeFileExt'
p734
sg336
(lp735
(idelphi
DelphiFunctionEndAccess
p736
(dp737
g344
(lp738
(i__main__
DelphiIdentAccess
p739
(dp740
g334
S'domain'
p741
sg336
(lp742
(idelphi
DelphiFieldEndAccess
p743
(dp744
g340
S'options'
p745
sba(idelphi
DelphiFieldEndAccess
p746
(dp747
g340
S'logFileName'
p748
sbasba(idelphi
DelphiStringAccess
p749
(dp750
g336
(lp751
sg172
(idelphi
DelphiStringValue
p752
(dp753
g172
S'.~lo'
p754
sbsbasbasbsg331
(i__main__
DelphiIdentAccess
p755
(dp756
g334
S'backupLogFileName'
p757
sg336
(lp758
sbsba(i__main__
DelphiAssignStatement
p759
(dp760
g330
Nsg331
(i__main__
DelphiIdentAccess
p761
(dp762
g334
S'makeBackupCopy'
p763
sg336
(lp764
(idelphi
DelphiFunctionEndAccess
p765
(dp766
g344
(lp767
(i__main__
DelphiIdentAccess
p768
(dp769
g334
S'domain'
p770
sg336
(lp771
(idelphi
DelphiFieldEndAccess
p772
(dp773
g340
S'options'
p774
sba(idelphi
DelphiFieldEndAccess
p775
(dp776
g340
S'logFileName'
p777
sbasba(i__main__
DelphiIdentAccess
p778
(dp779
g334
S'backupLogFileName'
p780
sg336
(lp781
sbasbasbsba(i__main__
DelphiAssignStatement
p782
(dp783
g330
Nsg331
(i__main__
DelphiIdentAccess
p784
(dp785
g334
S'self'
p786
sg336
(lp787
(idelphi
DelphiFieldEndAccess
p788
(dp789
g340
S'clearLog'
p790
sbasbsbasbsg352
(lp791
(i__main__
DelphiVarSection
p792
(dp793
S'atTopLevel'
p794
I0
sS'varDeclList'
p795
(lp796
(idelphi
DelphiVarDecl
p797
(dp798
S'constExpression'
p799
NsS'identList'
p800
(lp801
S'backupLogFileName'
p802
asg43
(i__main__
DelphiPrimitiveType
p803
(dp804
g46
g172
sbsbasbasbsbsS'clearlog'
p805
(i__main__
DelphiMethodImplementation
p806
(dp807
g299
g118
sg27
g120
sg35
(lp808
sg308
(lp809
sg310
(lp810
sg312
(lp811
g314
asg315
(dp812
sg51
S'TChangeLogForm'
p813
sg52
Nsg318
(lp814
sg53
I0
sg54
g55
sg320
(i__main__
DelphiBlock
p815
(dp816
g323
(idelphi
DelphiCompoundStatement
p817
(dp818
g326
(lp819
(i__main__
DelphiAssignStatement
p820
(dp821
g330
Nsg331
(i__main__
DelphiIdentAccess
p822
(dp823
g334
S'self'
p824
sg336
(lp825
(idelphi
DelphiFieldEndAccess
p826
(dp827
g340
S'ensureLogFileName'
p828
sbasbsba(i__main__
DelphiAssignStatement
p829
(dp830
g330
Nsg331
(i__main__
DelphiIdentAccess
p831
(dp832
g334
S'AssignFile'
p833
sg336
(lp834
(idelphi
DelphiFunctionEndAccess
p835
(dp836
g344
(lp837
(i__main__
DelphiIdentAccess
p838
(dp839
g334
S'LogFile'
p840
sg336
(lp841
sba(i__main__
DelphiIdentAccess
p842
(dp843
g334
S'domain'
p844
sg336
(lp845
(idelphi
DelphiFieldEndAccess
p846
(dp847
g340
S'options'
p848
sba(idelphi
DelphiFieldEndAccess
p849
(dp850
g340
S'logFileName'
p851
sbasbasbasbsba(idelphi
DelphiTryFinallyStatement
p852
(dp853
S'tryStatements'
p854
(lp855
(idelphi
DelphiTryExceptStatement
p856
(dp857
g854
(lp858
(i__main__
DelphiAssignStatement
p859
(dp860
g330
Nsg331
(i__main__
DelphiIdentAccess
p861
(dp862
g334
S'Rewrite'
p863
sg336
(lp864
(idelphi
DelphiFunctionEndAccess
p865
(dp866
g344
(lp867
(i__main__
DelphiIdentAccess
p868
(dp869
g334
S'LogFile'
p870
sg336
(lp871
sbasbasbsbasS'exceptionHandlers'
p872
(idelphi
DelphiExceptionHandlers
p873
(dp874
S'exceptionHandlerList'
p875
NsS'statementList'
p876
(lp877
(i__main__
DelphiAssignStatement
p878
(dp879
g330
Nsg331
(i__main__
DelphiIdentAccess
p880
(dp881
g334
S'self'
p882
sg336
(lp883
(idelphi
DelphiFieldEndAccess
p884
(dp885
g340
S'fileErrorWarning'
p886
sbasbsba(i__main__
DelphiExitStatement
p887
(dp888
g535
g806
sbasbsbasS'finallyStatements'
p889
(lp890
(idelphi
DelphiTryExceptStatement
p891
(dp892
g854
(lp893
(i__main__
DelphiAssignStatement
p894
(dp895
g330
Nsg331
(i__main__
DelphiIdentAccess
p896
(dp897
g334
S'CloseFile'
p898
sg336
(lp899
(idelphi
DelphiFunctionEndAccess
p900
(dp901
g344
(lp902
(i__main__
DelphiIdentAccess
p903
(dp904
g334
S'LogFile'
p905
sg336
(lp906
sbasbasbsbasg872
(idelphi
DelphiExceptionHandlers
p907
(dp908
g875
Nsg876
(lp909
(idelphi
DelphiIfStatement
p910
(dp911
g391
(idelphi
DelphiNot
p912
(dp913
g515
(i__main__
DelphiIdentAccess
p914
(dp915
g334
S'issuedWarning'
p916
sg336
(lp917
sbsbsg405
Nsg406
(i__main__
DelphiAssignStatement
p918
(dp919
g330
Nsg331
(i__main__
DelphiIdentAccess
p920
(dp921
g334
S'ShowMessage'
p922
sg336
(lp923
(idelphi
DelphiFunctionEndAccess
p924
(dp925
g344
(lp926
(idelphi
DelphiAddOp
p927
(dp928
g579
S'+'
sg580
(i__main__
DelphiIdentAccess
p929
(dp930
g334
S'domain'
p931
sg336
(lp932
(idelphi
DelphiFieldEndAccess
p933
(dp934
g340
S'options'
p935
sba(idelphi
DelphiFieldEndAccess
p936
(dp937
g340
S'logFileName'
p938
sbasbsg598
(idelphi
DelphiStringAccess
p939
(dp940
g336
(lp941
sg172
(idelphi
DelphiStringValue
p942
(dp943
g172
S'Problem closing log file '
p944
sbsbsbasbasbsbsbasbsbasba(i__main__
DelphiAssignStatement
p945
(dp946
g330
Nsg331
(i__main__
DelphiIdentAccess
p947
(dp948
g334
S'self'
p949
sg336
(lp950
(idelphi
DelphiFieldEndAccess
p951
(dp952
g340
S'loadChangeLog'
p953
sbasbsbasbsg352
(lp954
(i__main__
DelphiVarSection
p955
(dp956
g794
I0
sg795
(lp957
(idelphi
DelphiVarDecl
p958
(dp959
g799
Nsg800
(lp960
S'LogFile'
p961
asg43
(i__main__
DelphiNamedType
p962
(dp963
g46
S'TextFile'
p964
sg48
g1
sg49
NsbsbasbasbsbsS'updatebuttonclick'
p965
(i__main__
DelphiMethodImplementation
p966
(dp967
g299
g186
sg27
g188
sg35
(lp968
(i__main__
DelphiFormalParameter
p969
(dp970
g39
Nsg40
(lp971
S'Sender'
p972
asg43
(i__main__
DelphiNamedType
p973
(dp974
g46
S'TObject'
p975
sg48
g1
sg49
Nsbsg50
Nsbasg308
(lp976
sg310
(lp977
sg312
(lp978
g314
ag972
asg315
(dp979
g972
g973
ssg51
S'TChangeLogForm'
p980
sg52
Nsg318
(lp981
sg53
I0
sg54
g55
sg320
(i__main__
DelphiBlock
p982
(dp983
g323
(idelphi
DelphiCompoundStatement
p984
(dp985
g326
(lp986
(i__main__
DelphiAssignStatement
p987
(dp988
g330
Nsg331
(i__main__
DelphiIdentAccess
p989
(dp990
g334
S'self'
p991
sg336
(lp992
(idelphi
DelphiFieldEndAccess
p993
(dp994
g340
S'loadChangeLog'
p995
sbasbsba(i__main__
DelphiAssignStatement
p996
(dp997
g330
Nsg331
(i__main__
DelphiIdentAccess
p998
(dp999
g334
S'self'
p1000
sg336
(lp1001
(idelphi
DelphiFieldEndAccess
p1002
(dp1003
g340
S'scrollLogEndIntoView'
p1004
sbasbsbasbsg352
(lp1005
sbsbsS'wmgetminmaxinfo'
p1006
(i__main__
DelphiMethodImplementation
p1007
(dp1008
g299
g123
sg27
g125
sg35
(lp1009
(i__main__
DelphiFormalParameter
p1010
(dp1011
g39
Nsg40
(lp1012
S'MSG'
p1013
asg43
(i__main__
DelphiNamedType
p1014
(dp1015
g46
S'Tmessage'
p1016
sg48
g1
sg49
Nsbsg50
g75
sbasg308
(lp1017
sg310
(lp1018
g1013
asg312
(lp1019
g314
ag1013
asg315
(dp1020
g1013
g1014
ssg51
S'TChangeLogForm'
p1021
sg52
Nsg318
(lp1022
sg53
I0
sg54
g55
sg320
(i__main__
DelphiBlock
p1023
(dp1024
g323
(idelphi
DelphiCompoundStatement
p1025
(dp1026
g326
(lp1027
(i__main__
DelphiAssignStatement
p1028
(dp1029
g330
Nsg331
(idelphi
DelphiInheritedCall
p1030
(dp1031
g334
Nsg344
Nsbsba(idelphi
DelphiWithStatement
p1032
(dp1033
S'statement'
p1034
(idelphi
DelphiCompoundStatement
p1035
(dp1036
g326
(lp1037
(i__main__
DelphiAssignStatement
p1038
(dp1039
g330
(idelphi
DelphiIntegerValue
p1040
(dp1041
g172
S'316'
p1042
sbsg331
(i__main__
DelphiIdentAccess
p1043
(dp1044
g334
S'ptMinTrackSize'
p1045
sg336
(lp1046
(idelphi
DelphiFieldEndAccess
p1047
(dp1048
g340
S'x'
sbasbsba(i__main__
DelphiAssignStatement
p1049
(dp1050
g330
(idelphi
DelphiIntegerValue
p1051
(dp1052
g172
S'100'
p1053
sbsg331
(i__main__
DelphiIdentAccess
p1054
(dp1055
g334
S'ptMinTrackSize'
p1056
sg336
(lp1057
(idelphi
DelphiFieldEndAccess
p1058
(dp1059
g340
S'y'
sbasbsbasbsS'variableReferenceList'
p1060
(lp1061
(i__main__
DelphiIdentAccess
p1062
(dp1063
g334
S'PMinMaxInfo'
p1064
sg336
(lp1065
(idelphi
DelphiFunctionEndAccess
p1066
(dp1067
g344
(lp1068
(i__main__
DelphiIdentAccess
p1069
(dp1070
g334
S'MSG'
p1071
sg336
(lp1072
(idelphi
DelphiFieldEndAccess
p1073
(dp1074
g340
S'lparam'
p1075
sbasbasba(idelphi
DelphiPointerEndAccess
p1076
(dp1077
basbasbasbsg352
(lp1078
sbsg134
g135
sbsS'changelogfileclick'
p1079
(i__main__
DelphiMethodImplementation
p1080
(dp1081
g299
g138
sg27
g140
sg35
(lp1082
(i__main__
DelphiFormalParameter
p1083
(dp1084
g39
Nsg40
(lp1085
S'Sender'
p1086
asg43
(i__main__
DelphiNamedType
p1087
(dp1088
g46
S'TObject'
p1089
sg48
g1
sg49
Nsbsg50
Nsbasg308
(lp1090
sg310
(lp1091
sg312
(lp1092
g314
ag1086
asg315
(dp1093
g1086
g1087
ssg51
S'TChangeLogForm'
p1094
sg52
Nsg318
(lp1095
sg53
I0
sg54
g55
sg320
(i__main__
DelphiBlock
p1096
(dp1097
g323
(idelphi
DelphiCompoundStatement
p1098
(dp1099
g326
(lp1100
(idelphi
DelphiWithStatement
p1101
(dp1102
g1034
(idelphi
DelphiCompoundStatement
p1103
(dp1104
g326
(lp1105
(i__main__
DelphiAssignStatement
p1106
(dp1107
g330
(idelphi
DelphiStringAccess
p1108
(dp1109
g336
(lp1110
sg172
(idelphi
DelphiStringValue
p1111
(dp1112
g172
S'Choose or type in a new log file name'
p1113
sbsbsg331
(i__main__
DelphiIdentAccess
p1114
(dp1115
g334
S'title'
p1116
sg336
(lp1117
sbsba(i__main__
DelphiAssignStatement
p1118
(dp1119
g330
(i__main__
DelphiIdentAccess
p1120
(dp1121
g334
S'domain'
p1122
sg336
(lp1123
(idelphi
DelphiFieldEndAccess
p1124
(dp1125
g340
S'options'
p1126
sba(idelphi
DelphiFieldEndAccess
p1127
(dp1128
g340
S'logFileName'
p1129
sbasbsg331
(i__main__
DelphiIdentAccess
p1130
(dp1131
g334
S'fileName'
p1132
sg336
(lp1133
sbsba(i__main__
DelphiAssignStatement
p1134
(dp1135
g330
(idelphi
DelphiStringAccess
p1136
(dp1137
g336
(lp1138
sg172
(idelphi
DelphiStringValue
p1139
(dp1140
g172
S'Log files (*.log)|*.log|All files (*.*)|*.*'
p1141
sbsbsg331
(i__main__
DelphiIdentAccess
p1142
(dp1143
g334
S'filter'
p1144
sg336
(lp1145
sbsba(i__main__
DelphiAssignStatement
p1146
(dp1147
g330
(idelphi
DelphiStringAccess
p1148
(dp1149
g336
(lp1150
sg172
(idelphi
DelphiStringValue
p1151
(dp1152
g172
S'log'
p1153
sbsbsg331
(i__main__
DelphiIdentAccess
p1154
(dp1155
g334
S'defaultExt'
p1156
sg336
(lp1157
sbsbasbsg1060
(lp1158
(i__main__
DelphiIdentAccess
p1159
(dp1160
g334
S'openDialog'
p1161
sg336
(lp1162
sbasba(idelphi
DelphiIfStatement
p1163
(dp1164
g391
(i__main__
DelphiIdentAccess
p1165
(dp1166
g334
S'openDialog'
p1167
sg336
(lp1168
(idelphi
DelphiFieldEndAccess
p1169
(dp1170
g340
S'execute'
p1171
sbasbsg405
Nsg406
(idelphi
DelphiCompoundStatement
p1172
(dp1173
g326
(lp1174
(i__main__
DelphiAssignStatement
p1175
(dp1176
g330
(i__main__
DelphiIdentAccess
p1177
(dp1178
g334
S'changeFileExt'
p1179
sg336
(lp1180
(idelphi
DelphiFunctionEndAccess
p1181
(dp1182
g344
(lp1183
(i__main__
DelphiIdentAccess
p1184
(dp1185
g334
S'domain'
p1186
sg336
(lp1187
(idelphi
DelphiFieldEndAccess
p1188
(dp1189
g340
S'options'
p1190
sba(idelphi
DelphiFieldEndAccess
p1191
(dp1192
g340
S'logFileName'
p1193
sbasba(idelphi
DelphiStringAccess
p1194
(dp1195
g336
(lp1196
sg172
(idelphi
DelphiStringValue
p1197
(dp1198
g172
S'.~lo'
p1199
sbsbasbasbsg331
(i__main__
DelphiIdentAccess
p1200
(dp1201
g334
S'backupLogFileName'
p1202
sg336
(lp1203
sbsba(i__main__
DelphiAssignStatement
p1204
(dp1205
g330
Nsg331
(i__main__
DelphiIdentAccess
p1206
(dp1207
g334
S'makeBackupCopy'
p1208
sg336
(lp1209
(idelphi
DelphiFunctionEndAccess
p1210
(dp1211
g344
(lp1212
(i__main__
DelphiIdentAccess
p1213
(dp1214
g334
S'domain'
p1215
sg336
(lp1216
(idelphi
DelphiFieldEndAccess
p1217
(dp1218
g340
S'options'
p1219
sba(idelphi
DelphiFieldEndAccess
p1220
(dp1221
g340
S'logFileName'
p1222
sbasba(i__main__
DelphiIdentAccess
p1223
(dp1224
g334
S'backupLogFileName'
p1225
sg336
(lp1226
sbasbasbsba(i__main__
DelphiAssignStatement
p1227
(dp1228
g330
(i__main__
DelphiIdentAccess
p1229
(dp1230
g334
S'openDialog'
p1231
sg336
(lp1232
(idelphi
DelphiFieldEndAccess
p1233
(dp1234
g340
S'fileName'
p1235
sbasbsg331
(i__main__
DelphiIdentAccess
p1236
(dp1237
g334
S'domain'
p1238
sg336
(lp1239
(idelphi
DelphiFieldEndAccess
p1240
(dp1241
g340
S'options'
p1242
sba(idelphi
DelphiFieldEndAccess
p1243
(dp1244
g340
S'logFileName'
p1245
sbasbsba(idelphi
DelphiIfStatement
p1246
(dp1247
g391
(idelphi
DelphiNot
p1248
(dp1249
g515
(i__main__
DelphiIdentAccess
p1250
(dp1251
g334
S'fileExists'
p1252
sg336
(lp1253
(idelphi
DelphiFunctionEndAccess
p1254
(dp1255
g344
(lp1256
(i__main__
DelphiIdentAccess
p1257
(dp1258
g334
S'domain'
p1259
sg336
(lp1260
(idelphi
DelphiFieldEndAccess
p1261
(dp1262
g340
S'options'
p1263
sba(idelphi
DelphiFieldEndAccess
p1264
(dp1265
g340
S'logFileName'
p1266
sbasbasbasbsbsg405
Nsg406
(i__main__
DelphiAssignStatement
p1267
(dp1268
g330
Nsg331
(i__main__
DelphiIdentAccess
p1269
(dp1270
g334
S'self'
p1271
sg336
(lp1272
(idelphi
DelphiFieldEndAccess
p1273
(dp1274
g340
S'clearLog'
p1275
sbasbsbsba(i__main__
DelphiAssignStatement
p1276
(dp1277
g330
Nsg331
(i__main__
DelphiIdentAccess
p1278
(dp1279
g334
S'self'
p1280
sg336
(lp1281
(idelphi
DelphiFieldEndAccess
p1282
(dp1283
g340
S'loadChangeLog'
p1284
sbasbsba(i__main__
DelphiAssignStatement
p1285
(dp1286
g330
Nsg331
(i__main__
DelphiIdentAccess
p1287
(dp1288
g334
S'self'
p1289
sg336
(lp1290
(idelphi
DelphiFieldEndAccess
p1291
(dp1292
g340
S'scrollLogEndIntoView'
p1293
sbasbsbasbsbasbsg352
(lp1294
(i__main__
DelphiVarSection
p1295
(dp1296
g794
I0
sg795
(lp1297
(idelphi
DelphiVarDecl
p1298
(dp1299
g799
Nsg800
(lp1300
S'backupLogFileName'
p1301
asg43
(i__main__
DelphiPrimitiveType
p1302
(dp1303
g46
g172
sbsbasbasbsbsS'bottompanelresize'
p1304
(i__main__
DelphiMethodImplementation
p1305
(dp1306
g299
g150
sg27
g152
sg35
(lp1307
(i__main__
DelphiFormalParameter
p1308
(dp1309
g39
Nsg40
(lp1310
S'Sender'
p1311
asg43
(i__main__
DelphiNamedType
p1312
(dp1313
g46
S'TObject'
p1314
sg48
g1
sg49
Nsbsg50
Nsbasg308
(lp1315
sg310
(lp1316
sg312
(lp1317
g314
ag1311
asg315
(dp1318
g1311
g1312
ssg51
S'TChangeLogForm'
p1319
sg52
Nsg318
(lp1320
sg53
I0
sg54
g55
sg320
(i__main__
DelphiBlock
p1321
(dp1322
g323
(idelphi
DelphiCompoundStatement
p1323
(dp1324
g326
(lp1325
(i__main__
DelphiAssignStatement
p1326
(dp1327
g330
(idelphi
DelphiIntegerValue
p1328
(dp1329
g172
S'4'
sbsg331
(i__main__
DelphiIdentAccess
p1330
(dp1331
g334
S'copySelectedTextButton'
p1332
sg336
(lp1333
(idelphi
DelphiFieldEndAccess
p1334
(dp1335
g340
S'left'
p1336
sbasbsba(i__main__
DelphiAssignStatement
p1337
(dp1338
g330
(idelphi
DelphiAddOp
p1339
(dp1340
g579
S'-'
sg580
(idelphi
DelphiIntegerValue
p1341
(dp1342
g172
S'4'
sbsg598
(idelphi
DelphiAddOp
p1343
(dp1344
g579
S'-'
sg580
(i__main__
DelphiIdentAccess
p1345
(dp1346
g334
S'helpButton'
p1347
sg336
(lp1348
(idelphi
DelphiFieldEndAccess
p1349
(dp1350
g340
S'width'
p1351
sbasbsg598
(i__main__
DelphiIdentAccess
p1352
(dp1353
g334
S'bottomPanel'
p1354
sg336
(lp1355
(idelphi
DelphiFieldEndAccess
p1356
(dp1357
g340
S'clientWidth'
p1358
sbasbsbsbsg331
(i__main__
DelphiIdentAccess
p1359
(dp1360
g334
S'helpButton'
p1361
sg336
(lp1362
(idelphi
DelphiFieldEndAccess
p1363
(dp1364
g340
S'left'
p1365
sbasbsba(i__main__
DelphiAssignStatement
p1366
(dp1367
g330
(idelphi
DelphiAddOp
p1368
(dp1369
g579
S'-'
sg580
(idelphi
DelphiIntegerValue
p1370
(dp1371
g172
S'4'
sbsg598
(idelphi
DelphiAddOp
p1372
(dp1373
g579
S'-'
sg580
(i__main__
DelphiIdentAccess
p1374
(dp1375
g334
S'changeLogFile'
p1376
sg336
(lp1377
(idelphi
DelphiFieldEndAccess
p1378
(dp1379
g340
S'width'
p1380
sbasbsg598
(i__main__
DelphiIdentAccess
p1381
(dp1382
g334
S'helpButton'
p1383
sg336
(lp1384
(idelphi
DelphiFieldEndAccess
p1385
(dp1386
g340
S'left'
p1387
sbasbsbsbsg331
(i__main__
DelphiIdentAccess
p1388
(dp1389
g334
S'changeLogFile'
p1390
sg336
(lp1391
(idelphi
DelphiFieldEndAccess
p1392
(dp1393
g340
S'left'
p1394
sbasbsba(i__main__
DelphiAssignStatement
p1395
(dp1396
g330
(idelphi
DelphiAddOp
p1397
(dp1398
g579
S'-'
sg580
(idelphi
DelphiIntegerValue
p1399
(dp1400
g172
S'4'
sbsg598
(idelphi
DelphiAddOp
p1401
(dp1402
g579
S'-'
sg580
(i__main__
DelphiIdentAccess
p1403
(dp1404
g334
S'clearLogFile'
p1405
sg336
(lp1406
(idelphi
DelphiFieldEndAccess
p1407
(dp1408
g340
S'width'
p1409
sbasbsg598
(i__main__
DelphiIdentAccess
p1410
(dp1411
g334
S'changeLogFile'
p1412
sg336
(lp1413
(idelphi
DelphiFieldEndAccess
p1414
(dp1415
g340
S'left'
p1416
sbasbsbsbsg331
(i__main__
DelphiIdentAccess
p1417
(dp1418
g334
S'clearLogFile'
p1419
sg336
(lp1420
(idelphi
DelphiFieldEndAccess
p1421
(dp1422
g340
S'left'
p1423
sbasbsba(i__main__
DelphiAssignStatement
p1424
(dp1425
g330
(idelphi
DelphiAddOp
p1426
(dp1427
g579
S'-'
sg580
(idelphi
DelphiIntegerValue
p1428
(dp1429
g172
S'4'
sbsg598
(idelphi
DelphiAddOp
p1430
(dp1431
g579
S'-'
sg580
(i__main__
DelphiIdentAccess
p1432
(dp1433
g334
S'updateButton'
p1434
sg336
(lp1435
(idelphi
DelphiFieldEndAccess
p1436
(dp1437
g340
S'width'
p1438
sbasbsg598
(i__main__
DelphiIdentAccess
p1439
(dp1440
g334
S'clearLogFile'
p1441
sg336
(lp1442
(idelphi
DelphiFieldEndAccess
p1443
(dp1444
g340
S'left'
p1445
sbasbsbsbsg331
(i__main__
DelphiIdentAccess
p1446
(dp1447
g334
S'updateButton'
p1448
sg336
(lp1449
(idelphi
DelphiFieldEndAccess
p1450
(dp1451
g340
S'left'
p1452
sbasbsbasbsg352
(lp1453
sbsbsS'okbuttonclick'
p1454
(i__main__
DelphiMethodImplementation
p1455
(dp1456
g299
g174
sg27
g176
sg35
(lp1457
(i__main__
DelphiFormalParameter
p1458
(dp1459
g39
Nsg40
(lp1460
S'Sender'
p1461
asg43
(i__main__
DelphiNamedType
p1462
(dp1463
g46
S'TObject'
p1464
sg48
g1
sg49
Nsbsg50
Nsbasg308
(lp1465
sg310
(lp1466
sg312
(lp1467
g314
ag1461
asg315
(dp1468
g1461
g1462
ssg51
S'TChangeLogForm'
p1469
sg52
Nsg318
(lp1470
sg53
I0
sg54
g55
sg320
(i__main__
DelphiBlock
p1471
(dp1472
g323
(idelphi
DelphiCompoundStatement
p1473
(dp1474
g326
(lp1475
(i__main__
DelphiAssignStatement
p1476
(dp1477
g330
Nsg331
(i__main__
DelphiIdentAccess
p1478
(dp1479
g334
S'self'
p1480
sg336
(lp1481
(idelphi
DelphiFieldEndAccess
p1482
(dp1483
g340
S'close'
p1484
sbasbsg134
(lp1485
S'self.modalResult := 1;'
p1486
asbasbsg352
(lp1487
sbsbsS'fileerrorwarning'
p1488
(i__main__
DelphiMethodImplementation
p1489
(dp1490
g299
g203
sg27
g205
sg35
(lp1491
sg308
(lp1492
sg310
(lp1493
sg312
(lp1494
g314
asg315
(dp1495
sg51
S'TChangeLogForm'
p1496
sg52
Nsg318
(lp1497
sg53
I0
sg54
g55
sg320
(i__main__
DelphiBlock
p1498
(dp1499
g323
(idelphi
DelphiCompoundStatement
p1500
(dp1501
g326
(lp1502
(idelphi
DelphiIfStatement
p1503
(dp1504
g391
(i__main__
DelphiIdentAccess
p1505
(dp1506
g334
S'issuedWarning'
p1507
sg336
(lp1508
sbsg405
Nsg406
(i__main__
DelphiExitStatement
p1509
(dp1510
g535
g1489
sbsba(i__main__
DelphiAssignStatement
p1511
(dp1512
g330
Nsg331
(i__main__
DelphiIdentAccess
p1513
(dp1514
g334
S'ShowMessage'
p1515
sg336
(lp1516
(idelphi
DelphiFunctionEndAccess
p1517
(dp1518
g344
(lp1519
(idelphi
DelphiAddOp
p1520
(dp1521
g579
S'+'
sg580
(idelphi
DelphiStringAccess
p1522
(dp1523
g336
(lp1524
sg172
(idelphi
DelphiStringValue
p1525
(dp1526
g172
S'Your changes will not be logged.'
p1527
sbsbsg598
(idelphi
DelphiAddOp
p1528
(dp1529
g579
S'+'
sg580
(i__main__
DelphiValueTypecastAccess
p1530
(dp1531
S'valueTypecast'
p1532
(i__main__
DelphiValueTypecast
p1533
(dp1534
g391
(idelphi
DelphiIntegerValue
p1535
(dp1536
g172
S'10'
p1537
sbsS'typeIdentPredefined'
p1538
(i__main__
DelphiPrimitiveType
p1539
(dp1540
g46
S'char'
p1541
sbsbsg336
(lp1542
sbsg598
(idelphi
DelphiAddOp
p1543
(dp1544
g579
S'+'
sg580
(i__main__
DelphiValueTypecastAccess
p1545
(dp1546
g1532
(i__main__
DelphiValueTypecast
p1547
(dp1548
g391
(idelphi
DelphiIntegerValue
p1549
(dp1550
g172
S'13'
p1551
sbsg1538
(i__main__
DelphiPrimitiveType
p1552
(dp1553
g46
g1541
sbsbsg336
(lp1554
sbsg598
(idelphi
DelphiAddOp
p1555
(dp1556
g579
S'+'
sg580
(idelphi
DelphiStringAccess
p1557
(dp1558
g336
(lp1559
sg172
(idelphi
DelphiStringValue
p1560
(dp1561
g172
S'The file may be write protected or in use by another program, or your disk may be full.'
p1562
sbsbsg598
(idelphi
DelphiAddOp
p1563
(dp1564
g579
S'+'
sg580
(i__main__
DelphiValueTypecastAccess
p1565
(dp1566
g1532
(i__main__
DelphiValueTypecast
p1567
(dp1568
g391
(idelphi
DelphiIntegerValue
p1569
(dp1570
g172
S'10'
p1571
sbsg1538
(i__main__
DelphiPrimitiveType
p1572
(dp1573
g46
g1541
sbsbsg336
(lp1574
sbsg598
(idelphi
DelphiAddOp
p1575
(dp1576
g579
S'+'
sg580
(i__main__
DelphiValueTypecastAccess
p1577
(dp1578
g1532
(i__main__
DelphiValueTypecast
p1579
(dp1580
g391
(idelphi
DelphiIntegerValue
p1581
(dp1582
g172
S'13'
p1583
sbsg1538
(i__main__
DelphiPrimitiveType
p1584
(dp1585
g46
g1541
sbsbsg336
(lp1586
sbsg598
(idelphi
DelphiAddOp
p1587
(dp1588
g579
S'+'
sg580
(i__main__
DelphiIdentAccess
p1589
(dp1590
g334
S'domain'
p1591
sg336
(lp1592
(idelphi
DelphiFieldEndAccess
p1593
(dp1594
g340
S'options'
p1595
sba(idelphi
DelphiFieldEndAccess
p1596
(dp1597
g340
S'logFileName'
p1598
sbasbsg598
(idelphi
DelphiStringAccess
p1599
(dp1600
g336
(lp1601
sg172
(idelphi
DelphiStringValue
p1602
(dp1603
g172
S'Could not write to the log file '
p1604
sbsbsbsbsbsbsbsbsbasbasbsba(i__main__
DelphiAssignStatement
p1605
(dp1606
g330
(i__main__
DelphiIdentAccess
p1607
(dp1608
g334
S'true'
p1609
sg336
(lp1610
sbsg331
(i__main__
DelphiIdentAccess
p1611
(dp1612
g334
S'issuedWarning'
p1613
sg336
(lp1614
sbsbasbsg352
(lp1615
sbsg134
g207
sbsS'getosinfo'
p1616
(i__main__
DelphiMethodImplementation
p1617
(dp1618
g299
g198
sg27
g200
sg35
(lp1619
sg308
(lp1620
sg310
(lp1621
sg312
(lp1622
g314
asg315
(dp1623
sg51
S'TChangeLogForm'
p1624
sg52
Nsg318
(lp1625
sg53
I0
sg54
g55
sg320
(i__main__
DelphiBlock
p1626
(dp1627
g323
(idelphi
DelphiCompoundStatement
p1628
(dp1629
g326
(lp1630
(idelphi
DelphiCaseStatement
p1631
(dp1632
S'elseStatement'
p1633
(idelphi
DelphiCompoundStatement
p1634
(dp1635
g326
(lp1636
(i__main__
DelphiAssignStatement
p1637
(dp1638
g330
(idelphi
DelphiStringAccess
p1639
(dp1640
g336
(lp1641
sg172
(idelphi
DelphiStringValue
p1642
(dp1643
g172
S'Windows'
p1644
sbsbsg331
(i__main__
DelphiIdentAccess
p1645
(dp1646
g334
S'Platform'
p1647
sg336
(lp1648
sbsba(i__main__
DelphiAssignStatement
p1649
(dp1650
g330
(idelphi
DelphiIntegerValue
p1651
(dp1652
g172
S'0'
sbsg331
(i__main__
DelphiIdentAccess
p1653
(dp1654
g334
S'BuildNumber'
p1655
sg336
(lp1656
sbsbasbsg391
(i__main__
DelphiIdentAccess
p1657
(dp1658
g334
S'Win32Platform'
p1659
sg336
(lp1660
sbsS'caseSelectorList'
p1661
(lp1662
(idelphi
DelphiCaseSelector
p1663
(dp1664
g1034
(idelphi
DelphiCompoundStatement
p1665
(dp1666
g326
(lp1667
(i__main__
DelphiAssignStatement
p1668
(dp1669
g330
(idelphi
DelphiStringAccess
p1670
(dp1671
g336
(lp1672
sg172
(idelphi
DelphiStringValue
p1673
(dp1674
g172
S'Windows 95'
p1675
sbsbsg331
(i__main__
DelphiIdentAccess
p1676
(dp1677
g334
S'Platform'
p1678
sg336
(lp1679
sbsba(i__main__
DelphiAssignStatement
p1680
(dp1681
g330
(idelphi
DelphiMulOp
p1682
(dp1683
S'signedFactor2'
p1684
(idelphi
DelphiHexValue
p1685
(dp1686
g172
S'$0000FFFF'
p1687
sbsS'mulOp'
p1688
S'and'
p1689
sS'signedFactor1'
p1690
(i__main__
DelphiIdentAccess
p1691
(dp1692
g334
S'Win32BuildNumber'
p1693
sg336
(lp1694
sbsbsg331
(i__main__
DelphiIdentAccess
p1695
(dp1696
g334
S'BuildNumber'
p1697
sg336
(lp1698
sbsbasbsS'caseLabelList'
p1699
(lp1700
(i__main__
DelphiIdentAccess
p1701
(dp1702
g334
S'VER_PLATFORM_WIN32_WINDOWS'
p1703
sg336
(lp1704
sbasba(idelphi
DelphiCaseSelector
p1705
(dp1706
g1034
(idelphi
DelphiCompoundStatement
p1707
(dp1708
g326
(lp1709
(i__main__
DelphiAssignStatement
p1710
(dp1711
g330
(idelphi
DelphiStringAccess
p1712
(dp1713
g336
(lp1714
sg172
(idelphi
DelphiStringValue
p1715
(dp1716
g172
S'Windows NT'
p1717
sbsbsg331
(i__main__
DelphiIdentAccess
p1718
(dp1719
g334
S'Platform'
p1720
sg336
(lp1721
sbsba(i__main__
DelphiAssignStatement
p1722
(dp1723
g330
(i__main__
DelphiIdentAccess
p1724
(dp1725
g334
S'Win32BuildNumber'
p1726
sg336
(lp1727
sbsg331
(i__main__
DelphiIdentAccess
p1728
(dp1729
g334
S'BuildNumber'
p1730
sg336
(lp1731
sbsbasbsg1699
(lp1732
(i__main__
DelphiIdentAccess
p1733
(dp1734
g334
S'VER_PLATFORM_WIN32_NT'
p1735
sg336
(lp1736
sbasbasba(idelphi
DelphiIfStatement
p1737
(dp1738
g391
(idelphi
DelphiAddOp
p1739
(dp1740
g579
S'or'
p1741
sg580
(idelphi
DelphiNestedExpressionListAccess
p1742
(dp1743
g336
(lp1744
sg344
(lp1745
(idelphi
DelphiRelOp
p1746
(dp1747
g394
(i__main__
DelphiIdentAccess
p1748
(dp1749
g334
S'Win32Platform'
p1750
sg336
(lp1751
sbsg399
(i__main__
DelphiIdentAccess
p1752
(dp1753
g334
S'VER_PLATFORM_WIN32_NT'
p1754
sg336
(lp1755
sbsg404
S'='
sbasbsg598
(idelphi
DelphiNestedExpressionListAccess
p1756
(dp1757
g336
(lp1758
sg344
(lp1759
(idelphi
DelphiRelOp
p1760
(dp1761
g394
(i__main__
DelphiIdentAccess
p1762
(dp1763
g334
S'Win32Platform'
p1764
sg336
(lp1765
sbsg399
(i__main__
DelphiIdentAccess
p1766
(dp1767
g334
S'VER_PLATFORM_WIN32_WINDOWS'
p1768
sg336
(lp1769
sbsg404
S'='
sbasbsbsg405
(i__main__
DelphiAssignStatement
p1770
(dp1771
g330
Nsg331
(i__main__
DelphiIdentAccess
p1772
(dp1773
g334
S'LogContentsRichEdit'
p1774
sg336
(lp1775
(idelphi
DelphiFieldEndAccess
p1776
(dp1777
g340
S'lines'
p1778
sba(idelphi
DelphiFieldEndAccess
p1779
(dp1780
g340
S'add'
p1781
sba(idelphi
DelphiFunctionEndAccess
p1782
(dp1783
g344
(lp1784
(i__main__
DelphiIdentAccess
p1785
(dp1786
g334
S'Format'
p1787
sg336
(lp1788
(idelphi
DelphiFunctionEndAccess
p1789
(dp1790
g344
(lp1791
(idelphi
DelphiStringAccess
p1792
(dp1793
g336
(lp1794
sg172
(idelphi
DelphiStringValue
p1795
(dp1796
g172
S'%s %d.%d'
p1797
sbsba(idelphi
DelphiSetConstructor
p1798
(dp1799
g712
(lp1800
(i__main__
DelphiIdentAccess
p1801
(dp1802
g334
S'Platform'
p1803
sg336
(lp1804
sba(i__main__
DelphiIdentAccess
p1805
(dp1806
g334
S'Win32MajorVersion'
p1807
sg336
(lp1808
sba(i__main__
DelphiIdentAccess
p1809
(dp1810
g334
S'Win32MinorVersion'
p1811
sg336
(lp1812
sbasbasbasbasbasbsbsg406
(idelphi
DelphiCompoundStatement
p1813
(dp1814
g326
(lp1815
(idelphi
DelphiIfStatement
p1816
(dp1817
g391
(idelphi
DelphiRelOp
p1818
(dp1819
g394
(i__main__
DelphiIdentAccess
p1820
(dp1821
g334
S'Win32CSDVersion'
p1822
sg336
(lp1823
sbsg399
(idelphi
DelphiStringAccess
p1824
(dp1825
g336
(lp1826
sg172
(idelphi
DelphiStringValue
p1827
(dp1828
g172
S''
sbsbsg404
S'='
sbsg405
(i__main__
DelphiAssignStatement
p1829
(dp1830
g330
Nsg331
(i__main__
DelphiIdentAccess
p1831
(dp1832
g334
S'LogContentsRichEdit'
p1833
sg336
(lp1834
(idelphi
DelphiFieldEndAccess
p1835
(dp1836
g340
S'lines'
p1837
sba(idelphi
DelphiFieldEndAccess
p1838
(dp1839
g340
S'add'
p1840
sba(idelphi
DelphiFunctionEndAccess
p1841
(dp1842
g344
(lp1843
(i__main__
DelphiIdentAccess
p1844
(dp1845
g334
S'Format'
p1846
sg336
(lp1847
(idelphi
DelphiFunctionEndAccess
p1848
(dp1849
g344
(lp1850
(idelphi
DelphiStringAccess
p1851
(dp1852
g336
(lp1853
sg172
(idelphi
DelphiStringValue
p1854
(dp1855
g172
S'%s %d.%d (Build %d: %s)'
p1856
sbsba(idelphi
DelphiSetConstructor
p1857
(dp1858
g712
(lp1859
(i__main__
DelphiIdentAccess
p1860
(dp1861
g334
S'Platform'
p1862
sg336
(lp1863
sba(i__main__
DelphiIdentAccess
p1864
(dp1865
g334
S'Win32MajorVersion'
p1866
sg336
(lp1867
sba(i__main__
DelphiIdentAccess
p1868
(dp1869
g334
S'Win32MinorVersion'
p1870
sg336
(lp1871
sba(i__main__
DelphiIdentAccess
p1872
(dp1873
g334
S'BuildNumber'
p1874
sg336
(lp1875
sba(i__main__
DelphiIdentAccess
p1876
(dp1877
g334
S'Win32CSDVersion'
p1878
sg336
(lp1879
sbasbasbasbasbasbsbsg406
(i__main__
DelphiAssignStatement
p1880
(dp1881
g330
Nsg331
(i__main__
DelphiIdentAccess
p1882
(dp1883
g334
S'LogContentsRichEdit'
p1884
sg336
(lp1885
(idelphi
DelphiFieldEndAccess
p1886
(dp1887
g340
S'lines'
p1888
sba(idelphi
DelphiFieldEndAccess
p1889
(dp1890
g340
S'add'
p1891
sba(idelphi
DelphiFunctionEndAccess
p1892
(dp1893
g344
(lp1894
(i__main__
DelphiIdentAccess
p1895
(dp1896
g334
S'Format'
p1897
sg336
(lp1898
(idelphi
DelphiFunctionEndAccess
p1899
(dp1900
g344
(lp1901
(idelphi
DelphiStringAccess
p1902
(dp1903
g336
(lp1904
sg172
(idelphi
DelphiStringValue
p1905
(dp1906
g172
S'%s %d.%d (Build %d)'
p1907
sbsba(idelphi
DelphiSetConstructor
p1908
(dp1909
g712
(lp1910
(i__main__
DelphiIdentAccess
p1911
(dp1912
g334
S'Platform'
p1913
sg336
(lp1914
sba(i__main__
DelphiIdentAccess
p1915
(dp1916
g334
S'Win32MajorVersion'
p1917
sg336
(lp1918
sba(i__main__
DelphiIdentAccess
p1919
(dp1920
g334
S'Win32MinorVersion'
p1921
sg336
(lp1922
sba(i__main__
DelphiIdentAccess
p1923
(dp1924
g334
S'BuildNumber'
p1925
sg336
(lp1926
sbasbasbasbasbasbsbsbasbsbasbsg352
(lp1927
(i__main__
DelphiVarSection
p1928
(dp1929
g794
I0
sg795
(lp1930
(idelphi
DelphiVarDecl
p1931
(dp1932
g799
Nsg800
(lp1933
S'Platform'
p1934
asg43
(i__main__
DelphiPrimitiveType
p1935
(dp1936
g46
g172
sbsba(idelphi
DelphiVarDecl
p1937
(dp1938
g799
Nsg800
(lp1939
S'BuildNumber'
p1940
asg43
(i__main__
DelphiPrimitiveType
p1941
(dp1942
g46
S'integer'
p1943
sbsbasbasbsbsS'addtolog'
p1944
(i__main__
DelphiMethodImplementation
p1945
(dp1946
g299
g162
sg27
g164
sg35
(lp1947
(i__main__
DelphiFormalParameter
p1948
(dp1949
g39
Nsg40
(lp1950
S'change'
p1951
asg43
(i__main__
DelphiPrimitiveType
p1952
(dp1953
g46
g172
sbsg50
Nsbasg308
(lp1954
sg310
(lp1955
sg312
(lp1956
g314
ag1951
asg315
(dp1957
g1951
g1952
ssg51
S'TChangeLogForm'
p1958
sg52
Nsg318
(lp1959
sg53
I0
sg54
g55
sg320
(i__main__
DelphiBlock
p1960
(dp1961
g323
(idelphi
DelphiCompoundStatement
p1962
(dp1963
g326
(lp1964
(idelphi
DelphiIfStatement
p1965
(dp1966
g391
(idelphi
DelphiRelOp
p1967
(dp1968
g394
(i__main__
DelphiIdentAccess
p1969
(dp1970
g334
S'Trim'
p1971
sg336
(lp1972
(idelphi
DelphiFunctionEndAccess
p1973
(dp1974
g344
(lp1975
(i__main__
DelphiIdentAccess
p1976
(dp1977
g334
S'change'
p1978
sg336
(lp1979
sbasbasbsg399
(idelphi
DelphiStringAccess
p1980
(dp1981
g336
(lp1982
sg172
(idelphi
DelphiStringValue
p1983
(dp1984
g172
S''
sbsbsg404
S'='
sbsg405
Nsg406
(i__main__
DelphiExitStatement
p1985
(dp1986
g535
g1945
sbsba(i__main__
DelphiAssignStatement
p1987
(dp1988
g330
Nsg331
(i__main__
DelphiIdentAccess
p1989
(dp1990
g334
S'self'
p1991
sg336
(lp1992
(idelphi
DelphiFieldEndAccess
p1993
(dp1994
g340
S'ensureLogFileName'
p1995
sbasbsba(i__main__
DelphiAssignStatement
p1996
(dp1997
g330
Nsg331
(i__main__
DelphiIdentAccess
p1998
(dp1999
g334
S'AssignFile'
p2000
sg336
(lp2001
(idelphi
DelphiFunctionEndAccess
p2002
(dp2003
g344
(lp2004
(i__main__
DelphiIdentAccess
p2005
(dp2006
g334
S'LogFile'
p2007
sg336
(lp2008
sba(i__main__
DelphiIdentAccess
p2009
(dp2010
g334
S'domain'
p2011
sg336
(lp2012
(idelphi
DelphiFieldEndAccess
p2013
(dp2014
g340
S'options'
p2015
sba(idelphi
DelphiFieldEndAccess
p2016
(dp2017
g340
S'logFileName'
p2018
sbasbasbasbsba(idelphi
DelphiTryFinallyStatement
p2019
(dp2020
g854
(lp2021
(idelphi
DelphiTryExceptStatement
p2022
(dp2023
g854
(lp2024
(idelphi
DelphiIfStatement
p2025
(dp2026
g391
(i__main__
DelphiIdentAccess
p2027
(dp2028
g334
S'FileExists'
p2029
sg336
(lp2030
(idelphi
DelphiFunctionEndAccess
p2031
(dp2032
g344
(lp2033
(i__main__
DelphiIdentAccess
p2034
(dp2035
g334
S'domain'
p2036
sg336
(lp2037
(idelphi
DelphiFieldEndAccess
p2038
(dp2039
g340
S'options'
p2040
sba(idelphi
DelphiFieldEndAccess
p2041
(dp2042
g340
S'logFileName'
p2043
sbasbasbasbsg405
(i__main__
DelphiAssignStatement
p2044
(dp2045
g330
Nsg331
(i__main__
DelphiIdentAccess
p2046
(dp2047
g334
S'Rewrite'
p2048
sg336
(lp2049
(idelphi
DelphiFunctionEndAccess
p2050
(dp2051
g344
(lp2052
(i__main__
DelphiIdentAccess
p2053
(dp2054
g334
S'LogFile'
p2055
sg336
(lp2056
sbasbasbsbsg406
(i__main__
DelphiAssignStatement
p2057
(dp2058
g330
Nsg331
(i__main__
DelphiIdentAccess
p2059
(dp2060
g334
S'Append'
p2061
sg336
(lp2062
(idelphi
DelphiFunctionEndAccess
p2063
(dp2064
g344
(lp2065
(i__main__
DelphiIdentAccess
p2066
(dp2067
g334
S'LogFile'
p2068
sg336
(lp2069
sbasbasbsbsbasg872
(idelphi
DelphiExceptionHandlers
p2070
(dp2071
g875
Nsg876
(lp2072
(i__main__
DelphiAssignStatement
p2073
(dp2074
g330
Nsg331
(i__main__
DelphiIdentAccess
p2075
(dp2076
g334
S'self'
p2077
sg336
(lp2078
(idelphi
DelphiFieldEndAccess
p2079
(dp2080
g340
S'fileErrorWarning'
p2081
sbasbsba(i__main__
DelphiExitStatement
p2082
(dp2083
g535
g1945
sbasbsba(i__main__
DelphiAssignStatement
p2084
(dp2085
g330
Nsg331
(i__main__
DelphiIdentAccess
p2086
(dp2087
g334
S'writeln'
p2088
sg336
(lp2089
(idelphi
DelphiFunctionEndAccess
p2090
(dp2091
g344
(lp2092
(i__main__
DelphiIdentAccess
p2093
(dp2094
g334
S'LogFile'
p2095
sg336
(lp2096
sba(i__main__
DelphiIdentAccess
p2097
(dp2098
g334
S'change'
p2099
sg336
(lp2100
sbasbasbsba(i__main__
DelphiAssignStatement
p2101
(dp2102
g330
Nsg331
(i__main__
DelphiIdentAccess
p2103
(dp2104
g334
S'Flush'
p2105
sg336
(lp2106
(idelphi
DelphiFunctionEndAccess
p2107
(dp2108
g344
(lp2109
(i__main__
DelphiIdentAccess
p2110
(dp2111
g334
S'LogFile'
p2112
sg336
(lp2113
sbasbasbsbasg889
(lp2114
(idelphi
DelphiTryExceptStatement
p2115
(dp2116
g854
(lp2117
(i__main__
DelphiAssignStatement
p2118
(dp2119
g330
Nsg331
(i__main__
DelphiIdentAccess
p2120
(dp2121
g334
S'CloseFile'
p2122
sg336
(lp2123
(idelphi
DelphiFunctionEndAccess
p2124
(dp2125
g344
(lp2126
(i__main__
DelphiIdentAccess
p2127
(dp2128
g334
S'LogFile'
p2129
sg336
(lp2130
sbasbasbsbasg872
(idelphi
DelphiExceptionHandlers
p2131
(dp2132
g875
Nsg876
(lp2133
(idelphi
DelphiIfStatement
p2134
(dp2135
g391
(idelphi
DelphiNot
p2136
(dp2137
g515
(i__main__
DelphiIdentAccess
p2138
(dp2139
g334
S'issuedWarning'
p2140
sg336
(lp2141
sbsbsg405
Nsg406
(i__main__
DelphiAssignStatement
p2142
(dp2143
g330
Nsg331
(i__main__
DelphiIdentAccess
p2144
(dp2145
g334
S'ShowMessage'
p2146
sg336
(lp2147
(idelphi
DelphiFunctionEndAccess
p2148
(dp2149
g344
(lp2150
(idelphi
DelphiAddOp
p2151
(dp2152
g579
S'+'
sg580
(i__main__
DelphiIdentAccess
p2153
(dp2154
g334
S'domain'
p2155
sg336
(lp2156
(idelphi
DelphiFieldEndAccess
p2157
(dp2158
g340
S'options'
p2159
sba(idelphi
DelphiFieldEndAccess
p2160
(dp2161
g340
S'logFileName'
p2162
sbasbsg598
(idelphi
DelphiStringAccess
p2163
(dp2164
g336
(lp2165
sg172
(idelphi
DelphiStringValue
p2166
(dp2167
g172
S'Problem closing log file '
p2168
sbsbsbasbasbsbsbasbsbasbasbsg352
(lp2169
(i__main__
DelphiVarSection
p2170
(dp2171
g794
I0
sg795
(lp2172
(idelphi
DelphiVarDecl
p2173
(dp2174
g799
Nsg800
(lp2175
S'LogFile'
p2176
asg43
(i__main__
DelphiNamedType
p2177
(dp2178
g46
S'TextFile'
p2179
sg48
g1
sg49
NsbsbasbasbsbsS'ensurelogfilename'
p2180
(i__main__
DelphiMethodImplementation
p2181
(dp2182
g299
g210
sg27
g212
sg35
(lp2183
sg308
(lp2184
sg310
(lp2185
sg312
(lp2186
g314
asg315
(dp2187
sg51
S'TChangeLogForm'
p2188
sg52
Nsg318
(lp2189
sg53
I0
sg54
g55
sg320
(i__main__
DelphiBlock
p2190
(dp2191
g323
(idelphi
DelphiCompoundStatement
p2192
(dp2193
g326
(lp2194
(idelphi
DelphiIfStatement
p2195
(dp2196
g391
(idelphi
DelphiRelOp
p2197
(dp2198
g394
(i__main__
DelphiIdentAccess
p2199
(dp2200
g334
S'domain'
p2201
sg336
(lp2202
(idelphi
DelphiFieldEndAccess
p2203
(dp2204
g340
S'options'
p2205
sba(idelphi
DelphiFieldEndAccess
p2206
(dp2207
g340
S'logFileName'
p2208
sbasbsg399
(idelphi
DelphiStringAccess
p2209
(dp2210
g336
(lp2211
sg172
(idelphi
DelphiStringValue
p2212
(dp2213
g172
S''
sbsbsg404
S'='
sbsg405
Nsg406
(i__main__
DelphiAssignStatement
p2214
(dp2215
g330
(idelphi
DelphiAddOp
p2216
(dp2217
g579
S'+'
sg580
(i__main__
DelphiIdentAccess
p2218
(dp2219
g334
S'kDefaultLogFileName'
p2220
sg336
(lp2221
sbsg598
(i__main__
DelphiIdentAccess
p2222
(dp2223
g334
S'ExtractFilePath'
p2224
sg336
(lp2225
(idelphi
DelphiFunctionEndAccess
p2226
(dp2227
g344
(lp2228
(i__main__
DelphiIdentAccess
p2229
(dp2230
g334
S'Application'
p2231
sg336
(lp2232
(idelphi
DelphiFieldEndAccess
p2233
(dp2234
g340
S'exeName'
p2235
sbasbasbasbsbsg331
(i__main__
DelphiIdentAccess
p2236
(dp2237
g334
S'domain'
p2238
sg336
(lp2239
(idelphi
DelphiFieldEndAccess
p2240
(dp2241
g340
S'options'
p2242
sba(idelphi
DelphiFieldEndAccess
p2243
(dp2244
g340
S'logFileName'
p2245
sbasbsbsbasbsg352
(lp2246
sbsbsS'showtechsupportinfoinchangelog'
p2247
(i__main__
DelphiMethodImplementation
p2248
(dp2249
g299
g215
sg27
g217
sg35
(lp2250
sg308
(lp2251
sg310
(lp2252
sg312
(lp2253
g314
asg315
(dp2254
sg51
S'TChangeLogForm'
p2255
sg52
Nsg318
(lp2256
sg53
I0
sg54
g55
sg320
(i__main__
DelphiBlock
p2257
(dp2258
g323
(idelphi
DelphiCompoundStatement
p2259
(dp2260
g326
(lp2261
(i__main__
DelphiAssignStatement
p2262
(dp2263
g330
Nsg331
(i__main__
DelphiIdentAccess
p2264
(dp2265
g334
S'LogContentsRichEdit'
p2266
sg336
(lp2267
(idelphi
DelphiFieldEndAccess
p2268
(dp2269
g340
S'lines'
p2270
sba(idelphi
DelphiFieldEndAccess
p2271
(dp2272
g340
S'add'
p2273
sba(idelphi
DelphiFunctionEndAccess
p2274
(dp2275
g344
(lp2276
(idelphi
DelphiStringAccess
p2277
(dp2278
g336
(lp2279
sg172
(idelphi
DelphiStringValue
p2280
(dp2281
g172
S''
sbsbasbasbsba(i__main__
DelphiAssignStatement
p2282
(dp2283
g330
Nsg331
(i__main__
DelphiIdentAccess
p2284
(dp2285
g334
S'LogContentsRichEdit'
p2286
sg336
(lp2287
(idelphi
DelphiFieldEndAccess
p2288
(dp2289
g340
S'lines'
p2290
sba(idelphi
DelphiFieldEndAccess
p2291
(dp2292
g340
S'add'
p2293
sba(idelphi
DelphiFunctionEndAccess
p2294
(dp2295
g344
(lp2296
(idelphi
DelphiStringAccess
p2297
(dp2298
g336
(lp2299
sg172
(idelphi
DelphiStringValue
p2300
(dp2301
g172
S'StoryHarp Technical Support Information'
p2302
sbsbasbasbsba(i__main__
DelphiAssignStatement
p2303
(dp2304
g330
Nsg331
(i__main__
DelphiIdentAccess
p2305
(dp2306
g334
S'LogContentsRichEdit'
p2307
sg336
(lp2308
(idelphi
DelphiFieldEndAccess
p2309
(dp2310
g340
S'lines'
p2311
sba(idelphi
DelphiFieldEndAccess
p2312
(dp2313
g340
S'add'
p2314
sba(idelphi
DelphiFunctionEndAccess
p2315
(dp2316
g344
(lp2317
(idelphi
DelphiStringAccess
p2318
(dp2319
g336
(lp2320
sg172
(idelphi
DelphiStringValue
p2321
(dp2322
g172
S''
sbsbasbasbsba(i__main__
DelphiAssignStatement
p2323
(dp2324
g330
(i__main__
DelphiIdentAccess
p2325
(dp2326
g334
S'domain'
p2327
sg336
(lp2328
(idelphi
DelphiFieldEndAccess
p2329
(dp2330
g340
S'world'
p2331
sba(idelphi
DelphiFieldEndAccess
p2332
(dp2333
g340
S'rules'
p2334
sba(idelphi
DelphiFieldEndAccess
p2335
(dp2336
g340
S'count'
p2337
sbasbsg331
(i__main__
DelphiIdentAccess
p2338
(dp2339
g334
S'numRules'
p2340
sg336
(lp2341
sbsba(i__main__
DelphiAssignStatement
p2342
(dp2343
g330
Nsg331
(i__main__
DelphiIdentAccess
p2344
(dp2345
g334
S'LogContentsRichEdit'
p2346
sg336
(lp2347
(idelphi
DelphiFieldEndAccess
p2348
(dp2349
g340
S'lines'
p2350
sba(idelphi
DelphiFieldEndAccess
p2351
(dp2352
g340
S'add'
p2353
sba(idelphi
DelphiFunctionEndAccess
p2354
(dp2355
g344
(lp2356
(idelphi
DelphiAddOp
p2357
(dp2358
g579
S'+'
sg580
(i__main__
DelphiIdentAccess
p2359
(dp2360
g334
S'intToStr'
p2361
sg336
(lp2362
(idelphi
DelphiFunctionEndAccess
p2363
(dp2364
g344
(lp2365
(i__main__
DelphiIdentAccess
p2366
(dp2367
g334
S'numRules'
p2368
sg336
(lp2369
sbasbasbsg598
(idelphi
DelphiStringAccess
p2370
(dp2371
g336
(lp2372
sg172
(idelphi
DelphiStringValue
p2373
(dp2374
g172
S'Rules: '
p2375
sbsbsbasbasbsba(i__main__
DelphiAssignStatement
p2376
(dp2377
g330
(i__main__
DelphiIdentAccess
p2378
(dp2379
g334
S'domain'
p2380
sg336
(lp2381
(idelphi
DelphiFieldEndAccess
p2382
(dp2383
g340
S'world'
p2384
sba(idelphi
DelphiFieldEndAccess
p2385
(dp2386
g340
S'variables'
p2387
sba(idelphi
DelphiFieldEndAccess
p2388
(dp2389
g340
S'count'
p2390
sbasbsg331
(i__main__
DelphiIdentAccess
p2391
(dp2392
g334
S'numVariables'
p2393
sg336
(lp2394
sbsba(i__main__
DelphiAssignStatement
p2395
(dp2396
g330
Nsg331
(i__main__
DelphiIdentAccess
p2397
(dp2398
g334
S'LogContentsRichEdit'
p2399
sg336
(lp2400
(idelphi
DelphiFieldEndAccess
p2401
(dp2402
g340
S'lines'
p2403
sba(idelphi
DelphiFieldEndAccess
p2404
(dp2405
g340
S'add'
p2406
sba(idelphi
DelphiFunctionEndAccess
p2407
(dp2408
g344
(lp2409
(idelphi
DelphiAddOp
p2410
(dp2411
g579
S'+'
sg580
(i__main__
DelphiIdentAccess
p2412
(dp2413
g334
S'intToStr'
p2414
sg336
(lp2415
(idelphi
DelphiFunctionEndAccess
p2416
(dp2417
g344
(lp2418
(i__main__
DelphiIdentAccess
p2419
(dp2420
g334
S'numVariables'
p2421
sg336
(lp2422
sbasbasbsg598
(idelphi
DelphiStringAccess
p2423
(dp2424
g336
(lp2425
sg172
(idelphi
DelphiStringValue
p2426
(dp2427
g172
S'Variables: '
p2428
sbsbsbasbasbsba(i__main__
DelphiAssignStatement
p2429
(dp2430
g330
Nsg331
(i__main__
DelphiIdentAccess
p2431
(dp2432
g334
S'LogContentsRichEdit'
p2433
sg336
(lp2434
(idelphi
DelphiFieldEndAccess
p2435
(dp2436
g340
S'lines'
p2437
sba(idelphi
DelphiFieldEndAccess
p2438
(dp2439
g340
S'add'
p2440
sba(idelphi
DelphiFunctionEndAccess
p2441
(dp2442
g344
(lp2443
(idelphi
DelphiStringAccess
p2444
(dp2445
g336
(lp2446
sg172
(idelphi
DelphiStringValue
p2447
(dp2448
g172
S''
sbsbasbasbsg134
(lp2449
S' more here...\r'
p2450
asba(i__main__
DelphiAssignStatement
p2451
(dp2452
g330
(i__main__
DelphiIdentAccess
p2453
(dp2454
g334
S'GetDC'
p2455
sg336
(lp2456
(idelphi
DelphiFunctionEndAccess
p2457
(dp2458
g344
(lp2459
(idelphi
DelphiIntegerValue
p2460
(dp2461
g172
S'0'
sbasbasbsg331
(i__main__
DelphiIdentAccess
p2462
(dp2463
g334
S'screenDC'
p2464
sg336
(lp2465
sbsba(idelphi
DelphiTryFinallyStatement
p2466
(dp2467
g854
(lp2468
(i__main__
DelphiAssignStatement
p2469
(dp2470
g330
(idelphi
DelphiNestedExpressionListAccess
p2471
(dp2472
g336
(lp2473
sg344
(lp2474
(idelphi
DelphiMulOp
p2475
(dp2476
g1684
(i__main__
DelphiIdentAccess
p2477
(dp2478
g334
S'GetDeviceCaps'
p2479
sg336
(lp2480
(idelphi
DelphiFunctionEndAccess
p2481
(dp2482
g344
(lp2483
(i__main__
DelphiIdentAccess
p2484
(dp2485
g334
S'screenDC'
p2486
sg336
(lp2487
sba(i__main__
DelphiIdentAccess
p2488
(dp2489
g334
S'PLANES'
p2490
sg336
(lp2491
sbasbasbsg1688
S'*'
sg1690
(i__main__
DelphiIdentAccess
p2492
(dp2493
g334
S'GetDeviceCaps'
p2494
sg336
(lp2495
(idelphi
DelphiFunctionEndAccess
p2496
(dp2497
g344
(lp2498
(i__main__
DelphiIdentAccess
p2499
(dp2500
g334
S'screenDC'
p2501
sg336
(lp2502
sba(i__main__
DelphiIdentAccess
p2503
(dp2504
g334
S'BITSPIXEL'
p2505
sg336
(lp2506
sbasbasbsbasbsg331
(i__main__
DelphiIdentAccess
p2507
(dp2508
g334
S'screenColorBits'
p2509
sg336
(lp2510
sbsbasg889
(lp2511
(i__main__
DelphiAssignStatement
p2512
(dp2513
g330
Nsg331
(i__main__
DelphiIdentAccess
p2514
(dp2515
g334
S'ReleaseDC'
p2516
sg336
(lp2517
(idelphi
DelphiFunctionEndAccess
p2518
(dp2519
g344
(lp2520
(idelphi
DelphiIntegerValue
p2521
(dp2522
g172
S'0'
sba(i__main__
DelphiIdentAccess
p2523
(dp2524
g334
S'screenDC'
p2525
sg336
(lp2526
sbasbasbsbasba(idelphi
DelphiIfStatement
p2527
(dp2528
g391
(idelphi
DelphiRelOp
p2529
(dp2530
g394
(i__main__
DelphiIdentAccess
p2531
(dp2532
g334
S'screenColorBits'
p2533
sg336
(lp2534
sbsg399
(idelphi
DelphiIntegerValue
p2535
(dp2536
g172
S'32'
p2537
sbsg404
S'<>'
p2538
sbsg405
(i__main__
DelphiAssignStatement
p2539
(dp2540
g330
(i__main__
DelphiIdentAccess
p2541
(dp2542
g334
S'round'
p2543
sg336
(lp2544
(idelphi
DelphiFunctionEndAccess
p2545
(dp2546
g344
(lp2547
(i__main__
DelphiIdentAccess
p2548
(dp2549
g334
S'power'
p2550
sg336
(lp2551
(idelphi
DelphiFunctionEndAccess
p2552
(dp2553
g344
(lp2554
(idelphi
DelphiRealValue
p2555
(dp2556
g172
S'2.0'
p2557
sba(i__main__
DelphiIdentAccess
p2558
(dp2559
g334
S'screenColorBits'
p2560
sg336
(lp2561
sbasbasbasbasbsg331
(i__main__
DelphiIdentAccess
p2562
(dp2563
g334
S'screenColors'
p2564
sg336
(lp2565
sbsbsg406
(i__main__
DelphiAssignStatement
p2566
(dp2567
g330
(idelphi
DelphiMulOp
p2568
(dp2569
g1684
(i__main__
DelphiIdentAccess
p2570
(dp2571
g334
S'screenColorBits'
p2572
sg336
(lp2573
sbsg1688
S'shl'
p2574
sg1690
(idelphi
DelphiIntegerValue
p2575
(dp2576
g172
S'1'
sbsbsg331
(i__main__
DelphiIdentAccess
p2577
(dp2578
g334
S'screenColors'
p2579
sg336
(lp2580
sbsbsba(i__main__
DelphiAssignStatement
p2581
(dp2582
g330
Nsg331
(i__main__
DelphiIdentAccess
p2583
(dp2584
g334
S'LogContentsRichEdit'
p2585
sg336
(lp2586
(idelphi
DelphiFieldEndAccess
p2587
(dp2588
g340
S'lines'
p2589
sba(idelphi
DelphiFieldEndAccess
p2590
(dp2591
g340
S'add'
p2592
sba(idelphi
DelphiFunctionEndAccess
p2593
(dp2594
g344
(lp2595
(idelphi
DelphiAddOp
p2596
(dp2597
g579
S'+'
sg580
(idelphi
DelphiStringAccess
p2598
(dp2599
g336
(lp2600
sg172
(idelphi
DelphiStringValue
p2601
(dp2602
g172
S' bits)'
p2603
sbsbsg598
(idelphi
DelphiAddOp
p2604
(dp2605
g579
S'+'
sg580
(i__main__
DelphiIdentAccess
p2606
(dp2607
g334
S'intToStr'
p2608
sg336
(lp2609
(idelphi
DelphiFunctionEndAccess
p2610
(dp2611
g344
(lp2612
(i__main__
DelphiIdentAccess
p2613
(dp2614
g334
S'screenColorBits'
p2615
sg336
(lp2616
sbasbasbsg598
(idelphi
DelphiAddOp
p2617
(dp2618
g579
S'+'
sg580
(idelphi
DelphiStringAccess
p2619
(dp2620
g336
(lp2621
sg172
(idelphi
DelphiStringValue
p2622
(dp2623
g172
S' ('
p2624
sbsbsg598
(idelphi
DelphiAddOp
p2625
(dp2626
g579
S'+'
sg580
(i__main__
DelphiIdentAccess
p2627
(dp2628
g334
S'intToStr'
p2629
sg336
(lp2630
(idelphi
DelphiFunctionEndAccess
p2631
(dp2632
g344
(lp2633
(i__main__
DelphiIdentAccess
p2634
(dp2635
g334
S'screenColors'
p2636
sg336
(lp2637
sbasbasbsg598
(idelphi
DelphiStringAccess
p2638
(dp2639
g336
(lp2640
sg172
(idelphi
DelphiStringValue
p2641
(dp2642
g172
S'Colors: '
p2643
sbsbsbsbsbsbasbasbsba(i__main__
DelphiAssignStatement
p2644
(dp2645
g330
Nsg331
(i__main__
DelphiIdentAccess
p2646
(dp2647
g334
S'LogContentsRichEdit'
p2648
sg336
(lp2649
(idelphi
DelphiFieldEndAccess
p2650
(dp2651
g340
S'lines'
p2652
sba(idelphi
DelphiFieldEndAccess
p2653
(dp2654
g340
S'add'
p2655
sba(idelphi
DelphiFunctionEndAccess
p2656
(dp2657
g344
(lp2658
(idelphi
DelphiAddOp
p2659
(dp2660
g579
S'+'
sg580
(i__main__
DelphiIdentAccess
p2661
(dp2662
g334
S'intToStr'
p2663
sg336
(lp2664
(idelphi
DelphiFunctionEndAccess
p2665
(dp2666
g344
(lp2667
(i__main__
DelphiIdentAccess
p2668
(dp2669
g334
S'Screen'
p2670
sg336
(lp2671
(idelphi
DelphiFieldEndAccess
p2672
(dp2673
g340
S'height'
p2674
sbasbasbasbsg598
(idelphi
DelphiAddOp
p2675
(dp2676
g579
S'+'
sg580
(idelphi
DelphiStringAccess
p2677
(dp2678
g336
(lp2679
sg172
(idelphi
DelphiStringValue
p2680
(dp2681
g172
S' x '
p2682
sbsbsg598
(idelphi
DelphiAddOp
p2683
(dp2684
g579
S'+'
sg580
(i__main__
DelphiIdentAccess
p2685
(dp2686
g334
S'intToStr'
p2687
sg336
(lp2688
(idelphi
DelphiFunctionEndAccess
p2689
(dp2690
g344
(lp2691
(i__main__
DelphiIdentAccess
p2692
(dp2693
g334
S'Screen'
p2694
sg336
(lp2695
(idelphi
DelphiFieldEndAccess
p2696
(dp2697
g340
S'width'
p2698
sbasbasbasbsg598
(idelphi
DelphiStringAccess
p2699
(dp2700
g336
(lp2701
sg172
(idelphi
DelphiStringValue
p2702
(dp2703
g172
S'Size: '
p2704
sbsbsbsbsbasbasbsba(i__main__
DelphiAssignStatement
p2705
(dp2706
g330
Nsg331
(i__main__
DelphiIdentAccess
p2707
(dp2708
g334
S'LogContentsRichEdit'
p2709
sg336
(lp2710
(idelphi
DelphiFieldEndAccess
p2711
(dp2712
g340
S'lines'
p2713
sba(idelphi
DelphiFieldEndAccess
p2714
(dp2715
g340
S'add'
p2716
sba(idelphi
DelphiFunctionEndAccess
p2717
(dp2718
g344
(lp2719
(idelphi
DelphiAddOp
p2720
(dp2721
g579
S'+'
sg580
(idelphi
DelphiStringAccess
p2722
(dp2723
g336
(lp2724
sg172
(idelphi
DelphiStringValue
p2725
(dp2726
g172
S' pixels/inch'
p2727
sbsbsg598
(idelphi
DelphiAddOp
p2728
(dp2729
g579
S'+'
sg580
(i__main__
DelphiIdentAccess
p2730
(dp2731
g334
S'intToStr'
p2732
sg336
(lp2733
(idelphi
DelphiFunctionEndAccess
p2734
(dp2735
g344
(lp2736
(i__main__
DelphiIdentAccess
p2737
(dp2738
g334
S'Screen'
p2739
sg336
(lp2740
(idelphi
DelphiFieldEndAccess
p2741
(dp2742
g340
S'pixelsPerInch'
p2743
sbasbasbasbsg598
(idelphi
DelphiStringAccess
p2744
(dp2745
g336
(lp2746
sg172
(idelphi
DelphiStringValue
p2747
(dp2748
g172
S'Resolution: '
p2749
sbsbsbsbasbasbsba(i__main__
DelphiAssignStatement
p2750
(dp2751
g330
Nsg331
(i__main__
DelphiIdentAccess
p2752
(dp2753
g334
S'LogContentsRichEdit'
p2754
sg336
(lp2755
(idelphi
DelphiFieldEndAccess
p2756
(dp2757
g340
S'lines'
p2758
sba(idelphi
DelphiFieldEndAccess
p2759
(dp2760
g340
S'add'
p2761
sba(idelphi
DelphiFunctionEndAccess
p2762
(dp2763
g344
(lp2764
(idelphi
DelphiStringAccess
p2765
(dp2766
g336
(lp2767
sg172
(idelphi
DelphiStringValue
p2768
(dp2769
g172
S''
sbsbasbasbsba(i__main__
DelphiAssignStatement
p2770
(dp2771
g330
Nsg331
(i__main__
DelphiIdentAccess
p2772
(dp2773
g334
S'self'
p2774
sg336
(lp2775
(idelphi
DelphiFieldEndAccess
p2776
(dp2777
g340
S'GetOSInfo'
p2778
sbasbsba(i__main__
DelphiAssignStatement
p2779
(dp2780
g330
(idelphi
DelphiSizeof
p2781
(dp2782
g799
(i__main__
DelphiIdentAccess
p2783
(dp2784
g334
S'memoryStatus'
p2785
sg336
(lp2786
sbsbsg331
(i__main__
DelphiIdentAccess
p2787
(dp2788
g334
S'memoryStatus'
p2789
sg336
(lp2790
(idelphi
DelphiFieldEndAccess
p2791
(dp2792
g340
S'dwLength'
p2793
sbasbsba(i__main__
DelphiAssignStatement
p2794
(dp2795
g330
Nsg331
(i__main__
DelphiIdentAccess
p2796
(dp2797
g334
S'GlobalMemoryStatus'
p2798
sg336
(lp2799
(idelphi
DelphiFunctionEndAccess
p2800
(dp2801
g344
(lp2802
(i__main__
DelphiIdentAccess
p2803
(dp2804
g334
S'memoryStatus'
p2805
sg336
(lp2806
sbasbasbsba(i__main__
DelphiAssignStatement
p2807
(dp2808
g330
Nsg331
(i__main__
DelphiIdentAccess
p2809
(dp2810
g334
S'LogContentsRichEdit'
p2811
sg336
(lp2812
(idelphi
DelphiFieldEndAccess
p2813
(dp2814
g340
S'lines'
p2815
sba(idelphi
DelphiFieldEndAccess
p2816
(dp2817
g340
S'add'
p2818
sba(idelphi
DelphiFunctionEndAccess
p2819
(dp2820
g344
(lp2821
(idelphi
DelphiAddOp
p2822
(dp2823
g579
S'+'
sg580
(i__main__
DelphiIdentAccess
p2824
(dp2825
g334
S'intToStr'
p2826
sg336
(lp2827
(idelphi
DelphiFunctionEndAccess
p2828
(dp2829
g344
(lp2830
(i__main__
DelphiIdentAccess
p2831
(dp2832
g334
S'memoryStatus'
p2833
sg336
(lp2834
(idelphi
DelphiFieldEndAccess
p2835
(dp2836
g340
S'dwMemoryLoad'
p2837
sbasbasbasbsg598
(idelphi
DelphiStringAccess
p2838
(dp2839
g336
(lp2840
sg172
(idelphi
DelphiStringValue
p2841
(dp2842
g172
S'Percent memory in use: '
p2843
sbsbsbasbasbsba(i__main__
DelphiAssignStatement
p2844
(dp2845
g330
Nsg331
(i__main__
DelphiIdentAccess
p2846
(dp2847
g334
S'LogContentsRichEdit'
p2848
sg336
(lp2849
(idelphi
DelphiFieldEndAccess
p2850
(dp2851
g340
S'lines'
p2852
sba(idelphi
DelphiFieldEndAccess
p2853
(dp2854
g340
S'add'
p2855
sba(idelphi
DelphiFunctionEndAccess
p2856
(dp2857
g344
(lp2858
(idelphi
DelphiAddOp
p2859
(dp2860
g579
S'+'
sg580
(idelphi
DelphiStringAccess
p2861
(dp2862
g336
(lp2863
sg172
(idelphi
DelphiStringValue
p2864
(dp2865
g172
S' K'
p2866
sbsbsg598
(idelphi
DelphiAddOp
p2867
(dp2868
g579
S'+'
sg580
(i__main__
DelphiIdentAccess
p2869
(dp2870
g334
S'intToStr'
p2871
sg336
(lp2872
(idelphi
DelphiFunctionEndAccess
p2873
(dp2874
g344
(lp2875
(idelphi
DelphiMulOp
p2876
(dp2877
g1684
(idelphi
DelphiIntegerValue
p2878
(dp2879
g172
S'1024'
p2880
sbsg1688
S'div'
p2881
sg1690
(i__main__
DelphiIdentAccess
p2882
(dp2883
g334
S'memoryStatus'
p2884
sg336
(lp2885
(idelphi
DelphiFieldEndAccess
p2886
(dp2887
g340
S'dwTotalPhys'
p2888
sbasbsbasbasbsg598
(idelphi
DelphiStringAccess
p2889
(dp2890
g336
(lp2891
sg172
(idelphi
DelphiStringValue
p2892
(dp2893
g172
S'Total physical memory: '
p2894
sbsbsbsbasbasbsba(i__main__
DelphiAssignStatement
p2895
(dp2896
g330
Nsg331
(i__main__
DelphiIdentAccess
p2897
(dp2898
g334
S'LogContentsRichEdit'
p2899
sg336
(lp2900
(idelphi
DelphiFieldEndAccess
p2901
(dp2902
g340
S'lines'
p2903
sba(idelphi
DelphiFieldEndAccess
p2904
(dp2905
g340
S'add'
p2906
sba(idelphi
DelphiFunctionEndAccess
p2907
(dp2908
g344
(lp2909
(idelphi
DelphiAddOp
p2910
(dp2911
g579
S'+'
sg580
(idelphi
DelphiStringAccess
p2912
(dp2913
g336
(lp2914
sg172
(idelphi
DelphiStringValue
p2915
(dp2916
g172
S' K'
p2917
sbsbsg598
(idelphi
DelphiAddOp
p2918
(dp2919
g579
S'+'
sg580
(i__main__
DelphiIdentAccess
p2920
(dp2921
g334
S'intToStr'
p2922
sg336
(lp2923
(idelphi
DelphiFunctionEndAccess
p2924
(dp2925
g344
(lp2926
(idelphi
DelphiMulOp
p2927
(dp2928
g1684
(idelphi
DelphiIntegerValue
p2929
(dp2930
g172
S'1024'
p2931
sbsg1688
g2881
sg1690
(i__main__
DelphiIdentAccess
p2932
(dp2933
g334
S'memoryStatus'
p2934
sg336
(lp2935
(idelphi
DelphiFieldEndAccess
p2936
(dp2937
g340
S'dwAvailPhys'
p2938
sbasbsbasbasbsg598
(idelphi
DelphiStringAccess
p2939
(dp2940
g336
(lp2941
sg172
(idelphi
DelphiStringValue
p2942
(dp2943
g172
S'Available physical memory: '
p2944
sbsbsbsbasbasbsba(i__main__
DelphiAssignStatement
p2945
(dp2946
g330
Nsg331
(i__main__
DelphiIdentAccess
p2947
(dp2948
g334
S'LogContentsRichEdit'
p2949
sg336
(lp2950
(idelphi
DelphiFieldEndAccess
p2951
(dp2952
g340
S'lines'
p2953
sba(idelphi
DelphiFieldEndAccess
p2954
(dp2955
g340
S'add'
p2956
sba(idelphi
DelphiFunctionEndAccess
p2957
(dp2958
g344
(lp2959
(idelphi
DelphiAddOp
p2960
(dp2961
g579
S'+'
sg580
(idelphi
DelphiStringAccess
p2962
(dp2963
g336
(lp2964
sg172
(idelphi
DelphiStringValue
p2965
(dp2966
g172
S' K'
p2967
sbsbsg598
(idelphi
DelphiAddOp
p2968
(dp2969
g579
S'+'
sg580
(i__main__
DelphiIdentAccess
p2970
(dp2971
g334
S'intToStr'
p2972
sg336
(lp2973
(idelphi
DelphiFunctionEndAccess
p2974
(dp2975
g344
(lp2976
(idelphi
DelphiMulOp
p2977
(dp2978
g1684
(idelphi
DelphiIntegerValue
p2979
(dp2980
g172
S'1024'
p2981
sbsg1688
g2881
sg1690
(i__main__
DelphiIdentAccess
p2982
(dp2983
g334
S'memoryStatus'
p2984
sg336
(lp2985
(idelphi
DelphiFieldEndAccess
p2986
(dp2987
g340
S'dwTotalPageFile'
p2988
sbasbsbasbasbsg598
(idelphi
DelphiStringAccess
p2989
(dp2990
g336
(lp2991
sg172
(idelphi
DelphiStringValue
p2992
(dp2993
g172
S'Total paging file: '
p2994
sbsbsbsbasbasbsba(i__main__
DelphiAssignStatement
p2995
(dp2996
g330
Nsg331
(i__main__
DelphiIdentAccess
p2997
(dp2998
g334
S'LogContentsRichEdit'
p2999
sg336
(lp3000
(idelphi
DelphiFieldEndAccess
p3001
(dp3002
g340
S'lines'
p3003
sba(idelphi
DelphiFieldEndAccess
p3004
(dp3005
g340
S'add'
p3006
sba(idelphi
DelphiFunctionEndAccess
p3007
(dp3008
g344
(lp3009
(idelphi
DelphiAddOp
p3010
(dp3011
g579
S'+'
sg580
(idelphi
DelphiStringAccess
p3012
(dp3013
g336
(lp3014
sg172
(idelphi
DelphiStringValue
p3015
(dp3016
g172
S' K'
p3017
sbsbsg598
(idelphi
DelphiAddOp
p3018
(dp3019
g579
S'+'
sg580
(i__main__
DelphiIdentAccess
p3020
(dp3021
g334
S'intToStr'
p3022
sg336
(lp3023
(idelphi
DelphiFunctionEndAccess
p3024
(dp3025
g344
(lp3026
(idelphi
DelphiMulOp
p3027
(dp3028
g1684
(idelphi
DelphiIntegerValue
p3029
(dp3030
g172
S'1024'
p3031
sbsg1688
g2881
sg1690
(i__main__
DelphiIdentAccess
p3032
(dp3033
g334
S'memoryStatus'
p3034
sg336
(lp3035
(idelphi
DelphiFieldEndAccess
p3036
(dp3037
g340
S'dwAvailPageFile'
p3038
sbasbsbasbasbsg598
(idelphi
DelphiStringAccess
p3039
(dp3040
g336
(lp3041
sg172
(idelphi
DelphiStringValue
p3042
(dp3043
g172
S'Available paging file: '
p3044
sbsbsbsbasbasbsba(i__main__
DelphiAssignStatement
p3045
(dp3046
g330
Nsg331
(i__main__
DelphiIdentAccess
p3047
(dp3048
g334
S'LogContentsRichEdit'
p3049
sg336
(lp3050
(idelphi
DelphiFieldEndAccess
p3051
(dp3052
g340
S'lines'
p3053
sba(idelphi
DelphiFieldEndAccess
p3054
(dp3055
g340
S'add'
p3056
sba(idelphi
DelphiFunctionEndAccess
p3057
(dp3058
g344
(lp3059
(idelphi
DelphiAddOp
p3060
(dp3061
g579
S'+'
sg580
(idelphi
DelphiStringAccess
p3062
(dp3063
g336
(lp3064
sg172
(idelphi
DelphiStringValue
p3065
(dp3066
g172
S' K'
p3067
sbsbsg598
(idelphi
DelphiAddOp
p3068
(dp3069
g579
S'+'
sg580
(i__main__
DelphiIdentAccess
p3070
(dp3071
g334
S'intToStr'
p3072
sg336
(lp3073
(idelphi
DelphiFunctionEndAccess
p3074
(dp3075
g344
(lp3076
(idelphi
DelphiMulOp
p3077
(dp3078
g1684
(idelphi
DelphiIntegerValue
p3079
(dp3080
g172
S'1024'
p3081
sbsg1688
g2881
sg1690
(i__main__
DelphiIdentAccess
p3082
(dp3083
g334
S'memoryStatus'
p3084
sg336
(lp3085
(idelphi
DelphiFieldEndAccess
p3086
(dp3087
g340
S'dwTotalVirtual'
p3088
sbasbsbasbasbsg598
(idelphi
DelphiStringAccess
p3089
(dp3090
g336
(lp3091
sg172
(idelphi
DelphiStringValue
p3092
(dp3093
g172
S'Total user memory: '
p3094
sbsbsbsbasbasbsba(i__main__
DelphiAssignStatement
p3095
(dp3096
g330
Nsg331
(i__main__
DelphiIdentAccess
p3097
(dp3098
g334
S'LogContentsRichEdit'
p3099
sg336
(lp3100
(idelphi
DelphiFieldEndAccess
p3101
(dp3102
g340
S'lines'
p3103
sba(idelphi
DelphiFieldEndAccess
p3104
(dp3105
g340
S'add'
p3106
sba(idelphi
DelphiFunctionEndAccess
p3107
(dp3108
g344
(lp3109
(idelphi
DelphiAddOp
p3110
(dp3111
g579
S'+'
sg580
(idelphi
DelphiStringAccess
p3112
(dp3113
g336
(lp3114
sg172
(idelphi
DelphiStringValue
p3115
(dp3116
g172
S' K'
p3117
sbsbsg598
(idelphi
DelphiAddOp
p3118
(dp3119
g579
S'+'
sg580
(i__main__
DelphiIdentAccess
p3120
(dp3121
g334
S'intToStr'
p3122
sg336
(lp3123
(idelphi
DelphiFunctionEndAccess
p3124
(dp3125
g344
(lp3126
(idelphi
DelphiMulOp
p3127
(dp3128
g1684
(idelphi
DelphiIntegerValue
p3129
(dp3130
g172
S'1024'
p3131
sbsg1688
g2881
sg1690
(i__main__
DelphiIdentAccess
p3132
(dp3133
g334
S'memoryStatus'
p3134
sg336
(lp3135
(idelphi
DelphiFieldEndAccess
p3136
(dp3137
g340
S'dwAvailVirtual'
p3138
sbasbsbasbasbsg598
(idelphi
DelphiStringAccess
p3139
(dp3140
g336
(lp3141
sg172
(idelphi
DelphiStringValue
p3142
(dp3143
g172
S'Available user memory: '
p3144
sbsbsbsbasbasbsba(i__main__
DelphiAssignStatement
p3145
(dp3146
g330
(i__main__
DelphiIdentAccess
p3147
(dp3148
g334
S'DiskFree'
p3149
sg336
(lp3150
(idelphi
DelphiFunctionEndAccess
p3151
(dp3152
g344
(lp3153
(idelphi
DelphiIntegerValue
p3154
(dp3155
g172
S'0'
sbasbasbsg331
(i__main__
DelphiIdentAccess
p3156
(dp3157
g334
S'diskSpace'
p3158
sg336
(lp3159
sbsba(i__main__
DelphiAssignStatement
p3160
(dp3161
g330
Nsg331
(i__main__
DelphiIdentAccess
p3162
(dp3163
g334
S'LogContentsRichEdit'
p3164
sg336
(lp3165
(idelphi
DelphiFieldEndAccess
p3166
(dp3167
g340
S'lines'
p3168
sba(idelphi
DelphiFieldEndAccess
p3169
(dp3170
g340
S'add'
p3171
sba(idelphi
DelphiFunctionEndAccess
p3172
(dp3173
g344
(lp3174
(idelphi
DelphiAddOp
p3175
(dp3176
g579
S'+'
sg580
(idelphi
DelphiStringAccess
p3177
(dp3178
g336
(lp3179
sg172
(idelphi
DelphiStringValue
p3180
(dp3181
g172
S' MB'
p3182
sbsbsg598
(idelphi
DelphiAddOp
p3183
(dp3184
g579
S'+'
sg580
(i__main__
DelphiIdentAccess
p3185
(dp3186
g334
S'intToStr'
p3187
sg336
(lp3188
(idelphi
DelphiFunctionEndAccess
p3189
(dp3190
g344
(lp3191
(idelphi
DelphiMulOp
p3192
(dp3193
g1684
(idelphi
DelphiNestedExpressionListAccess
p3194
(dp3195
g336
(lp3196
sg344
(lp3197
(idelphi
DelphiMulOp
p3198
(dp3199
g1684
(idelphi
DelphiIntegerValue
p3200
(dp3201
g172
S'1024'
p3202
sbsg1688
S'*'
sg1690
(idelphi
DelphiIntegerValue
p3203
(dp3204
g172
S'1024'
p3205
sbsbasbsg1688
g2881
sg1690
(i__main__
DelphiIdentAccess
p3206
(dp3207
g334
S'diskSpace'
p3208
sg336
(lp3209
sbsbasbasbsg598
(idelphi
DelphiStringAccess
p3210
(dp3211
g336
(lp3212
sg172
(idelphi
DelphiStringValue
p3213
(dp3214
g172
S'Disk space on current drive: '
p3215
sbsbsbsbasbasbsbasbsg352
(lp3216
(i__main__
DelphiVarSection
p3217
(dp3218
g794
I0
sg795
(lp3219
(idelphi
DelphiVarDecl
p3220
(dp3221
g799
Nsg800
(lp3222
S'numRules'
p3223
aS'numVariables'
p3224
asg43
(i__main__
DelphiPrimitiveType
p3225
(dp3226
g46
S'longint'
p3227
sbsba(idelphi
DelphiVarDecl
p3228
(dp3229
g799
Nsg800
(lp3230
S'memoryStatus'
p3231
asg43
(i__main__
DelphiNamedType
p3232
(dp3233
g46
S'TMemoryStatus'
p3234
sg48
g1
sg49
Nsbsba(idelphi
DelphiVarDecl
p3235
(dp3236
g799
Nsg800
(lp3237
S'diskSpace'
p3238
asg43
(i__main__
DelphiPrimitiveType
p3239
(dp3240
g46
g3227
sbsba(idelphi
DelphiVarDecl
p3241
(dp3242
g799
Nsg800
(lp3243
S'screenColorBits'
p3244
asg43
(i__main__
DelphiPrimitiveType
p3245
(dp3246
g46
g1943
sbsba(idelphi
DelphiVarDecl
p3247
(dp3248
g799
Nsg800
(lp3249
S'screenColors'
p3250
asg43
(i__main__
DelphiPrimitiveType
p3251
(dp3252
g46
g3227
sbsba(idelphi
DelphiVarDecl
p3253
(dp3254
g799
Nsg800
(lp3255
S'screenDC'
p3256
asg43
(i__main__
DelphiNamedType
p3257
(dp3258
g46
S'HDC'
p3259
sg48
g1
sg49
NsbsbasbasbsbsS'formcreate'
p3260
(i__main__
DelphiMethodImplementation
p3261
(dp3262
g299
g94
sg27
g96
sg35
(lp3263
(i__main__
DelphiFormalParameter
p3264
(dp3265
g39
Nsg40
(lp3266
S'Sender'
p3267
asg43
(i__main__
DelphiNamedType
p3268
(dp3269
g46
S'TObject'
p3270
sg48
g1
sg49
Nsbsg50
Nsbasg308
(lp3271
sg310
(lp3272
sg312
(lp3273
g314
ag3267
asg315
(dp3274
g3267
g3268
ssg51
S'TChangeLogForm'
p3275
sg52
Nsg318
(lp3276
sg53
I0
sg54
g55
sg320
(i__main__
DelphiBlock
p3277
(dp3278
g323
(idelphi
DelphiCompoundStatement
p3279
(dp3280
g326
(lp3281
(i__main__
DelphiAssignStatement
p3282
(dp3283
g330
Nsg331
(i__main__
DelphiIdentAccess
p3284
(dp3285
g334
S'domain'
p3286
sg336
(lp3287
(idelphi
DelphiFieldEndAccess
p3288
(dp3289
g340
S'setFormSize'
p3290
sba(idelphi
DelphiFunctionEndAccess
p3291
(dp3292
g344
(lp3293
(i__main__
DelphiIdentAccess
p3294
(dp3295
g334
S'self'
p3296
sg336
(lp3297
sba(i__main__
DelphiIdentAccess
p3298
(dp3299
g334
S'domain'
p3300
sg336
(lp3301
(idelphi
DelphiFieldEndAccess
p3302
(dp3303
g340
S'options'
p3304
sba(idelphi
DelphiFieldEndAccess
p3305
(dp3306
g340
S'logFileWindowRect'
p3307
sbasbasbasbsbasbsg352
(lp3308
sbsg134
(lp3309
S'$R *.DFM'
p3310
asbssS'propertyDeclarations'
p3311
(dp3312
sS'variableNamesInDeclaredOrder'
p3313
(lp3314
g16
ag22
ag12
ag24
ag26
ag18
ag10
ag14
ag20
asba(i__main__
DelphiVarSection
p3315
(dp3316
g794
I1
sg795
(lp3317
(idelphi
DelphiVarDecl
p3318
(dp3319
g799
Nsg800
(lp3320
S'ChangeLogForm'
p3321
asg43
(i__main__
DelphiNamedType
p3322
(dp3323
g46
S'TChangeLogForm'
p3324
sg48
g1
sg49
Nsbsbasba(i__main__
DelphiProceduralImplementation
p3325
(dp3326
g299
g3325
sg27
S'makeBackupCopy'
p3327
sg52
Nsg308
(lp3328
sg310
(lp3329
sg312
(lp3330
S'fileFrom'
p3331
aS'fileTo'
p3332
asg315
(dp3333
g3331
(i__main__
DelphiPrimitiveType
p3334
(dp3335
g46
g172
sbsg3332
g3334
ssg35
(lp3336
(i__main__
DelphiFormalParameter
p3337
(dp3338
g39
Nsg40
(lp3339
g3331
ag3332
asg43
g3334
sg50
Nsbasg318
(lp3340
sg320
(i__main__
DelphiBlock
p3341
(dp3342
g323
(idelphi
DelphiCompoundStatement
p3343
(dp3344
g326
(lp3345
(i__main__
DelphiAssignStatement
p3346
(dp3347
g330
Nsg331
(i__main__
DelphiIdentAccess
p3348
(dp3349
g334
S'strPCopy'
p3350
sg336
(lp3351
(idelphi
DelphiFunctionEndAccess
p3352
(dp3353
g344
(lp3354
(i__main__
DelphiIdentAccess
p3355
(dp3356
g334
S'fileFromCString'
p3357
sg336
(lp3358
sba(i__main__
DelphiIdentAccess
p3359
(dp3360
g334
S'fileFrom'
p3361
sg336
(lp3362
sbasbasbsba(i__main__
DelphiAssignStatement
p3363
(dp3364
g330
Nsg331
(i__main__
DelphiIdentAccess
p3365
(dp3366
g334
S'strPCopy'
p3367
sg336
(lp3368
(idelphi
DelphiFunctionEndAccess
p3369
(dp3370
g344
(lp3371
(i__main__
DelphiIdentAccess
p3372
(dp3373
g334
S'fileToCString'
p3374
sg336
(lp3375
sba(i__main__
DelphiIdentAccess
p3376
(dp3377
g334
S'fileTo'
p3378
sg336
(lp3379
sbasbasbsba(i__main__
DelphiAssignStatement
p3380
(dp3381
g330
Nsg331
(i__main__
DelphiIdentAccess
p3382
(dp3383
g334
S'copyFile'
p3384
sg336
(lp3385
(idelphi
DelphiFunctionEndAccess
p3386
(dp3387
g344
(lp3388
(i__main__
DelphiIdentAccess
p3389
(dp3390
g334
S'fileFromCString'
p3391
sg336
(lp3392
sba(i__main__
DelphiIdentAccess
p3393
(dp3394
g334
S'fileToCString'
p3395
sg336
(lp3396
sba(i__main__
DelphiIdentAccess
p3397
(dp3398
g334
S'false'
p3399
sg336
(lp3400
sbasbasbsg134
(lp3401
S'overwrite existing file'
p3402
asbasbsg352
(lp3403
(i__main__
DelphiVarSection
p3404
(dp3405
g794
I0
sg795
(lp3406
(idelphi
DelphiVarDecl
p3407
(dp3408
g799
Nsg800
(lp3409
S'fileFromCString'
p3410
asg43
(i__main__
DelphiArrayType
p3411
(dp3412
g43
(i__main__
DelphiPrimitiveType
p3413
(dp3414
g46
g1541
sbsS'sizes'
p3415
(lp3416
(idelphi
DelphiSubrange
p3417
(dp3418
S'high'
p3419
(idelphi
DelphiIntegerValue
p3420
(dp3421
g172
S'255'
p3422
sbsS'low'
p3423
(idelphi
DelphiIntegerValue
p3424
(dp3425
g172
S'0'
sbsg27
S''
sbasbsba(idelphi
DelphiVarDecl
p3426
(dp3427
g799
Nsg800
(lp3428
S'fileToCString'
p3429
asg43
(i__main__
DelphiArrayType
p3430
(dp3431
g43
(i__main__
DelphiPrimitiveType
p3432
(dp3433
g46
g1541
sbsg3415
(lp3434
(idelphi
DelphiSubrange
p3435
(dp3436
g3419
(idelphi
DelphiIntegerValue
p3437
(dp3438
g172
S'255'
p3439
sbsg3423
(idelphi
DelphiIntegerValue
p3440
(dp3441
g172
S'0'
sbsg27
S''
sbasbsbasbasbsbasS'includedUnits'
p3442
NsS'implementationUses'
p3443
(lp3444
S'Math'
p3445
aS'USDomain'
p3446
asg27
S'uschangelog'
p3447
sS'constSections'
p3448
(lp3449
sS'globalsInProperCase'
p3450
NsS'interfaceUses'
p3451
(lp3452
S'delphi_compatability'
p3453
aS'Windows'
p3454
aS'Messages'
p3455
aS'SysUtils'
p3456
aS'Classes'
p3457
aS'Graphics'
p3458
aS'Controls'
p3459
aS'Forms'
p3460
aS'Dialogs'
p3461
aS'StdCtrls'
p3462
aS'ComCtrls'
p3463
aS'ExtCtrls'
p3464
asS'finalCommentToken'
p3465
(i__main__
PassStatement
p3466
(dp3467
g352
(lp3468
sbsS'varSections'
p3469
(lp3470
g3315
asS'globals'
p3471
NsS'originalFileName'
p3472
S'../../storyharp-js/converted_source/uschangelog.pas'
p3473
sS'proceduralImplementations'
p3474
(dp3475
S'makebackupcopy'
p3476
g3325
ssS'fileName'
p3477
S'/home/pdfernhout/workspace/storyharp-js/converted_source/uschangelog.pas'
p3478
sS'proceduralDeclarations'
p3479
(dp3480
sS'types'
p3481
(dp3482
S'tchangelogform'
p3483
g5
ssb.