(i__main__
DelphiUnit
p1
(dp2
S'sectionsInOrderDefined'
p3
(lp4
(i__main__
DelphiClass
p5
(dp6
S'variableNamesInProperCase'
p7
(dp8
S'httpclient'
p9
S'HttpClient'
p10
sS'okbutton'
p11
S'OKButton'
p12
sS'usernameedit'
p13
S'UserNameEdit'
p14
sS'label1'
p15
S'Label1'
p16
sS'label2'
p17
S'Label2'
p18
sS'enableeditorbutton'
p19
S'EnableEditorButton'
p20
sS'dateinstalledlabel'
p21
S'DateInstalledLabel'
p22
sS'registrationcodeedit'
p23
S'RegistrationCodeEdit'
p24
sS'onlineregistrationbutton'
p25
S'OnlineRegistrationButton'
p26
sS'abortbutton'
p27
S'AbortButton'
p28
sS'dayssinceinstallationlabel'
p29
S'DaysSinceInstallationLabel'
p30
sS'cancelbutton'
p31
S'CancelButton'
p32
sS'displaymemo'
p33
S'DisplayMemo'
p34
ssS'name'
p35
S'TRegistrationForm'
p36
sS'methodDeclarations'
p37
(dp38
S'formactivate'
p39
(i__main__
DelphiMethodDeclaration
p40
(dp41
g35
S'FormActivate'
p42
sS'formalParameters'
p43
(lp44
(i__main__
DelphiFormalParameter
p45
(dp46
S'initialValue'
p47
NsS'names'
p48
(lp49
S'Sender'
p50
asS'theType'
p51
(i__main__
DelphiNamedType
p52
(dp53
S'typeName'
p54
S'TObject'
p55
sS'unitDefinedIn'
p56
g1
sS'unitName'
p57
NsbsS'parameterVariety'
p58
NsbasS'className'
p59
g36
sS'resultType'
p60
NsS'isClassMethod'
p61
I0
sS'methodType'
p62
S'procedure'
p63
sbsS'cancelbuttonclick'
p64
(i__main__
DelphiMethodDeclaration
p65
(dp66
g35
S'CancelButtonClick'
p67
sg43
(lp68
(i__main__
DelphiFormalParameter
p69
(dp70
g47
Nsg48
(lp71
S'Sender'
p72
asg51
(i__main__
DelphiNamedType
p73
(dp74
g54
S'TObject'
p75
sg56
g1
sg57
Nsbsg58
Nsbasg59
g36
sg60
Nsg61
I0
sg62
g63
sbsS'usernameeditkeypress'
p76
(i__main__
DelphiMethodDeclaration
p77
(dp78
g35
S'UserNameEditKeyPress'
p79
sg43
(lp80
(i__main__
DelphiFormalParameter
p81
(dp82
g47
Nsg48
(lp83
S'Sender'
p84
asg51
(i__main__
DelphiNamedType
p85
(dp86
g54
S'TObject'
p87
sg56
g1
sg57
Nsbsg58
Nsba(i__main__
DelphiFormalParameter
p88
(dp89
g47
Nsg48
(lp90
S'Key'
p91
asg51
(i__main__
DelphiPrimitiveType
p92
(dp93
g54
S'char'
p94
sbsg58
S'var'
p95
sbasg59
g36
sg60
Nsg61
I0
sg62
g63
sbsS'okbuttonclick'
p96
(i__main__
DelphiMethodDeclaration
p97
(dp98
g35
S'OKButtonClick'
p99
sg43
(lp100
(i__main__
DelphiFormalParameter
p101
(dp102
g47
Nsg48
(lp103
S'Sender'
p104
asg51
(i__main__
DelphiNamedType
p105
(dp106
g54
S'TObject'
p107
sg56
g1
sg57
Nsbsg58
Nsbasg59
g36
sg60
Nsg61
I0
sg62
g63
sbsS'onlineregistrationbuttonclick'
p108
(i__main__
DelphiMethodDeclaration
p109
(dp110
g35
S'OnlineRegistrationButtonClick'
p111
sg43
(lp112
(i__main__
DelphiFormalParameter
p113
(dp114
g47
Nsg48
(lp115
S'Sender'
p116
asg51
(i__main__
DelphiNamedType
p117
(dp118
g54
S'TObject'
p119
sg56
g1
sg57
Nsbsg58
Nsbasg59
g36
sg60
Nsg61
I0
sg62
g63
sbsS'enableeditorbuttonclick'
p120
(i__main__
DelphiMethodDeclaration
p121
(dp122
g35
S'EnableEditorButtonClick'
p123
sg43
(lp124
(i__main__
DelphiFormalParameter
p125
(dp126
g47
Nsg48
(lp127
S'Sender'
p128
asg51
(i__main__
DelphiNamedType
p129
(dp130
g54
S'TObject'
p131
sg56
g1
sg57
Nsbsg58
Nsbasg59
g36
sg60
Nsg61
I0
sg62
g63
sbsS'registrationcodeeditkeypress'
p132
(i__main__
DelphiMethodDeclaration
p133
(dp134
g35
S'RegistrationCodeEditKeyPress'
p135
sg43
(lp136
(i__main__
DelphiFormalParameter
p137
(dp138
g47
Nsg48
(lp139
S'Sender'
p140
asg51
(i__main__
DelphiNamedType
p141
(dp142
g54
S'TObject'
p143
sg56
g1
sg57
Nsbsg58
Nsba(i__main__
DelphiFormalParameter
p144
(dp145
g47
Nsg48
(lp146
S'Key'
p147
asg51
(i__main__
DelphiPrimitiveType
p148
(dp149
g54
g94
sbsg58
g95
sbasg59
g36
sg60
Nsg61
I0
sg62
g63
sbssS'superclassNamedTypes'
p150
(lp151
(i__main__
DelphiNamedType
p152
(dp153
g54
S'TForm'
p154
sg56
g1
sg57
NsbasS'variableNames'
p155
(dp156
S'httpclient'
p157
(i__main__
DelphiNamedType
p158
(dp159
g54
S'THttpCli'
p160
sg56
g1
sg57
NsbsS'okbutton'
p161
(i__main__
DelphiNamedType
p162
(dp163
g54
S'TButton'
p164
sg56
g1
sg57
NsbsS'usernameedit'
p165
(i__main__
DelphiNamedType
p166
(dp167
g54
S'TEdit'
p168
sg56
g1
sg57
NsbsS'label1'
p169
(i__main__
DelphiNamedType
p170
(dp171
g54
S'TLabel'
p172
sg56
g1
sg57
NsbsS'label2'
p173
(i__main__
DelphiNamedType
p174
(dp175
g54
S'TLabel'
p176
sg56
g1
sg57
NsbsS'enableeditorbutton'
p177
(i__main__
DelphiNamedType
p178
(dp179
g54
S'TButton'
p180
sg56
g1
sg57
NsbsS'dateinstalledlabel'
p181
(i__main__
DelphiNamedType
p182
(dp183
g54
S'TLabel'
p184
sg56
g1
sg57
NsbsS'registrationcodeedit'
p185
(i__main__
DelphiNamedType
p186
(dp187
g54
S'TEdit'
p188
sg56
g1
sg57
NsbsS'onlineregistrationbutton'
p189
(i__main__
DelphiNamedType
p190
(dp191
g54
S'TButton'
p192
sg56
g1
sg57
NsbsS'abortbutton'
p193
(i__main__
DelphiNamedType
p194
(dp195
g54
S'TButton'
p196
sg56
g1
sg57
NsbsS'dayssinceinstallationlabel'
p197
(i__main__
DelphiNamedType
p198
(dp199
g54
S'TLabel'
p200
sg56
g1
sg57
NsbsS'cancelbutton'
p201
(i__main__
DelphiNamedType
p202
(dp203
g54
S'TButton'
p204
sg56
g1
sg57
NsbsS'displaymemo'
p205
(i__main__
DelphiNamedType
p206
(dp207
g54
S'TMemo'
p208
sg56
g1
sg57
NsbssS'methodNamesInDefinedOrder'
p209
(lp210
S'okbuttonclick'
p211
aS'cancelbuttonclick'
p212
aS'usernameeditkeypress'
p213
aS'registrationcodeeditkeypress'
p214
aS'formactivate'
p215
aS'enableeditorbuttonclick'
p216
aS'onlineregistrationbuttonclick'
p217
asS'methodImplementations'
p218
(dp219
S'formactivate'
p220
(i__main__
DelphiMethodImplementation
p221
(dp222
S'originalDeclaration'
p223
g40
sg35
g42
sg43
(lp224
(i__main__
DelphiFormalParameter
p225
(dp226
g47
Nsg48
(lp227
S'Sender'
p228
asg51
(i__main__
DelphiNamedType
p229
(dp230
g54
S'TObject'
p231
sg56
g1
sg57
Nsbsg58
NsbasS'varParamIndexes'
p232
(lp233
sS'varParamsSkipped'
p234
(lp235
sS'argNames'
p236
(lp237
S'self'
p238
ag228
asS'argTypes'
p239
(dp240
g228
g229
ssg59
S'TRegistrationForm'
p241
sg60
NsS'varParamNames'
p242
(lp243
sg61
I0
sg62
g63
sS'block'
p244
(i__main__
DelphiBlock
p245
(dp246
S'compoundStatement'
p247
(idelphi
DelphiCompoundStatement
p248
(dp249
S'statements'
p250
(lp251
(i__main__
DelphiAssignStatement
p252
(dp253
S'newValueExpression'
p254
(idelphi
DelphiAddOp
p255
(dp256
S'addOp'
p257
S'+'
sS'term2'
p258
(i__main__
DelphiIdentAccess
p259
(dp260
S'ident'
p261
S'DateToStr'
p262
sS'endAccessList'
p263
(lp264
(idelphi
DelphiFunctionEndAccess
p265
(dp266
S'expressionList'
p267
(lp268
(i__main__
DelphiIdentAccess
p269
(dp270
g261
S'Date'
p271
sg263
(lp272
sbasbasbsS'term1'
p273
(idelphi
DelphiStringAccess
p274
(dp275
g263
(lp276
sS'string'
p277
(idelphi
DelphiStringValue
p278
(dp279
g277
S'Date editor enabled: '
p280
sbsbsbsS'destinationExpression'
p281
(i__main__
DelphiIdentAccess
p282
(dp283
g261
S'DateInstalledLabel'
p284
sg263
(lp285
(idelphi
DelphiFieldEndAccess
p286
(dp287
S'field'
p288
S'caption'
p289
sbasbsba(i__main__
DelphiAssignStatement
p290
(dp291
g254
(idelphi
DelphiAddOp
p292
(dp293
g257
S'+'
sg258
(idelphi
DelphiStringAccess
p294
(dp295
g263
(lp296
sg277
(idelphi
DelphiStringValue
p297
(dp298
g277
S'1'
sbsbsg273
(idelphi
DelphiStringAccess
p299
(dp300
g263
(lp301
sg277
(idelphi
DelphiStringValue
p302
(dp303
g277
S'Days since editor enabled: '
p304
sbsbsbsg281
(i__main__
DelphiIdentAccess
p305
(dp306
g261
S'DaysSinceInstallationLabel'
p307
sg263
(lp308
(idelphi
DelphiFieldEndAccess
p309
(dp310
g288
S'caption'
p311
sbasbsba(idelphi
DelphiIfStatement
p312
(dp313
S'expression'
p314
(i__main__
DelphiIdentAccess
p315
(dp316
g261
S'DateInstalledLabel'
p317
sg263
(lp318
(idelphi
DelphiFieldEndAccess
p319
(dp320
g288
S'visible'
p321
sbasbsS'ifFalseStatement'
p322
(i__main__
DelphiAssignStatement
p323
(dp324
g254
(idelphi
DelphiStringAccess
p325
(dp326
g263
(lp327
sg277
(idelphi
DelphiStringValue
p328
(dp329
g277
S'Enable Editor'
p330
sbsbsg281
(i__main__
DelphiIdentAccess
p331
(dp332
g261
S'EnableEditorButton'
p333
sg263
(lp334
(idelphi
DelphiFieldEndAccess
p335
(dp336
g288
S'caption'
p337
sbasbsbsS'ifTrueStatement'
p338
(i__main__
DelphiAssignStatement
p339
(dp340
g254
(idelphi
DelphiStringAccess
p341
(dp342
g263
(lp343
sg277
(idelphi
DelphiStringValue
p344
(dp345
g277
S'Disable Editor'
p346
sbsbsg281
(i__main__
DelphiIdentAccess
p347
(dp348
g261
S'EnableEditorButton'
p349
sg263
(lp350
(idelphi
DelphiFieldEndAccess
p351
(dp352
g288
S'caption'
p353
sbasbsbsbasbsS'limitedDeclSectionList'
p354
(lp355
sbsbsS'cancelbuttonclick'
p356
(i__main__
DelphiMethodImplementation
p357
(dp358
g223
g65
sg35
g67
sg43
(lp359
(i__main__
DelphiFormalParameter
p360
(dp361
g47
Nsg48
(lp362
S'Sender'
p363
asg51
(i__main__
DelphiNamedType
p364
(dp365
g54
S'TObject'
p366
sg56
g1
sg57
Nsbsg58
Nsbasg232
(lp367
sg234
(lp368
sg236
(lp369
g238
ag363
asg239
(dp370
g363
g364
ssg59
S'TRegistrationForm'
p371
sg60
Nsg242
(lp372
sg61
I0
sg62
g63
sg244
(i__main__
DelphiBlock
p373
(dp374
g247
(idelphi
DelphiCompoundStatement
p375
(dp376
g250
(lp377
(i__main__
DelphiAssignStatement
p378
(dp379
g254
(i__main__
DelphiIdentAccess
p380
(dp381
g261
S'mrCancel'
p382
sg263
(lp383
sbsg281
(i__main__
DelphiIdentAccess
p384
(dp385
g261
S'self'
p386
sg263
(lp387
(idelphi
DelphiFieldEndAccess
p388
(dp389
g288
S'modalResult'
p390
sbasbsbasbsg354
(lp391
sbsbsS'usernameeditkeypress'
p392
(i__main__
DelphiMethodImplementation
p393
(dp394
g223
g77
sg35
g79
sg43
(lp395
(i__main__
DelphiFormalParameter
p396
(dp397
g47
Nsg48
(lp398
S'Sender'
p399
asg51
(i__main__
DelphiNamedType
p400
(dp401
g54
S'TObject'
p402
sg56
g1
sg57
Nsbsg58
Nsba(i__main__
DelphiFormalParameter
p403
(dp404
g47
Nsg48
(lp405
S'Key'
p406
asg51
(i__main__
DelphiPrimitiveType
p407
(dp408
g54
g94
sbsg58
g95
sbasg232
(lp409
I1
asg234
(lp410
sg236
(lp411
g238
ag399
ag406
asg239
(dp412
g399
g400
sg406
g407
ssg59
S'TRegistrationForm'
p413
sg60
Nsg242
(lp414
g406
asg61
I0
sg62
g63
sg244
(i__main__
DelphiBlock
p415
(dp416
g247
(idelphi
DelphiCompoundStatement
p417
(dp418
g250
NsS'commentLinesBefore'
p419
(lp420
S"\tOkButton.enabled := (UserNameEdit.Text <> '') and (RegistrationCodeEdit.Text <> '');\r"
p421
asbsg354
(lp422
sbsbsS'okbuttonclick'
p423
(i__main__
DelphiMethodImplementation
p424
(dp425
g223
g97
sg35
g99
sg43
(lp426
(i__main__
DelphiFormalParameter
p427
(dp428
g47
Nsg48
(lp429
S'Sender'
p430
asg51
(i__main__
DelphiNamedType
p431
(dp432
g54
S'TObject'
p433
sg56
g1
sg57
Nsbsg58
Nsbasg232
(lp434
sg234
(lp435
sg236
(lp436
g238
ag430
asg239
(dp437
g430
g431
ssg59
S'TRegistrationForm'
p438
sg60
Nsg242
(lp439
sg61
I0
sg62
g63
sg244
(i__main__
DelphiBlock
p440
(dp441
g247
(idelphi
DelphiCompoundStatement
p442
(dp443
g250
(lp444
(idelphi
DelphiIfStatement
p445
(dp446
g314
(idelphi
DelphiRelOp
p447
(dp448
S'simpleExpression1'
p449
(i__main__
DelphiIdentAccess
p450
(dp451
g261
S'length'
p452
sg263
(lp453
(idelphi
DelphiFunctionEndAccess
p454
(dp455
g267
(lp456
(i__main__
DelphiIdentAccess
p457
(dp458
g261
S'trim'
p459
sg263
(lp460
(idelphi
DelphiFunctionEndAccess
p461
(dp462
g267
(lp463
(i__main__
DelphiIdentAccess
p464
(dp465
g261
S'UserNameEdit'
p466
sg263
(lp467
(idelphi
DelphiFieldEndAccess
p468
(dp469
g288
S'Text'
p470
sbasbasbasbasbasbsS'simpleExpression2'
p471
(idelphi
DelphiIntegerValue
p472
(dp473
g277
S'3'
sbsS'relOp'
p474
S'<'
sbsg322
Nsg338
(idelphi
DelphiCompoundStatement
p475
(dp476
g250
(lp477
(i__main__
DelphiAssignStatement
p478
(dp479
g254
Nsg281
(i__main__
DelphiIdentAccess
p480
(dp481
g261
S'ShowMessage'
p482
sg263
(lp483
(idelphi
DelphiFunctionEndAccess
p484
(dp485
g267
(lp486
(idelphi
DelphiStringAccess
p487
(dp488
g263
(lp489
sg277
(idelphi
DelphiStringValue
p490
(dp491
g277
S'A name must be entered'
p492
sbsbasbasbsba(i__main__
DelphiExitStatement
p493
(dp494
S'proceduralOrMethodImplementation'
p495
g424
sbasbsba(idelphi
DelphiIfStatement
p496
(dp497
g314
(idelphi
DelphiRelOp
p498
(dp499
g449
(idelphi
DelphiNestedExpressionListAccess
p500
(dp501
g263
(lp502
sg267
(lp503
(i__main__
DelphiIdentAccess
p504
(dp505
g261
S'lowercase'
p506
sg263
(lp507
(idelphi
DelphiFunctionEndAccess
p508
(dp509
g267
(lp510
(i__main__
DelphiIdentAccess
p511
(dp512
g261
S'trim'
p513
sg263
(lp514
(idelphi
DelphiFunctionEndAccess
p515
(dp516
g267
(lp517
(i__main__
DelphiIdentAccess
p518
(dp519
g261
S'RegistrationCodeEdit'
p520
sg263
(lp521
(idelphi
DelphiFieldEndAccess
p522
(dp523
g288
S'Text'
p524
sbasbasbasbasbasbasbsg471
(idelphi
DelphiStringAccess
p525
(dp526
g263
(lp527
sg277
(idelphi
DelphiStringValue
p528
(dp529
g277
S'htya9513'
p530
sbsbsg474
S'<>'
p531
sbsg322
Nsg338
(idelphi
DelphiCompoundStatement
p532
(dp533
g250
(lp534
(i__main__
DelphiAssignStatement
p535
(dp536
g254
Nsg281
(i__main__
DelphiIdentAccess
p537
(dp538
g261
S'ShowMessage'
p539
sg263
(lp540
(idelphi
DelphiFunctionEndAccess
p541
(dp542
g267
(lp543
(idelphi
DelphiStringAccess
p544
(dp545
g263
(lp546
sg277
(idelphi
DelphiStringValue
p547
(dp548
g277
S'Invalid registration code. Please see http://www.kurtz-fernhout.com for instructions on how to register.'
p549
sbsbasbasbsba(i__main__
DelphiExitStatement
p550
(dp551
g495
g424
sbasbsba(i__main__
DelphiAssignStatement
p552
(dp553
g254
Nsg281
(i__main__
DelphiIdentAccess
p554
(dp555
g261
S'ShowMessage'
p556
sg263
(lp557
(idelphi
DelphiFunctionEndAccess
p558
(dp559
g267
(lp560
(idelphi
DelphiStringAccess
p561
(dp562
g263
(lp563
sg277
(idelphi
DelphiStringValue
p564
(dp565
g277
S'Thank you for supporting our work.'
p566
sbsbasbasbsba(i__main__
DelphiAssignStatement
p567
(dp568
g254
Nsg281
(i__main__
DelphiIdentAccess
p569
(dp570
g261
S'ConsoleForm'
p571
sg263
(lp572
(idelphi
DelphiFieldEndAccess
p573
(dp574
g288
S'registrationOK'
p575
sba(idelphi
DelphiFunctionEndAccess
p576
(dp577
g267
(lp578
(i__main__
DelphiIdentAccess
p579
(dp580
g261
S'trim'
p581
sg263
(lp582
(idelphi
DelphiFunctionEndAccess
p583
(dp584
g267
(lp585
(i__main__
DelphiIdentAccess
p586
(dp587
g261
S'UserNameEdit'
p588
sg263
(lp589
(idelphi
DelphiFieldEndAccess
p590
(dp591
g288
S'Text'
p592
sbasbasbasbasbasbsba(i__main__
DelphiAssignStatement
p593
(dp594
g254
(idelphi
DelphiIntegerValue
p595
(dp596
g277
S'1'
sbsg281
(i__main__
DelphiIdentAccess
p597
(dp598
g261
S'self'
p599
sg263
(lp600
(idelphi
DelphiFieldEndAccess
p601
(dp602
g288
S'modalResult'
p603
sbasbsbasbsg354
(lp604
sbsg419
(lp605
S' Private declarations '
p606
aS' Public declarations '
p607
aS'$R *.DFM'
p608
asbsS'onlineregistrationbuttonclick'
p609
(i__main__
DelphiMethodImplementation
p610
(dp611
g223
g109
sg35
g111
sg43
(lp612
(i__main__
DelphiFormalParameter
p613
(dp614
g47
Nsg48
(lp615
S'Sender'
p616
asg51
(i__main__
DelphiNamedType
p617
(dp618
g54
S'TObject'
p619
sg56
g1
sg57
Nsbsg58
Nsbasg232
(lp620
sg234
(lp621
sg236
(lp622
g238
ag616
asg239
(dp623
g616
g617
ssg59
S'TRegistrationForm'
p624
sg60
Nsg242
(lp625
sg61
I0
sg62
g63
sg244
(i__main__
DelphiBlock
p626
(dp627
g247
(idelphi
DelphiCompoundStatement
p628
(dp629
g250
(lp630
(idelphi
DelphiIfStatement
p631
(dp632
g314
(idelphi
DelphiRelOp
p633
(dp634
g449
(i__main__
DelphiIdentAccess
p635
(dp636
g261
S'Trim'
p637
sg263
(lp638
(idelphi
DelphiFunctionEndAccess
p639
(dp640
g267
(lp641
(i__main__
DelphiIdentAccess
p642
(dp643
g261
S'UserNameEdit'
p644
sg263
(lp645
(idelphi
DelphiFieldEndAccess
p646
(dp647
g288
S'text'
p648
sbasbasbasbsg471
(idelphi
DelphiStringAccess
p649
(dp650
g263
(lp651
sg277
(idelphi
DelphiStringValue
p652
(dp653
g277
S''
sbsbsg474
S'='
sbsg322
Nsg338
(idelphi
DelphiCompoundStatement
p654
(dp655
g250
(lp656
(i__main__
DelphiAssignStatement
p657
(dp658
g254
Nsg281
(i__main__
DelphiIdentAccess
p659
(dp660
g261
S'ShowMessage'
p661
sg263
(lp662
(idelphi
DelphiFunctionEndAccess
p663
(dp664
g267
(lp665
(idelphi
DelphiStringAccess
p666
(dp667
g263
(lp668
sg277
(idelphi
DelphiStringValue
p669
(dp670
g277
S'You must enter your name first'
p671
sbsbasbasbsba(i__main__
DelphiExitStatement
p672
(dp673
g495
g610
sbasbsba(i__main__
DelphiAssignStatement
p674
(dp675
g254
(idelphi
DelphiStringAccess
p676
(dp677
g263
(lp678
sg277
(idelphi
DelphiStringValue
p679
(dp680
g277
S'Connecting to http://www.kurtz-fernhout.com'
p681
sbsbsg281
(i__main__
DelphiIdentAccess
p682
(dp683
g261
S'DisplayMemo'
p684
sg263
(lp685
(idelphi
DelphiFieldEndAccess
p686
(dp687
g288
S'text'
p688
sbasbsba(i__main__
DelphiAssignStatement
p689
(dp690
g254
(i__main__
DelphiIdentAccess
p691
(dp692
g261
S'TMemoryStream'
p693
sg263
(lp694
(idelphi
DelphiFieldEndAccess
p695
(dp696
g288
S'create'
p697
sbasbsg281
(i__main__
DelphiIdentAccess
p698
(dp699
g261
S'DataIn'
p700
sg263
(lp701
sbsba(i__main__
DelphiAssignStatement
p702
(dp703
g254
(i__main__
DelphiIdentAccess
p704
(dp705
g261
S'TMemoryStream'
p706
sg263
(lp707
(idelphi
DelphiFieldEndAccess
p708
(dp709
g288
S'create'
p710
sbasbsg281
(i__main__
DelphiIdentAccess
p711
(dp712
g261
S'DataOut'
p713
sg263
(lp714
sbsba(idelphi
DelphiTryFinallyStatement
p715
(dp716
S'tryStatements'
p717
(lp718
(i__main__
DelphiAssignStatement
p719
(dp720
g254
(idelphi
DelphiAddOp
p721
(dp722
g257
S'+'
sg258
(i__main__
DelphiIdentAccess
p723
(dp724
g261
S'Encode'
p725
sg263
(lp726
(idelphi
DelphiFunctionEndAccess
p727
(dp728
g267
(lp729
(i__main__
DelphiIdentAccess
p730
(dp731
g261
S'UserNameEdit'
p732
sg263
(lp733
(idelphi
DelphiFieldEndAccess
p734
(dp735
g288
S'text'
p736
sbasbasbasbsg273
(idelphi
DelphiStringAccess
p737
(dp738
g263
(lp739
sg277
(idelphi
DelphiStringValue
p740
(dp741
g277
S'N='
p742
sbsbsbsg281
(i__main__
DelphiIdentAccess
p743
(dp744
g261
S'Buf'
p745
sg263
(lp746
sbsba(i__main__
DelphiAssignStatement
p747
(dp748
g254
Nsg281
(i__main__
DelphiIdentAccess
p749
(dp750
g261
S'DataOut'
p751
sg263
(lp752
(idelphi
DelphiFieldEndAccess
p753
(dp754
g288
S'write'
p755
sba(idelphi
DelphiFunctionEndAccess
p756
(dp757
g267
(lp758
(i__main__
DelphiIdentAccess
p759
(dp760
g261
S'Buf'
p761
sg263
(lp762
(idelphi
DelphiArrayEndAccess
p763
(dp764
g267
(lp765
(idelphi
DelphiIntegerValue
p766
(dp767
g277
S'1'
sbasbasba(i__main__
DelphiIdentAccess
p768
(dp769
g261
S'Length'
p770
sg263
(lp771
(idelphi
DelphiFunctionEndAccess
p772
(dp773
g267
(lp774
(i__main__
DelphiIdentAccess
p775
(dp776
g261
S'Buf'
p777
sg263
(lp778
sbasbasbasbasbsba(i__main__
DelphiAssignStatement
p779
(dp780
g254
Nsg281
(i__main__
DelphiIdentAccess
p781
(dp782
g261
S'DataOut'
p783
sg263
(lp784
(idelphi
DelphiFieldEndAccess
p785
(dp786
g288
S'seek'
p787
sba(idelphi
DelphiFunctionEndAccess
p788
(dp789
g267
(lp790
(idelphi
DelphiIntegerValue
p791
(dp792
g277
S'0'
sba(i__main__
DelphiIdentAccess
p793
(dp794
g261
S'soFromBeginning'
p795
sg263
(lp796
sbasbasbsba(i__main__
DelphiAssignStatement
p797
(dp798
g254
(i__main__
DelphiIdentAccess
p799
(dp800
g261
S'DataOut'
p801
sg263
(lp802
sbsg281
(i__main__
DelphiIdentAccess
p803
(dp804
g261
S'HttpClient'
p805
sg263
(lp806
(idelphi
DelphiFieldEndAccess
p807
(dp808
g288
S'SendStream'
p809
sbasbsba(i__main__
DelphiAssignStatement
p810
(dp811
g254
(i__main__
DelphiIdentAccess
p812
(dp813
g261
S'DataIn'
p814
sg263
(lp815
sbsg281
(i__main__
DelphiIdentAccess
p816
(dp817
g261
S'HttpClient'
p818
sg263
(lp819
(idelphi
DelphiFieldEndAccess
p820
(dp821
g288
S'RcvdStream'
p822
sbasbsba(i__main__
DelphiAssignStatement
p823
(dp824
g254
(idelphi
DelphiStringAccess
p825
(dp826
g263
(lp827
sg277
(idelphi
DelphiStringValue
p828
(dp829
g277
S''
sbsbsg281
(i__main__
DelphiIdentAccess
p830
(dp831
g261
S'HttpClient'
p832
sg263
(lp833
(idelphi
DelphiFieldEndAccess
p834
(dp835
g288
S'Proxy'
p836
sbasbsg419
(lp837
S' none for now - not sure what this is\r'
p838
asba(i__main__
DelphiAssignStatement
p839
(dp840
g254
(idelphi
DelphiStringAccess
p841
(dp842
g263
(lp843
sg277
(idelphi
DelphiStringValue
p844
(dp845
g277
S'80'
p846
sbsbsg281
(i__main__
DelphiIdentAccess
p847
(dp848
g261
S'HttpClient'
p849
sg263
(lp850
(idelphi
DelphiFieldEndAccess
p851
(dp852
g288
S'ProxyPort'
p853
sbasbsba(i__main__
DelphiAssignStatement
p854
(dp855
g254
(idelphi
DelphiStringAccess
p856
(dp857
g263
(lp858
sg277
(idelphi
DelphiStringValue
p859
(dp860
g277
S'http://www.kurtz-fernhout.com/qny147/register.cgi'
p861
sbsbsg281
(i__main__
DelphiIdentAccess
p862
(dp863
g261
S'HttpClient'
p864
sg263
(lp865
(idelphi
DelphiFieldEndAccess
p866
(dp867
g288
S'URL'
p868
sbasbsba(i__main__
DelphiAssignStatement
p869
(dp870
g254
(i__main__
DelphiIdentAccess
p871
(dp872
g261
S'false'
p873
sg263
(lp874
sbsg281
(i__main__
DelphiIdentAccess
p875
(dp876
g261
S'OnlineRegistrationButton'
p877
sg263
(lp878
(idelphi
DelphiFieldEndAccess
p879
(dp880
g288
S'enabled'
p881
sbasbsba(i__main__
DelphiAssignStatement
p882
(dp883
g254
(i__main__
DelphiIdentAccess
p884
(dp885
g261
S'true'
p886
sg263
(lp887
sbsg281
(i__main__
DelphiIdentAccess
p888
(dp889
g261
S'AbortButton'
p890
sg263
(lp891
(idelphi
DelphiFieldEndAccess
p892
(dp893
g288
S'enabled'
p894
sbasbsba(idelphi
DelphiTryFinallyStatement
p895
(dp896
g717
(lp897
(idelphi
DelphiTryExceptStatement
p898
(dp899
g717
(lp900
(i__main__
DelphiAssignStatement
p901
(dp902
g254
Nsg281
(i__main__
DelphiIdentAccess
p903
(dp904
g261
S'HttpClient'
p905
sg263
(lp906
(idelphi
DelphiFieldEndAccess
p907
(dp908
g288
S'post'
p909
sbasbsba(i__main__
DelphiAssignStatement
p910
(dp911
g254
Nsg281
(i__main__
DelphiIdentAccess
p912
(dp913
g261
S'DataIn'
p914
sg263
(lp915
(idelphi
DelphiFieldEndAccess
p916
(dp917
g288
S'seek'
p918
sba(idelphi
DelphiFunctionEndAccess
p919
(dp920
g267
(lp921
(idelphi
DelphiIntegerValue
p922
(dp923
g277
S'0'
sba(idelphi
DelphiIntegerValue
p924
(dp925
g277
S'0'
sbasbasbsba(i__main__
DelphiAssignStatement
p926
(dp927
g254
Nsg281
(i__main__
DelphiIdentAccess
p928
(dp929
g261
S'DisplayMemo'
p930
sg263
(lp931
(idelphi
DelphiFieldEndAccess
p932
(dp933
g288
S'Lines'
p934
sba(idelphi
DelphiFieldEndAccess
p935
(dp936
g288
S'LoadFromStream'
p937
sba(idelphi
DelphiFunctionEndAccess
p938
(dp939
g267
(lp940
(i__main__
DelphiIdentAccess
p941
(dp942
g261
S'DataIn'
p943
sg263
(lp944
sbasbasbsbasS'exceptionHandlers'
p945
(idelphi
DelphiExceptionHandlers
p946
(dp947
S'exceptionHandlerList'
p948
NsS'statementList'
p949
(lp950
(i__main__
DelphiAssignStatement
p951
(dp952
g254
Nsg281
(i__main__
DelphiIdentAccess
p953
(dp954
g261
S'DisplayMemo'
p955
sg263
(lp956
(idelphi
DelphiFieldEndAccess
p957
(dp958
g288
S'Lines'
p959
sba(idelphi
DelphiFieldEndAccess
p960
(dp961
g288
S'Add'
p962
sba(idelphi
DelphiFunctionEndAccess
p963
(dp964
g267
(lp965
(idelphi
DelphiAddOp
p966
(dp967
g257
S'+'
sg258
(i__main__
DelphiIdentAccess
p968
(dp969
g261
S'HttpClient'
p970
sg263
(lp971
(idelphi
DelphiFieldEndAccess
p972
(dp973
g288
S'ReasonPhrase'
p974
sbasbsg273
(idelphi
DelphiStringAccess
p975
(dp976
g263
(lp977
sg277
(idelphi
DelphiStringValue
p978
(dp979
g277
S'Failed : '
p980
sbsbsbasbasbsbasbsbasS'finallyStatements'
p981
(lp982
(i__main__
DelphiAssignStatement
p983
(dp984
g254
(i__main__
DelphiIdentAccess
p985
(dp986
g261
S'true'
p987
sg263
(lp988
sbsg281
(i__main__
DelphiIdentAccess
p989
(dp990
g261
S'OnlineRegistrationButton'
p991
sg263
(lp992
(idelphi
DelphiFieldEndAccess
p993
(dp994
g288
S'enabled'
p995
sbasbsba(i__main__
DelphiAssignStatement
p996
(dp997
g254
(i__main__
DelphiIdentAccess
p998
(dp999
g261
S'false'
p1000
sg263
(lp1001
sbsg281
(i__main__
DelphiIdentAccess
p1002
(dp1003
g261
S'AbortButton'
p1004
sg263
(lp1005
(idelphi
DelphiFieldEndAccess
p1006
(dp1007
g288
S'enabled'
p1008
sbasbsbasbasg981
(lp1009
(i__main__
DelphiAssignStatement
p1010
(dp1011
g254
Nsg281
(i__main__
DelphiIdentAccess
p1012
(dp1013
g261
S'DataOut'
p1014
sg263
(lp1015
(idelphi
DelphiFieldEndAccess
p1016
(dp1017
g288
S'free'
p1018
sbasbsba(i__main__
DelphiAssignStatement
p1019
(dp1020
g254
Nsg281
(i__main__
DelphiIdentAccess
p1021
(dp1022
g261
S'DataIn'
p1023
sg263
(lp1024
(idelphi
DelphiFieldEndAccess
p1025
(dp1026
g288
S'free'
p1027
sbasbsbasbasbsg354
(lp1028
(i__main__
DelphiVarSection
p1029
(dp1030
S'atTopLevel'
p1031
I0
sS'varDeclList'
p1032
(lp1033
(idelphi
DelphiVarDecl
p1034
(dp1035
S'constExpression'
p1036
NsS'identList'
p1037
(lp1038
S'DataIn'
p1039
aS'DataOut'
p1040
asg51
(i__main__
DelphiNamedType
p1041
(dp1042
g54
S'TMemoryStream'
p1043
sg56
g1
sg57
Nsbsba(idelphi
DelphiVarDecl
p1044
(dp1045
g1036
Nsg1037
(lp1046
S'Buf'
p1047
asg51
(i__main__
DelphiPrimitiveType
p1048
(dp1049
g54
g277
sbsbasbasbsbsS'enableeditorbuttonclick'
p1050
(i__main__
DelphiMethodImplementation
p1051
(dp1052
g223
g121
sg35
g123
sg43
(lp1053
(i__main__
DelphiFormalParameter
p1054
(dp1055
g47
Nsg48
(lp1056
S'Sender'
p1057
asg51
(i__main__
DelphiNamedType
p1058
(dp1059
g54
S'TObject'
p1060
sg56
g1
sg57
Nsbsg58
Nsbasg232
(lp1061
sg234
(lp1062
sg236
(lp1063
g238
ag1057
asg239
(dp1064
g1057
g1058
ssg59
S'TRegistrationForm'
p1065
sg60
Nsg242
(lp1066
sg61
I0
sg62
g63
sg244
(i__main__
DelphiBlock
p1067
(dp1068
g247
(idelphi
DelphiCompoundStatement
p1069
(dp1070
g250
(lp1071
(idelphi
DelphiIfStatement
p1072
(dp1073
g314
(i__main__
DelphiIdentAccess
p1074
(dp1075
g261
S'DateInstalledLabel'
p1076
sg263
(lp1077
(idelphi
DelphiFieldEndAccess
p1078
(dp1079
g288
S'visible'
p1080
sbasbsg322
(idelphi
DelphiCompoundStatement
p1081
(dp1082
g250
(lp1083
(i__main__
DelphiAssignStatement
p1084
(dp1085
g254
(i__main__
DelphiIdentAccess
p1086
(dp1087
g261
S'true'
p1088
sg263
(lp1089
sbsg281
(i__main__
DelphiIdentAccess
p1090
(dp1091
g261
S'DateInstalledLabel'
p1092
sg263
(lp1093
(idelphi
DelphiFieldEndAccess
p1094
(dp1095
g288
S'visible'
p1096
sbasbsba(i__main__
DelphiAssignStatement
p1097
(dp1098
g254
(i__main__
DelphiIdentAccess
p1099
(dp1100
g261
S'true'
p1101
sg263
(lp1102
sbsg281
(i__main__
DelphiIdentAccess
p1103
(dp1104
g261
S'DaysSinceInstallationLabel'
p1105
sg263
(lp1106
(idelphi
DelphiFieldEndAccess
p1107
(dp1108
g288
S'visible'
p1109
sbasbsba(i__main__
DelphiAssignStatement
p1110
(dp1111
g254
(i__main__
DelphiIdentAccess
p1112
(dp1113
g261
S'true'
p1114
sg263
(lp1115
sbsg281
(i__main__
DelphiIdentAccess
p1116
(dp1117
g261
S'ConsoleForm'
p1118
sg263
(lp1119
(idelphi
DelphiFieldEndAccess
p1120
(dp1121
g288
S'MenuEditStory'
p1122
sba(idelphi
DelphiFieldEndAccess
p1123
(dp1124
g288
S'enabled'
p1125
sbasbsba(i__main__
DelphiAssignStatement
p1126
(dp1127
g254
(i__main__
DelphiIdentAccess
p1128
(dp1129
g261
S'true'
p1130
sg263
(lp1131
sbsg281
(i__main__
DelphiIdentAccess
p1132
(dp1133
g261
S'ConsoleForm'
p1134
sg263
(lp1135
(idelphi
DelphiFieldEndAccess
p1136
(dp1137
g288
S'MenuOptionsShowVariables'
p1138
sba(idelphi
DelphiFieldEndAccess
p1139
(dp1140
g288
S'enabled'
p1141
sbasbsba(i__main__
DelphiAssignStatement
p1142
(dp1143
g254
(i__main__
DelphiIdentAccess
p1144
(dp1145
g261
S'true'
p1146
sg263
(lp1147
sbsg281
(i__main__
DelphiIdentAccess
p1148
(dp1149
g261
S'ConsoleForm'
p1150
sg263
(lp1151
(idelphi
DelphiFieldEndAccess
p1152
(dp1153
g288
S'MenuOptionsUpdateEditorSelections'
p1154
sba(idelphi
DelphiFieldEndAccess
p1155
(dp1156
g288
S'enabled'
p1157
sbasbsba(i__main__
DelphiAssignStatement
p1158
(dp1159
g254
Nsg281
(i__main__
DelphiIdentAccess
p1160
(dp1161
g261
S'ShowMessage'
p1162
sg263
(lp1163
(idelphi
DelphiFunctionEndAccess
p1164
(dp1165
g267
(lp1166
(idelphi
DelphiAddOp
p1167
(dp1168
g257
S'+'
sg258
(idelphi
DelphiStringAccess
p1169
(dp1170
g263
(lp1171
sg277
(idelphi
DelphiStringValue
p1172
(dp1173
g277
S'See the license for details.'
p1174
sbsbsg273
(idelphi
DelphiAddOp
p1175
(dp1176
g257
S'+'
sg258
(i__main__
DelphiIdentAccess
p1177
(dp1178
g261
S'chr'
p1179
sg263
(lp1180
(idelphi
DelphiFunctionEndAccess
p1181
(dp1182
g267
(lp1183
(idelphi
DelphiIntegerValue
p1184
(dp1185
g277
S'13'
p1186
sbasbasbsg273
(idelphi
DelphiAddOp
p1187
(dp1188
g257
S'+'
sg258
(idelphi
DelphiStringAccess
p1189
(dp1190
g263
(lp1191
sg277
(idelphi
DelphiStringValue
p1192
(dp1193
g277
S'anything produced directly or indirectly through using the editor.'
p1194
sbsbsg273
(idelphi
DelphiAddOp
p1195
(dp1196
g257
S'+'
sg258
(i__main__
DelphiIdentAccess
p1197
(dp1198
g261
S'chr'
p1199
sg263
(lp1200
(idelphi
DelphiFunctionEndAccess
p1201
(dp1202
g267
(lp1203
(idelphi
DelphiIntegerValue
p1204
(dp1205
g277
S'13'
p1206
sbasbasbsg273
(idelphi
DelphiAddOp
p1207
(dp1208
g257
S'+'
sg258
(idelphi
DelphiStringAccess
p1209
(dp1210
g263
(lp1211
sg277
(idelphi
DelphiStringValue
p1212
(dp1213
g277
S'You must register to legally distribute or publically present'
p1214
sbsbsg273
(idelphi
DelphiAddOp
p1215
(dp1216
g257
S'+'
sg258
(i__main__
DelphiIdentAccess
p1217
(dp1218
g261
S'chr'
p1219
sg263
(lp1220
(idelphi
DelphiFunctionEndAccess
p1221
(dp1222
g267
(lp1223
(idelphi
DelphiIntegerValue
p1224
(dp1225
g277
S'13'
p1226
sbasbasbsg273
(idelphi
DelphiAddOp
p1227
(dp1228
g257
S'+'
sg258
(idelphi
DelphiStringAccess
p1229
(dp1230
g263
(lp1231
sg277
(idelphi
DelphiStringValue
p1232
(dp1233
g277
S'If you find value in it, please register.'
p1234
sbsbsg273
(idelphi
DelphiAddOp
p1235
(dp1236
g257
S'+'
sg258
(i__main__
DelphiIdentAccess
p1237
(dp1238
g261
S'chr'
p1239
sg263
(lp1240
(idelphi
DelphiFunctionEndAccess
p1241
(dp1242
g267
(lp1243
(idelphi
DelphiIntegerValue
p1244
(dp1245
g277
S'13'
p1246
sbasbasbsg273
(idelphi
DelphiStringAccess
p1247
(dp1248
g263
(lp1249
sg277
(idelphi
DelphiStringValue
p1250
(dp1251
g277
S'The editor is now enabled.'
p1252
sbsbsbsbsbsbsbsbsbsbasbasbsba(i__main__
DelphiAssignStatement
p1253
(dp1254
g254
(i__main__
DelphiIdentAccess
p1255
(dp1256
g261
S'mrCancel'
p1257
sg263
(lp1258
sbsg281
(i__main__
DelphiIdentAccess
p1259
(dp1260
g261
S'self'
p1261
sg263
(lp1262
(idelphi
DelphiFieldEndAccess
p1263
(dp1264
g288
S'modalResult'
p1265
sbasbsbasbsg338
(idelphi
DelphiCompoundStatement
p1266
(dp1267
g250
(lp1268
(i__main__
DelphiAssignStatement
p1269
(dp1270
g254
(i__main__
DelphiIdentAccess
p1271
(dp1272
g261
S'false'
p1273
sg263
(lp1274
sbsg281
(i__main__
DelphiIdentAccess
p1275
(dp1276
g261
S'DateInstalledLabel'
p1277
sg263
(lp1278
(idelphi
DelphiFieldEndAccess
p1279
(dp1280
g288
S'visible'
p1281
sbasbsba(i__main__
DelphiAssignStatement
p1282
(dp1283
g254
(i__main__
DelphiIdentAccess
p1284
(dp1285
g261
S'false'
p1286
sg263
(lp1287
sbsg281
(i__main__
DelphiIdentAccess
p1288
(dp1289
g261
S'DaysSinceInstallationLabel'
p1290
sg263
(lp1291
(idelphi
DelphiFieldEndAccess
p1292
(dp1293
g288
S'visible'
p1294
sbasbsba(i__main__
DelphiAssignStatement
p1295
(dp1296
g254
(i__main__
DelphiIdentAccess
p1297
(dp1298
g261
S'false'
p1299
sg263
(lp1300
sbsg281
(i__main__
DelphiIdentAccess
p1301
(dp1302
g261
S'ConsoleForm'
p1303
sg263
(lp1304
(idelphi
DelphiFieldEndAccess
p1305
(dp1306
g288
S'MenuEditStory'
p1307
sba(idelphi
DelphiFieldEndAccess
p1308
(dp1309
g288
S'enabled'
p1310
sbasbsba(i__main__
DelphiAssignStatement
p1311
(dp1312
g254
(i__main__
DelphiIdentAccess
p1313
(dp1314
g261
S'false'
p1315
sg263
(lp1316
sbsg281
(i__main__
DelphiIdentAccess
p1317
(dp1318
g261
S'ConsoleForm'
p1319
sg263
(lp1320
(idelphi
DelphiFieldEndAccess
p1321
(dp1322
g288
S'MenuOptionsShowVariables'
p1323
sba(idelphi
DelphiFieldEndAccess
p1324
(dp1325
g288
S'enabled'
p1326
sbasbsba(i__main__
DelphiAssignStatement
p1327
(dp1328
g254
(i__main__
DelphiIdentAccess
p1329
(dp1330
g261
S'false'
p1331
sg263
(lp1332
sbsg281
(i__main__
DelphiIdentAccess
p1333
(dp1334
g261
S'ConsoleForm'
p1335
sg263
(lp1336
(idelphi
DelphiFieldEndAccess
p1337
(dp1338
g288
S'MenuOptionsUpdateEditorSelections'
p1339
sba(idelphi
DelphiFieldEndAccess
p1340
(dp1341
g288
S'enabled'
p1342
sbasbsba(i__main__
DelphiAssignStatement
p1343
(dp1344
g254
(i__main__
DelphiIdentAccess
p1345
(dp1346
g261
S'mrCancel'
p1347
sg263
(lp1348
sbsg281
(i__main__
DelphiIdentAccess
p1349
(dp1350
g261
S'self'
p1351
sg263
(lp1352
(idelphi
DelphiFieldEndAccess
p1353
(dp1354
g288
S'modalResult'
p1355
sbasbsbasbsbasbsg354
(lp1356
sbsbsS'registrationcodeeditkeypress'
p1357
(i__main__
DelphiMethodImplementation
p1358
(dp1359
g223
g133
sg35
g135
sg43
(lp1360
(i__main__
DelphiFormalParameter
p1361
(dp1362
g47
Nsg48
(lp1363
S'Sender'
p1364
asg51
(i__main__
DelphiNamedType
p1365
(dp1366
g54
S'TObject'
p1367
sg56
g1
sg57
Nsbsg58
Nsba(i__main__
DelphiFormalParameter
p1368
(dp1369
g47
Nsg48
(lp1370
S'Key'
p1371
asg51
(i__main__
DelphiPrimitiveType
p1372
(dp1373
g54
g94
sbsg58
g95
sbasg232
(lp1374
I1
asg234
(lp1375
sg236
(lp1376
g238
ag1364
ag1371
asg239
(dp1377
g1364
g1365
sg1371
g1372
ssg59
S'TRegistrationForm'
p1378
sg60
Nsg242
(lp1379
g1371
asg61
I0
sg62
g63
sg244
(i__main__
DelphiBlock
p1380
(dp1381
g247
(idelphi
DelphiCompoundStatement
p1382
(dp1383
g250
Nsg419
(lp1384
S"\tOkButton.enabled := (UserNameEdit.Text <> '') and (RegistrationCodeEdit.Text <> '');\r"
p1385
asbsg354
(lp1386
sbsbssS'propertyDeclarations'
p1387
(dp1388
sS'variableNamesInDeclaredOrder'
p1389
(lp1390
g14
ag24
ag16
ag18
ag12
ag32
ag34
ag22
ag30
ag20
ag26
ag10
ag28
asba(i__main__
DelphiVarSection
p1391
(dp1392
g1031
I1
sg1032
(lp1393
(idelphi
DelphiVarDecl
p1394
(dp1395
g1036
Nsg1037
(lp1396
S'RegistrationForm'
p1397
asg51
(i__main__
DelphiNamedType
p1398
(dp1399
g54
S'TRegistrationForm'
p1400
sg56
g1
sg57
Nsbsbasba(i__main__
DelphiProceduralImplementation
p1401
(dp1402
g223
g1401
sg35
S'Encode'
p1403
sg60
(i__main__
DelphiPrimitiveType
p1404
(dp1405
g54
g277
sbsg232
(lp1406
sg234
(lp1407
sg236
(lp1408
S'msg'
p1409
asg239
(dp1410
g1409
(i__main__
DelphiPrimitiveType
p1411
(dp1412
g54
g277
sbssg43
(lp1413
(i__main__
DelphiFormalParameter
p1414
(dp1415
g47
Nsg48
(lp1416
g1409
asg51
g1411
sg58
S'const'
p1417
sbasg242
(lp1418
sg244
(i__main__
DelphiBlock
p1419
(dp1420
g247
(idelphi
DelphiCompoundStatement
p1421
(dp1422
g250
(lp1423
(i__main__
DelphiAssignStatement
p1424
(dp1425
g254
(idelphi
DelphiStringAccess
p1426
(dp1427
g263
(lp1428
sg277
(idelphi
DelphiStringValue
p1429
(dp1430
g277
S''
sbsbsg281
(i__main__
DelphiIdentAccess
p1431
(dp1432
g261
S'Result'
p1433
sg263
(lp1434
sbsba(idelphi
DelphiForStatement
p1435
(dp1436
S'variable'
p1437
S'I'
sS'finalValue'
p1438
(i__main__
DelphiIdentAccess
p1439
(dp1440
g261
S'Length'
p1441
sg263
(lp1442
(idelphi
DelphiFunctionEndAccess
p1443
(dp1444
g267
(lp1445
(i__main__
DelphiIdentAccess
p1446
(dp1447
g261
S'msg'
p1448
sg263
(lp1449
sbasbasbsS'direction'
p1450
S'to'
p1451
sg47
(idelphi
DelphiIntegerValue
p1452
(dp1453
g277
S'1'
sbsS'statement'
p1454
(idelphi
DelphiCompoundStatement
p1455
(dp1456
g250
(lp1457
(idelphi
DelphiIfStatement
p1458
(dp1459
g314
(idelphi
DelphiRelOp
p1460
(dp1461
g449
(i__main__
DelphiIdentAccess
p1462
(dp1463
g261
S'msg'
p1464
sg263
(lp1465
(idelphi
DelphiArrayEndAccess
p1466
(dp1467
g267
(lp1468
(i__main__
DelphiIdentAccess
p1469
(dp1470
g261
S'I'
sg263
(lp1471
sbasbasbsg471
(idelphi
DelphiStringAccess
p1472
(dp1473
g263
(lp1474
sg277
(idelphi
DelphiStringValue
p1475
(dp1476
g277
S' '
sbsbsg474
S'='
sbsg322
(idelphi
DelphiIfStatement
p1477
(dp1478
g314
(idelphi
DelphiRelOp
p1479
(dp1480
g449
(i__main__
DelphiIdentAccess
p1481
(dp1482
g261
S'msg'
p1483
sg263
(lp1484
(idelphi
DelphiArrayEndAccess
p1485
(dp1486
g267
(lp1487
(i__main__
DelphiIdentAccess
p1488
(dp1489
g261
S'I'
sg263
(lp1490
sbasbasbsg471
(idelphi
DelphiSetConstructor
p1491
(dp1492
S'setElementList'
p1493
(lp1494
(idelphi
DelphiSubrange
p1495
(dp1496
S'high'
p1497
(idelphi
DelphiStringAccess
p1498
(dp1499
g263
(lp1500
sg277
(idelphi
DelphiStringValue
p1501
(dp1502
g277
S'z'
sbsbsS'low'
p1503
(idelphi
DelphiStringAccess
p1504
(dp1505
g263
(lp1506
sg277
(idelphi
DelphiStringValue
p1507
(dp1508
g277
S'a'
sbsbsg35
S''
sba(idelphi
DelphiSubrange
p1509
(dp1510
g1497
(idelphi
DelphiStringAccess
p1511
(dp1512
g263
(lp1513
sg277
(idelphi
DelphiStringValue
p1514
(dp1515
g277
S'Z'
sbsbsg1503
(idelphi
DelphiStringAccess
p1516
(dp1517
g263
(lp1518
sg277
(idelphi
DelphiStringValue
p1519
(dp1520
g277
S'A'
sbsbsg35
S''
sbasbsg474
S'in'
p1521
sbsg322
(i__main__
DelphiAssignStatement
p1522
(dp1523
g254
(idelphi
DelphiAddOp
p1524
(dp1525
g257
S'+'
sg258
(i__main__
DelphiIdentAccess
p1526
(dp1527
g261
S'msg'
p1528
sg263
(lp1529
(idelphi
DelphiArrayEndAccess
p1530
(dp1531
g267
(lp1532
(i__main__
DelphiIdentAccess
p1533
(dp1534
g261
S'I'
sg263
(lp1535
sbasbasbsg273
(i__main__
DelphiIdentAccess
p1536
(dp1537
g261
S'Result'
p1538
sg263
(lp1539
sbsbsg281
(i__main__
DelphiIdentAccess
p1540
(dp1541
g261
S'Result'
p1542
sg263
(lp1543
sbsbsg338
(i__main__
DelphiAssignStatement
p1544
(dp1545
g254
(idelphi
DelphiAddOp
p1546
(dp1547
g257
S'+'
sg258
(i__main__
DelphiIdentAccess
p1548
(dp1549
g261
S'IntToHex'
p1550
sg263
(lp1551
(idelphi
DelphiFunctionEndAccess
p1552
(dp1553
g267
(lp1554
(i__main__
DelphiIdentAccess
p1555
(dp1556
g261
S'ord'
p1557
sg263
(lp1558
(idelphi
DelphiFunctionEndAccess
p1559
(dp1560
g267
(lp1561
(i__main__
DelphiIdentAccess
p1562
(dp1563
g261
S'msg'
p1564
sg263
(lp1565
(idelphi
DelphiArrayEndAccess
p1566
(dp1567
g267
(lp1568
(i__main__
DelphiIdentAccess
p1569
(dp1570
g261
S'I'
sg263
(lp1571
sbasbasbasbasba(idelphi
DelphiIntegerValue
p1572
(dp1573
g277
S'2'
sbasbasbsg273
(idelphi
DelphiAddOp
p1574
(dp1575
g257
S'+'
sg258
(idelphi
DelphiStringAccess
p1576
(dp1577
g263
(lp1578
sg277
(idelphi
DelphiStringValue
p1579
(dp1580
g277
S'%'
sbsbsg273
(i__main__
DelphiIdentAccess
p1581
(dp1582
g261
S'Result'
p1583
sg263
(lp1584
sbsbsbsg281
(i__main__
DelphiIdentAccess
p1585
(dp1586
g261
S'Result'
p1587
sg263
(lp1588
sbsbsbsg338
(i__main__
DelphiAssignStatement
p1589
(dp1590
g254
(idelphi
DelphiAddOp
p1591
(dp1592
g257
S'+'
sg258
(idelphi
DelphiStringAccess
p1593
(dp1594
g263
(lp1595
sg277
(idelphi
DelphiStringValue
p1596
(dp1597
g277
S'+'
sbsbsg273
(i__main__
DelphiIdentAccess
p1598
(dp1599
g261
S'Result'
p1600
sg263
(lp1601
sbsbsg281
(i__main__
DelphiIdentAccess
p1602
(dp1603
g261
S'Result'
p1604
sg263
(lp1605
sbsbsbasbsbasbsg354
(lp1606
(i__main__
DelphiVarSection
p1607
(dp1608
g1031
I0
sg1032
(lp1609
(idelphi
DelphiVarDecl
p1610
(dp1611
g1036
Nsg1037
(lp1612
S'I'
asg51
(i__main__
DelphiPrimitiveType
p1613
(dp1614
g54
S'integer'
p1615
sbsbasbasbsg419
(lp1616
S'* * * * * * * * * * * * * * * * * * * * * * * * * * * * * * * * * * * * * *'
p1617
aS' Encode the data to be sent to the CGI                                     '
p1618
asbasS'includedUnits'
p1619
NsS'implementationUses'
p1620
(lp1621
S'USConsoleForm'
p1622
asg35
S'usregistrationform'
p1623
sS'constSections'
p1624
(lp1625
sS'globalsInProperCase'
p1626
NsS'interfaceUses'
p1627
(lp1628
S'delphi_compatability'
p1629
aS'Windows'
p1630
aS'Messages'
p1631
aS'SysUtils'
p1632
aS'Classes'
p1633
aS'Graphics'
p1634
aS'Controls'
p1635
aS'Forms'
p1636
aS'Dialogs'
p1637
aS'StdCtrls'
p1638
aS'ExtCtrls'
p1639
aS'HttpProt'
p1640
asS'finalCommentToken'
p1641
(i__main__
PassStatement
p1642
(dp1643
g354
(lp1644
sbsS'varSections'
p1645
(lp1646
g1391
asS'globals'
p1647
NsS'originalFileName'
p1648
S'../../storyharp-js/converted_source/usregistrationform.pas'
p1649
sS'proceduralImplementations'
p1650
(dp1651
S'encode'
p1652
g1401
ssS'fileName'
p1653
S'/home/pdfernhout/workspace/storyharp-js/converted_source/usregistrationform.pas'
p1654
sS'proceduralDeclarations'
p1655
(dp1656
sS'types'
p1657
(dp1658
S'tregistrationform'
p1659
g5
ssb.