(i__main__
DelphiUnit
p1
(dp2
S'sectionsInOrderDefined'
p3
(lp4
(i__main__
DelphiClass
p5
(dp6
S'variableNamesInProperCase'
p7
(dp8
S'lastmatch'
p9
S'lastMatch'
p10
sS'fmustbeinlist'
p11
S'FMustBeInList'
p12
sS'fentryrequired'
p13
S'FEntryRequired'
p14
ssS'name'
p15
S'TQuickFillComboBox'
p16
sS'methodDeclarations'
p17
(dp18
S'combowndproc'
p19
(i__main__
DelphiMethodDeclaration
p20
(dp21
g15
S'ComboWndProc'
p22
sS'formalParameters'
p23
(lp24
(i__main__
DelphiFormalParameter
p25
(dp26
S'initialValue'
p27
NsS'names'
p28
(lp29
S'message'
p30
asS'theType'
p31
(i__main__
DelphiNamedType
p32
(dp33
S'typeName'
p34
S'TMessage'
p35
sS'unitDefinedIn'
p36
g1
sS'unitName'
p37
NsbsS'parameterVariety'
p38
S'var'
p39
sba(i__main__
DelphiFormalParameter
p40
(dp41
g27
Nsg28
(lp42
S'ComboWnd'
p43
asg31
(i__main__
DelphiNamedType
p44
(dp45
g34
S'HWnd'
p46
sg36
g1
sg37
Nsbsg38
Nsba(i__main__
DelphiFormalParameter
p47
(dp48
g27
Nsg28
(lp49
S'ComboProc'
p50
asg31
(i__main__
DelphiNamedType
p51
(dp52
g34
S'Pointer'
p53
sg36
g1
sg37
Nsbsg38
NsbasS'className'
p54
g16
sS'resultType'
p55
NsS'isClassMethod'
p56
I0
sS'methodType'
p57
S'procedure'
p58
sbsS'quickfillcomboboxkeypress'
p59
(i__main__
DelphiMethodDeclaration
p60
(dp61
g15
S'quickFillComboBoxKeyPress'
p62
sg23
(lp63
(i__main__
DelphiFormalParameter
p64
(dp65
g27
Nsg28
(lp66
S'Key'
p67
asg31
(i__main__
DelphiPrimitiveType
p68
(dp69
g34
S'word'
p70
sbsg38
g39
sbasg54
g16
sg55
Nsg56
I0
sg57
g58
sbsS'change'
p71
(i__main__
DelphiMethodDeclaration
p72
(dp73
g15
S'Change'
p74
sg23
(lp75
sg54
g16
sg55
Nsg56
I0
sg57
g58
sbsS'cbneditchange'
p76
(i__main__
DelphiMethodDeclaration
p77
(dp78
g15
S'CBNEditChange'
p79
sg23
(lp80
(i__main__
DelphiFormalParameter
p81
(dp82
g27
Nsg28
(lp83
S'MSG'
p84
asg31
(i__main__
DelphiNamedType
p85
(dp86
g34
S'Tmessage'
p87
sg36
g1
sg37
Nsbsg38
g39
sbasg54
g16
sg55
Nsg56
I0
sg57
g58
sS'commentLinesBefore'
p88
(lp89
S' Private declarations '
p90
aS' pdf hack test remove\r'
p91
aS' pdf hack - test remove\r'
p92
asbsS'findmatch'
p93
(i__main__
DelphiMethodDeclaration
p94
(dp95
g15
S'findMatch'
p96
sg23
(lp97
(i__main__
DelphiFormalParameter
p98
(dp99
g27
Nsg28
(lp100
S'match'
p101
asg31
(i__main__
DelphiPrimitiveType
p102
(dp103
g34
S'string'
p104
sbsg38
S'const'
p105
sbasg54
g16
sg55
(i__main__
DelphiPrimitiveType
p106
(dp107
g34
S'integer'
p108
sbsg56
I0
sg57
S'function'
p109
sg88
(lp110
S' Public declarations '
p111
asbssS'superclassNamedTypes'
p112
(lp113
(i__main__
DelphiNamedType
p114
(dp115
g34
S'TCustomComboBox'
p116
sg36
g1
sg37
NsbasS'variableNames'
p117
(dp118
S'lastmatch'
p119
(i__main__
DelphiPrimitiveType
p120
(dp121
g34
g104
sbsS'fmustbeinlist'
p122
(i__main__
DelphiPrimitiveType
p123
(dp124
g34
S'boolean'
p125
sbsS'fentryrequired'
p126
(i__main__
DelphiPrimitiveType
p127
(dp128
g34
g125
sbssS'methodNamesInDefinedOrder'
p129
(lp130
S'cbneditchange'
p131
aS'findmatch'
p132
aS'quickfillcomboboxkeypress'
p133
aS'combowndproc'
p134
aS'change'
p135
asS'methodImplementations'
p136
(dp137
S'change'
p138
(i__main__
DelphiMethodImplementation
p139
(dp140
S'originalDeclaration'
p141
g72
sg15
g74
sg23
(lp142
sS'varParamIndexes'
p143
(lp144
sS'varParamsSkipped'
p145
(lp146
sS'argNames'
p147
(lp148
S'self'
p149
asS'argTypes'
p150
(dp151
sg54
S'TQuickFillComboBox'
p152
sg55
NsS'varParamNames'
p153
(lp154
sg56
I0
sg57
g58
sS'block'
p155
(i__main__
DelphiBlock
p156
(dp157
S'compoundStatement'
p158
(idelphi
DelphiCompoundStatement
p159
(dp160
S'statements'
p161
(lp162
(idelphi
DelphiIfStatement
p163
(dp164
S'expression'
p165
(idelphi
DelphiMulOp
p166
(dp167
S'signedFactor2'
p168
(idelphi
DelphiNestedExpressionListAccess
p169
(dp170
S'endAccessList'
p171
(lp172
sS'expressionList'
p173
(lp174
(idelphi
DelphiRelOp
p175
(dp176
S'simpleExpression1'
p177
(i__main__
DelphiIdentAccess
p178
(dp179
S'ident'
p180
S'self'
p181
sg171
(lp182
(idelphi
DelphiFieldEndAccess
p183
(dp184
S'field'
p185
S'text'
p186
sbasbsS'simpleExpression2'
p187
(idelphi
DelphiStringAccess
p188
(dp189
g171
(lp190
sg104
(idelphi
DelphiStringValue
p191
(dp192
g104
S''
sbsbsS'relOp'
p193
S'<>'
p194
sbasbsS'mulOp'
p195
S'and'
p196
sS'signedFactor1'
p197
(i__main__
DelphiIdentAccess
p198
(dp199
g180
S'FMustBeInList'
p200
sg171
(lp201
sbsbsS'ifFalseStatement'
p202
NsS'ifTrueStatement'
p203
(idelphi
DelphiCompoundStatement
p204
(dp205
g161
(lp206
(idelphi
DelphiIfStatement
p207
(dp208
g165
(idelphi
DelphiNestedExpressionListAccess
p209
(dp210
g171
(lp211
sg173
(lp212
(idelphi
DelphiRelOp
p213
(dp214
g177
(i__main__
DelphiIdentAccess
p215
(dp216
g180
S'self'
p217
sg171
(lp218
(idelphi
DelphiFieldEndAccess
p219
(dp220
g185
S'items'
p221
sba(idelphi
DelphiFieldEndAccess
p222
(dp223
g185
S'count'
p224
sbasbsg187
(idelphi
DelphiIntegerValue
p225
(dp226
g104
S'0'
sbsg193
S'<='
p227
sbasbsg202
Nsg203
(idelphi
DelphiCompoundStatement
p228
(dp229
g161
(lp230
(i__main__
DelphiAssignStatement
p231
(dp232
S'newValueExpression'
p233
(idelphi
DelphiStringAccess
p234
(dp235
g171
(lp236
sg104
(idelphi
DelphiStringValue
p237
(dp238
g104
S''
sbsbsS'destinationExpression'
p239
(i__main__
DelphiIdentAccess
p240
(dp241
g180
S'self'
p242
sg171
(lp243
(idelphi
DelphiFieldEndAccess
p244
(dp245
g185
S'text'
p246
sbasbsba(i__main__
DelphiExitStatement
p247
(dp248
S'proceduralOrMethodImplementation'
p249
g139
sbasbsba(idelphi
DelphiIfStatement
p250
(dp251
g165
(idelphi
DelphiRelOp
p252
(dp253
g177
(i__main__
DelphiIdentAccess
p254
(dp255
g180
S'self'
p256
sg171
(lp257
(idelphi
DelphiFieldEndAccess
p258
(dp259
g185
S'findMatch'
p260
sba(idelphi
DelphiFunctionEndAccess
p261
(dp262
g173
(lp263
(i__main__
DelphiIdentAccess
p264
(dp265
g180
S'self'
p266
sg171
(lp267
(idelphi
DelphiFieldEndAccess
p268
(dp269
g185
S'text'
p270
sbasbasbasbsg187
(idelphi
DelphiIntegerValue
p271
(dp272
g104
S'0'
sbsg193
S'<'
sbsg202
Nsg203
(idelphi
DelphiCompoundStatement
p273
(dp274
g161
(lp275
(i__main__
DelphiAssignStatement
p276
(dp277
g233
(i__main__
DelphiIdentAccess
p278
(dp279
g180
S'self'
p280
sg171
(lp281
(idelphi
DelphiFieldEndAccess
p282
(dp283
g185
S'items'
p284
sba(idelphi
DelphiArrayEndAccess
p285
(dp286
g173
(lp287
(idelphi
DelphiIntegerValue
p288
(dp289
g104
S'0'
sbasbasbsg239
(i__main__
DelphiIdentAccess
p290
(dp291
g180
S'lastMatch'
p292
sg171
(lp293
sbsba(i__main__
DelphiAssignStatement
p294
(dp295
g233
(i__main__
DelphiIdentAccess
p296
(dp297
g180
S'lastMatch'
p298
sg171
(lp299
sbsg239
(i__main__
DelphiIdentAccess
p300
(dp301
g180
S'self'
p302
sg171
(lp303
(idelphi
DelphiFieldEndAccess
p304
(dp305
g185
S'text'
p306
sbasbsba(i__main__
DelphiAssignStatement
p307
(dp308
g233
(idelphi
DelphiIntegerValue
p309
(dp310
g104
S'0'
sbsg239
(i__main__
DelphiIdentAccess
p311
(dp312
g180
S'self'
p313
sg171
(lp314
(idelphi
DelphiFieldEndAccess
p315
(dp316
g185
S'selStart'
p317
sbasbsba(i__main__
DelphiAssignStatement
p318
(dp319
g233
(idelphi
DelphiIntegerValue
p320
(dp321
g104
S'0'
sbsg239
(i__main__
DelphiIdentAccess
p322
(dp323
g180
S'self'
p324
sg171
(lp325
(idelphi
DelphiFieldEndAccess
p326
(dp327
g185
S'selLength'
p328
sbasbsbasbsbasbsba(idelphi
DelphiIfStatement
p329
(dp330
g165
(idelphi
DelphiMulOp
p331
(dp332
g168
(idelphi
DelphiNestedExpressionListAccess
p333
(dp334
g171
(lp335
sg173
(lp336
(idelphi
DelphiRelOp
p337
(dp338
g177
(i__main__
DelphiIdentAccess
p339
(dp340
g180
S'self'
p341
sg171
(lp342
(idelphi
DelphiFieldEndAccess
p343
(dp344
g185
S'items'
p345
sba(idelphi
DelphiFieldEndAccess
p346
(dp347
g185
S'count'
p348
sbasbsg187
(idelphi
DelphiIntegerValue
p349
(dp350
g104
S'0'
sbsg193
S'>'
sbasbsg195
g196
sg197
(idelphi
DelphiMulOp
p351
(dp352
g168
(i__main__
DelphiIdentAccess
p353
(dp354
g180
S'FEntryRequired'
p355
sg171
(lp356
sbsg195
g196
sg197
(idelphi
DelphiNestedExpressionListAccess
p357
(dp358
g171
(lp359
sg173
(lp360
(idelphi
DelphiRelOp
p361
(dp362
g177
(i__main__
DelphiIdentAccess
p363
(dp364
g180
S'self'
p365
sg171
(lp366
(idelphi
DelphiFieldEndAccess
p367
(dp368
g185
S'text'
p369
sbasbsg187
(idelphi
DelphiStringAccess
p370
(dp371
g171
(lp372
sg104
(idelphi
DelphiStringValue
p373
(dp374
g104
S''
sbsbsg193
S'='
sbasbsbsbsg202
Nsg203
(idelphi
DelphiCompoundStatement
p375
(dp376
g161
(lp377
(i__main__
DelphiAssignStatement
p378
(dp379
g233
(i__main__
DelphiIdentAccess
p380
(dp381
g180
S'self'
p382
sg171
(lp383
(idelphi
DelphiFieldEndAccess
p384
(dp385
g185
S'items'
p386
sba(idelphi
DelphiArrayEndAccess
p387
(dp388
g173
(lp389
(idelphi
DelphiIntegerValue
p390
(dp391
g104
S'0'
sbasbasbsg239
(i__main__
DelphiIdentAccess
p392
(dp393
g180
S'lastMatch'
p394
sg171
(lp395
sbsba(i__main__
DelphiAssignStatement
p396
(dp397
g233
(i__main__
DelphiIdentAccess
p398
(dp399
g180
S'lastMatch'
p400
sg171
(lp401
sbsg239
(i__main__
DelphiIdentAccess
p402
(dp403
g180
S'self'
p404
sg171
(lp405
(idelphi
DelphiFieldEndAccess
p406
(dp407
g185
S'Text'
p408
sbasbsbasbsba(i__main__
DelphiAssignStatement
p409
(dp410
g233
Nsg239
(idelphi
DelphiInheritedCall
p411
(dp412
g180
S'Change'
p413
sg173
NsbsbasbsS'limitedDeclSectionList'
p414
(lp415
sbsbsS'combowndproc'
p416
(i__main__
DelphiMethodImplementation
p417
(dp418
g141
g20
sg15
g22
sg23
(lp419
(i__main__
DelphiFormalParameter
p420
(dp421
g27
Nsg28
(lp422
S'TheMessage'
p423
asg31
(i__main__
DelphiNamedType
p424
(dp425
g34
S'TMessage'
p426
sg36
g1
sg37
Nsbsg38
g39
sba(i__main__
DelphiFormalParameter
p427
(dp428
g27
Nsg28
(lp429
S'ComboWnd'
p430
asg31
(i__main__
DelphiNamedType
p431
(dp432
g34
S'HWnd'
p433
sg36
g1
sg37
Nsbsg38
Nsba(i__main__
DelphiFormalParameter
p434
(dp435
g27
Nsg28
(lp436
S'ComboProc'
p437
asg31
(i__main__
DelphiNamedType
p438
(dp439
g34
S'Pointer'
p440
sg36
g1
sg37
Nsbsg38
Nsbasg143
(lp441
sg145
(lp442
g423
asg147
(lp443
g149
ag423
ag430
ag437
asg150
(dp444
g430
g431
sg423
g424
sg437
g438
ssg54
S'TQuickFillComboBox'
p445
sg55
Nsg153
(lp446
sg56
I0
sg57
g58
sg155
(i__main__
DelphiBlock
p447
(dp448
g158
(idelphi
DelphiCompoundStatement
p449
(dp450
g161
(lp451
(idelphi
DelphiTryExceptStatement
p452
(dp453
S'tryStatements'
p454
(lp455
(idelphi
DelphiWithStatement
p456
(dp457
S'statement'
p458
(idelphi
DelphiCompoundStatement
p459
(dp460
g161
(lp461
(idelphi
DelphiCaseStatement
p462
(dp463
S'elseStatement'
p464
Nsg165
(i__main__
DelphiIdentAccess
p465
(dp466
g180
S'Msg'
p467
sg171
(lp468
sbsS'caseSelectorList'
p469
(lp470
(idelphi
DelphiCaseSelector
p471
(dp472
g458
(idelphi
DelphiCompoundStatement
p473
(dp474
g161
(lp475
(idelphi
DelphiIfStatement
p476
(dp477
g165
(idelphi
DelphiRelOp
p478
(dp479
g177
(i__main__
DelphiIdentAccess
p480
(dp481
g180
S'self'
p482
sg171
(lp483
(idelphi
DelphiFieldEndAccess
p484
(dp485
g185
S'style'
p486
sbasbsg187
(i__main__
DelphiIdentAccess
p487
(dp488
g180
S'csDropDownList'
p489
sg171
(lp490
sbsg193
g194
sbsg202
Nsg203
(i__main__
DelphiAssignStatement
p491
(dp492
g233
Nsg239
(i__main__
DelphiIdentAccess
p493
(dp494
g180
S'self'
p495
sg171
(lp496
(idelphi
DelphiFieldEndAccess
p497
(dp498
g185
S'quickFillComboBoxKeyPress'
p499
sba(idelphi
DelphiFunctionEndAccess
p500
(dp501
g173
(lp502
(i__main__
DelphiIdentAccess
p503
(dp504
g180
S'TWMKey'
p505
sg171
(lp506
(idelphi
DelphiFunctionEndAccess
p507
(dp508
g173
(lp509
(i__main__
DelphiIdentAccess
p510
(dp511
g180
S'TheMessage'
p512
sg171
(lp513
sbasba(idelphi
DelphiFieldEndAccess
p514
(dp515
g185
S'charCode'
p516
sbasbasbasbsbsbasbsS'caseLabelList'
p517
(lp518
(i__main__
DelphiIdentAccess
p519
(dp520
g180
S'WM_CHAR'
p521
sg171
(lp522
sbasba(idelphi
DelphiCaseSelector
p523
(dp524
g458
(idelphi
DelphiCompoundStatement
p525
(dp526
g161
(lp527
(i__main__
DelphiAssignStatement
p528
(dp529
g233
Nsg239
(i__main__
DelphiIdentAccess
p530
(dp531
g180
S'Dispatch'
p532
sg171
(lp533
(idelphi
DelphiFunctionEndAccess
p534
(dp535
g173
(lp536
(i__main__
DelphiIdentAccess
p537
(dp538
g180
S'TheMessage'
p539
sg171
(lp540
sbasbasbsbasbsg517
(lp541
(i__main__
DelphiIdentAccess
p542
(dp543
g180
S'CBN_EDITUPDATE'
p544
sg171
(lp545
sbasba(idelphi
DelphiCaseSelector
p546
(dp547
g458
(idelphi
DelphiCompoundStatement
p548
(dp549
g161
(lp550
(i__main__
DelphiAssignStatement
p551
(dp552
g233
Nsg239
(i__main__
DelphiIdentAccess
p553
(dp554
g180
S'Dispatch'
p555
sg171
(lp556
(idelphi
DelphiFunctionEndAccess
p557
(dp558
g173
(lp559
(i__main__
DelphiIdentAccess
p560
(dp561
g180
S'TheMessage'
p562
sg171
(lp563
sbasbasbsbasbsg517
(lp564
(i__main__
DelphiIdentAccess
p565
(dp566
g180
S'WM_LBUTTONUP'
p567
sg171
(lp568
sbasbasba(i__main__
DelphiAssignStatement
p569
(dp570
g233
Nsg239
(idelphi
DelphiInheritedCall
p571
(dp572
g180
S'ComboWndProc'
p573
sg173
(lp574
(i__main__
DelphiIdentAccess
p575
(dp576
g180
S'TheMessage'
p577
sg171
(lp578
sba(i__main__
DelphiIdentAccess
p579
(dp580
g180
S'ComboWnd'
p581
sg171
(lp582
sba(i__main__
DelphiIdentAccess
p583
(dp584
g180
S'ComboProc'
p585
sg171
(lp586
sbasbsbasbsS'variableReferenceList'
p587
(lp588
(i__main__
DelphiIdentAccess
p589
(dp590
g180
S'TheMessage'
p591
sg171
(lp592
sbasbasS'exceptionHandlers'
p593
(idelphi
DelphiExceptionHandlers
p594
(dp595
S'exceptionHandlerList'
p596
NsS'statementList'
p597
(lp598
(i__main__
DelphiAssignStatement
p599
(dp600
g233
Nsg239
(i__main__
DelphiIdentAccess
p601
(dp602
g180
S'Application'
p603
sg171
(lp604
(idelphi
DelphiFieldEndAccess
p605
(dp606
g185
S'HandleException'
p607
sba(idelphi
DelphiFunctionEndAccess
p608
(dp609
g173
(lp610
(i__main__
DelphiIdentAccess
p611
(dp612
g180
S'Self'
p613
sg171
(lp614
sbasbasbsbasbsbasbsg414
(lp615
sbsg88
(lp616
S' PDF PORT changed Message to TheMessage as used in with and gramamr did not like that\r'
p617
asbsS'quickfillcomboboxkeypress'
p618
(i__main__
DelphiMethodImplementation
p619
(dp620
g141
g60
sg15
g62
sg23
(lp621
(i__main__
DelphiFormalParameter
p622
(dp623
g27
Nsg28
(lp624
S'Key'
p625
asg31
(i__main__
DelphiPrimitiveType
p626
(dp627
g34
g70
sbsg38
g39
sbasg143
(lp628
I0
asg145
(lp629
sg147
(lp630
g149
ag625
asg150
(dp631
g625
g626
ssg54
S'TQuickFillComboBox'
p632
sg55
Nsg153
(lp633
g625
asg56
I0
sg57
g58
sg155
(i__main__
DelphiBlock
p634
(dp635
g158
(idelphi
DelphiCompoundStatement
p636
(dp637
g161
(lp638
(idelphi
DelphiIfStatement
p639
(dp640
g165
(idelphi
DelphiRelOp
p641
(dp642
g177
(i__main__
DelphiIdentAccess
p643
(dp644
g180
S'self'
p645
sg171
(lp646
(idelphi
DelphiFieldEndAccess
p647
(dp648
g185
S'Text'
p649
sbasbsg187
(idelphi
DelphiStringAccess
p650
(dp651
g171
(lp652
sg104
(idelphi
DelphiStringValue
p653
(dp654
g104
S''
sbsbsg193
S'='
sbsg202
Nsg203
(idelphi
DelphiCompoundStatement
p655
(dp656
g161
(lp657
(i__main__
DelphiAssignStatement
p658
(dp659
g233
(idelphi
DelphiStringAccess
p660
(dp661
g171
(lp662
sg104
(idelphi
DelphiStringValue
p663
(dp664
g104
S''
sbsbsg239
(i__main__
DelphiIdentAccess
p665
(dp666
g180
S'lastMatch'
p667
sg171
(lp668
sbsg88
(lp669
S'reset if empty'
p670
asbasbsba(i__main__
DelphiAssignStatement
p671
(dp672
g233
(idelphi
DelphiRelOp
p673
(dp674
g177
(idelphi
DelphiNestedExpressionListAccess
p675
(dp676
g171
(lp677
sg173
(lp678
(idelphi
DelphiAddOp
p679
(dp680
S'addOp'
p681
S'+'
sS'term2'
p682
(i__main__
DelphiIdentAccess
p683
(dp684
g180
S'self'
p685
sg171
(lp686
(idelphi
DelphiFieldEndAccess
p687
(dp688
g185
S'SelLength'
p689
sbasbsS'term1'
p690
(i__main__
DelphiIdentAccess
p691
(dp692
g180
S'self'
p693
sg171
(lp694
(idelphi
DelphiFieldEndAccess
p695
(dp696
g185
S'selStart'
p697
sbasbsbasbsg187
(i__main__
DelphiIdentAccess
p698
(dp699
g180
S'Length'
p700
sg171
(lp701
(idelphi
DelphiFunctionEndAccess
p702
(dp703
g173
(lp704
(i__main__
DelphiIdentAccess
p705
(dp706
g180
S'self'
p707
sg171
(lp708
(idelphi
DelphiFieldEndAccess
p709
(dp710
g185
S'text'
p711
sbasbasbasbsg193
S'='
sbsg239
(i__main__
DelphiIdentAccess
p712
(dp713
g180
S'atEnd'
p714
sg171
(lp715
sbsg88
(lp716
S'compensate for selection about to replace'
p717
asba(idelphi
DelphiIfStatement
p718
(dp719
g165
(idelphi
DelphiNot
p720
(dp721
S'factor'
p722
(i__main__
DelphiIdentAccess
p723
(dp724
g180
S'atEnd'
p725
sg171
(lp726
sbsbsg202
Nsg203
(idelphi
DelphiIfStatement
p727
(dp728
g165
(idelphi
DelphiAddOp
p729
(dp730
g681
S'or'
p731
sg682
(idelphi
DelphiNestedExpressionListAccess
p732
(dp733
g171
(lp734
sg173
(lp735
(idelphi
DelphiRelOp
p736
(dp737
g177
(i__main__
DelphiIdentAccess
p738
(dp739
g180
S'self'
p740
sg171
(lp741
(idelphi
DelphiFieldEndAccess
p742
(dp743
g185
S'SelLength'
p744
sbasbsg187
(idelphi
DelphiIntegerValue
p745
(dp746
g104
S'0'
sbsg193
g194
sbasbsg690
(idelphi
DelphiNestedExpressionListAccess
p747
(dp748
g171
(lp749
sg173
(lp750
(idelphi
DelphiRelOp
p751
(dp752
g177
(i__main__
DelphiIdentAccess
p753
(dp754
g180
S'self'
p755
sg171
(lp756
(idelphi
DelphiFieldEndAccess
p757
(dp758
g185
S'text'
p759
sbasbsg187
(i__main__
DelphiIdentAccess
p760
(dp761
g180
S'lastMatch'
p762
sg171
(lp763
sbsg193
g194
sbasbsbsg202
Nsg203
(idelphi
DelphiCompoundStatement
p764
(dp765
g161
(lp766
(idelphi
DelphiIfStatement
p767
(dp768
g165
(i__main__
DelphiIdentAccess
p769
(dp770
g180
S'FMustBeInList'
p771
sg171
(lp772
sbsg202
(i__main__
DelphiAssignStatement
p773
(dp774
g233
(idelphi
DelphiStringAccess
p775
(dp776
g171
(lp777
sg104
(idelphi
DelphiStringValue
p778
(dp779
g104
S''
sbsbsg239
(i__main__
DelphiIdentAccess
p780
(dp781
g180
S'lastMatch'
p782
sg171
(lp783
sbsbsg203
(idelphi
DelphiCompoundStatement
p784
(dp785
g161
(lp786
(idelphi
DelphiIfStatement
p787
(dp788
g165
(idelphi
DelphiMulOp
p789
(dp790
g168
(idelphi
DelphiNestedExpressionListAccess
p791
(dp792
g171
(lp793
sg173
(lp794
(idelphi
DelphiRelOp
p795
(dp796
g177
(i__main__
DelphiIdentAccess
p797
(dp798
g180
S'selStart'
p799
sg171
(lp800
sbsg187
(idelphi
DelphiIntegerValue
p801
(dp802
g104
S'0'
sbsg193
S'>'
sbasbsg195
g196
sg197
(idelphi
DelphiNestedExpressionListAccess
p803
(dp804
g171
(lp805
sg173
(lp806
(idelphi
DelphiRelOp
p807
(dp808
g177
(i__main__
DelphiIdentAccess
p809
(dp810
g180
S'key'
p811
sg171
(lp812
sbsg187
(idelphi
DelphiIntegerValue
p813
(dp814
g104
S'8'
sbsg193
S'='
sbasbsbsg202
Nsg203
(i__main__
DelphiAssignStatement
p815
(dp816
g233
(idelphi
DelphiAddOp
p817
(dp818
g681
S'-'
sg682
(idelphi
DelphiIntegerValue
p819
(dp820
g104
S'1'
sbsg690
(i__main__
DelphiIdentAccess
p821
(dp822
g180
S'selStart'
p823
sg171
(lp824
sbsbsg239
(i__main__
DelphiIdentAccess
p825
(dp826
g180
S'selStart'
p827
sg171
(lp828
sbsbsba(i__main__
DelphiAssignStatement
p829
(dp830
g233
(idelphi
DelphiIntegerValue
p831
(dp832
g104
S'0'
sbsg239
(i__main__
DelphiIdentAccess
p833
(dp834
g180
S'key'
p835
sg171
(lp836
sbsg88
(lp837
S'eat key'
p838
asbasbsba(idelphi
DelphiIfStatement
p839
(dp840
g165
(idelphi
DelphiMulOp
p841
(dp842
g168
(idelphi
DelphiNestedExpressionListAccess
p843
(dp844
g171
(lp845
sg173
(lp846
(idelphi
DelphiRelOp
p847
(dp848
g177
(i__main__
DelphiIdentAccess
p849
(dp850
g180
S'self'
p851
sg171
(lp852
(idelphi
DelphiFieldEndAccess
p853
(dp854
g185
S'items'
p855
sba(idelphi
DelphiFieldEndAccess
p856
(dp857
g185
S'count'
p858
sbasbsg187
(idelphi
DelphiIntegerValue
p859
(dp860
g104
S'0'
sbsg193
S'>'
sbasbsg195
g196
sg197
(idelphi
DelphiMulOp
p861
(dp862
g168
(i__main__
DelphiIdentAccess
p863
(dp864
g180
S'FEntryRequired'
p865
sg171
(lp866
sbsg195
g196
sg197
(idelphi
DelphiNestedExpressionListAccess
p867
(dp868
g171
(lp869
sg173
(lp870
(idelphi
DelphiRelOp
p871
(dp872
g177
(i__main__
DelphiIdentAccess
p873
(dp874
g180
S'self'
p875
sg171
(lp876
(idelphi
DelphiFieldEndAccess
p877
(dp878
g185
S'text'
p879
sbasbsg187
(idelphi
DelphiStringAccess
p880
(dp881
g171
(lp882
sg104
(idelphi
DelphiStringValue
p883
(dp884
g104
S''
sbsbsg193
S'='
sbasbsbsbsg202
Nsg203
(idelphi
DelphiCompoundStatement
p885
(dp886
g161
(lp887
(i__main__
DelphiAssignStatement
p888
(dp889
g233
(idelphi
DelphiIntegerValue
p890
(dp891
g104
S'0'
sbsg239
(i__main__
DelphiIdentAccess
p892
(dp893
g180
S'key'
p894
sg171
(lp895
sbsg88
(lp896
S'eat key'
p897
asba(i__main__
DelphiAssignStatement
p898
(dp899
g233
(i__main__
DelphiIdentAccess
p900
(dp901
g180
S'self'
p902
sg171
(lp903
(idelphi
DelphiFieldEndAccess
p904
(dp905
g185
S'items'
p906
sba(idelphi
DelphiArrayEndAccess
p907
(dp908
g173
(lp909
(idelphi
DelphiIntegerValue
p910
(dp911
g104
S'0'
sbasbasbsg239
(i__main__
DelphiIdentAccess
p912
(dp913
g180
S'lastMatch'
p914
sg171
(lp915
sbsba(i__main__
DelphiAssignStatement
p916
(dp917
g233
(i__main__
DelphiIdentAccess
p918
(dp919
g180
S'lastMatch'
p920
sg171
(lp921
sbsg239
(i__main__
DelphiIdentAccess
p922
(dp923
g180
S'self'
p924
sg171
(lp925
(idelphi
DelphiFieldEndAccess
p926
(dp927
g185
S'Text'
p928
sbasbsbasbsba(i__main__
DelphiExitStatement
p929
(dp930
g249
g619
sbasbsbsba(idelphi
DelphiIfStatement
p931
(dp932
g165
(idelphi
DelphiRelOp
p933
(dp934
g177
(i__main__
DelphiIdentAccess
p935
(dp936
g180
S'key'
p937
sg171
(lp938
sbsg187
(idelphi
DelphiIntegerValue
p939
(dp940
g104
S'8'
sbsg193
S'='
sbsg202
(idelphi
DelphiIfStatement
p941
(dp942
g165
(idelphi
DelphiRelOp
p943
(dp944
g177
(i__main__
DelphiIdentAccess
p945
(dp946
g180
S'key'
p947
sg171
(lp948
sbsg187
(idelphi
DelphiIntegerValue
p949
(dp950
g104
S'32'
p951
sbsg193
S'<'
sbsg202
(i__main__
DelphiAssignStatement
p952
(dp953
g233
(idelphi
DelphiAddOp
p954
(dp955
g681
S'+'
sg682
(i__main__
DelphiValueTypecastAccess
p956
(dp957
S'valueTypecast'
p958
(i__main__
DelphiValueTypecast
p959
(dp960
g165
(i__main__
DelphiIdentAccess
p961
(dp962
g180
S'key'
p963
sg171
(lp964
sbsS'typeIdentPredefined'
p965
(i__main__
DelphiPrimitiveType
p966
(dp967
g34
S'char'
p968
sbsbsg171
(lp969
sbsg690
(i__main__
DelphiIdentAccess
p970
(dp971
g180
S'Copy'
p972
sg171
(lp973
(idelphi
DelphiFunctionEndAccess
p974
(dp975
g173
(lp976
(i__main__
DelphiIdentAccess
p977
(dp978
g180
S'self'
p979
sg171
(lp980
(idelphi
DelphiFieldEndAccess
p981
(dp982
g185
S'Text'
p983
sbasba(idelphi
DelphiIntegerValue
p984
(dp985
g104
S'1'
sba(i__main__
DelphiIdentAccess
p986
(dp987
g180
S'self'
p988
sg171
(lp989
(idelphi
DelphiFieldEndAccess
p990
(dp991
g185
S'selStart'
p992
sbasbasbasbsbsg239
(i__main__
DelphiIdentAccess
p993
(dp994
g180
S'startText'
p995
sg171
(lp996
sbsbsg203
(idelphi
DelphiCompoundStatement
p997
(dp998
g161
(lp999
(i__main__
DelphiAssignStatement
p1000
(dp1001
g233
(idelphi
DelphiStringAccess
p1002
(dp1003
g171
(lp1004
sg104
(idelphi
DelphiStringValue
p1005
(dp1006
g104
S''
sbsbsg239
(i__main__
DelphiIdentAccess
p1007
(dp1008
g180
S'lastMatch'
p1009
sg171
(lp1010
sbsg88
(lp1011
S"don't process control keys - low asciii values"
p1012
asba(idelphi
DelphiIfStatement
p1013
(dp1014
g165
(idelphi
DelphiMulOp
p1015
(dp1016
g168
(idelphi
DelphiNestedExpressionListAccess
p1017
(dp1018
g171
(lp1019
sg173
(lp1020
(idelphi
DelphiRelOp
p1021
(dp1022
g177
(i__main__
DelphiIdentAccess
p1023
(dp1024
g180
S'self'
p1025
sg171
(lp1026
(idelphi
DelphiFieldEndAccess
p1027
(dp1028
g185
S'items'
p1029
sba(idelphi
DelphiFieldEndAccess
p1030
(dp1031
g185
S'count'
p1032
sbasbsg187
(idelphi
DelphiIntegerValue
p1033
(dp1034
g104
S'0'
sbsg193
S'>'
sbasbsg195
g196
sg197
(idelphi
DelphiMulOp
p1035
(dp1036
g168
(i__main__
DelphiIdentAccess
p1037
(dp1038
g180
S'FEntryRequired'
p1039
sg171
(lp1040
sbsg195
g196
sg197
(idelphi
DelphiNestedExpressionListAccess
p1041
(dp1042
g171
(lp1043
sg173
(lp1044
(idelphi
DelphiRelOp
p1045
(dp1046
g177
(i__main__
DelphiIdentAccess
p1047
(dp1048
g180
S'self'
p1049
sg171
(lp1050
(idelphi
DelphiFieldEndAccess
p1051
(dp1052
g185
S'text'
p1053
sbasbsg187
(idelphi
DelphiStringAccess
p1054
(dp1055
g171
(lp1056
sg104
(idelphi
DelphiStringValue
p1057
(dp1058
g104
S''
sbsbsg193
S'='
sbasbsbsbsg202
Nsg203
(idelphi
DelphiCompoundStatement
p1059
(dp1060
g161
(lp1061
(i__main__
DelphiAssignStatement
p1062
(dp1063
g233
(i__main__
DelphiIdentAccess
p1064
(dp1065
g180
S'self'
p1066
sg171
(lp1067
(idelphi
DelphiFieldEndAccess
p1068
(dp1069
g185
S'items'
p1070
sba(idelphi
DelphiArrayEndAccess
p1071
(dp1072
g173
(lp1073
(idelphi
DelphiIntegerValue
p1074
(dp1075
g104
S'0'
sbasbasbsg239
(i__main__
DelphiIdentAccess
p1076
(dp1077
g180
S'lastMatch'
p1078
sg171
(lp1079
sbsba(i__main__
DelphiAssignStatement
p1080
(dp1081
g233
(i__main__
DelphiIdentAccess
p1082
(dp1083
g180
S'lastMatch'
p1084
sg171
(lp1085
sbsg239
(i__main__
DelphiIdentAccess
p1086
(dp1087
g180
S'self'
p1088
sg171
(lp1089
(idelphi
DelphiFieldEndAccess
p1090
(dp1091
g185
S'Text'
p1092
sbasbsbasbsba(i__main__
DelphiExitStatement
p1093
(dp1094
g249
g619
sbasbsbsg203
(idelphi
DelphiCompoundStatement
p1095
(dp1096
g161
(lp1097
(idelphi
DelphiIfStatement
p1098
(dp1099
g165
(idelphi
DelphiRelOp
p1100
(dp1101
g177
(i__main__
DelphiIdentAccess
p1102
(dp1103
g180
S'self'
p1104
sg171
(lp1105
(idelphi
DelphiFieldEndAccess
p1106
(dp1107
g185
S'SelLength'
p1108
sbasbsg187
(idelphi
DelphiIntegerValue
p1109
(dp1110
g104
S'0'
sbsg193
S'='
sbsg202
(i__main__
DelphiAssignStatement
p1111
(dp1112
g233
(i__main__
DelphiIdentAccess
p1113
(dp1114
g180
S'Copy'
p1115
sg171
(lp1116
(idelphi
DelphiFunctionEndAccess
p1117
(dp1118
g173
(lp1119
(i__main__
DelphiIdentAccess
p1120
(dp1121
g180
S'self'
p1122
sg171
(lp1123
(idelphi
DelphiFieldEndAccess
p1124
(dp1125
g185
S'Text'
p1126
sbasba(idelphi
DelphiIntegerValue
p1127
(dp1128
g104
S'1'
sba(i__main__
DelphiIdentAccess
p1129
(dp1130
g180
S'self'
p1131
sg171
(lp1132
(idelphi
DelphiFieldEndAccess
p1133
(dp1134
g185
S'selStart'
p1135
sbasbasbasbsg239
(i__main__
DelphiIdentAccess
p1136
(dp1137
g180
S'startText'
p1138
sg171
(lp1139
sbsbsg203
(idelphi
DelphiCompoundStatement
p1140
(dp1141
g161
(lp1142
(i__main__
DelphiAssignStatement
p1143
(dp1144
g233
(i__main__
DelphiIdentAccess
p1145
(dp1146
g180
S'Copy'
p1147
sg171
(lp1148
(idelphi
DelphiFunctionEndAccess
p1149
(dp1150
g173
(lp1151
(i__main__
DelphiIdentAccess
p1152
(dp1153
g180
S'self'
p1154
sg171
(lp1155
(idelphi
DelphiFieldEndAccess
p1156
(dp1157
g185
S'Text'
p1158
sbasba(idelphi
DelphiIntegerValue
p1159
(dp1160
g104
S'1'
sba(idelphi
DelphiAddOp
p1161
(dp1162
g681
S'-'
sg682
(idelphi
DelphiIntegerValue
p1163
(dp1164
g104
S'1'
sbsg690
(i__main__
DelphiIdentAccess
p1165
(dp1166
g180
S'self'
p1167
sg171
(lp1168
(idelphi
DelphiFieldEndAccess
p1169
(dp1170
g185
S'selStart'
p1171
sbasbsbasbasbsg239
(i__main__
DelphiIdentAccess
p1172
(dp1173
g180
S'startText'
p1174
sg171
(lp1175
sbsba(idelphi
DelphiIfStatement
p1176
(dp1177
g165
(idelphi
DelphiRelOp
p1178
(dp1179
g177
(i__main__
DelphiIdentAccess
p1180
(dp1181
g180
S'selStart'
p1182
sg171
(lp1183
sbsg187
(idelphi
DelphiIntegerValue
p1184
(dp1185
g104
S'0'
sbsg193
S'>'
sbsg202
Nsg203
(i__main__
DelphiAssignStatement
p1186
(dp1187
g233
(idelphi
DelphiAddOp
p1188
(dp1189
g681
S'-'
sg682
(idelphi
DelphiIntegerValue
p1190
(dp1191
g104
S'1'
sbsg690
(i__main__
DelphiIdentAccess
p1192
(dp1193
g180
S'selStart'
p1194
sg171
(lp1195
sbsbsg239
(i__main__
DelphiIdentAccess
p1196
(dp1197
g180
S'selStart'
p1198
sg171
(lp1199
sbsbsbasbsbasbsba(i__main__
DelphiAssignStatement
p1200
(dp1201
g233
(idelphi
DelphiIntegerValue
p1202
(dp1203
g104
S'0'
sbsg239
(i__main__
DelphiIdentAccess
p1204
(dp1205
g180
S'Key'
p1206
sg171
(lp1207
sbsba(idelphi
DelphiIfStatement
p1208
(dp1209
g165
(idelphi
DelphiRelOp
p1210
(dp1211
g177
(i__main__
DelphiIdentAccess
p1212
(dp1213
g180
S'startText'
p1214
sg171
(lp1215
sbsg187
(idelphi
DelphiStringAccess
p1216
(dp1217
g171
(lp1218
sg104
(idelphi
DelphiStringValue
p1219
(dp1220
g104
S''
sbsbsg193
S'='
sbsg202
Nsg203
(idelphi
DelphiCompoundStatement
p1221
(dp1222
g161
(lp1223
(idelphi
DelphiIfStatement
p1224
(dp1225
g165
(idelphi
DelphiMulOp
p1226
(dp1227
g168
(idelphi
DelphiNestedExpressionListAccess
p1228
(dp1229
g171
(lp1230
sg173
(lp1231
(idelphi
DelphiRelOp
p1232
(dp1233
g177
(i__main__
DelphiIdentAccess
p1234
(dp1235
g180
S'self'
p1236
sg171
(lp1237
(idelphi
DelphiFieldEndAccess
p1238
(dp1239
g185
S'items'
p1240
sba(idelphi
DelphiFieldEndAccess
p1241
(dp1242
g185
S'count'
p1243
sbasbsg187
(idelphi
DelphiIntegerValue
p1244
(dp1245
g104
S'0'
sbsg193
S'>'
sbasbsg195
g196
sg197
(i__main__
DelphiIdentAccess
p1246
(dp1247
g180
S'FEntryRequired'
p1248
sg171
(lp1249
sbsbsg202
(idelphi
DelphiCompoundStatement
p1250
(dp1251
g161
(lp1252
(i__main__
DelphiAssignStatement
p1253
(dp1254
g233
(idelphi
DelphiStringAccess
p1255
(dp1256
g171
(lp1257
sg104
(idelphi
DelphiStringValue
p1258
(dp1259
g104
S''
sbsbsg239
(i__main__
DelphiIdentAccess
p1260
(dp1261
g180
S'self'
p1262
sg171
(lp1263
(idelphi
DelphiFieldEndAccess
p1264
(dp1265
g185
S'Text'
p1266
sbasbsba(i__main__
DelphiAssignStatement
p1267
(dp1268
g233
(idelphi
DelphiStringAccess
p1269
(dp1270
g171
(lp1271
sg104
(idelphi
DelphiStringValue
p1272
(dp1273
g104
S''
sbsbsg239
(i__main__
DelphiIdentAccess
p1274
(dp1275
g180
S'lastMatch'
p1276
sg171
(lp1277
sbsbasbsg203
(idelphi
DelphiCompoundStatement
p1278
(dp1279
g161
(lp1280
(i__main__
DelphiAssignStatement
p1281
(dp1282
g233
(i__main__
DelphiIdentAccess
p1283
(dp1284
g180
S'self'
p1285
sg171
(lp1286
(idelphi
DelphiFieldEndAccess
p1287
(dp1288
g185
S'items'
p1289
sba(idelphi
DelphiArrayEndAccess
p1290
(dp1291
g173
(lp1292
(idelphi
DelphiIntegerValue
p1293
(dp1294
g104
S'0'
sbasbasbsg239
(i__main__
DelphiIdentAccess
p1295
(dp1296
g180
S'lastMatch'
p1297
sg171
(lp1298
sbsba(i__main__
DelphiAssignStatement
p1299
(dp1300
g233
(i__main__
DelphiIdentAccess
p1301
(dp1302
g180
S'lastMatch'
p1303
sg171
(lp1304
sbsg239
(i__main__
DelphiIdentAccess
p1305
(dp1306
g180
S'self'
p1307
sg171
(lp1308
(idelphi
DelphiFieldEndAccess
p1309
(dp1310
g185
S'Text'
p1311
sbasbsbasbsba(i__main__
DelphiExitStatement
p1312
(dp1313
g249
g619
sbasbsba(i__main__
DelphiAssignStatement
p1314
(dp1315
g233
(i__main__
DelphiIdentAccess
p1316
(dp1317
g180
S'self'
p1318
sg171
(lp1319
(idelphi
DelphiFieldEndAccess
p1320
(dp1321
g185
S'findMatch'
p1322
sba(idelphi
DelphiFunctionEndAccess
p1323
(dp1324
g173
(lp1325
(i__main__
DelphiIdentAccess
p1326
(dp1327
g180
S'startText'
p1328
sg171
(lp1329
sbasbasbsg239
(i__main__
DelphiIdentAccess
p1330
(dp1331
g180
S'index'
p1332
sg171
(lp1333
sbsba(idelphi
DelphiIfStatement
p1334
(dp1335
g165
(idelphi
DelphiRelOp
p1336
(dp1337
g177
(i__main__
DelphiIdentAccess
p1338
(dp1339
g180
g1332
sg171
(lp1340
sbsg187
(idelphi
DelphiIntegerValue
p1341
(dp1342
g104
S'0'
sbsg193
S'>='
p1343
sbsg202
(idelphi
DelphiCompoundStatement
p1344
(dp1345
g161
(lp1346
(idelphi
DelphiIfStatement
p1347
(dp1348
g165
(idelphi
DelphiNot
p1349
(dp1350
g722
(i__main__
DelphiIdentAccess
p1351
(dp1352
g180
S'FMustBeInList'
p1353
sg171
(lp1354
sbsbsg202
Nsg203
(idelphi
DelphiCompoundStatement
p1355
(dp1356
g161
(lp1357
(i__main__
DelphiAssignStatement
p1358
(dp1359
g233
(idelphi
DelphiStringAccess
p1360
(dp1361
g171
(lp1362
sg104
(idelphi
DelphiStringValue
p1363
(dp1364
g104
S''
sbsbsg239
(i__main__
DelphiIdentAccess
p1365
(dp1366
g180
S'lastMatch'
p1367
sg171
(lp1368
sbsba(i__main__
DelphiAssignStatement
p1369
(dp1370
g233
(i__main__
DelphiIdentAccess
p1371
(dp1372
g180
S'startText'
p1373
sg171
(lp1374
sbsg239
(i__main__
DelphiIdentAccess
p1375
(dp1376
g180
S'self'
p1377
sg171
(lp1378
(idelphi
DelphiFieldEndAccess
p1379
(dp1380
g185
S'Text'
p1381
sbasbsba(i__main__
DelphiAssignStatement
p1382
(dp1383
g233
(i__main__
DelphiIdentAccess
p1384
(dp1385
g180
S'length'
p1386
sg171
(lp1387
(idelphi
DelphiFunctionEndAccess
p1388
(dp1389
g173
(lp1390
(i__main__
DelphiIdentAccess
p1391
(dp1392
g180
S'startText'
p1393
sg171
(lp1394
sbasbasbsg239
(i__main__
DelphiIdentAccess
p1395
(dp1396
g180
S'self'
p1397
sg171
(lp1398
(idelphi
DelphiFieldEndAccess
p1399
(dp1400
g185
S'SelStart'
p1401
sbasbsbasbsbasbsg203
(idelphi
DelphiCompoundStatement
p1402
(dp1403
g161
(lp1404
(i__main__
DelphiAssignStatement
p1405
(dp1406
g233
(i__main__
DelphiIdentAccess
p1407
(dp1408
g180
S'self'
p1409
sg171
(lp1410
(idelphi
DelphiFieldEndAccess
p1411
(dp1412
g185
S'items'
p1413
sba(idelphi
DelphiArrayEndAccess
p1414
(dp1415
g173
(lp1416
(i__main__
DelphiIdentAccess
p1417
(dp1418
g180
g1332
sg171
(lp1419
sbasbasbsg239
(i__main__
DelphiIdentAccess
p1420
(dp1421
g180
S'lastMatch'
p1422
sg171
(lp1423
sbsg88
(lp1424
S'   if (index < 0) and EntryRequired and (self.items.count > 0) then\r'
p1425
aS'     begin\r'
p1426
aS'     index := 0;\r'
p1427
aS'     startText := Copy(;\r'
p1428
aS'     end;\r'
p1429
asba(i__main__
DelphiAssignStatement
p1430
(dp1431
g233
(i__main__
DelphiIdentAccess
p1432
(dp1433
g180
S'lastMatch'
p1434
sg171
(lp1435
sbsg239
(i__main__
DelphiIdentAccess
p1436
(dp1437
g180
S'self'
p1438
sg171
(lp1439
(idelphi
DelphiFieldEndAccess
p1440
(dp1441
g185
S'Text'
p1442
sbasbsba(i__main__
DelphiAssignStatement
p1443
(dp1444
g233
(i__main__
DelphiIdentAccess
p1445
(dp1446
g180
S'length'
p1447
sg171
(lp1448
(idelphi
DelphiFunctionEndAccess
p1449
(dp1450
g173
(lp1451
(i__main__
DelphiIdentAccess
p1452
(dp1453
g180
S'startText'
p1454
sg171
(lp1455
sbasbasbsg239
(i__main__
DelphiIdentAccess
p1456
(dp1457
g180
S'self'
p1458
sg171
(lp1459
(idelphi
DelphiFieldEndAccess
p1460
(dp1461
g185
S'SelStart'
p1462
sbasbsbasbsbasbsg414
(lp1463
(i__main__
DelphiVarSection
p1464
(dp1465
S'atTopLevel'
p1466
I0
sS'varDeclList'
p1467
(lp1468
(idelphi
DelphiVarDecl
p1469
(dp1470
S'constExpression'
p1471
NsS'identList'
p1472
(lp1473
g1332
asg31
(i__main__
DelphiPrimitiveType
p1474
(dp1475
g34
g108
sbsba(idelphi
DelphiVarDecl
p1476
(dp1477
g1471
Nsg1472
(lp1478
S'startText'
p1479
asg31
(i__main__
DelphiPrimitiveType
p1480
(dp1481
g34
g104
sbsba(idelphi
DelphiVarDecl
p1482
(dp1483
g1471
Nsg1472
(lp1484
S'atEnd'
p1485
asg31
(i__main__
DelphiPrimitiveType
p1486
(dp1487
g34
g125
sbsbasbasbsbsS'findmatch'
p1488
(i__main__
DelphiMethodImplementation
p1489
(dp1490
g141
g94
sg15
g96
sg23
(lp1491
(i__main__
DelphiFormalParameter
p1492
(dp1493
g27
Nsg28
(lp1494
S'match'
p1495
asg31
(i__main__
DelphiPrimitiveType
p1496
(dp1497
g34
g104
sbsg38
g105
sbasg143
(lp1498
sg145
(lp1499
sg147
(lp1500
g149
ag1495
asg150
(dp1501
g1495
g1496
ssg54
S'TQuickFillComboBox'
p1502
sg55
(i__main__
DelphiPrimitiveType
p1503
(dp1504
g34
g108
sbsg153
(lp1505
sg56
I0
sg57
g109
sg155
(i__main__
DelphiBlock
p1506
(dp1507
g158
(idelphi
DelphiCompoundStatement
p1508
(dp1509
g161
(lp1510
(i__main__
DelphiAssignStatement
p1511
(dp1512
g233
(idelphi
DelphiSign
p1513
(dp1514
g722
(idelphi
DelphiIntegerValue
p1515
(dp1516
g104
S'1'
sbsS'sign'
p1517
S'-'
sbsg239
(i__main__
DelphiIdentAccess
p1518
(dp1519
g180
S'result'
p1520
sg171
(lp1521
sbsba(idelphi
DelphiIfStatement
p1522
(dp1523
g165
(idelphi
DelphiRelOp
p1524
(dp1525
g177
(i__main__
DelphiIdentAccess
p1526
(dp1527
g180
S'match'
p1528
sg171
(lp1529
sbsg187
(idelphi
DelphiStringAccess
p1530
(dp1531
g171
(lp1532
sg104
(idelphi
DelphiStringValue
p1533
(dp1534
g104
S''
sbsbsg193
S'='
sbsg202
Nsg203
(i__main__
DelphiExitStatement
p1535
(dp1536
g249
g1489
sbsba(idelphi
DelphiIfStatement
p1537
(dp1538
g165
(idelphi
DelphiRelOp
p1539
(dp1540
g177
(i__main__
DelphiIdentAccess
p1541
(dp1542
g180
S'self'
p1543
sg171
(lp1544
(idelphi
DelphiFieldEndAccess
p1545
(dp1546
g185
S'items'
p1547
sba(idelphi
DelphiFieldEndAccess
p1548
(dp1549
g185
S'count'
p1550
sbasbsg187
(idelphi
DelphiIntegerValue
p1551
(dp1552
g104
S'0'
sbsg193
S'='
sbsg202
Nsg203
(i__main__
DelphiExitStatement
p1553
(dp1554
g249
g1489
sbsba(idelphi
DelphiForStatement
p1555
(dp1556
S'variable'
p1557
S'i'
sS'finalValue'
p1558
(idelphi
DelphiAddOp
p1559
(dp1560
g681
S'-'
sg682
(idelphi
DelphiIntegerValue
p1561
(dp1562
g104
S'1'
sbsg690
(i__main__
DelphiIdentAccess
p1563
(dp1564
g180
S'self'
p1565
sg171
(lp1566
(idelphi
DelphiFieldEndAccess
p1567
(dp1568
g185
S'items'
p1569
sba(idelphi
DelphiFieldEndAccess
p1570
(dp1571
g185
S'count'
p1572
sbasbsbsS'direction'
p1573
S'to'
p1574
sg27
(idelphi
DelphiIntegerValue
p1575
(dp1576
g104
S'0'
sbsg458
(idelphi
DelphiCompoundStatement
p1577
(dp1578
g161
(lp1579
(i__main__
DelphiAssignStatement
p1580
(dp1581
g233
(i__main__
DelphiIdentAccess
p1582
(dp1583
g180
S'true'
p1584
sg171
(lp1585
sbsg239
(i__main__
DelphiIdentAccess
p1586
(dp1587
g180
S'matches'
p1588
sg171
(lp1589
sbsba(i__main__
DelphiAssignStatement
p1590
(dp1591
g233
(i__main__
DelphiIdentAccess
p1592
(dp1593
g180
S'self'
p1594
sg171
(lp1595
(idelphi
DelphiFieldEndAccess
p1596
(dp1597
g185
S'items'
p1598
sba(idelphi
DelphiArrayEndAccess
p1599
(dp1600
g173
(lp1601
(i__main__
DelphiIdentAccess
p1602
(dp1603
g180
S'i'
sg171
(lp1604
sbasbasbsg239
(i__main__
DelphiIdentAccess
p1605
(dp1606
g180
S'test'
p1607
sg171
(lp1608
sbsba(idelphi
DelphiForStatement
p1609
(dp1610
g1557
S'j'
sg1558
(i__main__
DelphiIdentAccess
p1611
(dp1612
g180
S'length'
p1613
sg171
(lp1614
(idelphi
DelphiFunctionEndAccess
p1615
(dp1616
g173
(lp1617
(i__main__
DelphiIdentAccess
p1618
(dp1619
g180
S'match'
p1620
sg171
(lp1621
sbasbasbsg1573
g1574
sg27
(idelphi
DelphiIntegerValue
p1622
(dp1623
g104
S'1'
sbsg458
(idelphi
DelphiIfStatement
p1624
(dp1625
g165
(idelphi
DelphiRelOp
p1626
(dp1627
g177
(i__main__
DelphiIdentAccess
p1628
(dp1629
g180
S'test'
p1630
sg171
(lp1631
(idelphi
DelphiArrayEndAccess
p1632
(dp1633
g173
(lp1634
(i__main__
DelphiIdentAccess
p1635
(dp1636
g180
S'j'
sg171
(lp1637
sbasbasbsg187
(i__main__
DelphiIdentAccess
p1638
(dp1639
g180
S'match'
p1640
sg171
(lp1641
(idelphi
DelphiArrayEndAccess
p1642
(dp1643
g173
(lp1644
(i__main__
DelphiIdentAccess
p1645
(dp1646
g180
S'j'
sg171
(lp1647
sbasbasbsg193
g194
sbsg202
Nsg203
(idelphi
DelphiCompoundStatement
p1648
(dp1649
g161
(lp1650
(i__main__
DelphiAssignStatement
p1651
(dp1652
g233
(i__main__
DelphiIdentAccess
p1653
(dp1654
g180
S'false'
p1655
sg171
(lp1656
sbsg239
(i__main__
DelphiIdentAccess
p1657
(dp1658
g180
S'matches'
p1659
sg171
(lp1660
sbsba(idelphi
DelphiBreakStatement
p1661
(dp1662
basbsbsba(idelphi
DelphiIfStatement
p1663
(dp1664
g165
(idelphi
DelphiRelOp
p1665
(dp1666
g177
(i__main__
DelphiIdentAccess
p1667
(dp1668
g180
S'matches'
p1669
sg171
(lp1670
sbsg187
(i__main__
DelphiIdentAccess
p1671
(dp1672
g180
S'true'
p1673
sg171
(lp1674
sbsg193
S'='
sbsg202
Nsg203
(idelphi
DelphiCompoundStatement
p1675
(dp1676
g161
(lp1677
(i__main__
DelphiAssignStatement
p1678
(dp1679
g233
(i__main__
DelphiIdentAccess
p1680
(dp1681
g180
S'i'
sg171
(lp1682
sbsg239
(i__main__
DelphiIdentAccess
p1683
(dp1684
g180
S'result'
p1685
sg171
(lp1686
sbsba(i__main__
DelphiExitStatement
p1687
(dp1688
g249
g1489
sbasbsbasbsbasbsg414
(lp1689
(i__main__
DelphiVarSection
p1690
(dp1691
g1466
I0
sg1467
(lp1692
(idelphi
DelphiVarDecl
p1693
(dp1694
g1471
Nsg1472
(lp1695
S'i'
aS'j'
asg31
(i__main__
DelphiPrimitiveType
p1696
(dp1697
g34
g108
sbsba(idelphi
DelphiVarDecl
p1698
(dp1699
g1471
Nsg1472
(lp1700
S'test'
p1701
asg31
(i__main__
DelphiPrimitiveType
p1702
(dp1703
g34
g104
sbsba(idelphi
DelphiVarDecl
p1704
(dp1705
g1471
Nsg1472
(lp1706
S'matches'
p1707
asg31
(i__main__
DelphiPrimitiveType
p1708
(dp1709
g34
g125
sbsbasbasbsg88
g110
sbsS'cbneditchange'
p1710
(i__main__
DelphiMethodImplementation
p1711
(dp1712
g141
g77
sg15
g79
sg23
(lp1713
(i__main__
DelphiFormalParameter
p1714
(dp1715
g27
Nsg28
(lp1716
S'MSG'
p1717
asg31
(i__main__
DelphiNamedType
p1718
(dp1719
g34
S'Tmessage'
p1720
sg36
g1
sg37
Nsbsg38
g39
sbasg143
(lp1721
sg145
(lp1722
g1717
asg147
(lp1723
g149
ag1717
asg150
(dp1724
g1717
g1718
ssg54
S'TQuickFillComboBox'
p1725
sg55
Nsg153
(lp1726
sg56
I0
sg57
g58
sg155
(i__main__
DelphiBlock
p1727
(dp1728
g158
(idelphi
DelphiCompoundStatement
p1729
(dp1730
g161
(lp1731
(i__main__
DelphiAssignStatement
p1732
(dp1733
g233
Nsg239
(idelphi
DelphiInheritedCall
p1734
(dp1735
g180
Nsg173
Nsbsba(i__main__
DelphiAssignStatement
p1736
(dp1737
g233
(idelphi
DelphiIntegerValue
p1738
(dp1739
g104
S'0'
sbsg239
(i__main__
DelphiIdentAccess
p1740
(dp1741
g180
S'i'
sg171
(lp1742
sbsbasbsg414
(lp1743
(i__main__
DelphiVarSection
p1744
(dp1745
g1466
I0
sg1467
(lp1746
(idelphi
DelphiVarDecl
p1747
(dp1748
g1471
Nsg1472
(lp1749
S'i'
asg31
(i__main__
DelphiPrimitiveType
p1750
(dp1751
g34
g108
sbsbasbasbsg88
g89
sbssS'propertyDeclarations'
p1752
(dp1753
S'entryrequired'
p1754
(i__main__
DelphiPropertyDeclaration
p1755
(dp1756
g55
(i__main__
DelphiPrimitiveType
p1757
(dp1758
g34
g125
sbsg15
S'EntryRequired'
p1759
sbsS'mustbeinlist'
p1760
(i__main__
DelphiPropertyDeclaration
p1761
(dp1762
g55
(i__main__
DelphiPrimitiveType
p1763
(dp1764
g34
g125
sbsg15
S'MustBeInList'
p1765
sbssS'variableNamesInDeclaredOrder'
p1766
(lp1767
g10
ag12
ag14
asba(i__main__
DelphiProceduralImplementation
p1768
(dp1769
g141
(i__main__
DelphiProceduralDeclaration
p1770
(dp1771
g23
(lp1772
sg88
(lp1773
S'Must be published before Items'
p1774
aS' pdf added\r'
p1775
aS' pdf added\r'
p1776
aS' pdf added\r'
p1777
aS' PDF PORT changed from "register" as there was a name conflict with grammar; won\'t be called anyway\r'
p1778
asg15
S'RegisterIt'
p1779
sg55
Nsbsg15
g1779
sg55
Nsg143
(lp1780
sg145
(lp1781
sg147
(lp1782
sg150
(dp1783
sg23
(lp1784
sg153
(lp1785
sg155
(i__main__
DelphiBlock
p1786
(dp1787
g158
(idelphi
DelphiCompoundStatement
p1788
(dp1789
g161
(lp1790
(i__main__
DelphiAssignStatement
p1791
(dp1792
g233
Nsg239
(i__main__
DelphiIdentAccess
p1793
(dp1794
g180
S'RegisterComponents'
p1795
sg171
(lp1796
(idelphi
DelphiFunctionEndAccess
p1797
(dp1798
g173
(lp1799
(idelphi
DelphiStringAccess
p1800
(dp1801
g171
(lp1802
sg104
(idelphi
DelphiStringValue
p1803
(dp1804
g104
S'Speech'
p1805
sbsba(idelphi
DelphiSetConstructor
p1806
(dp1807
S'setElementList'
p1808
(lp1809
(i__main__
DelphiIdentAccess
p1810
(dp1811
g180
S'TQuickFillComboBox'
p1812
sg171
(lp1813
sbasbasbasbsbasbsg414
(lp1814
sbsg88
g1773
sbasS'includedUnits'
p1815
NsS'implementationUses'
p1816
Nsg15
S'QuickFillComboBox'
p1817
sS'constSections'
p1818
(lp1819
sS'globalsInProperCase'
p1820
NsS'interfaceUses'
p1821
(lp1822
S'delphi_compatability'
p1823
aS'Windows'
p1824
aS'Messages'
p1825
aS'SysUtils'
p1826
aS'Classes'
p1827
aS'Graphics'
p1828
aS'Controls'
p1829
aS'Forms'
p1830
aS'Dialogs'
p1831
aS'StdCtrls'
p1832
asS'finalCommentToken'
p1833
(i__main__
PassStatement
p1834
(dp1835
g414
(lp1836
sbsS'varSections'
p1837
(lp1838
sS'globals'
p1839
NsS'originalFileName'
p1840
S'../../storyharp-js/converted_source/quickfillcombobox.pas'
p1841
sS'proceduralImplementations'
p1842
(dp1843
S'registerit'
p1844
g1768
ssS'fileName'
p1845
S'/home/pdfernhout/workspace/storyharp-js/converted_source/quickfillcombobox.pas'
p1846
sS'proceduralDeclarations'
p1847
(dp1848
S'registerit'
p1849
g1770
ssS'types'
p1850
(dp1851
S'tquickfillcombobox'
p1852
g5
ssb.