(i__main__
DelphiUnit
p1
(dp2
S'sectionsInOrderDefined'
p3
(lp4
(i__main__
DelphiClass
p5
(dp6
S'variableNamesInProperCase'
p7
(dp8
S'label8'
p9
S'Label8'
p10
sS'timewarninglabel'
p11
S'timeWarningLabel'
p12
sS'versionlabel'
p13
S'versionLabel'
p14
sS'label3'
p15
S'Label3'
p16
sS'label9'
p17
S'Label9'
p18
sS'label1'
p19
S'Label1'
p20
sS'timepanel'
p21
S'TimePanel'
p22
sS'nodistributelabel'
p23
S'noDistributeLabel'
p24
sS'label4'
p25
S'Label4'
p26
sS'label5'
p27
S'Label5'
p28
sS'readlicense'
p29
S'readLicense'
p30
sS'label7'
p31
S'Label7'
p32
sS'registeredtolabel'
p33
S'registeredToLabel'
p34
sS'label2'
p35
S'Label2'
p36
sS'hourslabel'
p37
S'hoursLabel'
p38
sS'cancel'
p39
S'cancel'
p40
sS'close'
p41
S'close'
p42
sS'image1'
p43
S'Image1'
p44
sS'whyregister'
p45
S'whyRegister'
p46
sS'registerit'
p47
S'registerIt'
p48
ssS'name'
p49
S'TUnregisteredAboutForm'
p50
sS'methodDeclarations'
p51
(dp52
S'formactivate'
p53
(i__main__
DelphiMethodDeclaration
p54
(dp55
g49
S'FormActivate'
p56
sS'formalParameters'
p57
(lp58
(i__main__
DelphiFormalParameter
p59
(dp60
S'initialValue'
p61
NsS'names'
p62
(lp63
S'Sender'
p64
asS'theType'
p65
(i__main__
DelphiNamedType
p66
(dp67
S'typeName'
p68
S'TObject'
p69
sS'unitDefinedIn'
p70
g1
sS'unitName'
p71
NsbsS'parameterVariety'
p72
NsbasS'className'
p73
g50
sS'resultType'
p74
NsS'isClassMethod'
p75
I0
sS'methodType'
p76
S'procedure'
p77
sbsS'registeritclick'
p78
(i__main__
DelphiMethodDeclaration
p79
(dp80
g49
S'registerItClick'
p81
sg57
(lp82
(i__main__
DelphiFormalParameter
p83
(dp84
g61
Nsg62
(lp85
S'Sender'
p86
asg65
(i__main__
DelphiNamedType
p87
(dp88
g68
S'TObject'
p89
sg70
g1
sg71
Nsbsg72
Nsbasg73
g50
sg74
Nsg75
I0
sg76
g77
sbsS'initializewithwhetherclosingprogram'
p90
(i__main__
DelphiMethodDeclaration
p91
(dp92
g49
S'initializeWithWhetherClosingProgram'
p93
sg57
(lp94
(i__main__
DelphiFormalParameter
p95
(dp96
g61
Nsg62
(lp97
S'closingProgram'
p98
asg65
(i__main__
DelphiPrimitiveType
p99
(dp100
g68
S'boolean'
p101
sbsg72
Nsbasg73
g50
sg74
Nsg75
I0
sg76
g77
sS'commentLinesBefore'
p102
(lp103
S' Private declarations '
p104
aS' Public declarations '
p105
aS'$R *.DFM'
p106
asbsS'formcreate'
p107
(i__main__
DelphiMethodDeclaration
p108
(dp109
g49
S'FormCreate'
p110
sg57
(lp111
(i__main__
DelphiFormalParameter
p112
(dp113
g61
Nsg62
(lp114
S'Sender'
p115
asg65
(i__main__
DelphiNamedType
p116
(dp117
g68
S'TObject'
p118
sg70
g1
sg71
Nsbsg72
Nsbasg73
g50
sg74
Nsg75
I0
sg76
g77
sbsS'readlicenseclick'
p119
(i__main__
DelphiMethodDeclaration
p120
(dp121
g49
S'readLicenseClick'
p122
sg57
(lp123
(i__main__
DelphiFormalParameter
p124
(dp125
g61
Nsg62
(lp126
S'Sender'
p127
asg65
(i__main__
DelphiNamedType
p128
(dp129
g68
S'TObject'
p130
sg70
g1
sg71
Nsbsg72
Nsbasg73
g50
sg74
Nsg75
I0
sg76
g77
sbsS'whyregisterclick'
p131
(i__main__
DelphiMethodDeclaration
p132
(dp133
g49
S'whyRegisterClick'
p134
sg57
(lp135
(i__main__
DelphiFormalParameter
p136
(dp137
g61
Nsg62
(lp138
S'Sender'
p139
asg65
(i__main__
DelphiNamedType
p140
(dp141
g68
S'TObject'
p142
sg70
g1
sg71
Nsbsg72
Nsbasg73
g50
sg74
Nsg75
I0
sg76
g77
sbsS'hourslabelclick'
p143
(i__main__
DelphiMethodDeclaration
p144
(dp145
g49
S'hoursLabelClick'
p146
sg57
(lp147
(i__main__
DelphiFormalParameter
p148
(dp149
g61
Nsg62
(lp150
S'Sender'
p151
asg65
(i__main__
DelphiNamedType
p152
(dp153
g68
S'TObject'
p154
sg70
g1
sg71
Nsbsg72
Nsbasg73
g50
sg74
Nsg75
I0
sg76
g77
sbsS'closeclick'
p155
(i__main__
DelphiMethodDeclaration
p156
(dp157
g49
S'closeClick'
p158
sg57
(lp159
(i__main__
DelphiFormalParameter
p160
(dp161
g61
Nsg62
(lp162
S'Sender'
p163
asg65
(i__main__
DelphiNamedType
p164
(dp165
g68
S'TObject'
p166
sg70
g1
sg71
Nsbsg72
Nsbasg73
g50
sg74
Nsg75
I0
sg76
g77
sbssS'superclassNamedTypes'
p167
(lp168
(i__main__
DelphiNamedType
p169
(dp170
g68
S'TForm'
p171
sg70
g1
sg71
NsbasS'variableNames'
p172
(dp173
S'label8'
p174
(i__main__
DelphiNamedType
p175
(dp176
g68
S'TLabel'
p177
sg70
g1
sg71
NsbsS'timewarninglabel'
p178
(i__main__
DelphiNamedType
p179
(dp180
g68
S'TLabel'
p181
sg70
g1
sg71
NsbsS'versionlabel'
p182
(i__main__
DelphiNamedType
p183
(dp184
g68
S'TLabel'
p185
sg70
g1
sg71
NsbsS'label3'
p186
(i__main__
DelphiNamedType
p187
(dp188
g68
S'TLabel'
p189
sg70
g1
sg71
NsbsS'label9'
p190
(i__main__
DelphiNamedType
p191
(dp192
g68
S'TLabel'
p193
sg70
g1
sg71
NsbsS'label1'
p194
(i__main__
DelphiNamedType
p195
(dp196
g68
S'TLabel'
p197
sg70
g1
sg71
NsbsS'timepanel'
p198
(i__main__
DelphiNamedType
p199
(dp200
g68
S'TPanel'
p201
sg70
g1
sg71
NsbsS'nodistributelabel'
p202
(i__main__
DelphiNamedType
p203
(dp204
g68
S'TLabel'
p205
sg70
g1
sg71
NsbsS'label4'
p206
(i__main__
DelphiNamedType
p207
(dp208
g68
S'TLabel'
p209
sg70
g1
sg71
NsbsS'label5'
p210
(i__main__
DelphiNamedType
p211
(dp212
g68
S'TLabel'
p213
sg70
g1
sg71
NsbsS'readlicense'
p214
(i__main__
DelphiNamedType
p215
(dp216
g68
S'TButton'
p217
sg70
g1
sg71
NsbsS'label7'
p218
(i__main__
DelphiNamedType
p219
(dp220
g68
S'TLabel'
p221
sg70
g1
sg71
NsbsS'registeredtolabel'
p222
(i__main__
DelphiNamedType
p223
(dp224
g68
S'TLabel'
p225
sg70
g1
sg71
NsbsS'label2'
p226
(i__main__
DelphiNamedType
p227
(dp228
g68
S'TLabel'
p229
sg70
g1
sg71
NsbsS'hourslabel'
p230
(i__main__
DelphiNamedType
p231
(dp232
g68
S'TLabel'
p233
sg70
g1
sg71
NsbsS'cancel'
p234
(i__main__
DelphiNamedType
p235
(dp236
g68
S'TButton'
p237
sg70
g1
sg71
NsbsS'close'
p238
(i__main__
DelphiNamedType
p239
(dp240
g68
S'TButton'
p241
sg70
g1
sg71
NsbsS'image1'
p242
(i__main__
DelphiNamedType
p243
(dp244
g68
S'TImage'
p245
sg70
g1
sg71
NsbsS'whyregister'
p246
(i__main__
DelphiNamedType
p247
(dp248
g68
S'TButton'
p249
sg70
g1
sg71
NsbsS'registerit'
p250
(i__main__
DelphiNamedType
p251
(dp252
g68
S'TButton'
p253
sg70
g1
sg71
NsbssS'methodNamesInDefinedOrder'
p254
(lp255
S'initializewithwhetherclosingprogram'
p256
aS'formactivate'
p257
aS'closeclick'
p258
aS'registeritclick'
p259
aS'hourslabelclick'
p260
aS'readlicenseclick'
p261
aS'whyregisterclick'
p262
aS'formcreate'
p263
asS'methodImplementations'
p264
(dp265
S'formactivate'
p266
(i__main__
DelphiMethodImplementation
p267
(dp268
S'originalDeclaration'
p269
g54
sg49
g56
sg57
(lp270
(i__main__
DelphiFormalParameter
p271
(dp272
g61
Nsg62
(lp273
S'Sender'
p274
asg65
(i__main__
DelphiNamedType
p275
(dp276
g68
S'TObject'
p277
sg70
g1
sg71
Nsbsg72
NsbasS'varParamIndexes'
p278
(lp279
sS'varParamsSkipped'
p280
(lp281
sS'argNames'
p282
(lp283
S'self'
p284
ag274
asS'argTypes'
p285
(dp286
g274
g275
ssg73
S'TUnregisteredAboutForm'
p287
sg74
NsS'varParamNames'
p288
(lp289
sg75
I0
sg76
g77
sS'block'
p290
(i__main__
DelphiBlock
p291
(dp292
S'compoundStatement'
p293
(idelphi
DelphiCompoundStatement
p294
(dp295
S'statements'
p296
(lp297
(idelphi
DelphiIfStatement
p298
(dp299
S'expression'
p300
(i__main__
DelphiIdentAccess
p301
(dp302
S'ident'
p303
S'domain'
p304
sS'endAccessList'
p305
(lp306
(idelphi
DelphiFieldEndAccess
p307
(dp308
S'field'
p309
S'playerOnly'
p310
sbasbsS'ifFalseStatement'
p311
NsS'ifTrueStatement'
p312
(i__main__
DelphiExitStatement
p313
(dp314
S'proceduralOrMethodImplementation'
p315
g267
sbsba(i__main__
DelphiAssignStatement
p316
(dp317
S'newValueExpression'
p318
(i__main__
DelphiIdentAccess
p319
(dp320
g303
S'registerIt'
p321
sg305
(lp322
sbsS'destinationExpression'
p323
(i__main__
DelphiIdentAccess
p324
(dp325
g303
S'activeControl'
p326
sg305
(lp327
sbsba(i__main__
DelphiAssignStatement
p328
(dp329
g318
Nsg323
(i__main__
DelphiIdentAccess
p330
(dp331
g303
S'randomize'
p332
sg305
(lp333
sbsba(idelphi
DelphiForStatement
p334
(dp335
S'variable'
p336
S'i'
sS'finalValue'
p337
(idelphi
DelphiIntegerValue
p338
(dp339
S'string'
p340
S'100'
p341
sbsS'direction'
p342
S'to'
p343
sg61
(idelphi
DelphiIntegerValue
p344
(dp345
g340
S'0'
sbsS'statement'
p346
(i__main__
DelphiAssignStatement
p347
(dp348
g318
Nsg323
(i__main__
DelphiIdentAccess
p349
(dp350
g303
S'random'
p351
sg305
(lp352
sbsbsba(i__main__
DelphiAssignStatement
p353
(dp354
g318
(i__main__
DelphiIdentAccess
p355
(dp356
g303
S'random'
p357
sg305
(lp358
(idelphi
DelphiFunctionEndAccess
p359
(dp360
S'expressionList'
p361
(lp362
(idelphi
DelphiIntegerValue
p363
(dp364
g340
S'2'
sbasbasbsg323
(i__main__
DelphiIdentAccess
p365
(dp366
g303
S'randomNumber'
p367
sg305
(lp368
sbsba(idelphi
DelphiCaseStatement
p369
(dp370
S'elseStatement'
p371
Nsg300
(i__main__
DelphiIdentAccess
p372
(dp373
g303
S'randomNumber'
p374
sg305
(lp375
sbsS'caseSelectorList'
p376
(lp377
(idelphi
DelphiCaseSelector
p378
(dp379
g346
(idelphi
DelphiCompoundStatement
p380
(dp381
g296
(lp382
(i__main__
DelphiAssignStatement
p383
(dp384
g318
(idelphi
DelphiIntegerValue
p385
(dp386
g340
S'4'
sbsg323
(i__main__
DelphiIdentAccess
p387
(dp388
g303
S'close'
p389
sg305
(lp390
(idelphi
DelphiFieldEndAccess
p391
(dp392
g309
S'top'
p393
sbasbsba(i__main__
DelphiAssignStatement
p394
(dp395
g318
(idelphi
DelphiAddOp
p396
(dp397
S'addOp'
p398
S'+'
sS'term2'
p399
(idelphi
DelphiIntegerValue
p400
(dp401
g340
S'3'
sbsS'term1'
p402
(idelphi
DelphiAddOp
p403
(dp404
g398
S'+'
sg399
(i__main__
DelphiIdentAccess
p405
(dp406
g303
S'close'
p407
sg305
(lp408
(idelphi
DelphiFieldEndAccess
p409
(dp410
g309
S'height'
p411
sbasbsg402
(i__main__
DelphiIdentAccess
p412
(dp413
g303
S'close'
p414
sg305
(lp415
(idelphi
DelphiFieldEndAccess
p416
(dp417
g309
S'top'
p418
sbasbsbsbsg323
(i__main__
DelphiIdentAccess
p419
(dp420
g303
S'registerIt'
p421
sg305
(lp422
(idelphi
DelphiFieldEndAccess
p423
(dp424
g309
S'top'
p425
sbasbsbasbsS'caseLabelList'
p426
(lp427
(idelphi
DelphiIntegerValue
p428
(dp429
g340
S'0'
sbasba(idelphi
DelphiCaseSelector
p430
(dp431
g346
(idelphi
DelphiCompoundStatement
p432
(dp433
g296
(lp434
(i__main__
DelphiAssignStatement
p435
(dp436
g318
(idelphi
DelphiIntegerValue
p437
(dp438
g340
S'4'
sbsg323
(i__main__
DelphiIdentAccess
p439
(dp440
g303
S'registerIt'
p441
sg305
(lp442
(idelphi
DelphiFieldEndAccess
p443
(dp444
g309
S'top'
p445
sbasbsba(i__main__
DelphiAssignStatement
p446
(dp447
g318
(idelphi
DelphiAddOp
p448
(dp449
g398
S'+'
sg399
(idelphi
DelphiIntegerValue
p450
(dp451
g340
S'3'
sbsg402
(idelphi
DelphiAddOp
p452
(dp453
g398
S'+'
sg399
(i__main__
DelphiIdentAccess
p454
(dp455
g303
S'registerIt'
p456
sg305
(lp457
(idelphi
DelphiFieldEndAccess
p458
(dp459
g309
S'height'
p460
sbasbsg402
(i__main__
DelphiIdentAccess
p461
(dp462
g303
S'registerIt'
p463
sg305
(lp464
(idelphi
DelphiFieldEndAccess
p465
(dp466
g309
S'top'
p467
sbasbsbsbsg323
(i__main__
DelphiIdentAccess
p468
(dp469
g303
S'close'
p470
sg305
(lp471
(idelphi
DelphiFieldEndAccess
p472
(dp473
g309
S'top'
p474
sbasbsbasbsg426
(lp475
(idelphi
DelphiIntegerValue
p476
(dp477
g340
S'1'
sbasbasba(i__main__
DelphiAssignStatement
p478
(dp479
g318
(idelphi
DelphiStringAccess
p480
(dp481
g305
(lp482
sg340
(idelphi
DelphiStringValue
p483
(dp484
g340
S'You have been using StoryHarp for '
p485
sbsbsg323
(i__main__
DelphiIdentAccess
p486
(dp487
g303
S'hoursLabel'
p488
sg305
(lp489
(idelphi
DelphiFieldEndAccess
p490
(dp491
g309
S'caption'
p492
sbasbsba(i__main__
DelphiAssignStatement
p493
(dp494
g318
(idelphi
DelphiAddOp
p495
(dp496
g398
S'+'
sg399
(i__main__
DelphiIdentAccess
p497
(dp498
g303
S'domain'
p499
sg305
(lp500
(idelphi
DelphiFieldEndAccess
p501
(dp502
g309
S'accumulatedUnregisteredTime'
p503
sbasbsg402
(i__main__
DelphiIdentAccess
p504
(dp505
g303
S'max'
p506
sg305
(lp507
(idelphi
DelphiFunctionEndAccess
p508
(dp509
g361
(lp510
(idelphi
DelphiNestedExpressionListAccess
p511
(dp512
g305
(lp513
sg361
(lp514
(idelphi
DelphiAddOp
p515
(dp516
g398
S'-'
sg399
(i__main__
DelphiIdentAccess
p517
(dp518
g303
S'domain'
p519
sg305
(lp520
(idelphi
DelphiFieldEndAccess
p521
(dp522
g309
S'startTimeThisSession'
p523
sbasbsg402
(i__main__
DelphiIdentAccess
p524
(dp525
g303
S'Now'
p526
sg305
(lp527
sbsbasba(idelphi
DelphiIntegerValue
p528
(dp529
g340
S'0'
sbasbasbsbsg323
(i__main__
DelphiIdentAccess
p530
(dp531
g303
S'timeBetween'
p532
sg305
(lp533
sbsba(i__main__
DelphiAssignStatement
p534
(dp535
g318
Nsg323
(i__main__
DelphiIdentAccess
p536
(dp537
g303
S'DecodeTime'
p538
sg305
(lp539
(idelphi
DelphiFunctionEndAccess
p540
(dp541
g361
(lp542
(i__main__
DelphiIdentAccess
p543
(dp544
g303
S'timeBetween'
p545
sg305
(lp546
sba(i__main__
DelphiIdentAccess
p547
(dp548
g303
S'smallHours'
p549
sg305
(lp550
sba(i__main__
DelphiIdentAccess
p551
(dp552
g303
S'minutes'
p553
sg305
(lp554
sba(i__main__
DelphiIdentAccess
p555
(dp556
g303
S'seconds'
p557
sg305
(lp558
sba(i__main__
DelphiIdentAccess
p559
(dp560
g303
S'milliseconds'
p561
sg305
(lp562
sbasbasbsba(i__main__
DelphiAssignStatement
p563
(dp564
g318
(i__main__
DelphiIdentAccess
p565
(dp566
g303
S'smallHours'
p567
sg305
(lp568
sbsg323
(i__main__
DelphiIdentAccess
p569
(dp570
g303
S'hours'
p571
sg305
(lp572
sbsba(idelphi
DelphiIfStatement
p573
(dp574
g300
(idelphi
DelphiRelOp
p575
(dp576
S'simpleExpression1'
p577
(i__main__
DelphiIdentAccess
p578
(dp579
g303
S'timeBetween'
p580
sg305
(lp581
sbsS'simpleExpression2'
p582
(idelphi
DelphiRealValue
p583
(dp584
g340
S'1.0'
p585
sbsS'relOp'
p586
S'>='
p587
sbsg311
Nsg312
(i__main__
DelphiAssignStatement
p588
(dp589
g318
(idelphi
DelphiAddOp
p590
(dp591
g398
S'+'
sg399
(idelphi
DelphiMulOp
p592
(dp593
S'signedFactor2'
p594
(idelphi
DelphiIntegerValue
p595
(dp596
g340
S'24'
p597
sbsS'mulOp'
p598
S'*'
sS'signedFactor1'
p599
(i__main__
DelphiIdentAccess
p600
(dp601
g303
S'trunc'
p602
sg305
(lp603
(idelphi
DelphiFunctionEndAccess
p604
(dp605
g361
(lp606
(i__main__
DelphiIdentAccess
p607
(dp608
g303
S'timeBetween'
p609
sg305
(lp610
sbasbasbsbsg402
(i__main__
DelphiIdentAccess
p611
(dp612
g303
S'hours'
p613
sg305
(lp614
sbsbsg323
(i__main__
DelphiIdentAccess
p615
(dp616
g303
S'hours'
p617
sg305
(lp618
sbsbsba(idelphi
DelphiIfStatement
p619
(dp620
g300
(idelphi
DelphiMulOp
p621
(dp622
g594
(idelphi
DelphiNestedExpressionListAccess
p623
(dp624
g305
(lp625
sg361
(lp626
(idelphi
DelphiRelOp
p627
(dp628
g577
(i__main__
DelphiIdentAccess
p629
(dp630
g303
S'hours'
p631
sg305
(lp632
sbsg582
(idelphi
DelphiIntegerValue
p633
(dp634
g340
S'1'
sbsg586
S'<'
sbasbsg598
S'and'
p635
sg599
(idelphi
DelphiNestedExpressionListAccess
p636
(dp637
g305
(lp638
sg361
(lp639
(idelphi
DelphiRelOp
p640
(dp641
g577
(i__main__
DelphiIdentAccess
p642
(dp643
g303
S'minutes'
p644
sg305
(lp645
sbsg582
(idelphi
DelphiIntegerValue
p646
(dp647
g340
S'1'
sbsg586
S'<'
sbasbsbsg311
(idelphi
DelphiIfStatement
p648
(dp649
g300
(idelphi
DelphiMulOp
p650
(dp651
g594
(idelphi
DelphiNestedExpressionListAccess
p652
(dp653
g305
(lp654
sg361
(lp655
(idelphi
DelphiRelOp
p656
(dp657
g577
(i__main__
DelphiIdentAccess
p658
(dp659
g303
S'hours'
p660
sg305
(lp661
sbsg582
(idelphi
DelphiIntegerValue
p662
(dp663
g340
S'1'
sbsg586
S'<'
sbasbsg598
g635
sg599
(idelphi
DelphiNestedExpressionListAccess
p664
(dp665
g305
(lp666
sg361
(lp667
(idelphi
DelphiRelOp
p668
(dp669
g577
(i__main__
DelphiIdentAccess
p670
(dp671
g303
S'minutes'
p672
sg305
(lp673
sbsg582
(idelphi
DelphiIntegerValue
p674
(dp675
g340
S'1'
sbsg586
S'='
sbasbsbsg311
(idelphi
DelphiIfStatement
p676
(dp677
g300
(idelphi
DelphiRelOp
p678
(dp679
g577
(i__main__
DelphiIdentAccess
p680
(dp681
g303
S'hours'
p682
sg305
(lp683
sbsg582
(idelphi
DelphiIntegerValue
p684
(dp685
g340
S'1'
sbsg586
S'<'
sbsg311
(idelphi
DelphiIfStatement
p686
(dp687
g300
(idelphi
DelphiRelOp
p688
(dp689
g577
(i__main__
DelphiIdentAccess
p690
(dp691
g303
S'hours'
p692
sg305
(lp693
sbsg582
(idelphi
DelphiIntegerValue
p694
(dp695
g340
S'1'
sbsg586
S'='
sbsg311
(i__main__
DelphiAssignStatement
p696
(dp697
g318
(idelphi
DelphiAddOp
p698
(dp699
g398
S'+'
sg399
(idelphi
DelphiStringAccess
p700
(dp701
g305
(lp702
sg340
(idelphi
DelphiStringValue
p703
(dp704
g340
S' minutes.'
p705
sbsbsg402
(idelphi
DelphiAddOp
p706
(dp707
g398
S'+'
sg399
(i__main__
DelphiIdentAccess
p708
(dp709
g303
S'intToStr'
p710
sg305
(lp711
(idelphi
DelphiFunctionEndAccess
p712
(dp713
g361
(lp714
(i__main__
DelphiIdentAccess
p715
(dp716
g303
S'minutes'
p717
sg305
(lp718
sbasbasbsg402
(idelphi
DelphiAddOp
p719
(dp720
g398
S'+'
sg399
(idelphi
DelphiStringAccess
p721
(dp722
g305
(lp723
sg340
(idelphi
DelphiStringValue
p724
(dp725
g340
S' hours and '
p726
sbsbsg402
(idelphi
DelphiAddOp
p727
(dp728
g398
S'+'
sg399
(i__main__
DelphiIdentAccess
p729
(dp730
g303
S'intToStr'
p731
sg305
(lp732
(idelphi
DelphiFunctionEndAccess
p733
(dp734
g361
(lp735
(i__main__
DelphiIdentAccess
p736
(dp737
g303
S'hours'
p738
sg305
(lp739
sbasbasbsg402
(i__main__
DelphiIdentAccess
p740
(dp741
g303
S'hoursLabel'
p742
sg305
(lp743
(idelphi
DelphiFieldEndAccess
p744
(dp745
g309
S'caption'
p746
sbasbsbsbsbsbsg323
(i__main__
DelphiIdentAccess
p747
(dp748
g303
S'hoursLabel'
p749
sg305
(lp750
(idelphi
DelphiFieldEndAccess
p751
(dp752
g309
S'caption'
p753
sbasbsbsg312
(i__main__
DelphiAssignStatement
p754
(dp755
g318
(idelphi
DelphiAddOp
p756
(dp757
g398
S'+'
sg399
(idelphi
DelphiStringAccess
p758
(dp759
g305
(lp760
sg340
(idelphi
DelphiStringValue
p761
(dp762
g340
S' minutes.'
p763
sbsbsg402
(idelphi
DelphiAddOp
p764
(dp765
g398
S'+'
sg399
(i__main__
DelphiIdentAccess
p766
(dp767
g303
S'intToStr'
p768
sg305
(lp769
(idelphi
DelphiFunctionEndAccess
p770
(dp771
g361
(lp772
(i__main__
DelphiIdentAccess
p773
(dp774
g303
S'minutes'
p775
sg305
(lp776
sbasbasbsg402
(idelphi
DelphiAddOp
p777
(dp778
g398
S'+'
sg399
(idelphi
DelphiStringAccess
p779
(dp780
g305
(lp781
sg340
(idelphi
DelphiStringValue
p782
(dp783
g340
S' hour and '
p784
sbsbsg402
(idelphi
DelphiAddOp
p785
(dp786
g398
S'+'
sg399
(i__main__
DelphiIdentAccess
p787
(dp788
g303
S'intToStr'
p789
sg305
(lp790
(idelphi
DelphiFunctionEndAccess
p791
(dp792
g361
(lp793
(i__main__
DelphiIdentAccess
p794
(dp795
g303
S'hours'
p796
sg305
(lp797
sbasbasbsg402
(i__main__
DelphiIdentAccess
p798
(dp799
g303
S'hoursLabel'
p800
sg305
(lp801
(idelphi
DelphiFieldEndAccess
p802
(dp803
g309
S'caption'
p804
sbasbsbsbsbsbsg323
(i__main__
DelphiIdentAccess
p805
(dp806
g303
S'hoursLabel'
p807
sg305
(lp808
(idelphi
DelphiFieldEndAccess
p809
(dp810
g309
S'caption'
p811
sbasbsbsbsg312
(i__main__
DelphiAssignStatement
p812
(dp813
g318
(idelphi
DelphiAddOp
p814
(dp815
g398
S'+'
sg399
(idelphi
DelphiStringAccess
p816
(dp817
g305
(lp818
sg340
(idelphi
DelphiStringValue
p819
(dp820
g340
S' minutes.'
p821
sbsbsg402
(idelphi
DelphiAddOp
p822
(dp823
g398
S'+'
sg399
(i__main__
DelphiIdentAccess
p824
(dp825
g303
S'intToStr'
p826
sg305
(lp827
(idelphi
DelphiFunctionEndAccess
p828
(dp829
g361
(lp830
(i__main__
DelphiIdentAccess
p831
(dp832
g303
S'minutes'
p833
sg305
(lp834
sbasbasbsg402
(i__main__
DelphiIdentAccess
p835
(dp836
g303
S'hoursLabel'
p837
sg305
(lp838
(idelphi
DelphiFieldEndAccess
p839
(dp840
g309
S'caption'
p841
sbasbsbsbsg323
(i__main__
DelphiIdentAccess
p842
(dp843
g303
S'hoursLabel'
p844
sg305
(lp845
(idelphi
DelphiFieldEndAccess
p846
(dp847
g309
S'caption'
p848
sbasbsbsbsg312
(i__main__
DelphiAssignStatement
p849
(dp850
g318
(idelphi
DelphiAddOp
p851
(dp852
g398
S'+'
sg399
(idelphi
DelphiStringAccess
p853
(dp854
g305
(lp855
sg340
(idelphi
DelphiStringValue
p856
(dp857
g340
S'one minute.'
p858
sbsbsg402
(i__main__
DelphiIdentAccess
p859
(dp860
g303
S'hoursLabel'
p861
sg305
(lp862
(idelphi
DelphiFieldEndAccess
p863
(dp864
g309
S'caption'
p865
sbasbsbsg323
(i__main__
DelphiIdentAccess
p866
(dp867
g303
S'hoursLabel'
p868
sg305
(lp869
(idelphi
DelphiFieldEndAccess
p870
(dp871
g309
S'caption'
p872
sbasbsbsbsg312
(i__main__
DelphiAssignStatement
p873
(dp874
g318
(idelphi
DelphiAddOp
p875
(dp876
g398
S'+'
sg399
(idelphi
DelphiStringAccess
p877
(dp878
g305
(lp879
sg340
(idelphi
DelphiStringValue
p880
(dp881
g340
S'less than one minute.'
p882
sbsbsg402
(i__main__
DelphiIdentAccess
p883
(dp884
g303
S'hoursLabel'
p885
sg305
(lp886
(idelphi
DelphiFieldEndAccess
p887
(dp888
g309
S'caption'
p889
sbasbsbsg323
(i__main__
DelphiIdentAccess
p890
(dp891
g303
S'hoursLabel'
p892
sg305
(lp893
(idelphi
DelphiFieldEndAccess
p894
(dp895
g309
S'caption'
p896
sbasbsg102
(lp897
S" hoursLabel.caption := hoursLabel.caption + 'more than 24 hours.'\r"
p898
asbsba(idelphi
DelphiIfStatement
p899
(dp900
g300
(idelphi
DelphiRelOp
p901
(dp902
g577
(i__main__
DelphiIdentAccess
p903
(dp904
g303
S'hours'
p905
sg305
(lp906
sbsg582
(idelphi
DelphiRealValue
p907
(dp908
g340
S'24.0'
p909
sbsg586
g587
sbsg311
Nsg312
(idelphi
DelphiCompoundStatement
p910
(dp911
g296
(lp912
(i__main__
DelphiAssignStatement
p913
(dp914
g318
(i__main__
DelphiIdentAccess
p915
(dp916
g303
S'clGreen'
p917
sg305
(lp918
sbsg323
(i__main__
DelphiIdentAccess
p919
(dp920
g303
S'timeWarningLabel'
p921
sg305
(lp922
(idelphi
DelphiFieldEndAccess
p923
(dp924
g309
S'font'
p925
sba(idelphi
DelphiFieldEndAccess
p926
(dp927
g309
S'color'
p928
sbasbsba(i__main__
DelphiAssignStatement
p929
(dp930
g318
(idelphi
DelphiSetConstructor
p931
(dp932
S'setElementList'
p933
(lp934
(i__main__
DelphiIdentAccess
p935
(dp936
g303
S'fsBold'
p937
sg305
(lp938
sbasbsg323
(i__main__
DelphiIdentAccess
p939
(dp940
g303
S'timeWarningLabel'
p941
sg305
(lp942
(idelphi
DelphiFieldEndAccess
p943
(dp944
g309
S'font'
p945
sba(idelphi
DelphiFieldEndAccess
p946
(dp947
g309
S'style'
p948
sbasbsbasbsbasbsS'limitedDeclSectionList'
p949
(lp950
(i__main__
DelphiVarSection
p951
(dp952
S'atTopLevel'
p953
I0
sS'varDeclList'
p954
(lp955
(idelphi
DelphiVarDecl
p956
(dp957
S'constExpression'
p958
NsS'identList'
p959
(lp960
S'timeBetween'
p961
asg65
(i__main__
DelphiNamedType
p962
(dp963
g68
S'TDateTime'
p964
sg70
g1
sg71
Nsbsba(idelphi
DelphiVarDecl
p965
(dp966
g958
Nsg959
(lp967
S'smallHours'
p968
aS'minutes'
p969
aS'seconds'
p970
aS'milliseconds'
p971
asg65
(i__main__
DelphiPrimitiveType
p972
(dp973
g68
S'word'
p974
sbsba(idelphi
DelphiVarDecl
p975
(dp976
g958
Nsg959
(lp977
S'randomNumber'
p978
asg65
(i__main__
DelphiPrimitiveType
p979
(dp980
g68
S'integer'
p981
sbsba(idelphi
DelphiVarDecl
p982
(dp983
g958
Nsg959
(lp984
S'hours'
p985
asg65
(i__main__
DelphiPrimitiveType
p986
(dp987
g68
g981
sbsba(idelphi
DelphiVarDecl
p988
(dp989
g958
Nsg959
(lp990
S'i'
asg65
(i__main__
DelphiPrimitiveType
p991
(dp992
g68
g981
sbsbasbasbsbsS'registeritclick'
p993
(i__main__
DelphiMethodImplementation
p994
(dp995
g269
g79
sg49
g81
sg57
(lp996
(i__main__
DelphiFormalParameter
p997
(dp998
g61
Nsg62
(lp999
S'Sender'
p1000
asg65
(i__main__
DelphiNamedType
p1001
(dp1002
g68
S'TObject'
p1003
sg70
g1
sg71
Nsbsg72
Nsbasg278
(lp1004
sg280
(lp1005
sg282
(lp1006
g284
ag1000
asg285
(dp1007
g1000
g1001
ssg73
S'TUnregisteredAboutForm'
p1008
sg74
Nsg288
(lp1009
sg75
I0
sg76
g77
sg290
(i__main__
DelphiBlock
p1010
(dp1011
g293
(idelphi
DelphiCompoundStatement
p1012
(dp1013
g296
(lp1014
(idelphi
DelphiIfStatement
p1015
(dp1016
g300
(idelphi
DelphiRelOp
p1017
(dp1018
g577
(i__main__
DelphiIdentAccess
p1019
(dp1020
g303
S'RegistrationForm'
p1021
sg305
(lp1022
(idelphi
DelphiFieldEndAccess
p1023
(dp1024
g309
S'showModal'
p1025
sbasbsg582
(i__main__
DelphiIdentAccess
p1026
(dp1027
g303
S'mrOK'
p1028
sg305
(lp1029
sbsg586
S'='
sbsg311
Nsg312
(i__main__
DelphiAssignStatement
p1030
(dp1031
g318
(i__main__
DelphiIdentAccess
p1032
(dp1033
g303
S'mrCancel'
p1034
sg305
(lp1035
sbsg323
(i__main__
DelphiIdentAccess
p1036
(dp1037
g303
S'modalResult'
p1038
sg305
(lp1039
sbsbsbasbsg949
(lp1040
sbsbsS'initializewithwhetherclosingprogram'
p1041
(i__main__
DelphiMethodImplementation
p1042
(dp1043
g269
g91
sg49
g93
sg57
(lp1044
(i__main__
DelphiFormalParameter
p1045
(dp1046
g61
Nsg62
(lp1047
S'closingProgram'
p1048
asg65
(i__main__
DelphiPrimitiveType
p1049
(dp1050
g68
g101
sbsg72
Nsbasg278
(lp1051
sg280
(lp1052
sg282
(lp1053
g284
ag1048
asg285
(dp1054
g1048
g1049
ssg73
S'TUnregisteredAboutForm'
p1055
sg74
Nsg288
(lp1056
sg75
I0
sg76
g77
sg290
(i__main__
DelphiBlock
p1057
(dp1058
g293
(idelphi
DelphiCompoundStatement
p1059
(dp1060
g296
(lp1061
(idelphi
DelphiIfStatement
p1062
(dp1063
g300
(i__main__
DelphiIdentAccess
p1064
(dp1065
g303
S'domain'
p1066
sg305
(lp1067
(idelphi
DelphiFieldEndAccess
p1068
(dp1069
g309
S'playerOnly'
p1070
sbasbsg311
Nsg312
(idelphi
DelphiCompoundStatement
p1071
(dp1072
g296
(lp1073
(i__main__
DelphiAssignStatement
p1074
(dp1075
g318
(idelphi
DelphiAddOp
p1076
(dp1077
g398
S'-'
sg399
(idelphi
DelphiIntegerValue
p1078
(dp1079
g340
S'1'
sbsg402
(i__main__
DelphiIdentAccess
p1080
(dp1081
g303
S'TimePanel'
p1082
sg305
(lp1083
(idelphi
DelphiFieldEndAccess
p1084
(dp1085
g309
S'top'
p1086
sbasbsbsg323
(i__main__
DelphiIdentAccess
p1087
(dp1088
g303
S'self'
p1089
sg305
(lp1090
(idelphi
DelphiFieldEndAccess
p1091
(dp1092
g309
S'clientHeight'
p1093
sbasbsba(i__main__
DelphiAssignStatement
p1094
(dp1095
g318
(idelphi
DelphiStringAccess
p1096
(dp1097
g305
(lp1098
sg340
(idelphi
DelphiStringValue
p1099
(dp1100
g340
S'Thank you for using the StoryHarp player!'
p1101
sbsbsg323
(i__main__
DelphiIdentAccess
p1102
(dp1103
g303
S'self'
p1104
sg305
(lp1105
(idelphi
DelphiFieldEndAccess
p1106
(dp1107
g309
S'caption'
p1108
sbasbsba(i__main__
DelphiAssignStatement
p1109
(dp1110
g318
(idelphi
DelphiStringAccess
p1111
(dp1112
g305
(lp1113
sg340
(idelphi
DelphiStringValue
p1114
(dp1115
g340
S'Player-only mode'
p1116
sbsbsg323
(i__main__
DelphiIdentAccess
p1117
(dp1118
g303
S'self'
p1119
sg305
(lp1120
(idelphi
DelphiFieldEndAccess
p1121
(dp1122
g309
S'registeredToLabel'
p1123
sba(idelphi
DelphiFieldEndAccess
p1124
(dp1125
g309
S'caption'
p1126
sbasbsba(i__main__
DelphiAssignStatement
p1127
(dp1128
g318
(i__main__
DelphiIdentAccess
p1129
(dp1130
g303
S'false'
p1131
sg305
(lp1132
sbsg323
(i__main__
DelphiIdentAccess
p1133
(dp1134
g303
S'whyRegister'
p1135
sg305
(lp1136
(idelphi
DelphiFieldEndAccess
p1137
(dp1138
g309
S'visible'
p1139
sbasbsba(i__main__
DelphiAssignStatement
p1140
(dp1141
g318
(i__main__
DelphiIdentAccess
p1142
(dp1143
g303
S'false'
p1144
sg305
(lp1145
sbsg323
(i__main__
DelphiIdentAccess
p1146
(dp1147
g303
S'registerIt'
p1148
sg305
(lp1149
(idelphi
DelphiFieldEndAccess
p1150
(dp1151
g309
S'visible'
p1152
sbasbsba(i__main__
DelphiAssignStatement
p1153
(dp1154
g318
(i__main__
DelphiIdentAccess
p1155
(dp1156
g303
S'registerIt'
p1157
sg305
(lp1158
(idelphi
DelphiFieldEndAccess
p1159
(dp1160
g309
S'top'
p1161
sbasbsg323
(i__main__
DelphiIdentAccess
p1162
(dp1163
g303
S'readLicense'
p1164
sg305
(lp1165
(idelphi
DelphiFieldEndAccess
p1166
(dp1167
g309
S'top'
p1168
sbasbsbasbsba(idelphi
DelphiIfStatement
p1169
(dp1170
g300
(i__main__
DelphiIdentAccess
p1171
(dp1172
g303
S'closingProgram'
p1173
sg305
(lp1174
sbsg311
(i__main__
DelphiAssignStatement
p1175
(dp1176
g318
(idelphi
DelphiStringAccess
p1177
(dp1178
g305
(lp1179
sg340
(idelphi
DelphiStringValue
p1180
(dp1181
g340
S'Close'
p1182
sbsbsg323
(i__main__
DelphiIdentAccess
p1183
(dp1184
g303
S'close'
p1185
sg305
(lp1186
(idelphi
DelphiFieldEndAccess
p1187
(dp1188
g309
S'caption'
p1189
sbasbsbsg312
(i__main__
DelphiAssignStatement
p1190
(dp1191
g318
(idelphi
DelphiStringAccess
p1192
(dp1193
g305
(lp1194
sg340
(idelphi
DelphiStringValue
p1195
(dp1196
g340
S'Quit'
p1197
sbsbsg323
(i__main__
DelphiIdentAccess
p1198
(dp1199
g303
S'close'
p1200
sg305
(lp1201
(idelphi
DelphiFieldEndAccess
p1202
(dp1203
g309
S'caption'
p1204
sbasbsbsba(i__main__
DelphiAssignStatement
p1205
(dp1206
g318
(i__main__
DelphiIdentAccess
p1207
(dp1208
g303
S'closingProgram'
p1209
sg305
(lp1210
sbsg323
(i__main__
DelphiIdentAccess
p1211
(dp1212
g303
S'cancel'
p1213
sg305
(lp1214
(idelphi
DelphiFieldEndAccess
p1215
(dp1216
g309
S'visible'
p1217
sbasbsbasbsg949
(lp1218
sbsg102
g103
sbsS'formcreate'
p1219
(i__main__
DelphiMethodImplementation
p1220
(dp1221
g269
g108
sg49
g110
sg57
(lp1222
(i__main__
DelphiFormalParameter
p1223
(dp1224
g61
Nsg62
(lp1225
S'Sender'
p1226
asg65
(i__main__
DelphiNamedType
p1227
(dp1228
g68
S'TObject'
p1229
sg70
g1
sg71
Nsbsg72
Nsbasg278
(lp1230
sg280
(lp1231
sg282
(lp1232
g284
ag1226
asg285
(dp1233
g1226
g1227
ssg73
S'TUnregisteredAboutForm'
p1234
sg74
Nsg288
(lp1235
sg75
I0
sg76
g77
sg290
(i__main__
DelphiBlock
p1236
(dp1237
g293
(idelphi
DelphiCompoundStatement
p1238
(dp1239
g296
(lp1240
(i__main__
DelphiAssignStatement
p1241
(dp1242
g318
(i__main__
DelphiIdentAccess
p1243
(dp1244
g303
S'gVersionName'
p1245
sg305
(lp1246
sbsg323
(i__main__
DelphiIdentAccess
p1247
(dp1248
g303
S'versionLabel'
p1249
sg305
(lp1250
(idelphi
DelphiFieldEndAccess
p1251
(dp1252
g309
S'caption'
p1253
sbasbsbasbsg949
(lp1254
sbsbsS'readlicenseclick'
p1255
(i__main__
DelphiMethodImplementation
p1256
(dp1257
g269
g120
sg49
g122
sg57
(lp1258
(i__main__
DelphiFormalParameter
p1259
(dp1260
g61
Nsg62
(lp1261
S'Sender'
p1262
asg65
(i__main__
DelphiNamedType
p1263
(dp1264
g68
S'TObject'
p1265
sg70
g1
sg71
Nsbsg72
Nsbasg278
(lp1266
sg280
(lp1267
sg282
(lp1268
g284
ag1262
asg285
(dp1269
g1262
g1263
ssg73
S'TUnregisteredAboutForm'
p1270
sg74
Nsg288
(lp1271
sg75
I0
sg76
g77
sg290
(i__main__
DelphiBlock
p1272
(dp1273
g293
(idelphi
DelphiCompoundStatement
p1274
(dp1275
g296
(lp1276
(i__main__
DelphiAssignStatement
p1277
(dp1278
g318
Nsg323
(i__main__
DelphiIdentAccess
p1279
(dp1280
g303
S'application'
p1281
sg305
(lp1282
(idelphi
DelphiFieldEndAccess
p1283
(dp1284
g309
S'helpJump'
p1285
sba(idelphi
DelphiFunctionEndAccess
p1286
(dp1287
g361
(lp1288
(idelphi
DelphiStringAccess
p1289
(dp1290
g305
(lp1291
sg340
(idelphi
DelphiStringValue
p1292
(dp1293
g340
S'License'
p1294
sbsbasbasbsbasbsg949
(lp1295
sbsbsS'whyregisterclick'
p1296
(i__main__
DelphiMethodImplementation
p1297
(dp1298
g269
g132
sg49
g134
sg57
(lp1299
(i__main__
DelphiFormalParameter
p1300
(dp1301
g61
Nsg62
(lp1302
S'Sender'
p1303
asg65
(i__main__
DelphiNamedType
p1304
(dp1305
g68
S'TObject'
p1306
sg70
g1
sg71
Nsbsg72
Nsbasg278
(lp1307
sg280
(lp1308
sg282
(lp1309
g284
ag1303
asg285
(dp1310
g1303
g1304
ssg73
S'TUnregisteredAboutForm'
p1311
sg74
Nsg288
(lp1312
sg75
I0
sg76
g77
sg290
(i__main__
DelphiBlock
p1313
(dp1314
g293
(idelphi
DelphiCompoundStatement
p1315
(dp1316
g296
(lp1317
(i__main__
DelphiAssignStatement
p1318
(dp1319
g318
Nsg323
(i__main__
DelphiIdentAccess
p1320
(dp1321
g303
S'application'
p1322
sg305
(lp1323
(idelphi
DelphiFieldEndAccess
p1324
(dp1325
g309
S'helpJump'
p1326
sba(idelphi
DelphiFunctionEndAccess
p1327
(dp1328
g361
(lp1329
(idelphi
DelphiStringAccess
p1330
(dp1331
g305
(lp1332
sg340
(idelphi
DelphiStringValue
p1333
(dp1334
g340
S'Why_register?'
p1335
sbsbasbasbsbasbsg949
(lp1336
sbsbsS'hourslabelclick'
p1337
(i__main__
DelphiMethodImplementation
p1338
(dp1339
g269
g144
sg49
g146
sg57
(lp1340
(i__main__
DelphiFormalParameter
p1341
(dp1342
g61
Nsg62
(lp1343
S'Sender'
p1344
asg65
(i__main__
DelphiNamedType
p1345
(dp1346
g68
S'TObject'
p1347
sg70
g1
sg71
Nsbsg72
Nsbasg278
(lp1348
sg280
(lp1349
sg282
(lp1350
g284
ag1344
asg285
(dp1351
g1344
g1345
ssg73
S'TUnregisteredAboutForm'
p1352
sg74
Nsg288
(lp1353
sg75
I0
sg76
g77
sg290
(i__main__
DelphiBlock
p1354
(dp1355
g293
(idelphi
DelphiCompoundStatement
p1356
(dp1357
g296
Nsg102
(lp1358
S'var\r'
p1359
aS'  hours, minutes: smallint;\r'
p1360
aS'  hourString: string;\r'
p1361
aS' only for cfk testing -- remove later\r'
p1362
aS'\r'
aS"  if inputQuery('Testing', 'Enter number of hours', hourString) then\r"
p1363
aS'    hours := strToInt(hourString);\r'
p1364
aS"  if inputQuery('Testing', 'Enter number of minutes', hourString) then\r"
p1365
aS'    minutes := strToInt(hourString);\r'
p1366
aS'\r'
aS"  hoursLabel.caption := 'You have been evaluating StoryHarp for ';\r"
p1367
aS'  if hours >= 24 then\r'
p1368
aS"    hoursLabel.caption := hoursLabel.caption + 'more than 24 hours.'\r"
p1369
aS'  else if (minutes < 1) and (hours < 1) then\r'
p1370
aS"    hoursLabel.caption := hoursLabel.caption + 'less than one minute.'\r"
p1371
aS'  else if (minutes = 1) and (hours < 1) then\r'
p1372
aS"    hoursLabel.caption := hoursLabel.caption + 'one minute.'\r"
p1373
aS'  else if hours < 1 then\r'
p1374
aS"    hoursLabel.caption := hoursLabel.caption + intToStr(minutes) + ' minutes.'\r"
p1375
aS'  else if hours = 1 then\r'
p1376
aS"    hoursLabel.caption := hoursLabel.caption + intToStr(hours) + ' hour and ' + intToStr(minutes) + ' minutes.'\r"
p1377
aS'  else\r'
p1378
aS"    hoursLabel.caption := hoursLabel.caption + intToStr(hours) + ' hours and ' + intToStr(minutes) + ' minutes.';\r"
p1379
aS'  '
p1380
asbsg949
(lp1381
sbsbsS'closeclick'
p1382
(i__main__
DelphiMethodImplementation
p1383
(dp1384
g269
g156
sg49
g158
sg57
(lp1385
(i__main__
DelphiFormalParameter
p1386
(dp1387
g61
Nsg62
(lp1388
S'Sender'
p1389
asg65
(i__main__
DelphiNamedType
p1390
(dp1391
g68
S'TObject'
p1392
sg70
g1
sg71
Nsbsg72
Nsbasg278
(lp1393
sg280
(lp1394
sg282
(lp1395
g284
ag1389
asg285
(dp1396
g1389
g1390
ssg73
S'TUnregisteredAboutForm'
p1397
sg74
Nsg288
(lp1398
sg75
I0
sg76
g77
sg290
(i__main__
DelphiBlock
p1399
(dp1400
g293
(idelphi
DelphiCompoundStatement
p1401
(dp1402
g296
(lp1403
(i__main__
DelphiAssignStatement
p1404
(dp1405
g318
(i__main__
DelphiIdentAccess
p1406
(dp1407
g303
S'mrOK'
p1408
sg305
(lp1409
sbsg323
(i__main__
DelphiIdentAccess
p1410
(dp1411
g303
S'modalResult'
p1412
sg305
(lp1413
sbsbasbsg949
(lp1414
sbsbssS'propertyDeclarations'
p1415
(dp1416
sS'variableNamesInDeclaredOrder'
p1417
(lp1418
g42
ag48
ag24
ag30
ag22
ag38
ag40
ag46
ag12
ag20
ag44
ag36
ag16
ag26
ag28
ag14
ag32
ag10
ag18
ag34
asba(i__main__
DelphiVarSection
p1419
(dp1420
g953
I1
sg954
(lp1421
(idelphi
DelphiVarDecl
p1422
(dp1423
g958
Nsg959
(lp1424
S'UnregisteredAboutForm'
p1425
asg65
(i__main__
DelphiNamedType
p1426
(dp1427
g68
S'TUnregisteredAboutForm'
p1428
sg70
g1
sg71
NsbsbasbasS'includedUnits'
p1429
NsS'implementationUses'
p1430
(lp1431
S'USDomain'
p1432
aS'uregister'
p1433
aS'UFileSupport'
p1434
asg49
S'uabout'
p1435
sS'constSections'
p1436
(lp1437
sS'globalsInProperCase'
p1438
NsS'interfaceUses'
p1439
(lp1440
S'delphi_compatability'
p1441
aS'Windows'
p1442
aS'Messages'
p1443
aS'SysUtils'
p1444
aS'Classes'
p1445
aS'Graphics'
p1446
aS'Controls'
p1447
aS'Forms'
p1448
aS'Dialogs'
p1449
aS'ExtCtrls'
p1450
aS'StdCtrls'
p1451
asS'finalCommentToken'
p1452
(i__main__
PassStatement
p1453
(dp1454
g949
(lp1455
sg102
(lp1456
S' almost final comment\r'
p1457
aS' very final comment\r'
p1458
asbsS'varSections'
p1459
(lp1460
g1419
asS'globals'
p1461
NsS'originalFileName'
p1462
S'../../storyharp-js/converted_source/uabout.pas'
p1463
sS'proceduralImplementations'
p1464
(dp1465
sS'fileName'
p1466
S'/home/pdfernhout/workspace/storyharp-js/converted_source/uabout.pas'
p1467
sS'proceduralDeclarations'
p1468
(dp1469
sS'types'
p1470
(dp1471
S'tunregisteredaboutform'
p1472
g5
ssg102
(lp1473
S' initial comment\r'
p1474
aS' before interface and uses comment\r'
p1475
asb.