(i__main__
DelphiUnit
p1
(dp2
S'sectionsInOrderDefined'
p3
(lp4
(i__main__
DelphiVarSection
p5
(dp6
S'atTopLevel'
p7
I1
sS'varDeclList'
p8
(lp9
(idelphi
DelphiVarDecl
p10
(dp11
S'constExpression'
p12
NsS'identList'
p13
(lp14
S'iniFileChanged'
p15
asS'theType'
p16
(i__main__
DelphiPrimitiveType
p17
(dp18
S'typeName'
p19
S'boolean'
p20
sbsba(idelphi
DelphiVarDecl
p21
(dp22
g12
Nsg13
(lp23
S'plantFileChanged'
p24
asg16
(i__main__
DelphiPrimitiveType
p25
(dp26
g19
g20
sbsba(idelphi
DelphiVarDecl
p27
(dp28
g12
Nsg13
(lp29
S'gVersionName'
p30
asg16
(i__main__
DelphiPrimitiveType
p31
(dp32
g19
S'string'
p33
sbsbasba(i__main__
DelphiRecord
p34
(dp35
S'variableNamesInDeclaredOrder'
p36
(lp37
S'tempFile'
p38
aS'newFile'
p39
aS'backupFile'
p40
aS'writingWasSuccessful'
p41
asS'variableNamesInProperCase'
p42
(dp43
S'tempfile'
p44
g38
sS'backupfile'
p45
g40
sS'writingwassuccessful'
p46
g41
sS'newfile'
p47
g39
ssS'name'
p48
S'SaveFileNamesStructure'
p49
sS'variableNames'
p50
(dp51
S'tempfile'
p52
(i__main__
DelphiPrimitiveType
p53
(dp54
g19
g33
sbsS'backupfile'
p55
(i__main__
DelphiPrimitiveType
p56
(dp57
g19
g33
sbsS'writingwassuccessful'
p58
(i__main__
DelphiPrimitiveType
p59
(dp60
g19
g20
sbsS'newfile'
p61
(i__main__
DelphiPrimitiveType
p62
(dp63
g19
g33
sbssba(i__main__
DelphiConstSection
p64
(dp65
S'constDeclList'
p66
(lp67
(idelphi
DelphiConstDeclaration
p68
(dp69
g12
(idelphi
DelphiIntegerValue
p70
(dp71
g33
S'0'
sbsS'ident'
p72
S'kFileTypeAny'
p73
sg16
(idelphi
DelphiPrimitiveType
p74
(dp75
g19
S'UNDEFINED_NEEDS_CALCULATION'
p76
sbsba(idelphi
DelphiConstDeclaration
p77
(dp78
g12
(idelphi
DelphiIntegerValue
p79
(dp80
g33
S'1'
sbsg72
S'kFileTypePlant'
p81
sg16
(idelphi
DelphiPrimitiveType
p82
(dp83
g19
g76
sbsba(idelphi
DelphiConstDeclaration
p84
(dp85
g12
(idelphi
DelphiIntegerValue
p86
(dp87
g33
S'2'
sbsg72
S'kFileTypeTabbedText'
p88
sg16
(idelphi
DelphiPrimitiveType
p89
(dp90
g19
g76
sbsba(idelphi
DelphiConstDeclaration
p91
(dp92
g12
(idelphi
DelphiIntegerValue
p93
(dp94
g33
S'3'
sbsg72
S'kFileTypeStrategy'
p95
sg16
(idelphi
DelphiPrimitiveType
p96
(dp97
g19
g76
sbsba(idelphi
DelphiConstDeclaration
p98
(dp99
g12
(idelphi
DelphiIntegerValue
p100
(dp101
g33
S'4'
sbsg72
S'kFileTypeIni'
p102
sg16
(idelphi
DelphiPrimitiveType
p103
(dp104
g19
g76
sbsba(idelphi
DelphiConstDeclaration
p105
(dp106
g12
(idelphi
DelphiIntegerValue
p107
(dp108
g33
S'5'
sbsg72
S'kFileTypeExceptionList'
p109
sg16
(idelphi
DelphiPrimitiveType
p110
(dp111
g19
g76
sbsba(idelphi
DelphiConstDeclaration
p112
(dp113
g12
(idelphi
DelphiIntegerValue
p114
(dp115
g33
S'6'
sbsg72
S'kFileTypeBitmap'
p116
sg16
(idelphi
DelphiPrimitiveType
p117
(dp118
g19
g76
sbsba(idelphi
DelphiConstDeclaration
p119
(dp120
g12
(idelphi
DelphiIntegerValue
p121
(dp122
g33
S'7'
sbsg72
S'kFileTypeTdo'
p123
sg16
(idelphi
DelphiPrimitiveType
p124
(dp125
g19
g76
sbsba(idelphi
DelphiConstDeclaration
p126
(dp127
g12
(idelphi
DelphiIntegerValue
p128
(dp129
g33
S'8'
sbsg72
S'kFileTypeDXF'
p130
sg16
(idelphi
DelphiPrimitiveType
p131
(dp132
g19
g76
sbsba(idelphi
DelphiConstDeclaration
p133
(dp134
g12
(idelphi
DelphiIntegerValue
p135
(dp136
g33
S'9'
sbsg72
S'kFileTypeWorld'
p137
sg16
(idelphi
DelphiPrimitiveType
p138
(dp139
g19
g76
sbsba(idelphi
DelphiConstDeclaration
p140
(dp141
g12
(idelphi
DelphiIntegerValue
p142
(dp143
g33
S'10'
p144
sbsg72
S'kFileTypeSession'
p145
sg16
(idelphi
DelphiPrimitiveType
p146
(dp147
g19
g76
sbsba(idelphi
DelphiConstDeclaration
p148
(dp149
g12
(idelphi
DelphiIntegerValue
p150
(dp151
g33
S'11'
p152
sbsg72
S'kFileTypeSound'
p153
sg16
(idelphi
DelphiPrimitiveType
p154
(dp155
g19
g76
sbsba(idelphi
DelphiConstDeclaration
p156
(dp157
g12
(idelphi
DelphiIntegerValue
p158
(dp159
g33
S'12'
p160
sbsg72
S'kFileTypeMusic'
p161
sg16
(idelphi
DelphiPrimitiveType
p162
(dp163
g19
g76
sbsba(idelphi
DelphiConstDeclaration
p164
(dp165
g12
(idelphi
DelphiIntegerValue
p166
(dp167
g33
S'13'
p168
sbsg72
S'kFileTypeAgentCharacter'
p169
sg16
(idelphi
DelphiPrimitiveType
p170
(dp171
g19
g76
sbsba(idelphi
DelphiConstDeclaration
p172
(dp173
g12
(i__main__
DelphiIdentAccess
p174
(dp175
g72
S'true'
p176
sS'endAccessList'
p177
(lp178
sbsg72
S'kWritingWasSuccessful'
p179
sg16
(idelphi
DelphiPrimitiveType
p180
(dp181
g19
g76
sbsba(idelphi
DelphiConstDeclaration
p182
(dp183
g12
(i__main__
DelphiIdentAccess
p184
(dp185
g72
S'false'
p186
sg177
(lp187
sbsg72
S'kWritingFailed'
p188
sg16
(idelphi
DelphiPrimitiveType
p189
(dp190
g19
g76
sbsba(idelphi
DelphiConstDeclaration
p191
(dp192
g12
(idelphi
DelphiStringAccess
p193
(dp194
g177
(lp195
sg33
(idelphi
DelphiStringValue
p196
(dp197
g33
S''
sbsbsg72
S'kNoSuggestedFile'
p198
sg16
(idelphi
DelphiPrimitiveType
p199
(dp200
g19
g76
sbsba(idelphi
DelphiConstDeclaration
p201
(dp202
g12
(i__main__
DelphiIdentAccess
p203
(dp204
g72
S'true'
p205
sg177
(lp206
sbsg72
S'kAskForFileName'
p207
sg16
(idelphi
DelphiPrimitiveType
p208
(dp209
g19
g76
sbsba(idelphi
DelphiConstDeclaration
p210
(dp211
g12
(i__main__
DelphiIdentAccess
p212
(dp213
g72
S'false'
p214
sg177
(lp215
sbsg72
S'kDontAskForFileName'
p216
sg16
(idelphi
DelphiPrimitiveType
p217
(dp218
g19
g76
sbsba(idelphi
DelphiConstDeclaration
p219
(dp220
g12
(i__main__
DelphiIdentAccess
p221
(dp222
g72
S'true'
p223
sg177
(lp224
sbsg72
S'kOtherExtOK'
p225
sg16
(idelphi
DelphiPrimitiveType
p226
(dp227
g19
g76
sbsba(idelphi
DelphiConstDeclaration
p228
(dp229
g12
(i__main__
DelphiIdentAccess
p230
(dp231
g72
S'false'
p232
sg177
(lp233
sbsg72
S'kOtherExtNotOK'
p234
sg16
(idelphi
DelphiPrimitiveType
p235
(dp236
g19
g76
sbsbasg7
I1
sba(i__main__
DelphiProceduralImplementation
p237
(dp238
S'originalDeclaration'
p239
(i__main__
DelphiProceduralDeclaration
p240
(dp241
S'formalParameters'
p242
(lp243
(i__main__
DelphiFormalParameter
p244
(dp245
S'initialValue'
p246
NsS'names'
p247
(lp248
S'waitMessage'
p249
asg16
(i__main__
DelphiPrimitiveType
p250
(dp251
g19
g33
sbsS'parameterVariety'
p252
Nsbasg48
S'startWaitMessage'
p253
sS'resultType'
p254
Nsbsg48
g253
sg254
NsS'varParamIndexes'
p255
(lp256
sS'varParamsSkipped'
p257
(lp258
sS'argNames'
p259
(lp260
S'waitMessage'
p261
asS'argTypes'
p262
(dp263
g261
(i__main__
DelphiPrimitiveType
p264
(dp265
g19
g33
sbssg242
(lp266
(i__main__
DelphiFormalParameter
p267
(dp268
g246
Nsg247
(lp269
g261
asg16
g264
sg252
NsbasS'varParamNames'
p270
(lp271
sS'block'
p272
(i__main__
DelphiBlock
p273
(dp274
S'compoundStatement'
p275
(idelphi
DelphiCompoundStatement
p276
(dp277
S'statements'
p278
NsbsS'limitedDeclSectionList'
p279
(lp280
sbsS'commentLinesBefore'
p281
(lp282
S' unfinished - maybe unneeded\r'
p283
asba(i__main__
DelphiProceduralImplementation
p284
(dp285
g239
(i__main__
DelphiProceduralDeclaration
p286
(dp287
g242
(lp288
sg48
S'stopWaitMessage'
p289
sg254
Nsbsg48
g289
sg254
Nsg255
(lp290
sg257
(lp291
sg259
(lp292
sg262
(dp293
sg242
(lp294
sg270
(lp295
sg272
(i__main__
DelphiBlock
p296
(dp297
g275
(idelphi
DelphiCompoundStatement
p298
(dp299
g278
Nsbsg279
(lp300
sbsba(i__main__
DelphiProceduralImplementation
p301
(dp302
g239
(i__main__
DelphiProceduralDeclaration
p303
(dp304
g242
(lp305
(i__main__
DelphiFormalParameter
p306
(dp307
g246
Nsg247
(lp308
S'value'
p309
asg16
(i__main__
DelphiPrimitiveType
p310
(dp311
g19
g20
sbsg252
Nsbasg281
(lp312
S' conversion\r'
p313
asg48
S'boolToStr'
p314
sg254
(i__main__
DelphiPrimitiveType
p315
(dp316
g19
g33
sbsbsg48
g314
sg254
(i__main__
DelphiPrimitiveType
p317
(dp318
g19
g33
sbsg255
(lp319
sg257
(lp320
sg259
(lp321
S'value'
p322
asg262
(dp323
g322
(i__main__
DelphiPrimitiveType
p324
(dp325
g19
g20
sbssg242
(lp326
(i__main__
DelphiFormalParameter
p327
(dp328
g246
Nsg247
(lp329
g322
asg16
g324
sg252
Nsbasg270
(lp330
sg272
(i__main__
DelphiBlock
p331
(dp332
g275
(idelphi
DelphiCompoundStatement
p333
(dp334
g278
(lp335
(idelphi
DelphiIfStatement
p336
(dp337
S'expression'
p338
(i__main__
DelphiIdentAccess
p339
(dp340
g72
S'value'
p341
sg177
(lp342
sbsS'ifFalseStatement'
p343
(i__main__
DelphiAssignStatement
p344
(dp345
S'newValueExpression'
p346
(idelphi
DelphiStringAccess
p347
(dp348
g177
(lp349
sg33
(idelphi
DelphiStringValue
p350
(dp351
g33
S'false'
p352
sbsbsS'destinationExpression'
p353
(i__main__
DelphiIdentAccess
p354
(dp355
g72
S'result'
p356
sg177
(lp357
sbsbsS'ifTrueStatement'
p358
(i__main__
DelphiAssignStatement
p359
(dp360
g346
(idelphi
DelphiStringAccess
p361
(dp362
g177
(lp363
sg33
(idelphi
DelphiStringValue
p364
(dp365
g33
S'true'
p366
sbsbsg353
(i__main__
DelphiIdentAccess
p367
(dp368
g72
S'result'
p369
sg177
(lp370
sbsbsbasbsg279
(lp371
sbsg281
g312
sba(i__main__
DelphiProceduralImplementation
p372
(dp373
g239
(i__main__
DelphiProceduralDeclaration
p374
(dp375
g242
(lp376
(i__main__
DelphiFormalParameter
p377
(dp378
g246
Nsg247
(lp379
S'booleanString'
p380
asg16
(i__main__
DelphiPrimitiveType
p381
(dp382
g19
g33
sbsg252
Nsbasg48
S'strToBool'
p383
sg254
(i__main__
DelphiPrimitiveType
p384
(dp385
g19
g20
sbsbsg48
g383
sg254
(i__main__
DelphiPrimitiveType
p386
(dp387
g19
g20
sbsg255
(lp388
sg257
(lp389
sg259
(lp390
S'booleanString'
p391
asg262
(dp392
g391
(i__main__
DelphiPrimitiveType
p393
(dp394
g19
g33
sbssg242
(lp395
(i__main__
DelphiFormalParameter
p396
(dp397
g246
Nsg247
(lp398
g391
asg16
g393
sg252
Nsbasg270
(lp399
sg272
(i__main__
DelphiBlock
p400
(dp401
g275
(idelphi
DelphiCompoundStatement
p402
(dp403
g278
(lp404
(i__main__
DelphiAssignStatement
p405
(dp406
g346
(i__main__
DelphiIdentAccess
p407
(dp408
g72
S'false'
p409
sg177
(lp410
sbsg353
(i__main__
DelphiIdentAccess
p411
(dp412
g72
S'result'
p413
sg177
(lp414
sbsba(idelphi
DelphiIfStatement
p415
(dp416
g338
(idelphi
DelphiRelOp
p417
(dp418
S'simpleExpression1'
p419
(i__main__
DelphiIdentAccess
p420
(dp421
g72
S'booleanString'
p422
sg177
(lp423
sbsS'simpleExpression2'
p424
(idelphi
DelphiStringAccess
p425
(dp426
g177
(lp427
sg33
(idelphi
DelphiStringValue
p428
(dp429
g33
S''
sbsbsS'relOp'
p430
S'='
sbsg343
Nsg358
(i__main__
DelphiExitStatement
p431
(dp432
S'proceduralOrMethodImplementation'
p433
g372
sbsba(idelphi
DelphiIfStatement
p434
(dp435
g338
(idelphi
DelphiNestedExpressionListAccess
p436
(dp437
g177
(lp438
sS'expressionList'
p439
(lp440
(idelphi
DelphiRelOp
p441
(dp442
g419
(i__main__
DelphiIdentAccess
p443
(dp444
g72
S'upperCase'
p445
sg177
(lp446
(idelphi
DelphiFunctionEndAccess
p447
(dp448
g439
(lp449
(i__main__
DelphiIdentAccess
p450
(dp451
g72
S'booleanString'
p452
sg177
(lp453
sbasbasbsg424
(idelphi
DelphiStringAccess
p454
(dp455
g177
(lp456
sg33
(idelphi
DelphiStringValue
p457
(dp458
g33
S'TRUE'
p459
sbsbsg430
S'='
sbasbsg343
(idelphi
DelphiIfStatement
p460
(dp461
g338
(idelphi
DelphiNestedExpressionListAccess
p462
(dp463
g177
(lp464
sg439
(lp465
(idelphi
DelphiRelOp
p466
(dp467
g419
(i__main__
DelphiIdentAccess
p468
(dp469
g72
S'upperCase'
p470
sg177
(lp471
(idelphi
DelphiFunctionEndAccess
p472
(dp473
g439
(lp474
(i__main__
DelphiIdentAccess
p475
(dp476
g72
S'booleanString'
p477
sg177
(lp478
sbasbasbsg424
(idelphi
DelphiStringAccess
p479
(dp480
g177
(lp481
sg33
(idelphi
DelphiStringValue
p482
(dp483
g33
S'FALSE'
p484
sbsbsg430
S'='
sbasbsg343
Nsg358
(i__main__
DelphiAssignStatement
p485
(dp486
g346
(i__main__
DelphiIdentAccess
p487
(dp488
g72
S'false'
p489
sg177
(lp490
sbsg353
(i__main__
DelphiIdentAccess
p491
(dp492
g72
S'result'
p493
sg177
(lp494
sbsbsbsg358
(i__main__
DelphiAssignStatement
p495
(dp496
g346
(i__main__
DelphiIdentAccess
p497
(dp498
g72
S'true'
p499
sg177
(lp500
sbsg353
(i__main__
DelphiIdentAccess
p501
(dp502
g72
S'result'
p503
sg177
(lp504
sbsbsbasbsg279
(lp505
sbsba(i__main__
DelphiProceduralImplementation
p506
(dp507
g239
(i__main__
DelphiProceduralDeclaration
p508
(dp509
g242
(lp510
(i__main__
DelphiFormalParameter
p511
(dp512
g246
Nsg247
(lp513
S'aRect'
p514
asg16
(i__main__
DelphiNamedType
p515
(dp516
g19
S'TRect'
p517
sS'unitDefinedIn'
p518
g1
sS'unitName'
p519
Nsbsg252
Nsbasg48
S'rectToString'
p520
sg254
(i__main__
DelphiPrimitiveType
p521
(dp522
g19
g33
sbsbsg48
g520
sg254
(i__main__
DelphiPrimitiveType
p523
(dp524
g19
g33
sbsg255
(lp525
sg257
(lp526
sg259
(lp527
S'aRect'
p528
asg262
(dp529
g528
(i__main__
DelphiNamedType
p530
(dp531
g19
S'TRect'
p532
sg518
g1
sg519
Nsbssg242
(lp533
(i__main__
DelphiFormalParameter
p534
(dp535
g246
Nsg247
(lp536
g528
asg16
g530
sg252
Nsbasg270
(lp537
sg272
(i__main__
DelphiBlock
p538
(dp539
g275
(idelphi
DelphiCompoundStatement
p540
(dp541
g278
(lp542
(i__main__
DelphiAssignStatement
p543
(dp544
g346
(idelphi
DelphiAddOp
p545
(dp546
S'addOp'
p547
S'+'
sS'term2'
p548
(i__main__
DelphiIdentAccess
p549
(dp550
g72
S'intToStr'
p551
sg177
(lp552
(idelphi
DelphiFunctionEndAccess
p553
(dp554
g439
(lp555
(i__main__
DelphiIdentAccess
p556
(dp557
g72
S'aRect'
p558
sg177
(lp559
(idelphi
DelphiFieldEndAccess
p560
(dp561
S'field'
p562
S'bottom'
p563
sbasbasbasbsS'term1'
p564
(idelphi
DelphiAddOp
p565
(dp566
g547
S'+'
sg548
(idelphi
DelphiStringAccess
p567
(dp568
g177
(lp569
sg33
(idelphi
DelphiStringValue
p570
(dp571
g33
S' '
sbsbsg564
(idelphi
DelphiAddOp
p572
(dp573
g547
S'+'
sg548
(i__main__
DelphiIdentAccess
p574
(dp575
g72
S'intToStr'
p576
sg177
(lp577
(idelphi
DelphiFunctionEndAccess
p578
(dp579
g439
(lp580
(i__main__
DelphiIdentAccess
p581
(dp582
g72
S'aRect'
p583
sg177
(lp584
(idelphi
DelphiFieldEndAccess
p585
(dp586
g562
S'right'
p587
sbasbasbasbsg564
(idelphi
DelphiAddOp
p588
(dp589
g547
S'+'
sg548
(idelphi
DelphiStringAccess
p590
(dp591
g177
(lp592
sg33
(idelphi
DelphiStringValue
p593
(dp594
g33
S' '
sbsbsg564
(idelphi
DelphiAddOp
p595
(dp596
g547
S'+'
sg548
(i__main__
DelphiIdentAccess
p597
(dp598
g72
S'intToStr'
p599
sg177
(lp600
(idelphi
DelphiFunctionEndAccess
p601
(dp602
g439
(lp603
(i__main__
DelphiIdentAccess
p604
(dp605
g72
S'aRect'
p606
sg177
(lp607
(idelphi
DelphiFieldEndAccess
p608
(dp609
g562
S'top'
p610
sbasbasbasbsg564
(idelphi
DelphiAddOp
p611
(dp612
g547
S'+'
sg548
(idelphi
DelphiStringAccess
p613
(dp614
g177
(lp615
sg33
(idelphi
DelphiStringValue
p616
(dp617
g33
S' '
sbsbsg564
(i__main__
DelphiIdentAccess
p618
(dp619
g72
S'intToStr'
p620
sg177
(lp621
(idelphi
DelphiFunctionEndAccess
p622
(dp623
g439
(lp624
(i__main__
DelphiIdentAccess
p625
(dp626
g72
S'aRect'
p627
sg177
(lp628
(idelphi
DelphiFieldEndAccess
p629
(dp630
g562
S'left'
p631
sbasbasbasbsbsbsbsbsbsbsg353
(i__main__
DelphiIdentAccess
p632
(dp633
g72
S'result'
p634
sg177
(lp635
sbsbasbsg279
(lp636
sbsba(i__main__
DelphiProceduralImplementation
p637
(dp638
g239
(i__main__
DelphiProceduralDeclaration
p639
(dp640
g242
(lp641
(i__main__
DelphiFormalParameter
p642
(dp643
g246
Nsg247
(lp644
S'aString'
p645
asg16
(i__main__
DelphiPrimitiveType
p646
(dp647
g19
g33
sbsg252
Nsbasg48
S'stringToRect'
p648
sg254
(i__main__
DelphiNamedType
p649
(dp650
g19
S'TRect'
p651
sg518
g1
sg519
Nsbsbsg48
g648
sg254
(i__main__
DelphiNamedType
p652
(dp653
g19
S'TRect'
p654
sg518
g1
sg519
Nsbsg255
(lp655
sg257
(lp656
sg259
(lp657
S'aString'
p658
asg262
(dp659
g658
(i__main__
DelphiPrimitiveType
p660
(dp661
g19
g33
sbssg242
(lp662
(i__main__
DelphiFormalParameter
p663
(dp664
g246
Nsg247
(lp665
g658
asg16
g660
sg252
Nsbasg270
(lp666
sg272
(i__main__
DelphiBlock
p667
(dp668
g275
(idelphi
DelphiCompoundStatement
p669
(dp670
g278
(lp671
(i__main__
DelphiAssignStatement
p672
(dp673
g346
(i__main__
DelphiIdentAccess
p674
(dp675
g72
S'rect'
p676
sg177
(lp677
(idelphi
DelphiFunctionEndAccess
p678
(dp679
g439
(lp680
(idelphi
DelphiIntegerValue
p681
(dp682
g33
S'0'
sba(idelphi
DelphiIntegerValue
p683
(dp684
g33
S'0'
sba(idelphi
DelphiIntegerValue
p685
(dp686
g33
S'0'
sba(idelphi
DelphiIntegerValue
p687
(dp688
g33
S'0'
sbasbasbsg353
(i__main__
DelphiIdentAccess
p689
(dp690
g72
S'result'
p691
sg177
(lp692
sbsba(i__main__
DelphiAssignStatement
p693
(dp694
g346
(i__main__
DelphiIdentAccess
p695
(dp696
g72
S'KfStringStream'
p697
sg177
(lp698
(idelphi
DelphiFieldEndAccess
p699
(dp700
g562
S'create'
p701
sbasbsg353
(i__main__
DelphiIdentAccess
p702
(dp703
g72
S'stream'
p704
sg177
(lp705
sbsba(idelphi
DelphiTryFinallyStatement
p706
(dp707
S'tryStatements'
p708
(lp709
(i__main__
DelphiAssignStatement
p710
(dp711
g346
Nsg353
(i__main__
DelphiIdentAccess
p712
(dp713
g72
S'stream'
p714
sg177
(lp715
(idelphi
DelphiFieldEndAccess
p716
(dp717
g562
S'onStringSeparator'
p718
sba(idelphi
DelphiFunctionEndAccess
p719
(dp720
g439
(lp721
(i__main__
DelphiIdentAccess
p722
(dp723
g72
S'aString'
p724
sg177
(lp725
sba(idelphi
DelphiStringAccess
p726
(dp727
g177
(lp728
sg33
(idelphi
DelphiStringValue
p729
(dp730
g33
S' '
sbsbasbasbsba(i__main__
DelphiAssignStatement
p731
(dp732
g346
(i__main__
DelphiIdentAccess
p733
(dp734
g72
S'strToIntDef'
p735
sg177
(lp736
(idelphi
DelphiFunctionEndAccess
p737
(dp738
g439
(lp739
(i__main__
DelphiIdentAccess
p740
(dp741
g72
S'stream'
p742
sg177
(lp743
(idelphi
DelphiFieldEndAccess
p744
(dp745
g562
S'nextToken'
p746
sbasba(idelphi
DelphiIntegerValue
p747
(dp748
g33
S'0'
sbasbasbsg353
(i__main__
DelphiIdentAccess
p749
(dp750
g72
S'result'
p751
sg177
(lp752
(idelphi
DelphiFieldEndAccess
p753
(dp754
g562
S'left'
p755
sbasbsba(i__main__
DelphiAssignStatement
p756
(dp757
g346
(i__main__
DelphiIdentAccess
p758
(dp759
g72
S'strToIntDef'
p760
sg177
(lp761
(idelphi
DelphiFunctionEndAccess
p762
(dp763
g439
(lp764
(i__main__
DelphiIdentAccess
p765
(dp766
g72
S'stream'
p767
sg177
(lp768
(idelphi
DelphiFieldEndAccess
p769
(dp770
g562
S'nextToken'
p771
sbasba(idelphi
DelphiIntegerValue
p772
(dp773
g33
S'0'
sbasbasbsg353
(i__main__
DelphiIdentAccess
p774
(dp775
g72
S'result'
p776
sg177
(lp777
(idelphi
DelphiFieldEndAccess
p778
(dp779
g562
S'top'
p780
sbasbsba(i__main__
DelphiAssignStatement
p781
(dp782
g346
(i__main__
DelphiIdentAccess
p783
(dp784
g72
S'strToIntDef'
p785
sg177
(lp786
(idelphi
DelphiFunctionEndAccess
p787
(dp788
g439
(lp789
(i__main__
DelphiIdentAccess
p790
(dp791
g72
S'stream'
p792
sg177
(lp793
(idelphi
DelphiFieldEndAccess
p794
(dp795
g562
S'nextToken'
p796
sbasba(idelphi
DelphiIntegerValue
p797
(dp798
g33
S'0'
sbasbasbsg353
(i__main__
DelphiIdentAccess
p799
(dp800
g72
S'result'
p801
sg177
(lp802
(idelphi
DelphiFieldEndAccess
p803
(dp804
g562
S'right'
p805
sbasbsba(i__main__
DelphiAssignStatement
p806
(dp807
g346
(i__main__
DelphiIdentAccess
p808
(dp809
g72
S'strToIntDef'
p810
sg177
(lp811
(idelphi
DelphiFunctionEndAccess
p812
(dp813
g439
(lp814
(i__main__
DelphiIdentAccess
p815
(dp816
g72
S'stream'
p817
sg177
(lp818
(idelphi
DelphiFieldEndAccess
p819
(dp820
g562
S'nextToken'
p821
sbasba(idelphi
DelphiIntegerValue
p822
(dp823
g33
S'0'
sbasbasbsg353
(i__main__
DelphiIdentAccess
p824
(dp825
g72
S'result'
p826
sg177
(lp827
(idelphi
DelphiFieldEndAccess
p828
(dp829
g562
S'bottom'
p830
sbasbsbasS'finallyStatements'
p831
(lp832
(i__main__
DelphiAssignStatement
p833
(dp834
g346
Nsg353
(i__main__
DelphiIdentAccess
p835
(dp836
g72
S'stream'
p837
sg177
(lp838
(idelphi
DelphiFieldEndAccess
p839
(dp840
g562
S'free'
p841
sbasbsbasbasbsg279
(lp842
(i__main__
DelphiVarSection
p843
(dp844
g7
I0
sg8
(lp845
(idelphi
DelphiVarDecl
p846
(dp847
g12
Nsg13
(lp848
S'stream'
p849
asg16
(i__main__
DelphiNamedType
p850
(dp851
g19
S'KfStringStream'
p852
sg518
g1
sg519
Nsbsbasbasbsba(i__main__
DelphiProceduralImplementation
p853
(dp854
g239
(i__main__
DelphiProceduralDeclaration
p855
(dp856
g242
(lp857
(i__main__
DelphiFormalParameter
p858
(dp859
g246
Nsg247
(lp860
S'aPoint'
p861
asg16
(i__main__
DelphiNamedType
p862
(dp863
g19
S'TPoint'
p864
sg518
g1
sg519
Nsbsg252
Nsbasg48
S'pointToString'
p865
sg254
(i__main__
DelphiPrimitiveType
p866
(dp867
g19
g33
sbsbsg48
g865
sg254
(i__main__
DelphiPrimitiveType
p868
(dp869
g19
g33
sbsg255
(lp870
sg257
(lp871
sg259
(lp872
S'aPoint'
p873
asg262
(dp874
g873
(i__main__
DelphiNamedType
p875
(dp876
g19
S'TPoint'
p877
sg518
g1
sg519
Nsbssg242
(lp878
(i__main__
DelphiFormalParameter
p879
(dp880
g246
Nsg247
(lp881
g873
asg16
g875
sg252
Nsbasg270
(lp882
sg272
(i__main__
DelphiBlock
p883
(dp884
g275
(idelphi
DelphiCompoundStatement
p885
(dp886
g278
(lp887
(i__main__
DelphiAssignStatement
p888
(dp889
g346
(idelphi
DelphiAddOp
p890
(dp891
g547
S'+'
sg548
(i__main__
DelphiIdentAccess
p892
(dp893
g72
S'intToStr'
p894
sg177
(lp895
(idelphi
DelphiFunctionEndAccess
p896
(dp897
g439
(lp898
(i__main__
DelphiIdentAccess
p899
(dp900
g72
S'aPoint'
p901
sg177
(lp902
(idelphi
DelphiFieldEndAccess
p903
(dp904
g562
S'y'
sbasbasbasbsg564
(idelphi
DelphiAddOp
p905
(dp906
g547
S'+'
sg548
(idelphi
DelphiStringAccess
p907
(dp908
g177
(lp909
sg33
(idelphi
DelphiStringValue
p910
(dp911
g33
S'  '
p912
sbsbsg564
(i__main__
DelphiIdentAccess
p913
(dp914
g72
S'intToStr'
p915
sg177
(lp916
(idelphi
DelphiFunctionEndAccess
p917
(dp918
g439
(lp919
(i__main__
DelphiIdentAccess
p920
(dp921
g72
S'aPoint'
p922
sg177
(lp923
(idelphi
DelphiFieldEndAccess
p924
(dp925
g562
S'x'
sbasbasbasbsbsbsg353
(i__main__
DelphiIdentAccess
p926
(dp927
g72
S'result'
p928
sg177
(lp929
sbsbasbsg279
(lp930
sbsba(i__main__
DelphiProceduralImplementation
p931
(dp932
g239
(i__main__
DelphiProceduralDeclaration
p933
(dp934
g242
(lp935
(i__main__
DelphiFormalParameter
p936
(dp937
g246
Nsg247
(lp938
S'aString'
p939
asg16
(i__main__
DelphiPrimitiveType
p940
(dp941
g19
g33
sbsg252
Nsbasg48
S'stringToPoint'
p942
sg254
(i__main__
DelphiNamedType
p943
(dp944
g19
S'TPoint'
p945
sg518
g1
sg519
Nsbsbsg48
g942
sg254
(i__main__
DelphiNamedType
p946
(dp947
g19
S'TPoint'
p948
sg518
g1
sg519
Nsbsg255
(lp949
sg257
(lp950
sg259
(lp951
S'aString'
p952
asg262
(dp953
g952
(i__main__
DelphiPrimitiveType
p954
(dp955
g19
g33
sbssg242
(lp956
(i__main__
DelphiFormalParameter
p957
(dp958
g246
Nsg247
(lp959
g952
asg16
g954
sg252
Nsbasg270
(lp960
sg272
(i__main__
DelphiBlock
p961
(dp962
g275
(idelphi
DelphiCompoundStatement
p963
(dp964
g278
(lp965
(i__main__
DelphiAssignStatement
p966
(dp967
g346
(i__main__
DelphiIdentAccess
p968
(dp969
g72
S'point'
p970
sg177
(lp971
(idelphi
DelphiFunctionEndAccess
p972
(dp973
g439
(lp974
(idelphi
DelphiIntegerValue
p975
(dp976
g33
S'0'
sba(idelphi
DelphiIntegerValue
p977
(dp978
g33
S'0'
sbasbasbsg353
(i__main__
DelphiIdentAccess
p979
(dp980
g72
S'result'
p981
sg177
(lp982
sbsba(i__main__
DelphiAssignStatement
p983
(dp984
g346
(i__main__
DelphiIdentAccess
p985
(dp986
g72
S'KfStringStream'
p987
sg177
(lp988
(idelphi
DelphiFieldEndAccess
p989
(dp990
g562
S'create'
p991
sbasbsg353
(i__main__
DelphiIdentAccess
p992
(dp993
g72
S'stream'
p994
sg177
(lp995
sbsba(idelphi
DelphiTryFinallyStatement
p996
(dp997
g708
(lp998
(i__main__
DelphiAssignStatement
p999
(dp1000
g346
Nsg353
(i__main__
DelphiIdentAccess
p1001
(dp1002
g72
S'stream'
p1003
sg177
(lp1004
(idelphi
DelphiFieldEndAccess
p1005
(dp1006
g562
S'onStringSeparator'
p1007
sba(idelphi
DelphiFunctionEndAccess
p1008
(dp1009
g439
(lp1010
(i__main__
DelphiIdentAccess
p1011
(dp1012
g72
S'aString'
p1013
sg177
(lp1014
sba(idelphi
DelphiStringAccess
p1015
(dp1016
g177
(lp1017
sg33
(idelphi
DelphiStringValue
p1018
(dp1019
g33
S' '
sbsbasbasbsba(i__main__
DelphiAssignStatement
p1020
(dp1021
g346
(i__main__
DelphiIdentAccess
p1022
(dp1023
g72
S'strToIntDef'
p1024
sg177
(lp1025
(idelphi
DelphiFunctionEndAccess
p1026
(dp1027
g439
(lp1028
(i__main__
DelphiIdentAccess
p1029
(dp1030
g72
S'stream'
p1031
sg177
(lp1032
(idelphi
DelphiFieldEndAccess
p1033
(dp1034
g562
S'nextToken'
p1035
sbasba(idelphi
DelphiIntegerValue
p1036
(dp1037
g33
S'0'
sbasbasbsg353
(i__main__
DelphiIdentAccess
p1038
(dp1039
g72
S'result'
p1040
sg177
(lp1041
(idelphi
DelphiFieldEndAccess
p1042
(dp1043
g562
S'x'
sbasbsba(i__main__
DelphiAssignStatement
p1044
(dp1045
g346
(i__main__
DelphiIdentAccess
p1046
(dp1047
g72
S'strToIntDef'
p1048
sg177
(lp1049
(idelphi
DelphiFunctionEndAccess
p1050
(dp1051
g439
(lp1052
(i__main__
DelphiIdentAccess
p1053
(dp1054
g72
S'stream'
p1055
sg177
(lp1056
(idelphi
DelphiFieldEndAccess
p1057
(dp1058
g562
S'nextToken'
p1059
sbasba(idelphi
DelphiIntegerValue
p1060
(dp1061
g33
S'0'
sbasbasbsg353
(i__main__
DelphiIdentAccess
p1062
(dp1063
g72
S'result'
p1064
sg177
(lp1065
(idelphi
DelphiFieldEndAccess
p1066
(dp1067
g562
S'y'
sbasbsbasg831
(lp1068
(i__main__
DelphiAssignStatement
p1069
(dp1070
g346
Nsg353
(i__main__
DelphiIdentAccess
p1071
(dp1072
g72
S'stream'
p1073
sg177
(lp1074
(idelphi
DelphiFieldEndAccess
p1075
(dp1076
g562
S'free'
p1077
sbasbsbasbasbsg279
(lp1078
(i__main__
DelphiVarSection
p1079
(dp1080
g7
I0
sg8
(lp1081
(idelphi
DelphiVarDecl
p1082
(dp1083
g12
Nsg13
(lp1084
S'stream'
p1085
asg16
(i__main__
DelphiNamedType
p1086
(dp1087
g19
S'KfStringStream'
p1088
sg518
g1
sg519
Nsbsbasbasbsba(i__main__
DelphiProceduralImplementation
p1089
(dp1090
g239
(i__main__
DelphiProceduralDeclaration
p1091
(dp1092
g242
(lp1093
(i__main__
DelphiFormalParameter
p1094
(dp1095
g246
Nsg247
(lp1096
S'aString'
p1097
asg16
(i__main__
DelphiPrimitiveType
p1098
(dp1099
g19
g33
sbsg252
Nsbasg281
(lp1100
S' file i/o '
p1101
aS' ---------------------------------------------------------------------------- file i/o '
p1102
asg48
S'makeFileNameFrom'
p1103
sg254
(i__main__
DelphiPrimitiveType
p1104
(dp1105
g19
g33
sbsbsg48
g1103
sg254
(i__main__
DelphiPrimitiveType
p1106
(dp1107
g19
g33
sbsg255
(lp1108
sg257
(lp1109
sg259
(lp1110
S'aString'
p1111
asg262
(dp1112
g1111
(i__main__
DelphiPrimitiveType
p1113
(dp1114
g19
g33
sbssg242
(lp1115
(i__main__
DelphiFormalParameter
p1116
(dp1117
g246
Nsg247
(lp1118
g1111
asg16
g1113
sg252
Nsbasg270
(lp1119
sg272
(i__main__
DelphiBlock
p1120
(dp1121
g275
(idelphi
DelphiCompoundStatement
p1122
(dp1123
g278
(lp1124
(i__main__
DelphiAssignStatement
p1125
(dp1126
g346
(i__main__
DelphiIdentAccess
p1127
(dp1128
g72
S'aString'
p1129
sg177
(lp1130
sbsg353
(i__main__
DelphiIdentAccess
p1131
(dp1132
g72
S'result'
p1133
sg177
(lp1134
sbsba(i__main__
DelphiAssignStatement
p1135
(dp1136
g346
(i__main__
DelphiIdentAccess
p1137
(dp1138
g72
S'false'
p1139
sg177
(lp1140
sbsg353
(i__main__
DelphiIdentAccess
p1141
(dp1142
g72
S'done'
p1143
sg177
(lp1144
sbsba(idelphi
DelphiWhileStatement
p1145
(dp1146
S'statement'
p1147
(idelphi
DelphiCompoundStatement
p1148
(dp1149
g278
(lp1150
(i__main__
DelphiAssignStatement
p1151
(dp1152
g346
(i__main__
DelphiIdentAccess
p1153
(dp1154
g72
S'pos'
p1155
sg177
(lp1156
(idelphi
DelphiFunctionEndAccess
p1157
(dp1158
g439
(lp1159
(idelphi
DelphiStringAccess
p1160
(dp1161
g177
(lp1162
sg33
(idelphi
DelphiStringValue
p1163
(dp1164
g33
S' '
sbsba(i__main__
DelphiIdentAccess
p1165
(dp1166
g72
S'result'
p1167
sg177
(lp1168
sbasbasbsg353
(i__main__
DelphiIdentAccess
p1169
(dp1170
g72
S'spacePos'
p1171
sg177
(lp1172
sbsba(i__main__
DelphiAssignStatement
p1173
(dp1174
g346
(idelphi
DelphiNestedExpressionListAccess
p1175
(dp1176
g177
(lp1177
sg439
(lp1178
(idelphi
DelphiRelOp
p1179
(dp1180
g419
(i__main__
DelphiIdentAccess
p1181
(dp1182
g72
S'spacePos'
p1183
sg177
(lp1184
sbsg424
(idelphi
DelphiIntegerValue
p1185
(dp1186
g33
S'0'
sbsg430
S'<='
p1187
sbasbsg353
(i__main__
DelphiIdentAccess
p1188
(dp1189
g72
S'done'
p1190
sg177
(lp1191
sbsba(idelphi
DelphiIfStatement
p1192
(dp1193
g338
(idelphi
DelphiNot
p1194
(dp1195
S'factor'
p1196
(i__main__
DelphiIdentAccess
p1197
(dp1198
g72
S'done'
p1199
sg177
(lp1200
sbsbsg343
Nsg358
(i__main__
DelphiAssignStatement
p1201
(dp1202
g346
Nsg353
(i__main__
DelphiIdentAccess
p1203
(dp1204
g72
S'delete'
p1205
sg177
(lp1206
(idelphi
DelphiFunctionEndAccess
p1207
(dp1208
g439
(lp1209
(i__main__
DelphiIdentAccess
p1210
(dp1211
g72
S'result'
p1212
sg177
(lp1213
sba(i__main__
DelphiIdentAccess
p1214
(dp1215
g72
S'spacePos'
p1216
sg177
(lp1217
sba(idelphi
DelphiIntegerValue
p1218
(dp1219
g33
S'1'
sbasbasbsbsbasbsS'whileExpression'
p1220
(idelphi
DelphiNot
p1221
(dp1222
g1196
(i__main__
DelphiIdentAccess
p1223
(dp1224
g72
S'done'
p1225
sg177
(lp1226
sbsbsbasbsg279
(lp1227
(i__main__
DelphiVarSection
p1228
(dp1229
g7
I0
sg8
(lp1230
(idelphi
DelphiVarDecl
p1231
(dp1232
g12
Nsg13
(lp1233
S'done'
p1234
asg16
(i__main__
DelphiPrimitiveType
p1235
(dp1236
g19
g20
sbsba(idelphi
DelphiVarDecl
p1237
(dp1238
g12
Nsg13
(lp1239
S'spacePos'
p1240
asg16
(i__main__
DelphiPrimitiveType
p1241
(dp1242
g19
S'smallint'
p1243
sbsbasbasbsg281
g1100
sba(i__main__
DelphiProceduralImplementation
p1244
(dp1245
g239
(i__main__
DelphiProceduralDeclaration
p1246
(dp1247
g242
(lp1248
(i__main__
DelphiFormalParameter
p1249
(dp1250
g246
Nsg247
(lp1251
S'fileType'
p1252
asg16
(i__main__
DelphiPrimitiveType
p1253
(dp1254
g19
g1243
sbsg252
Nsbasg48
S'nameStringForFileType'
p1255
sg254
(i__main__
DelphiPrimitiveType
p1256
(dp1257
g19
g33
sbsbsg48
g1255
sg254
(i__main__
DelphiPrimitiveType
p1258
(dp1259
g19
g33
sbsg255
(lp1260
sg257
(lp1261
sg259
(lp1262
S'fileType'
p1263
asg262
(dp1264
g1263
(i__main__
DelphiPrimitiveType
p1265
(dp1266
g19
g1243
sbssg242
(lp1267
(i__main__
DelphiFormalParameter
p1268
(dp1269
g246
Nsg247
(lp1270
g1263
asg16
g1265
sg252
Nsbasg270
(lp1271
sg272
(i__main__
DelphiBlock
p1272
(dp1273
g275
(idelphi
DelphiCompoundStatement
p1274
(dp1275
g278
(lp1276
(idelphi
DelphiCaseStatement
p1277
(dp1278
S'elseStatement'
p1279
Nsg338
(i__main__
DelphiIdentAccess
p1280
(dp1281
g72
S'fileType'
p1282
sg177
(lp1283
sbsS'caseSelectorList'
p1284
(lp1285
(idelphi
DelphiCaseSelector
p1286
(dp1287
g1147
(i__main__
DelphiAssignStatement
p1288
(dp1289
g346
(idelphi
DelphiStringAccess
p1290
(dp1291
g177
(lp1292
sg33
(idelphi
DelphiStringValue
p1293
(dp1294
g33
S''
sbsbsg353
(i__main__
DelphiIdentAccess
p1295
(dp1296
g72
S'result'
p1297
sg177
(lp1298
sbsbsS'caseLabelList'
p1299
(lp1300
(i__main__
DelphiIdentAccess
p1301
(dp1302
g72
S'kFileTypeAny'
p1303
sg177
(lp1304
sbasba(idelphi
DelphiCaseSelector
p1305
(dp1306
g1147
(i__main__
DelphiAssignStatement
p1307
(dp1308
g346
(idelphi
DelphiStringAccess
p1309
(dp1310
g177
(lp1311
sg33
(idelphi
DelphiStringValue
p1312
(dp1313
g33
S'Plant'
p1314
sbsbsg353
(i__main__
DelphiIdentAccess
p1315
(dp1316
g72
S'result'
p1317
sg177
(lp1318
sbsbsg1299
(lp1319
(i__main__
DelphiIdentAccess
p1320
(dp1321
g72
S'kFileTypePlant'
p1322
sg177
(lp1323
sbasba(idelphi
DelphiCaseSelector
p1324
(dp1325
g1147
(i__main__
DelphiAssignStatement
p1326
(dp1327
g346
(idelphi
DelphiStringAccess
p1328
(dp1329
g177
(lp1330
sg33
(idelphi
DelphiStringValue
p1331
(dp1332
g33
S'Tabbed text'
p1333
sbsbsg353
(i__main__
DelphiIdentAccess
p1334
(dp1335
g72
S'result'
p1336
sg177
(lp1337
sbsbsg1299
(lp1338
(i__main__
DelphiIdentAccess
p1339
(dp1340
g72
S'kFileTypeTabbedText'
p1341
sg177
(lp1342
sbasba(idelphi
DelphiCaseSelector
p1343
(dp1344
g1147
(i__main__
DelphiAssignStatement
p1345
(dp1346
g346
(idelphi
DelphiStringAccess
p1347
(dp1348
g177
(lp1349
sg33
(idelphi
DelphiStringValue
p1350
(dp1351
g33
S'Strategy'
p1352
sbsbsg353
(i__main__
DelphiIdentAccess
p1353
(dp1354
g72
S'result'
p1355
sg177
(lp1356
sbsbsg1299
(lp1357
(i__main__
DelphiIdentAccess
p1358
(dp1359
g72
S'kFileTypeStrategy'
p1360
sg177
(lp1361
sbasba(idelphi
DelphiCaseSelector
p1362
(dp1363
g1147
(i__main__
DelphiAssignStatement
p1364
(dp1365
g346
(idelphi
DelphiStringAccess
p1366
(dp1367
g177
(lp1368
sg33
(idelphi
DelphiStringValue
p1369
(dp1370
g33
S'Ini'
p1371
sbsbsg353
(i__main__
DelphiIdentAccess
p1372
(dp1373
g72
S'result'
p1374
sg177
(lp1375
sbsbsg1299
(lp1376
(i__main__
DelphiIdentAccess
p1377
(dp1378
g72
S'kFileTypeIni'
p1379
sg177
(lp1380
sbasba(idelphi
DelphiCaseSelector
p1381
(dp1382
g1147
(i__main__
DelphiAssignStatement
p1383
(dp1384
g346
(idelphi
DelphiStringAccess
p1385
(dp1386
g177
(lp1387
sg33
(idelphi
DelphiStringValue
p1388
(dp1389
g33
S'Exception list'
p1390
sbsbsg353
(i__main__
DelphiIdentAccess
p1391
(dp1392
g72
S'result'
p1393
sg177
(lp1394
sbsbsg1299
(lp1395
(i__main__
DelphiIdentAccess
p1396
(dp1397
g72
S'kFileTypeExceptionList'
p1398
sg177
(lp1399
sbasba(idelphi
DelphiCaseSelector
p1400
(dp1401
g1147
(i__main__
DelphiAssignStatement
p1402
(dp1403
g346
(idelphi
DelphiStringAccess
p1404
(dp1405
g177
(lp1406
sg33
(idelphi
DelphiStringValue
p1407
(dp1408
g33
S'Bitmap'
p1409
sbsbsg353
(i__main__
DelphiIdentAccess
p1410
(dp1411
g72
S'result'
p1412
sg177
(lp1413
sbsbsg1299
(lp1414
(i__main__
DelphiIdentAccess
p1415
(dp1416
g72
S'kFileTypeBitmap'
p1417
sg177
(lp1418
sbasba(idelphi
DelphiCaseSelector
p1419
(dp1420
g1147
(i__main__
DelphiAssignStatement
p1421
(dp1422
g346
(idelphi
DelphiStringAccess
p1423
(dp1424
g177
(lp1425
sg33
(idelphi
DelphiStringValue
p1426
(dp1427
g33
S'3D object'
p1428
sbsbsg353
(i__main__
DelphiIdentAccess
p1429
(dp1430
g72
S'result'
p1431
sg177
(lp1432
sbsbsg1299
(lp1433
(i__main__
DelphiIdentAccess
p1434
(dp1435
g72
S'kFileTypeTdo'
p1436
sg177
(lp1437
sbasba(idelphi
DelphiCaseSelector
p1438
(dp1439
g1147
(i__main__
DelphiAssignStatement
p1440
(dp1441
g346
(idelphi
DelphiStringAccess
p1442
(dp1443
g177
(lp1444
sg33
(idelphi
DelphiStringValue
p1445
(dp1446
g33
S'DXF'
p1447
sbsbsg353
(i__main__
DelphiIdentAccess
p1448
(dp1449
g72
S'result'
p1450
sg177
(lp1451
sbsbsg1299
(lp1452
(i__main__
DelphiIdentAccess
p1453
(dp1454
g72
S'kFileTypeDXF'
p1455
sg177
(lp1456
sbasba(idelphi
DelphiCaseSelector
p1457
(dp1458
g1147
(i__main__
DelphiAssignStatement
p1459
(dp1460
g346
(idelphi
DelphiStringAccess
p1461
(dp1462
g177
(lp1463
sg33
(idelphi
DelphiStringValue
p1464
(dp1465
g33
S'World'
p1466
sbsbsg353
(i__main__
DelphiIdentAccess
p1467
(dp1468
g72
S'result'
p1469
sg177
(lp1470
sbsbsg1299
(lp1471
(i__main__
DelphiIdentAccess
p1472
(dp1473
g72
S'kFileTypeWorld'
p1474
sg177
(lp1475
sbasba(idelphi
DelphiCaseSelector
p1476
(dp1477
g1147
(i__main__
DelphiAssignStatement
p1478
(dp1479
g346
(idelphi
DelphiStringAccess
p1480
(dp1481
g177
(lp1482
sg33
(idelphi
DelphiStringValue
p1483
(dp1484
g33
S'Session'
p1485
sbsbsg353
(i__main__
DelphiIdentAccess
p1486
(dp1487
g72
S'result'
p1488
sg177
(lp1489
sbsbsg1299
(lp1490
(i__main__
DelphiIdentAccess
p1491
(dp1492
g72
S'kFileTypeSession'
p1493
sg177
(lp1494
sbasba(idelphi
DelphiCaseSelector
p1495
(dp1496
g1147
(i__main__
DelphiAssignStatement
p1497
(dp1498
g346
(idelphi
DelphiStringAccess
p1499
(dp1500
g177
(lp1501
sg33
(idelphi
DelphiStringValue
p1502
(dp1503
g33
S'Sound'
p1504
sbsbsg353
(i__main__
DelphiIdentAccess
p1505
(dp1506
g72
S'result'
p1507
sg177
(lp1508
sbsbsg1299
(lp1509
(i__main__
DelphiIdentAccess
p1510
(dp1511
g72
S'kFileTypeSound'
p1512
sg177
(lp1513
sbasba(idelphi
DelphiCaseSelector
p1514
(dp1515
g1147
(i__main__
DelphiAssignStatement
p1516
(dp1517
g346
(idelphi
DelphiStringAccess
p1518
(dp1519
g177
(lp1520
sg33
(idelphi
DelphiStringValue
p1521
(dp1522
g33
S'Music'
p1523
sbsbsg353
(i__main__
DelphiIdentAccess
p1524
(dp1525
g72
S'result'
p1526
sg177
(lp1527
sbsbsg1299
(lp1528
(i__main__
DelphiIdentAccess
p1529
(dp1530
g72
S'kFileTypeMusic'
p1531
sg177
(lp1532
sbasba(idelphi
DelphiCaseSelector
p1533
(dp1534
g1147
(i__main__
DelphiAssignStatement
p1535
(dp1536
g346
(idelphi
DelphiStringAccess
p1537
(dp1538
g177
(lp1539
sg33
(idelphi
DelphiStringValue
p1540
(dp1541
g33
S'Character'
p1542
sbsbsg353
(i__main__
DelphiIdentAccess
p1543
(dp1544
g72
S'result'
p1545
sg177
(lp1546
sbsbsg1299
(lp1547
(i__main__
DelphiIdentAccess
p1548
(dp1549
g72
S'kFileTypeAgentCharacter'
p1550
sg177
(lp1551
sbasbasbasbsg279
(lp1552
sbsba(i__main__
DelphiProceduralImplementation
p1553
(dp1554
g239
(i__main__
DelphiProceduralDeclaration
p1555
(dp1556
g242
(lp1557
(i__main__
DelphiFormalParameter
p1558
(dp1559
g246
Nsg247
(lp1560
S'fileType'
p1561
asg16
(i__main__
DelphiPrimitiveType
p1562
(dp1563
g19
g1243
sbsg252
Nsbasg48
S'extensionForFileType'
p1564
sg254
(i__main__
DelphiPrimitiveType
p1565
(dp1566
g19
g33
sbsbsg48
g1564
sg254
(i__main__
DelphiPrimitiveType
p1567
(dp1568
g19
g33
sbsg255
(lp1569
sg257
(lp1570
sg259
(lp1571
S'fileType'
p1572
asg262
(dp1573
g1572
(i__main__
DelphiPrimitiveType
p1574
(dp1575
g19
g1243
sbssg242
(lp1576
(i__main__
DelphiFormalParameter
p1577
(dp1578
g246
Nsg247
(lp1579
g1572
asg16
g1574
sg252
Nsbasg270
(lp1580
sg272
(i__main__
DelphiBlock
p1581
(dp1582
g275
(idelphi
DelphiCompoundStatement
p1583
(dp1584
g278
(lp1585
(i__main__
DelphiAssignStatement
p1586
(dp1587
g346
(idelphi
DelphiStringAccess
p1588
(dp1589
g177
(lp1590
sg33
(idelphi
DelphiStringValue
p1591
(dp1592
g33
S''
sbsbsg353
(i__main__
DelphiIdentAccess
p1593
(dp1594
g72
S'result'
p1595
sg177
(lp1596
sbsba(idelphi
DelphiCaseStatement
p1597
(dp1598
g1279
Nsg338
(i__main__
DelphiIdentAccess
p1599
(dp1600
g72
S'fileType'
p1601
sg177
(lp1602
sbsg1284
(lp1603
(idelphi
DelphiCaseSelector
p1604
(dp1605
g1147
(i__main__
DelphiAssignStatement
p1606
(dp1607
g346
(idelphi
DelphiStringAccess
p1608
(dp1609
g177
(lp1610
sg33
(idelphi
DelphiStringValue
p1611
(dp1612
g33
S'*'
sbsbsg353
(i__main__
DelphiIdentAccess
p1613
(dp1614
g72
S'result'
p1615
sg177
(lp1616
sbsbsg1299
(lp1617
(i__main__
DelphiIdentAccess
p1618
(dp1619
g72
S'kFileTypeAny'
p1620
sg177
(lp1621
sbasba(idelphi
DelphiCaseSelector
p1622
(dp1623
g1147
(i__main__
DelphiAssignStatement
p1624
(dp1625
g346
(idelphi
DelphiStringAccess
p1626
(dp1627
g177
(lp1628
sg33
(idelphi
DelphiStringValue
p1629
(dp1630
g33
S'pla'
p1631
sbsbsg353
(i__main__
DelphiIdentAccess
p1632
(dp1633
g72
S'result'
p1634
sg177
(lp1635
sbsbsg1299
(lp1636
(i__main__
DelphiIdentAccess
p1637
(dp1638
g72
S'kFileTypePlant'
p1639
sg177
(lp1640
sbasba(idelphi
DelphiCaseSelector
p1641
(dp1642
g1147
(i__main__
DelphiAssignStatement
p1643
(dp1644
g346
(idelphi
DelphiStringAccess
p1645
(dp1646
g177
(lp1647
sg33
(idelphi
DelphiStringValue
p1648
(dp1649
g33
S'tab'
p1650
sbsbsg353
(i__main__
DelphiIdentAccess
p1651
(dp1652
g72
S'result'
p1653
sg177
(lp1654
sbsbsg1299
(lp1655
(i__main__
DelphiIdentAccess
p1656
(dp1657
g72
S'kFileTypeTabbedText'
p1658
sg177
(lp1659
sbasba(idelphi
DelphiCaseSelector
p1660
(dp1661
g1147
(i__main__
DelphiAssignStatement
p1662
(dp1663
g346
(idelphi
DelphiStringAccess
p1664
(dp1665
g177
(lp1666
sg33
(idelphi
DelphiStringValue
p1667
(dp1668
g33
S'str'
p1669
sbsbsg353
(i__main__
DelphiIdentAccess
p1670
(dp1671
g72
S'result'
p1672
sg177
(lp1673
sbsbsg1299
(lp1674
(i__main__
DelphiIdentAccess
p1675
(dp1676
g72
S'kFileTypeStrategy'
p1677
sg177
(lp1678
sbasba(idelphi
DelphiCaseSelector
p1679
(dp1680
g1147
(i__main__
DelphiAssignStatement
p1681
(dp1682
g346
(idelphi
DelphiStringAccess
p1683
(dp1684
g177
(lp1685
sg33
(idelphi
DelphiStringValue
p1686
(dp1687
g33
S'ini'
p1688
sbsbsg353
(i__main__
DelphiIdentAccess
p1689
(dp1690
g72
S'result'
p1691
sg177
(lp1692
sbsbsg1299
(lp1693
(i__main__
DelphiIdentAccess
p1694
(dp1695
g72
S'kFileTypeIni'
p1696
sg177
(lp1697
sbasba(idelphi
DelphiCaseSelector
p1698
(dp1699
g1147
(i__main__
DelphiAssignStatement
p1700
(dp1701
g346
(idelphi
DelphiStringAccess
p1702
(dp1703
g177
(lp1704
sg33
(idelphi
DelphiStringValue
p1705
(dp1706
g33
S'nex'
p1707
sbsbsg353
(i__main__
DelphiIdentAccess
p1708
(dp1709
g72
S'result'
p1710
sg177
(lp1711
sbsbsg1299
(lp1712
(i__main__
DelphiIdentAccess
p1713
(dp1714
g72
S'kFileTypeExceptionList'
p1715
sg177
(lp1716
sbasba(idelphi
DelphiCaseSelector
p1717
(dp1718
g1147
(i__main__
DelphiAssignStatement
p1719
(dp1720
g346
(idelphi
DelphiStringAccess
p1721
(dp1722
g177
(lp1723
sg33
(idelphi
DelphiStringValue
p1724
(dp1725
g33
S'bmp'
p1726
sbsbsg353
(i__main__
DelphiIdentAccess
p1727
(dp1728
g72
S'result'
p1729
sg177
(lp1730
sbsbsg1299
(lp1731
(i__main__
DelphiIdentAccess
p1732
(dp1733
g72
S'kFileTypeBitmap'
p1734
sg177
(lp1735
sbasba(idelphi
DelphiCaseSelector
p1736
(dp1737
g1147
(i__main__
DelphiAssignStatement
p1738
(dp1739
g346
(idelphi
DelphiStringAccess
p1740
(dp1741
g177
(lp1742
sg33
(idelphi
DelphiStringValue
p1743
(dp1744
g33
S'tdo'
p1745
sbsbsg353
(i__main__
DelphiIdentAccess
p1746
(dp1747
g72
S'result'
p1748
sg177
(lp1749
sbsbsg1299
(lp1750
(i__main__
DelphiIdentAccess
p1751
(dp1752
g72
S'kFileTypeTdo'
p1753
sg177
(lp1754
sbasba(idelphi
DelphiCaseSelector
p1755
(dp1756
g1147
(i__main__
DelphiAssignStatement
p1757
(dp1758
g346
(idelphi
DelphiStringAccess
p1759
(dp1760
g177
(lp1761
sg33
(idelphi
DelphiStringValue
p1762
(dp1763
g33
S'dxf'
p1764
sbsbsg353
(i__main__
DelphiIdentAccess
p1765
(dp1766
g72
S'result'
p1767
sg177
(lp1768
sbsbsg1299
(lp1769
(i__main__
DelphiIdentAccess
p1770
(dp1771
g72
S'kFileTypeDXF'
p1772
sg177
(lp1773
sbasba(idelphi
DelphiCaseSelector
p1774
(dp1775
g1147
(i__main__
DelphiAssignStatement
p1776
(dp1777
g346
(idelphi
DelphiStringAccess
p1778
(dp1779
g177
(lp1780
sg33
(idelphi
DelphiStringValue
p1781
(dp1782
g33
S'wld'
p1783
sbsbsg353
(i__main__
DelphiIdentAccess
p1784
(dp1785
g72
S'result'
p1786
sg177
(lp1787
sbsbsg1299
(lp1788
(i__main__
DelphiIdentAccess
p1789
(dp1790
g72
S'kFileTypeWorld'
p1791
sg177
(lp1792
sbasba(idelphi
DelphiCaseSelector
p1793
(dp1794
g1147
(i__main__
DelphiAssignStatement
p1795
(dp1796
g346
(idelphi
DelphiStringAccess
p1797
(dp1798
g177
(lp1799
sg33
(idelphi
DelphiStringValue
p1800
(dp1801
g33
S'ses'
p1802
sbsbsg353
(i__main__
DelphiIdentAccess
p1803
(dp1804
g72
S'result'
p1805
sg177
(lp1806
sbsbsg1299
(lp1807
(i__main__
DelphiIdentAccess
p1808
(dp1809
g72
S'kFileTypeSession'
p1810
sg177
(lp1811
sbasba(idelphi
DelphiCaseSelector
p1812
(dp1813
g1147
(i__main__
DelphiAssignStatement
p1814
(dp1815
g346
(idelphi
DelphiStringAccess
p1816
(dp1817
g177
(lp1818
sg33
(idelphi
DelphiStringValue
p1819
(dp1820
g33
S'wav'
p1821
sbsbsg353
(i__main__
DelphiIdentAccess
p1822
(dp1823
g72
S'result'
p1824
sg177
(lp1825
sbsbsg1299
(lp1826
(i__main__
DelphiIdentAccess
p1827
(dp1828
g72
S'kFileTypeSound'
p1829
sg177
(lp1830
sbasba(idelphi
DelphiCaseSelector
p1831
(dp1832
g1147
(i__main__
DelphiAssignStatement
p1833
(dp1834
g346
(idelphi
DelphiStringAccess
p1835
(dp1836
g177
(lp1837
sg33
(idelphi
DelphiStringValue
p1838
(dp1839
g33
S'mid'
p1840
sbsbsg353
(i__main__
DelphiIdentAccess
p1841
(dp1842
g72
S'result'
p1843
sg177
(lp1844
sbsbsg1299
(lp1845
(i__main__
DelphiIdentAccess
p1846
(dp1847
g72
S'kFileTypeMusic'
p1848
sg177
(lp1849
sbasba(idelphi
DelphiCaseSelector
p1850
(dp1851
g1147
(i__main__
DelphiAssignStatement
p1852
(dp1853
g346
(idelphi
DelphiStringAccess
p1854
(dp1855
g177
(lp1856
sg33
(idelphi
DelphiStringValue
p1857
(dp1858
g33
S'acs'
p1859
sbsbsg353
(i__main__
DelphiIdentAccess
p1860
(dp1861
g72
S'result'
p1862
sg177
(lp1863
sbsbsg1299
(lp1864
(i__main__
DelphiIdentAccess
p1865
(dp1866
g72
S'kFileTypeAgentCharacter'
p1867
sg177
(lp1868
sbasbasbasbsg279
(lp1869
sbsba(i__main__
DelphiProceduralImplementation
p1870
(dp1871
g239
(i__main__
DelphiProceduralDeclaration
p1872
(dp1873
g242
(lp1874
(i__main__
DelphiFormalParameter
p1875
(dp1876
g246
Nsg247
(lp1877
S'fileType'
p1878
asg16
(i__main__
DelphiPrimitiveType
p1879
(dp1880
g19
g1243
sbsg252
Nsbasg48
S'filterStringForFileType'
p1881
sg254
(i__main__
DelphiPrimitiveType
p1882
(dp1883
g19
g33
sbsbsg48
g1881
sg254
(i__main__
DelphiPrimitiveType
p1884
(dp1885
g19
g33
sbsg255
(lp1886
sg257
(lp1887
sg259
(lp1888
S'fileType'
p1889
asg262
(dp1890
g1889
(i__main__
DelphiPrimitiveType
p1891
(dp1892
g19
g1243
sbssg242
(lp1893
(i__main__
DelphiFormalParameter
p1894
(dp1895
g246
Nsg247
(lp1896
g1889
asg16
g1891
sg252
Nsbasg270
(lp1897
sg272
(i__main__
DelphiBlock
p1898
(dp1899
g275
(idelphi
DelphiCompoundStatement
p1900
(dp1901
g278
(lp1902
(i__main__
DelphiAssignStatement
p1903
(dp1904
g346
(i__main__
DelphiIdentAccess
p1905
(dp1906
g72
S'extensionForFileType'
p1907
sg177
(lp1908
(idelphi
DelphiFunctionEndAccess
p1909
(dp1910
g439
(lp1911
(i__main__
DelphiIdentAccess
p1912
(dp1913
g72
S'fileType'
p1914
sg177
(lp1915
sbasbasbsg353
(i__main__
DelphiIdentAccess
p1916
(dp1917
g72
S'extension'
p1918
sg177
(lp1919
sbsba(idelphi
DelphiIfStatement
p1920
(dp1921
g338
(idelphi
DelphiRelOp
p1922
(dp1923
g419
(i__main__
DelphiIdentAccess
p1924
(dp1925
g72
S'fileType'
p1926
sg177
(lp1927
sbsg424
(i__main__
DelphiIdentAccess
p1928
(dp1929
g72
S'kFileTypeAny'
p1930
sg177
(lp1931
sbsg430
S'='
sbsg343
(i__main__
DelphiAssignStatement
p1932
(dp1933
g346
(idelphi
DelphiAddOp
p1934
(dp1935
g547
S'+'
sg548
(idelphi
DelphiStringAccess
p1936
(dp1937
g177
(lp1938
sg33
(idelphi
DelphiStringValue
p1939
(dp1940
g33
S'|All files (*.*)|*.*'
p1941
sbsbsg564
(idelphi
DelphiAddOp
p1942
(dp1943
g547
S'+'
sg548
(i__main__
DelphiIdentAccess
p1944
(dp1945
g72
S'extension'
p1946
sg177
(lp1947
sbsg564
(idelphi
DelphiAddOp
p1948
(dp1949
g547
S'+'
sg548
(idelphi
DelphiStringAccess
p1950
(dp1951
g177
(lp1952
sg33
(idelphi
DelphiStringValue
p1953
(dp1954
g33
S')|*.'
p1955
sbsbsg564
(idelphi
DelphiAddOp
p1956
(dp1957
g547
S'+'
sg548
(i__main__
DelphiIdentAccess
p1958
(dp1959
g72
S'extension'
p1960
sg177
(lp1961
sbsg564
(idelphi
DelphiAddOp
p1962
(dp1963
g547
S'+'
sg548
(idelphi
DelphiStringAccess
p1964
(dp1965
g177
(lp1966
sg33
(idelphi
DelphiStringValue
p1967
(dp1968
g33
S' files (*.'
p1969
sbsbsg564
(i__main__
DelphiIdentAccess
p1970
(dp1971
g72
S'nameStringForFileType'
p1972
sg177
(lp1973
(idelphi
DelphiFunctionEndAccess
p1974
(dp1975
g439
(lp1976
(i__main__
DelphiIdentAccess
p1977
(dp1978
g72
S'fileType'
p1979
sg177
(lp1980
sbasbasbsbsbsbsbsbsg353
(i__main__
DelphiIdentAccess
p1981
(dp1982
g72
S'result'
p1983
sg177
(lp1984
sbsbsg358
(i__main__
DelphiAssignStatement
p1985
(dp1986
g346
(idelphi
DelphiStringAccess
p1987
(dp1988
g177
(lp1989
sg33
(idelphi
DelphiStringValue
p1990
(dp1991
g33
S'All files (*.*)|*.*'
p1992
sbsbsg353
(i__main__
DelphiIdentAccess
p1993
(dp1994
g72
S'result'
p1995
sg177
(lp1996
sbsbsbasbsg279
(lp1997
(i__main__
DelphiVarSection
p1998
(dp1999
g7
I0
sg8
(lp2000
(idelphi
DelphiVarDecl
p2001
(dp2002
g12
Nsg13
(lp2003
S'extension'
p2004
asg16
(i__main__
DelphiPrimitiveType
p2005
(dp2006
g19
g33
sbsbasbasbsba(i__main__
DelphiProceduralImplementation
p2007
(dp2008
g239
(i__main__
DelphiProceduralDeclaration
p2009
(dp2010
g242
(lp2011
(i__main__
DelphiFormalParameter
p2012
(dp2013
g246
Nsg247
(lp2014
S'fileType'
p2015
asg16
(i__main__
DelphiPrimitiveType
p2016
(dp2017
g19
g1243
sbsg252
Nsba(i__main__
DelphiFormalParameter
p2018
(dp2019
g246
Nsg247
(lp2020
S'suggestedFile'
p2021
asg16
(i__main__
DelphiPrimitiveType
p2022
(dp2023
g19
g33
sbsg252
S'const'
p2024
sba(i__main__
DelphiFormalParameter
p2025
(dp2026
g246
Nsg247
(lp2027
S'aTitle'
p2028
asg16
(i__main__
DelphiPrimitiveType
p2029
(dp2030
g19
g33
sbsg252
Nsba(i__main__
DelphiFormalParameter
p2031
(dp2032
g246
Nsg247
(lp2033
S'allowOtherExtensions'
p2034
asg16
(i__main__
DelphiPrimitiveType
p2035
(dp2036
g19
g20
sbsg252
Nsbasg48
S'getFileOpenInfo'
p2037
sg254
(i__main__
DelphiPrimitiveType
p2038
(dp2039
g19
g33
sbsbsg48
g2037
sg254
(i__main__
DelphiPrimitiveType
p2040
(dp2041
g19
g33
sbsg255
(lp2042
sg257
(lp2043
sg259
(lp2044
S'fileType'
p2045
aS'suggestedFile'
p2046
aS'aTitle'
p2047
aS'allowOtherExtensions'
p2048
asg262
(dp2049
g2048
(i__main__
DelphiPrimitiveType
p2050
(dp2051
g19
g20
sbsg2045
(i__main__
DelphiPrimitiveType
p2052
(dp2053
g19
g1243
sbsg2046
(i__main__
DelphiPrimitiveType
p2054
(dp2055
g19
g33
sbsg2047
(i__main__
DelphiPrimitiveType
p2056
(dp2057
g19
g33
sbssg242
(lp2058
(i__main__
DelphiFormalParameter
p2059
(dp2060
g246
Nsg247
(lp2061
g2045
asg16
g2052
sg252
Nsba(i__main__
DelphiFormalParameter
p2062
(dp2063
g246
Nsg247
(lp2064
g2046
asg16
g2054
sg252
g2024
sba(i__main__
DelphiFormalParameter
p2065
(dp2066
g246
Nsg247
(lp2067
g2047
asg16
g2056
sg252
Nsba(i__main__
DelphiFormalParameter
p2068
(dp2069
g246
Nsg247
(lp2070
g2048
asg16
g2050
sg252
Nsbasg270
(lp2071
sg272
(i__main__
DelphiBlock
p2072
(dp2073
g275
(idelphi
DelphiCompoundStatement
p2074
(dp2075
g278
(lp2076
(i__main__
DelphiAssignStatement
p2077
(dp2078
g346
(idelphi
DelphiStringAccess
p2079
(dp2080
g177
(lp2081
sg33
(idelphi
DelphiStringValue
p2082
(dp2083
g33
S''
sbsbsg353
(i__main__
DelphiIdentAccess
p2084
(dp2085
g72
S'result'
p2086
sg177
(lp2087
sbsba(i__main__
DelphiAssignStatement
p2088
(dp2089
g346
(i__main__
DelphiIdentAccess
p2090
(dp2091
g72
S'TOpenDialog'
p2092
sg177
(lp2093
(idelphi
DelphiFieldEndAccess
p2094
(dp2095
g562
S'create'
p2096
sba(idelphi
DelphiFunctionEndAccess
p2097
(dp2098
g439
(lp2099
(i__main__
DelphiIdentAccess
p2100
(dp2101
g72
S'Application'
p2102
sg177
(lp2103
sbasbasbsg353
(i__main__
DelphiIdentAccess
p2104
(dp2105
g72
S'openDialog'
p2106
sg177
(lp2107
sbsba(idelphi
DelphiTryFinallyStatement
p2108
(dp2109
g708
(lp2110
(idelphi
DelphiWithStatement
p2111
(dp2112
g1147
(idelphi
DelphiCompoundStatement
p2113
(dp2114
g278
(lp2115
(idelphi
DelphiIfStatement
p2116
(dp2117
g338
(idelphi
DelphiRelOp
p2118
(dp2119
g419
(i__main__
DelphiIdentAccess
p2120
(dp2121
g72
S'suggestedFile'
p2122
sg177
(lp2123
sbsg424
(idelphi
DelphiStringAccess
p2124
(dp2125
g177
(lp2126
sg33
(idelphi
DelphiStringValue
p2127
(dp2128
g33
S''
sbsbsg430
S'='
sbsg343
(idelphi
DelphiCompoundStatement
p2129
(dp2130
g278
(lp2131
(i__main__
DelphiAssignStatement
p2132
(dp2133
g346
(i__main__
DelphiIdentAccess
p2134
(dp2135
g72
S'expandFileName'
p2136
sg177
(lp2137
(idelphi
DelphiFunctionEndAccess
p2138
(dp2139
g439
(lp2140
(i__main__
DelphiIdentAccess
p2141
(dp2142
g72
S'suggestedFile'
p2143
sg177
(lp2144
sbasbasbsg353
(i__main__
DelphiIdentAccess
p2145
(dp2146
g72
S'fullSuggestedFileName'
p2147
sg177
(lp2148
sbsba(i__main__
DelphiAssignStatement
p2149
(dp2150
g346
(i__main__
DelphiIdentAccess
p2151
(dp2152
g72
S'extractFilePath'
p2153
sg177
(lp2154
(idelphi
DelphiFunctionEndAccess
p2155
(dp2156
g439
(lp2157
(i__main__
DelphiIdentAccess
p2158
(dp2159
g72
S'fullSuggestedFileName'
p2160
sg177
(lp2161
sbasbasbsg353
(i__main__
DelphiIdentAccess
p2162
(dp2163
g72
S'initialDir'
p2164
sg177
(lp2165
sbsg281
(lp2166
S' if directory does not exist, will leave as it was '
p2167
asba(idelphi
DelphiIfStatement
p2168
(dp2169
g338
(i__main__
DelphiIdentAccess
p2170
(dp2171
g72
S'fileExists'
p2172
sg177
(lp2173
(idelphi
DelphiFunctionEndAccess
p2174
(dp2175
g439
(lp2176
(i__main__
DelphiIdentAccess
p2177
(dp2178
g72
S'fullSuggestedFileName'
p2179
sg177
(lp2180
sbasbasbsg343
Nsg358
(i__main__
DelphiAssignStatement
p2181
(dp2182
g346
(i__main__
DelphiIdentAccess
p2183
(dp2184
g72
S'extractFileName'
p2185
sg177
(lp2186
(idelphi
DelphiFunctionEndAccess
p2187
(dp2188
g439
(lp2189
(i__main__
DelphiIdentAccess
p2190
(dp2191
g72
S'fullSuggestedFileName'
p2192
sg177
(lp2193
sbasbasbsg353
(i__main__
DelphiIdentAccess
p2194
(dp2195
g72
S'fileName'
p2196
sg177
(lp2197
sbsbsbasbsg358
(idelphi
DelphiCompoundStatement
p2198
(dp2199
g278
(lp2200
(i__main__
DelphiAssignStatement
p2201
(dp2202
g346
(idelphi
DelphiAddOp
p2203
(dp2204
g547
S'+'
sg548
(i__main__
DelphiIdentAccess
p2205
(dp2206
g72
S'extensionForFileType'
p2207
sg177
(lp2208
(idelphi
DelphiFunctionEndAccess
p2209
(dp2210
g439
(lp2211
(i__main__
DelphiIdentAccess
p2212
(dp2213
g72
S'fileType'
p2214
sg177
(lp2215
sbasbasbsg564
(idelphi
DelphiStringAccess
p2216
(dp2217
g177
(lp2218
sg33
(idelphi
DelphiStringValue
p2219
(dp2220
g33
S'*.'
p2221
sbsbsbsg353
(i__main__
DelphiIdentAccess
p2222
(dp2223
g72
S'fileName'
p2224
sg177
(lp2225
sbsbasbsba(i__main__
DelphiAssignStatement
p2226
(dp2227
g346
(i__main__
DelphiIdentAccess
p2228
(dp2229
g72
S'nameStringForFileType'
p2230
sg177
(lp2231
(idelphi
DelphiFunctionEndAccess
p2232
(dp2233
g439
(lp2234
(i__main__
DelphiIdentAccess
p2235
(dp2236
g72
S'fileType'
p2237
sg177
(lp2238
sbasbasbsg353
(i__main__
DelphiIdentAccess
p2239
(dp2240
g72
S'nameString'
p2241
sg177
(lp2242
sbsba(idelphi
DelphiIfStatement
p2243
(dp2244
g338
(idelphi
DelphiRelOp
p2245
(dp2246
g419
(i__main__
DelphiIdentAccess
p2247
(dp2248
g72
S'length'
p2249
sg177
(lp2250
(idelphi
DelphiFunctionEndAccess
p2251
(dp2252
g439
(lp2253
(i__main__
DelphiIdentAccess
p2254
(dp2255
g72
S'aTitle'
p2256
sg177
(lp2257
sbasbasbsg424
(idelphi
DelphiIntegerValue
p2258
(dp2259
g33
S'0'
sbsg430
S'>'
sbsg343
(idelphi
DelphiIfStatement
p2260
(dp2261
g338
(idelphi
DelphiRelOp
p2262
(dp2263
g419
(i__main__
DelphiIdentAccess
p2264
(dp2265
g72
S'nameString'
p2266
sg177
(lp2267
(idelphi
DelphiArrayEndAccess
p2268
(dp2269
g439
(lp2270
(idelphi
DelphiIntegerValue
p2271
(dp2272
g33
S'1'
sbasbasbsg424
(idelphi
DelphiSetConstructor
p2273
(dp2274
S'setElementList'
p2275
(lp2276
(idelphi
DelphiStringAccess
p2277
(dp2278
g177
(lp2279
sg33
(idelphi
DelphiStringValue
p2280
(dp2281
g33
S'A'
sbsba(idelphi
DelphiStringAccess
p2282
(dp2283
g177
(lp2284
sg33
(idelphi
DelphiStringValue
p2285
(dp2286
g33
S'E'
sbsba(idelphi
DelphiStringAccess
p2287
(dp2288
g177
(lp2289
sg33
(idelphi
DelphiStringValue
p2290
(dp2291
g33
S'I'
sbsba(idelphi
DelphiStringAccess
p2292
(dp2293
g177
(lp2294
sg33
(idelphi
DelphiStringValue
p2295
(dp2296
g33
S'O'
sbsba(idelphi
DelphiStringAccess
p2297
(dp2298
g177
(lp2299
sg33
(idelphi
DelphiStringValue
p2300
(dp2301
g33
S'U'
sbsbasbsg430
S'in'
p2302
sbsg343
(i__main__
DelphiAssignStatement
p2303
(dp2304
g346
(idelphi
DelphiAddOp
p2305
(dp2306
g547
S'+'
sg548
(idelphi
DelphiStringAccess
p2307
(dp2308
g177
(lp2309
sg33
(idelphi
DelphiStringValue
p2310
(dp2311
g33
S' file'
p2312
sbsbsg564
(idelphi
DelphiAddOp
p2313
(dp2314
g547
S'+'
sg548
(i__main__
DelphiIdentAccess
p2315
(dp2316
g72
S'nameString'
p2317
sg177
(lp2318
sbsg564
(idelphi
DelphiStringAccess
p2319
(dp2320
g177
(lp2321
sg33
(idelphi
DelphiStringValue
p2322
(dp2323
g33
S'Choose a '
p2324
sbsbsbsbsg353
(i__main__
DelphiIdentAccess
p2325
(dp2326
g72
S'title'
p2327
sg177
(lp2328
sbsbsg358
(i__main__
DelphiAssignStatement
p2329
(dp2330
g346
(idelphi
DelphiAddOp
p2331
(dp2332
g547
S'+'
sg548
(idelphi
DelphiStringAccess
p2333
(dp2334
g177
(lp2335
sg33
(idelphi
DelphiStringValue
p2336
(dp2337
g33
S' file'
p2338
sbsbsg564
(idelphi
DelphiAddOp
p2339
(dp2340
g547
S'+'
sg548
(i__main__
DelphiIdentAccess
p2341
(dp2342
g72
S'nameString'
p2343
sg177
(lp2344
sbsg564
(idelphi
DelphiStringAccess
p2345
(dp2346
g177
(lp2347
sg33
(idelphi
DelphiStringValue
p2348
(dp2349
g33
S'Choose an '
p2350
sbsbsbsbsg353
(i__main__
DelphiIdentAccess
p2351
(dp2352
g72
S'title'
p2353
sg177
(lp2354
sbsbsbsg358
(i__main__
DelphiAssignStatement
p2355
(dp2356
g346
(i__main__
DelphiIdentAccess
p2357
(dp2358
g72
S'aTitle'
p2359
sg177
(lp2360
sbsg353
(i__main__
DelphiIdentAccess
p2361
(dp2362
g72
S'title'
p2363
sg177
(lp2364
sbsbsba(i__main__
DelphiAssignStatement
p2365
(dp2366
g346
(i__main__
DelphiIdentAccess
p2367
(dp2368
g72
S'filterStringForFileType'
p2369
sg177
(lp2370
(idelphi
DelphiFunctionEndAccess
p2371
(dp2372
g439
(lp2373
(i__main__
DelphiIdentAccess
p2374
(dp2375
g72
S'fileType'
p2376
sg177
(lp2377
sbasbasbsg353
(i__main__
DelphiIdentAccess
p2378
(dp2379
g72
S'filter'
p2380
sg177
(lp2381
sbsba(i__main__
DelphiAssignStatement
p2382
(dp2383
g346
(i__main__
DelphiIdentAccess
p2384
(dp2385
g72
S'extensionForFileType'
p2386
sg177
(lp2387
(idelphi
DelphiFunctionEndAccess
p2388
(dp2389
g439
(lp2390
(i__main__
DelphiIdentAccess
p2391
(dp2392
g72
S'fileType'
p2393
sg177
(lp2394
sbasbasbsg353
(i__main__
DelphiIdentAccess
p2395
(dp2396
g72
S'defaultExt'
p2397
sg177
(lp2398
sbsba(i__main__
DelphiAssignStatement
p2399
(dp2400
g346
(idelphi
DelphiAddOp
p2401
(dp2402
g547
S'+'
sg548
(idelphi
DelphiSetConstructor
p2403
(dp2404
g2275
(lp2405
(i__main__
DelphiIdentAccess
p2406
(dp2407
g72
S'ofPathMustExist'
p2408
sg177
(lp2409
sba(i__main__
DelphiIdentAccess
p2410
(dp2411
g72
S'ofFileMustExist'
p2412
sg177
(lp2413
sba(i__main__
DelphiIdentAccess
p2414
(dp2415
g72
S'ofHideReadOnly'
p2416
sg177
(lp2417
sbasbsg564
(i__main__
DelphiIdentAccess
p2418
(dp2419
g72
S'options'
p2420
sg177
(lp2421
sbsbsg353
(i__main__
DelphiIdentAccess
p2422
(dp2423
g72
S'options'
p2424
sg177
(lp2425
sbsbasbsS'variableReferenceList'
p2426
(lp2427
(i__main__
DelphiIdentAccess
p2428
(dp2429
g72
S'openDialog'
p2430
sg177
(lp2431
sbasba(idelphi
DelphiIfStatement
p2432
(dp2433
g338
(i__main__
DelphiIdentAccess
p2434
(dp2435
g72
S'openDialog'
p2436
sg177
(lp2437
(idelphi
DelphiFieldEndAccess
p2438
(dp2439
g562
S'execute'
p2440
sbasbsg343
Nsg358
(idelphi
DelphiCompoundStatement
p2441
(dp2442
g278
(lp2443
(idelphi
DelphiIfStatement
p2444
(dp2445
g338
(idelphi
DelphiMulOp
p2446
(dp2447
S'signedFactor2'
p2448
(idelphi
DelphiNestedExpressionListAccess
p2449
(dp2450
g177
(lp2451
sg439
(lp2452
(idelphi
DelphiNot
p2453
(dp2454
g1196
(i__main__
DelphiIdentAccess
p2455
(dp2456
g72
S'allowOtherExtensions'
p2457
sg177
(lp2458
sbsbasbsS'mulOp'
p2459
S'and'
p2460
sS'signedFactor1'
p2461
(idelphi
DelphiNestedExpressionListAccess
p2462
(dp2463
g177
(lp2464
sg439
(lp2465
(idelphi
DelphiRelOp
p2466
(dp2467
g419
(i__main__
DelphiIdentAccess
p2468
(dp2469
g72
S'ofExtensionDifferent'
p2470
sg177
(lp2471
sbsg424
(i__main__
DelphiIdentAccess
p2472
(dp2473
g72
S'openDialog'
p2474
sg177
(lp2475
(idelphi
DelphiFieldEndAccess
p2476
(dp2477
g562
S'options'
p2478
sbasbsg430
g2302
sbasbsbsg343
(i__main__
DelphiAssignStatement
p2479
(dp2480
g346
(i__main__
DelphiIdentAccess
p2481
(dp2482
g72
S'openDialog'
p2483
sg177
(lp2484
(idelphi
DelphiFieldEndAccess
p2485
(dp2486
g562
S'fileName'
p2487
sbasbsg353
(i__main__
DelphiIdentAccess
p2488
(dp2489
g72
S'result'
p2490
sg177
(lp2491
sbsbsg358
(idelphi
DelphiCompoundStatement
p2492
(dp2493
g278
(lp2494
(i__main__
DelphiAssignStatement
p2495
(dp2496
g346
Nsg353
(i__main__
DelphiIdentAccess
p2497
(dp2498
g72
S'showMessage'
p2499
sg177
(lp2500
(idelphi
DelphiFunctionEndAccess
p2501
(dp2502
g439
(lp2503
(idelphi
DelphiAddOp
p2504
(dp2505
g547
S'+'
sg548
(idelphi
DelphiStringAccess
p2506
(dp2507
g177
(lp2508
sg33
(idelphi
DelphiStringValue
p2509
(dp2510
g33
S').'
p2511
sbsbsg564
(idelphi
DelphiAddOp
p2512
(dp2513
g547
S'+'
sg548
(i__main__
DelphiIdentAccess
p2514
(dp2515
g72
S'openDialog'
p2516
sg177
(lp2517
(idelphi
DelphiFieldEndAccess
p2518
(dp2519
g562
S'defaultExt'
p2520
sbasbsg564
(idelphi
DelphiAddOp
p2521
(dp2522
g547
S'+'
sg548
(idelphi
DelphiStringAccess
p2523
(dp2524
g177
(lp2525
sg33
(idelphi
DelphiStringValue
p2526
(dp2527
g33
S') does not have the correct extension ('
p2528
sbsbsg564
(idelphi
DelphiAddOp
p2529
(dp2530
g547
S'+'
sg548
(i__main__
DelphiIdentAccess
p2531
(dp2532
g72
S'openDialog'
p2533
sg177
(lp2534
(idelphi
DelphiFieldEndAccess
p2535
(dp2536
g562
S'fileName'
p2537
sbasbsg564
(idelphi
DelphiStringAccess
p2538
(dp2539
g177
(lp2540
sg33
(idelphi
DelphiStringValue
p2541
(dp2542
g33
S'The file ('
p2543
sbsbsbsbsbsbasbasbsba(i__main__
DelphiExitStatement
p2544
(dp2545
g433
g2007
sbasbsbasbsbasg831
(lp2546
(i__main__
DelphiAssignStatement
p2547
(dp2548
g346
Nsg353
(i__main__
DelphiIdentAccess
p2549
(dp2550
g72
S'openDialog'
p2551
sg177
(lp2552
(idelphi
DelphiFieldEndAccess
p2553
(dp2554
g562
S'free'
p2555
sbasbsbasbasbsg279
(lp2556
(i__main__
DelphiVarSection
p2557
(dp2558
g7
I0
sg8
(lp2559
(idelphi
DelphiVarDecl
p2560
(dp2561
g12
Nsg13
(lp2562
S'fullSuggestedFileName'
p2563
asg16
(i__main__
DelphiPrimitiveType
p2564
(dp2565
g19
g33
sbsba(idelphi
DelphiVarDecl
p2566
(dp2567
g12
Nsg13
(lp2568
S'openDialog'
p2569
asg16
(i__main__
DelphiNamedType
p2570
(dp2571
g19
S'TOpenDialog'
p2572
sg518
g1
sg519
Nsbsba(idelphi
DelphiVarDecl
p2573
(dp2574
g12
Nsg13
(lp2575
S'nameString'
p2576
asg16
(i__main__
DelphiPrimitiveType
p2577
(dp2578
g19
g33
sbsbasbasbsba(i__main__
DelphiProceduralImplementation
p2579
(dp2580
g239
(i__main__
DelphiProceduralDeclaration
p2581
(dp2582
g242
(lp2583
(i__main__
DelphiFormalParameter
p2584
(dp2585
g246
Nsg247
(lp2586
S'suggestedFile'
p2587
asg16
(i__main__
DelphiPrimitiveType
p2588
(dp2589
g19
g33
sbsg252
Nsbasg48
S'fileNameIsOkayForSaving'
p2590
sg254
(i__main__
DelphiPrimitiveType
p2591
(dp2592
g19
g20
sbsbsg48
g2590
sg254
(i__main__
DelphiPrimitiveType
p2593
(dp2594
g19
g20
sbsg255
(lp2595
sg257
(lp2596
sg259
(lp2597
S'suggestedFile'
p2598
asg262
(dp2599
g2598
(i__main__
DelphiPrimitiveType
p2600
(dp2601
g19
g33
sbssg242
(lp2602
(i__main__
DelphiFormalParameter
p2603
(dp2604
g246
Nsg247
(lp2605
g2598
asg16
g2600
sg252
Nsbasg270
(lp2606
sg272
(i__main__
DelphiBlock
p2607
(dp2608
g275
(idelphi
DelphiCompoundStatement
p2609
(dp2610
g278
(lp2611
(i__main__
DelphiAssignStatement
p2612
(dp2613
g346
(i__main__
DelphiIdentAccess
p2614
(dp2615
g72
S'false'
p2616
sg177
(lp2617
sbsg353
(i__main__
DelphiIdentAccess
p2618
(dp2619
g72
S'result'
p2620
sg177
(lp2621
sbsba(idelphi
DelphiIfStatement
p2622
(dp2623
g338
(idelphi
DelphiRelOp
p2624
(dp2625
g419
(i__main__
DelphiIdentAccess
p2626
(dp2627
g72
S'length'
p2628
sg177
(lp2629
(idelphi
DelphiFunctionEndAccess
p2630
(dp2631
g439
(lp2632
(i__main__
DelphiIdentAccess
p2633
(dp2634
g72
S'suggestedFile'
p2635
sg177
(lp2636
sbasbasbsg424
(idelphi
DelphiIntegerValue
p2637
(dp2638
g33
S'0'
sbsg430
S'='
sbsg343
Nsg358
(i__main__
DelphiExitStatement
p2639
(dp2640
g433
g2579
sbsba(i__main__
DelphiAssignStatement
p2641
(dp2642
g346
(i__main__
DelphiIdentAccess
p2643
(dp2644
g72
S'expandFileName'
p2645
sg177
(lp2646
(idelphi
DelphiFunctionEndAccess
p2647
(dp2648
g439
(lp2649
(i__main__
DelphiIdentAccess
p2650
(dp2651
g72
S'suggestedFile'
p2652
sg177
(lp2653
sbasbasbsg353
(i__main__
DelphiIdentAccess
p2654
(dp2655
g72
S'fullSuggestedFileName'
p2656
sg177
(lp2657
sbsba(idelphi
DelphiIfStatement
p2658
(dp2659
g338
(idelphi
DelphiNot
p2660
(dp2661
g1196
(i__main__
DelphiIdentAccess
p2662
(dp2663
g72
S'directoryExists'
p2664
sg177
(lp2665
(idelphi
DelphiFunctionEndAccess
p2666
(dp2667
g439
(lp2668
(i__main__
DelphiIdentAccess
p2669
(dp2670
g72
S'extractFilePath'
p2671
sg177
(lp2672
(idelphi
DelphiFunctionEndAccess
p2673
(dp2674
g439
(lp2675
(i__main__
DelphiIdentAccess
p2676
(dp2677
g72
S'fullSuggestedFileName'
p2678
sg177
(lp2679
sbasbasbasbasbsbsg343
Nsg358
(idelphi
DelphiCompoundStatement
p2680
(dp2681
g278
(lp2682
(i__main__
DelphiAssignStatement
p2683
(dp2684
g346
Nsg353
(i__main__
DelphiIdentAccess
p2685
(dp2686
g72
S'showMessage'
p2687
sg177
(lp2688
(idelphi
DelphiFunctionEndAccess
p2689
(dp2690
g439
(lp2691
(idelphi
DelphiAddOp
p2692
(dp2693
g547
S'+'
sg548
(idelphi
DelphiStringAccess
p2694
(dp2695
g177
(lp2696
sg33
(idelphi
DelphiStringValue
p2697
(dp2698
g33
S' does not exist.'
p2699
sbsbsg564
(idelphi
DelphiAddOp
p2700
(dp2701
g547
S'+'
sg548
(i__main__
DelphiIdentAccess
p2702
(dp2703
g72
S'extractFilePath'
p2704
sg177
(lp2705
(idelphi
DelphiFunctionEndAccess
p2706
(dp2707
g439
(lp2708
(i__main__
DelphiIdentAccess
p2709
(dp2710
g72
S'fullSuggestedFileName'
p2711
sg177
(lp2712
sbasbasbsg564
(idelphi
DelphiStringAccess
p2713
(dp2714
g177
(lp2715
sg33
(idelphi
DelphiStringValue
p2716
(dp2717
g33
S'The directory '
p2718
sbsbsbsbasbasbsg281
(lp2719
S' check if directory exists '
p2720
asba(i__main__
DelphiExitStatement
p2721
(dp2722
g433
g2579
sbasbsba(idelphi
DelphiIfStatement
p2723
(dp2724
g338
(idelphi
DelphiMulOp
p2725
(dp2726
g2448
(i__main__
DelphiValueTypecastAccess
p2727
(dp2728
S'valueTypecast'
p2729
(i__main__
DelphiValueTypecast
p2730
(dp2731
g338
(idelphi
DelphiMulOp
p2732
(dp2733
g2448
(i__main__
DelphiIdentAccess
p2734
(dp2735
g72
S'faReadOnly'
p2736
sg177
(lp2737
sbsg2459
g2460
sg2461
(i__main__
DelphiIdentAccess
p2738
(dp2739
g72
S'FileGetAttr'
p2740
sg177
(lp2741
(idelphi
DelphiFunctionEndAccess
p2742
(dp2743
g439
(lp2744
(i__main__
DelphiIdentAccess
p2745
(dp2746
g72
S'fullSuggestedFileName'
p2747
sg177
(lp2748
sbasbasbsbsS'typeIdentPredefined'
p2749
(i__main__
DelphiPrimitiveType
p2750
(dp2751
g19
g20
sbsbsg177
(lp2752
sbsg2459
g2460
sg2461
(i__main__
DelphiIdentAccess
p2753
(dp2754
g72
S'fileExists'
p2755
sg177
(lp2756
(idelphi
DelphiFunctionEndAccess
p2757
(dp2758
g439
(lp2759
(i__main__
DelphiIdentAccess
p2760
(dp2761
g72
S'fullSuggestedFileName'
p2762
sg177
(lp2763
sbasbasbsbsg343
Nsg358
(idelphi
DelphiCompoundStatement
p2764
(dp2765
g278
(lp2766
(i__main__
DelphiAssignStatement
p2767
(dp2768
g346
Nsg353
(i__main__
DelphiIdentAccess
p2769
(dp2770
g72
S'showMessage'
p2771
sg177
(lp2772
(idelphi
DelphiFunctionEndAccess
p2773
(dp2774
g439
(lp2775
(idelphi
DelphiAddOp
p2776
(dp2777
g547
S'+'
sg548
(idelphi
DelphiStringAccess
p2778
(dp2779
g177
(lp2780
sg33
(idelphi
DelphiStringValue
p2781
(dp2782
g33
S' exists and is read-only.'
p2783
sbsbsg564
(idelphi
DelphiAddOp
p2784
(dp2785
g547
S'+'
sg548
(i__main__
DelphiIdentAccess
p2786
(dp2787
g72
S'fullSuggestedFileName'
p2788
sg177
(lp2789
sbsg564
(idelphi
DelphiStringAccess
p2790
(dp2791
g177
(lp2792
sg33
(idelphi
DelphiStringValue
p2793
(dp2794
g33
S'The file '
p2795
sbsbsbsbasbasbsg281
(lp2796
S" if file exists and is writable, it's ok because Save (not Save As) should not ask to rewrite "
p2797
aS' if file exists but is read-only, quit  '
p2798
asba(i__main__
DelphiExitStatement
p2799
(dp2800
g433
g2579
sbasbsba(i__main__
DelphiAssignStatement
p2801
(dp2802
g346
(i__main__
DelphiIdentAccess
p2803
(dp2804
g72
S'true'
p2805
sg177
(lp2806
sbsg353
(i__main__
DelphiIdentAccess
p2807
(dp2808
g72
S'result'
p2809
sg177
(lp2810
sbsbasbsg279
(lp2811
(i__main__
DelphiVarSection
p2812
(dp2813
g7
I0
sg8
(lp2814
(idelphi
DelphiVarDecl
p2815
(dp2816
g12
Nsg13
(lp2817
S'fullSuggestedFileName'
p2818
asg16
(i__main__
DelphiPrimitiveType
p2819
(dp2820
g19
g33
sbsbasbasbsba(i__main__
DelphiProceduralImplementation
p2821
(dp2822
g239
(i__main__
DelphiProceduralDeclaration
p2823
(dp2824
g242
(lp2825
(i__main__
DelphiFormalParameter
p2826
(dp2827
g246
Nsg247
(lp2828
S'fileType'
p2829
asg16
(i__main__
DelphiPrimitiveType
p2830
(dp2831
g19
g1243
sbsg252
Nsba(i__main__
DelphiFormalParameter
p2832
(dp2833
g246
Nsg247
(lp2834
S'askForFileName'
p2835
asg16
(i__main__
DelphiPrimitiveType
p2836
(dp2837
g19
g20
sbsg252
Nsba(i__main__
DelphiFormalParameter
p2838
(dp2839
g246
Nsg247
(lp2840
S'suggestedFile'
p2841
asg16
(i__main__
DelphiPrimitiveType
p2842
(dp2843
g19
g33
sbsg252
g2024
sba(i__main__
DelphiFormalParameter
p2844
(dp2845
g246
Nsg247
(lp2846
S'fileInfo'
p2847
asg16
(i__main__
DelphiNamedType
p2848
(dp2849
g19
S'SaveFileNamesStructure'
p2850
sg518
g1
sg519
Nsbsg252
S'var'
p2851
sbasg48
S'getFileSaveInfo'
p2852
sg254
(i__main__
DelphiPrimitiveType
p2853
(dp2854
g19
g20
sbsbsg48
g2852
sg254
(i__main__
DelphiPrimitiveType
p2855
(dp2856
g19
g20
sbsg255
(lp2857
sg257
(lp2858
S'fileInfo'
p2859
asg259
(lp2860
S'fileType'
p2861
aS'askForFileName'
p2862
aS'suggestedFile'
p2863
ag2859
asg262
(dp2864
g2863
(i__main__
DelphiPrimitiveType
p2865
(dp2866
g19
g33
sbsg2861
(i__main__
DelphiPrimitiveType
p2867
(dp2868
g19
g1243
sbsg2859
(i__main__
DelphiNamedType
p2869
(dp2870
g19
S'SaveFileNamesStructure'
p2871
sg518
g1
sg519
Nsbsg2862
(i__main__
DelphiPrimitiveType
p2872
(dp2873
g19
g20
sbssg242
(lp2874
(i__main__
DelphiFormalParameter
p2875
(dp2876
g246
Nsg247
(lp2877
g2861
asg16
g2867
sg252
Nsba(i__main__
DelphiFormalParameter
p2878
(dp2879
g246
Nsg247
(lp2880
g2862
asg16
g2872
sg252
Nsba(i__main__
DelphiFormalParameter
p2881
(dp2882
g246
Nsg247
(lp2883
g2863
asg16
g2865
sg252
g2024
sba(i__main__
DelphiFormalParameter
p2884
(dp2885
g246
Nsg247
(lp2886
g2859
asg16
g2869
sg252
g2851
sbasg270
(lp2887
sg272
(i__main__
DelphiBlock
p2888
(dp2889
g275
(idelphi
DelphiCompoundStatement
p2890
(dp2891
g278
(lp2892
(i__main__
DelphiAssignStatement
p2893
(dp2894
g346
(i__main__
DelphiIdentAccess
p2895
(dp2896
g72
S'false'
p2897
sg177
(lp2898
sbsg353
(i__main__
DelphiIdentAccess
p2899
(dp2900
g72
S'result'
p2901
sg177
(lp2902
sbsba(i__main__
DelphiAssignStatement
p2903
(dp2904
g346
(i__main__
DelphiIdentAccess
p2905
(dp2906
g72
S'TSaveDialog'
p2907
sg177
(lp2908
(idelphi
DelphiFieldEndAccess
p2909
(dp2910
g562
S'create'
p2911
sba(idelphi
DelphiFunctionEndAccess
p2912
(dp2913
g439
(lp2914
(i__main__
DelphiIdentAccess
p2915
(dp2916
g72
S'application'
p2917
sg177
(lp2918
sbasbasbsg353
(i__main__
DelphiIdentAccess
p2919
(dp2920
g72
S'saveDialog'
p2921
sg177
(lp2922
sbsba(idelphi
DelphiTryFinallyStatement
p2923
(dp2924
g708
(lp2925
(idelphi
DelphiWithStatement
p2926
(dp2927
g1147
(idelphi
DelphiCompoundStatement
p2928
(dp2929
g278
(lp2930
(i__main__
DelphiAssignStatement
p2931
(dp2932
g346
(idelphi
DelphiStringAccess
p2933
(dp2934
g177
(lp2935
sg33
(idelphi
DelphiStringValue
p2936
(dp2937
g33
S''
sbsbsg353
(i__main__
DelphiIdentAccess
p2938
(dp2939
g72
S'tempFile'
p2940
sg177
(lp2941
sbsg281
(lp2942
S' default info '
p2943
asba(i__main__
DelphiAssignStatement
p2944
(dp2945
g346
(idelphi
DelphiStringAccess
p2946
(dp2947
g177
(lp2948
sg33
(idelphi
DelphiStringValue
p2949
(dp2950
g33
S''
sbsbsg353
(i__main__
DelphiIdentAccess
p2951
(dp2952
g72
S'newFile'
p2953
sg177
(lp2954
sbsba(i__main__
DelphiAssignStatement
p2955
(dp2956
g346
(idelphi
DelphiStringAccess
p2957
(dp2958
g177
(lp2959
sg33
(idelphi
DelphiStringValue
p2960
(dp2961
g33
S''
sbsbsg353
(i__main__
DelphiIdentAccess
p2962
(dp2963
g72
S'backupFile'
p2964
sg177
(lp2965
sbsba(i__main__
DelphiAssignStatement
p2966
(dp2967
g346
(i__main__
DelphiIdentAccess
p2968
(dp2969
g72
S'false'
p2970
sg177
(lp2971
sbsg353
(i__main__
DelphiIdentAccess
p2972
(dp2973
g72
S'writingWasSuccessful'
p2974
sg177
(lp2975
sbsbasbsg2426
(lp2976
(i__main__
DelphiIdentAccess
p2977
(dp2978
g72
S'fileInfo'
p2979
sg177
(lp2980
sbasba(idelphi
DelphiIfStatement
p2981
(dp2982
g338
(idelphi
DelphiNot
p2983
(dp2984
g1196
(i__main__
DelphiIdentAccess
p2985
(dp2986
g72
S'askForFileName'
p2987
sg177
(lp2988
sbsbsg343
Nsg358
(idelphi
DelphiCompoundStatement
p2989
(dp2990
g278
(lp2991
(i__main__
DelphiAssignStatement
p2992
(dp2993
g346
(idelphi
DelphiNot
p2994
(dp2995
g1196
(i__main__
DelphiIdentAccess
p2996
(dp2997
g72
S'fileNameIsOkayForSaving'
p2998
sg177
(lp2999
(idelphi
DelphiFunctionEndAccess
p3000
(dp3001
g439
(lp3002
(i__main__
DelphiIdentAccess
p3003
(dp3004
g72
S'suggestedFile'
p3005
sg177
(lp3006
sbasbasbsbsg353
(i__main__
DelphiIdentAccess
p3007
(dp3008
g72
S'askForFileName'
p3009
sg177
(lp3010
sbsg281
(lp3011
S' if this is a Save, try to set the file name from the suggestedFile given; if file name\r'
p3012
aS'    is invalid, set flag to move into Save As instead '
p3013
asba(idelphi
DelphiIfStatement
p3014
(dp3015
g338
(idelphi
DelphiNot
p3016
(dp3017
g1196
(i__main__
DelphiIdentAccess
p3018
(dp3019
g72
S'askForFileName'
p3020
sg177
(lp3021
sbsbsg343
Nsg358
(i__main__
DelphiAssignStatement
p3022
(dp3023
g346
(i__main__
DelphiIdentAccess
p3024
(dp3025
g72
S'expandFileName'
p3026
sg177
(lp3027
(idelphi
DelphiFunctionEndAccess
p3028
(dp3029
g439
(lp3030
(i__main__
DelphiIdentAccess
p3031
(dp3032
g72
S'suggestedFile'
p3033
sg177
(lp3034
sbasbasbsg353
(i__main__
DelphiIdentAccess
p3035
(dp3036
g72
S'fileInfo'
p3037
sg177
(lp3038
(idelphi
DelphiFieldEndAccess
p3039
(dp3040
g562
S'newFile'
p3041
sbasbsbsbasbsba(idelphi
DelphiIfStatement
p3042
(dp3043
g338
(i__main__
DelphiIdentAccess
p3044
(dp3045
g72
S'askForFileName'
p3046
sg177
(lp3047
sbsg343
Nsg358
(idelphi
DelphiCompoundStatement
p3048
(dp3049
g278
(lp3050
(idelphi
DelphiWithStatement
p3051
(dp3052
g1147
(idelphi
DelphiCompoundStatement
p3053
(dp3054
g278
(lp3055
(idelphi
DelphiIfStatement
p3056
(dp3057
g338
(idelphi
DelphiRelOp
p3058
(dp3059
g419
(i__main__
DelphiIdentAccess
p3060
(dp3061
g72
S'length'
p3062
sg177
(lp3063
(idelphi
DelphiFunctionEndAccess
p3064
(dp3065
g439
(lp3066
(i__main__
DelphiIdentAccess
p3067
(dp3068
g72
S'suggestedFile'
p3069
sg177
(lp3070
sbasbasbsg424
(idelphi
DelphiIntegerValue
p3071
(dp3072
g33
S'0'
sbsg430
S'>'
sbsg343
Nsg358
(idelphi
DelphiCompoundStatement
p3073
(dp3074
g278
(lp3075
(i__main__
DelphiAssignStatement
p3076
(dp3077
g346
(i__main__
DelphiIdentAccess
p3078
(dp3079
g72
S'expandFileName'
p3080
sg177
(lp3081
(idelphi
DelphiFunctionEndAccess
p3082
(dp3083
g439
(lp3084
(i__main__
DelphiIdentAccess
p3085
(dp3086
g72
S'suggestedFile'
p3087
sg177
(lp3088
sbasbasbsg353
(i__main__
DelphiIdentAccess
p3089
(dp3090
g72
S'fullSuggestedFileName'
p3091
sg177
(lp3092
sbsg281
(lp3093
S' if this is a Save As, or if this is a Save and the file in suggestedFile is invalid,\r'
p3094
aS'    ask user for a file name '
p3095
asba(i__main__
DelphiAssignStatement
p3096
(dp3097
g346
(i__main__
DelphiIdentAccess
p3098
(dp3099
g72
S'extractFilePath'
p3100
sg177
(lp3101
(idelphi
DelphiFunctionEndAccess
p3102
(dp3103
g439
(lp3104
(i__main__
DelphiIdentAccess
p3105
(dp3106
g72
S'fullSuggestedFileName'
p3107
sg177
(lp3108
sbasbasbsg353
(i__main__
DelphiIdentAccess
p3109
(dp3110
g72
S'initialDir'
p3111
sg177
(lp3112
sbsg281
(lp3113
S' if directory does not exist, will leave as it was '
p3114
asba(idelphi
DelphiIfStatement
p3115
(dp3116
g338
(i__main__
DelphiIdentAccess
p3117
(dp3118
g72
S'directoryExists'
p3119
sg177
(lp3120
(idelphi
DelphiFunctionEndAccess
p3121
(dp3122
g439
(lp3123
(i__main__
DelphiIdentAccess
p3124
(dp3125
g72
S'extractFilePath'
p3126
sg177
(lp3127
(idelphi
DelphiFunctionEndAccess
p3128
(dp3129
g439
(lp3130
(i__main__
DelphiIdentAccess
p3131
(dp3132
g72
S'fullSuggestedFileName'
p3133
sg177
(lp3134
sbasbasbasbasbsg343
Nsg358
(i__main__
DelphiAssignStatement
p3135
(dp3136
g346
(i__main__
DelphiIdentAccess
p3137
(dp3138
g72
S'extractFileName'
p3139
sg177
(lp3140
(idelphi
DelphiFunctionEndAccess
p3141
(dp3142
g439
(lp3143
(i__main__
DelphiIdentAccess
p3144
(dp3145
g72
S'fullSuggestedFileName'
p3146
sg177
(lp3147
sbasbasbsg353
(i__main__
DelphiIdentAccess
p3148
(dp3149
g72
S'fileName'
p3150
sg177
(lp3151
sbsg281
(lp3152
S" don't check if file exists (because saving); check if dir exists "
p3153
asbsbasbsba(i__main__
DelphiAssignStatement
p3154
(dp3155
g346
(i__main__
DelphiIdentAccess
p3156
(dp3157
g72
S'filterStringForFileType'
p3158
sg177
(lp3159
(idelphi
DelphiFunctionEndAccess
p3160
(dp3161
g439
(lp3162
(i__main__
DelphiIdentAccess
p3163
(dp3164
g72
S'fileType'
p3165
sg177
(lp3166
sbasbasbsg353
(i__main__
DelphiIdentAccess
p3167
(dp3168
g72
S'filter'
p3169
sg177
(lp3170
sbsba(i__main__
DelphiAssignStatement
p3171
(dp3172
g346
(i__main__
DelphiIdentAccess
p3173
(dp3174
g72
S'extensionForFileType'
p3175
sg177
(lp3176
(idelphi
DelphiFunctionEndAccess
p3177
(dp3178
g439
(lp3179
(i__main__
DelphiIdentAccess
p3180
(dp3181
g72
S'fileType'
p3182
sg177
(lp3183
sbasbasbsg353
(i__main__
DelphiIdentAccess
p3184
(dp3185
g72
S'defaultExt'
p3186
sg177
(lp3187
sbsba(i__main__
DelphiAssignStatement
p3188
(dp3189
g346
(idelphi
DelphiAddOp
p3190
(dp3191
g547
S'+'
sg548
(idelphi
DelphiSetConstructor
p3192
(dp3193
g2275
(lp3194
(i__main__
DelphiIdentAccess
p3195
(dp3196
g72
S'ofPathMustExist'
p3197
sg177
(lp3198
sba(i__main__
DelphiIdentAccess
p3199
(dp3200
g72
S'ofOverwritePrompt'
p3201
sg177
(lp3202
sba(i__main__
DelphiIdentAccess
p3203
(dp3204
g72
S'ofHideReadOnly'
p3205
sg177
(lp3206
sba(i__main__
DelphiIdentAccess
p3207
(dp3208
g72
S'ofNoReadOnlyReturn'
p3209
sg177
(lp3210
sbasbsg564
(i__main__
DelphiIdentAccess
p3211
(dp3212
g72
S'options'
p3213
sg177
(lp3214
sbsbsg353
(i__main__
DelphiIdentAccess
p3215
(dp3216
g72
S'options'
p3217
sg177
(lp3218
sbsbasbsg2426
(lp3219
(i__main__
DelphiIdentAccess
p3220
(dp3221
g72
S'saveDialog'
p3222
sg177
(lp3223
sbasba(idelphi
DelphiIfStatement
p3224
(dp3225
g338
(idelphi
DelphiNot
p3226
(dp3227
g1196
(i__main__
DelphiIdentAccess
p3228
(dp3229
g72
S'saveDialog'
p3230
sg177
(lp3231
(idelphi
DelphiFieldEndAccess
p3232
(dp3233
g562
S'execute'
p3234
sbasbsbsg343
Nsg358
(idelphi
DelphiCompoundStatement
p3235
(dp3236
g278
(lp3237
(i__main__
DelphiAssignStatement
p3238
(dp3239
g346
Nsg353
(i__main__
DelphiIdentAccess
p3240
(dp3241
g72
S'saveDialog'
p3242
sg177
(lp3243
(idelphi
DelphiFieldEndAccess
p3244
(dp3245
g562
S'free'
p3246
sbasbsba(i__main__
DelphiAssignStatement
p3247
(dp3248
g346
(idelphi
DelphiNilValue
p3249
(dp3250
bsg353
(i__main__
DelphiIdentAccess
p3251
(dp3252
g72
S'saveDialog'
p3253
sg177
(lp3254
sbsba(i__main__
DelphiExitStatement
p3255
(dp3256
g433
g2821
sbasbsba(i__main__
DelphiAssignStatement
p3257
(dp3258
g346
(i__main__
DelphiIdentAccess
p3259
(dp3260
g72
S'saveDialog'
p3261
sg177
(lp3262
(idelphi
DelphiFieldEndAccess
p3263
(dp3264
g562
S'fileName'
p3265
sbasbsg353
(i__main__
DelphiIdentAccess
p3266
(dp3267
g72
S'fileInfo'
p3268
sg177
(lp3269
(idelphi
DelphiFieldEndAccess
p3270
(dp3271
g562
S'newFile'
p3272
sbasbsbasbsba(idelphi
DelphiTryExceptStatement
p3273
(dp3274
g708
(lp3275
(i__main__
DelphiAssignStatement
p3276
(dp3277
g346
(i__main__
DelphiIdentAccess
p3278
(dp3279
g72
S'extractFileExt'
p3280
sg177
(lp3281
(idelphi
DelphiFunctionEndAccess
p3282
(dp3283
g439
(lp3284
(i__main__
DelphiIdentAccess
p3285
(dp3286
g72
S'fileInfo'
p3287
sg177
(lp3288
(idelphi
DelphiFieldEndAccess
p3289
(dp3290
g562
S'newFile'
p3291
sbasbasbasbsg353
(i__main__
DelphiIdentAccess
p3292
(dp3293
g72
S'extension'
p3294
sg177
(lp3295
sbsg281
(lp3296
S' set backup file name, check if read-only '
p3297
aS' changed backup file extension to put tilde first because it is better to have all backup files sort together '
p3298
aS' includes dot '
p3299
asba(i__main__
DelphiAssignStatement
p3300
(dp3301
g346
(idelphi
DelphiAddOp
p3302
(dp3303
g547
S'+'
sg548
(i__main__
DelphiIdentAccess
p3304
(dp3305
g72
S'copy'
p3306
sg177
(lp3307
(idelphi
DelphiFunctionEndAccess
p3308
(dp3309
g439
(lp3310
(i__main__
DelphiIdentAccess
p3311
(dp3312
g72
S'extension'
p3313
sg177
(lp3314
sba(idelphi
DelphiIntegerValue
p3315
(dp3316
g33
S'2'
sba(idelphi
DelphiIntegerValue
p3317
(dp3318
g33
S'2'
sbasbasbsg564
(idelphi
DelphiStringAccess
p3319
(dp3320
g177
(lp3321
sg33
(idelphi
DelphiStringValue
p3322
(dp3323
g33
S'.~'
p3324
sbsbsbsg353
(i__main__
DelphiIdentAccess
p3325
(dp3326
g72
S'extension'
p3327
sg177
(lp3328
sbsbasS'exceptionHandlers'
p3329
(idelphi
DelphiExceptionHandlers
p3330
(dp3331
S'exceptionHandlerList'
p3332
NsS'statementList'
p3333
(lp3334
(i__main__
DelphiAssignStatement
p3335
(dp3336
g346
(idelphi
DelphiStringAccess
p3337
(dp3338
g177
(lp3339
sg33
(idelphi
DelphiStringValue
p3340
(dp3341
g33
S'.bak'
p3342
sbsbsg353
(i__main__
DelphiIdentAccess
p3343
(dp3344
g72
S'extension'
p3345
sg177
(lp3346
sbsbasbsba(i__main__
DelphiAssignStatement
p3347
(dp3348
g346
(i__main__
DelphiIdentAccess
p3349
(dp3350
g72
S'changeFileExt'
p3351
sg177
(lp3352
(idelphi
DelphiFunctionEndAccess
p3353
(dp3354
g439
(lp3355
(i__main__
DelphiIdentAccess
p3356
(dp3357
g72
S'fileInfo'
p3358
sg177
(lp3359
(idelphi
DelphiFieldEndAccess
p3360
(dp3361
g562
S'newFile'
p3362
sbasba(i__main__
DelphiIdentAccess
p3363
(dp3364
g72
S'extension'
p3365
sg177
(lp3366
sbasbasbsg353
(i__main__
DelphiIdentAccess
p3367
(dp3368
g72
S'tryBackupName'
p3369
sg177
(lp3370
sbsba(idelphi
DelphiIfStatement
p3371
(dp3372
g338
(i__main__
DelphiIdentAccess
p3373
(dp3374
g72
S'fileExists'
p3375
sg177
(lp3376
(idelphi
DelphiFunctionEndAccess
p3377
(dp3378
g439
(lp3379
(i__main__
DelphiIdentAccess
p3380
(dp3381
g72
S'tryBackupName'
p3382
sg177
(lp3383
sbasbasbsg343
(i__main__
DelphiAssignStatement
p3384
(dp3385
g346
(i__main__
DelphiIdentAccess
p3386
(dp3387
g72
S'tryBackupName'
p3388
sg177
(lp3389
sbsg353
(i__main__
DelphiIdentAccess
p3390
(dp3391
g72
S'fileInfo'
p3392
sg177
(lp3393
(idelphi
DelphiFieldEndAccess
p3394
(dp3395
g562
S'backupFile'
p3396
sbasbsbsg358
(idelphi
DelphiCompoundStatement
p3397
(dp3398
g278
(lp3399
(idelphi
DelphiIfStatement
p3400
(dp3401
g338
(idelphi
DelphiNestedExpressionListAccess
p3402
(dp3403
g177
(lp3404
sg439
(lp3405
(i__main__
DelphiValueTypecastAccess
p3406
(dp3407
g2729
(i__main__
DelphiValueTypecast
p3408
(dp3409
g338
(idelphi
DelphiMulOp
p3410
(dp3411
g2448
(i__main__
DelphiIdentAccess
p3412
(dp3413
g72
S'faReadOnly'
p3414
sg177
(lp3415
sbsg2459
g2460
sg2461
(i__main__
DelphiIdentAccess
p3416
(dp3417
g72
S'fileGetAttr'
p3418
sg177
(lp3419
(idelphi
DelphiFunctionEndAccess
p3420
(dp3421
g439
(lp3422
(i__main__
DelphiIdentAccess
p3423
(dp3424
g72
S'tryBackupName'
p3425
sg177
(lp3426
sbasbasbsbsg2749
(i__main__
DelphiPrimitiveType
p3427
(dp3428
g19
g20
sbsbsg177
(lp3429
sbasbsg343
Nsg358
(idelphi
DelphiCompoundStatement
p3430
(dp3431
g278
(lp3432
(i__main__
DelphiAssignStatement
p3433
(dp3434
g346
(idelphi
DelphiAddOp
p3435
(dp3436
g547
S'+'
sg548
(idelphi
DelphiStringAccess
p3437
(dp3438
g177
(lp3439
sg33
(idelphi
DelphiStringValue
p3440
(dp3441
g33
S' is read-only. Continue?'
p3442
sbsbsg564
(idelphi
DelphiAddOp
p3443
(dp3444
g547
S'+'
sg548
(i__main__
DelphiIdentAccess
p3445
(dp3446
g72
S'tryBackupName'
p3447
sg177
(lp3448
sbsg564
(idelphi
DelphiStringAccess
p3449
(dp3450
g177
(lp3451
sg33
(idelphi
DelphiStringValue
p3452
(dp3453
g33
S'The backup file '
p3454
sbsbsbsbsg353
(i__main__
DelphiIdentAccess
p3455
(dp3456
g72
S'prompt'
p3457
sg177
(lp3458
sbsba(idelphi
DelphiIfStatement
p3459
(dp3460
g338
(idelphi
DelphiRelOp
p3461
(dp3462
g419
(i__main__
DelphiIdentAccess
p3463
(dp3464
g72
S'messageDlg'
p3465
sg177
(lp3466
(idelphi
DelphiFunctionEndAccess
p3467
(dp3468
g439
(lp3469
(i__main__
DelphiIdentAccess
p3470
(dp3471
g72
S'prompt'
p3472
sg177
(lp3473
sba(i__main__
DelphiIdentAccess
p3474
(dp3475
g72
S'mtConfirmation'
p3476
sg177
(lp3477
sba(idelphi
DelphiSetConstructor
p3478
(dp3479
g2275
(lp3480
(i__main__
DelphiIdentAccess
p3481
(dp3482
g72
S'mbYes'
p3483
sg177
(lp3484
sba(i__main__
DelphiIdentAccess
p3485
(dp3486
g72
S'mbNo'
p3487
sg177
(lp3488
sbasba(idelphi
DelphiIntegerValue
p3489
(dp3490
g33
S'0'
sbasbasbsg424
(i__main__
DelphiIdentAccess
p3491
(dp3492
g72
S'mrYes'
p3493
sg177
(lp3494
sbsg430
S'<>'
p3495
sbsg343
Nsg358
(i__main__
DelphiExitStatement
p3496
(dp3497
g433
g2821
sbsbasbsbasbsba(idelphi
DelphiForStatement
p3498
(dp3499
S'variable'
p3500
S'index'
p3501
sS'finalValue'
p3502
(idelphi
DelphiIntegerValue
p3503
(dp3504
g33
S'999'
p3505
sbsS'direction'
p3506
S'to'
p3507
sg246
(idelphi
DelphiIntegerValue
p3508
(dp3509
g33
S'100'
p3510
sbsg1147
(idelphi
DelphiCompoundStatement
p3511
(dp3512
g278
(lp3513
(i__main__
DelphiAssignStatement
p3514
(dp3515
g346
(i__main__
DelphiIdentAccess
p3516
(dp3517
g72
S'changeFileExt'
p3518
sg177
(lp3519
(idelphi
DelphiFunctionEndAccess
p3520
(dp3521
g439
(lp3522
(i__main__
DelphiIdentAccess
p3523
(dp3524
g72
S'fileInfo'
p3525
sg177
(lp3526
(idelphi
DelphiFieldEndAccess
p3527
(dp3528
g562
S'newFile'
p3529
sbasba(idelphi
DelphiAddOp
p3530
(dp3531
g547
S'+'
sg548
(i__main__
DelphiIdentAccess
p3532
(dp3533
g72
S'intToStr'
p3534
sg177
(lp3535
(idelphi
DelphiFunctionEndAccess
p3536
(dp3537
g439
(lp3538
(i__main__
DelphiIdentAccess
p3539
(dp3540
g72
g3501
sg177
(lp3541
sbasbasbsg564
(idelphi
DelphiStringAccess
p3542
(dp3543
g177
(lp3544
sg33
(idelphi
DelphiStringValue
p3545
(dp3546
g33
S'.'
sbsbsbasbasbsg353
(i__main__
DelphiIdentAccess
p3547
(dp3548
g72
S'tryTempName'
p3549
sg177
(lp3550
sbsg281
(lp3551
S' set temp file name '
p3552
asba(idelphi
DelphiIfStatement
p3553
(dp3554
g338
(idelphi
DelphiNot
p3555
(dp3556
g1196
(i__main__
DelphiIdentAccess
p3557
(dp3558
g72
S'fileExists'
p3559
sg177
(lp3560
(idelphi
DelphiFunctionEndAccess
p3561
(dp3562
g439
(lp3563
(i__main__
DelphiIdentAccess
p3564
(dp3565
g72
S'tryTempName'
p3566
sg177
(lp3567
sbasbasbsbsg343
Nsg358
(idelphi
DelphiCompoundStatement
p3568
(dp3569
g278
(lp3570
(i__main__
DelphiAssignStatement
p3571
(dp3572
g346
(i__main__
DelphiIdentAccess
p3573
(dp3574
g72
S'tryTempName'
p3575
sg177
(lp3576
sbsg353
(i__main__
DelphiIdentAccess
p3577
(dp3578
g72
S'fileInfo'
p3579
sg177
(lp3580
(idelphi
DelphiFieldEndAccess
p3581
(dp3582
g562
S'tempFile'
p3583
sbasbsba(idelphi
DelphiBreakStatement
p3584
(dp3585
basbsbasbsba(idelphi
DelphiIfStatement
p3586
(dp3587
g338
(idelphi
DelphiRelOp
p3588
(dp3589
g419
(i__main__
DelphiIdentAccess
p3590
(dp3591
g72
S'fileInfo'
p3592
sg177
(lp3593
(idelphi
DelphiFieldEndAccess
p3594
(dp3595
g562
S'tempFile'
p3596
sbasbsg424
(idelphi
DelphiStringAccess
p3597
(dp3598
g177
(lp3599
sg33
(idelphi
DelphiStringValue
p3600
(dp3601
g33
S''
sbsbsg430
S'='
sbsg343
Nsg358
(idelphi
DelphiCompoundStatement
p3602
(dp3603
g278
(lp3604
(i__main__
DelphiAssignStatement
p3605
(dp3606
g346
Nsg353
(i__main__
DelphiIdentAccess
p3607
(dp3608
g72
S'showMessage'
p3609
sg177
(lp3610
(idelphi
DelphiFunctionEndAccess
p3611
(dp3612
g439
(lp3613
(idelphi
DelphiAddOp
p3614
(dp3615
g547
S'+'
sg548
(idelphi
DelphiStringAccess
p3616
(dp3617
g177
(lp3618
sg33
(idelphi
DelphiStringValue
p3619
(dp3620
g33
S'.'
sbsbsg564
(idelphi
DelphiAddOp
p3621
(dp3622
g547
S'+'
sg548
(i__main__
DelphiIdentAccess
p3623
(dp3624
g72
S'tryTempName'
p3625
sg177
(lp3626
sbsg564
(idelphi
DelphiStringAccess
p3627
(dp3628
g177
(lp3629
sg33
(idelphi
DelphiStringValue
p3630
(dp3631
g33
S'Could not create temporary file '
p3632
sbsbsbsbasbasbsg281
(lp3633
S" if can't find unused temp file, quit "
p3634
asba(i__main__
DelphiExitStatement
p3635
(dp3636
g433
g2821
sbasbsba(i__main__
DelphiAssignStatement
p3637
(dp3638
g346
(i__main__
DelphiIdentAccess
p3639
(dp3640
g72
S'fileCreate'
p3641
sg177
(lp3642
(idelphi
DelphiFunctionEndAccess
p3643
(dp3644
g439
(lp3645
(i__main__
DelphiIdentAccess
p3646
(dp3647
g72
S'fileInfo'
p3648
sg177
(lp3649
(idelphi
DelphiFieldEndAccess
p3650
(dp3651
g562
S'tempFile'
p3652
sbasbasbasbsg353
(i__main__
DelphiIdentAccess
p3653
(dp3654
g72
S'tempFileHandle'
p3655
sg177
(lp3656
sbsg281
(lp3657
S' test whether temp file can be created '
p3658
asba(idelphi
DelphiIfStatement
p3659
(dp3660
g338
(idelphi
DelphiRelOp
p3661
(dp3662
g419
(i__main__
DelphiIdentAccess
p3663
(dp3664
g72
S'tempFileHandle'
p3665
sg177
(lp3666
sbsg424
(idelphi
DelphiIntegerValue
p3667
(dp3668
g33
S'0'
sbsg430
S'>'
sbsg343
(idelphi
DelphiCompoundStatement
p3669
(dp3670
g278
(lp3671
(i__main__
DelphiAssignStatement
p3672
(dp3673
g346
Nsg353
(i__main__
DelphiIdentAccess
p3674
(dp3675
g72
S'showMessage'
p3676
sg177
(lp3677
(idelphi
DelphiFunctionEndAccess
p3678
(dp3679
g439
(lp3680
(idelphi
DelphiAddOp
p3681
(dp3682
g547
S'+'
sg548
(idelphi
DelphiStringAccess
p3683
(dp3684
g177
(lp3685
sg33
(idelphi
DelphiStringValue
p3686
(dp3687
g33
S'.'
sbsbsg564
(idelphi
DelphiAddOp
p3688
(dp3689
g547
S'+'
sg548
(i__main__
DelphiIdentAccess
p3690
(dp3691
g72
S'fileInfo'
p3692
sg177
(lp3693
(idelphi
DelphiFieldEndAccess
p3694
(dp3695
g562
S'tempFile'
p3696
sbasbsg564
(idelphi
DelphiStringAccess
p3697
(dp3698
g177
(lp3699
sg33
(idelphi
DelphiStringValue
p3700
(dp3701
g33
S'Could not write to temporary file '
p3702
sbsbsbsbasbasbsba(i__main__
DelphiExitStatement
p3703
(dp3704
g433
g2821
sbasbsg358
(idelphi
DelphiCompoundStatement
p3705
(dp3706
g278
(lp3707
(i__main__
DelphiAssignStatement
p3708
(dp3709
g346
Nsg353
(i__main__
DelphiIdentAccess
p3710
(dp3711
g72
S'fileClose'
p3712
sg177
(lp3713
(idelphi
DelphiFunctionEndAccess
p3714
(dp3715
g439
(lp3716
(i__main__
DelphiIdentAccess
p3717
(dp3718
g72
S'tempFileHandle'
p3719
sg177
(lp3720
sbasbasbsba(idelphi
DelphiIfStatement
p3721
(dp3722
g338
(idelphi
DelphiNot
p3723
(dp3724
g1196
(i__main__
DelphiIdentAccess
p3725
(dp3726
g72
S'deleteFile'
p3727
sg177
(lp3728
(idelphi
DelphiFunctionEndAccess
p3729
(dp3730
g439
(lp3731
(i__main__
DelphiIdentAccess
p3732
(dp3733
g72
S'fileInfo'
p3734
sg177
(lp3735
(idelphi
DelphiFieldEndAccess
p3736
(dp3737
g562
S'tempFile'
p3738
sbasbasbasbsbsg343
Nsg358
(idelphi
DelphiCompoundStatement
p3739
(dp3740
g278
(lp3741
(i__main__
DelphiAssignStatement
p3742
(dp3743
g346
Nsg353
(i__main__
DelphiIdentAccess
p3744
(dp3745
g72
S'showMessage'
p3746
sg177
(lp3747
(idelphi
DelphiFunctionEndAccess
p3748
(dp3749
g439
(lp3750
(idelphi
DelphiAddOp
p3751
(dp3752
g547
S'+'
sg548
(idelphi
DelphiStringAccess
p3753
(dp3754
g177
(lp3755
sg33
(idelphi
DelphiStringValue
p3756
(dp3757
g33
S'.'
sbsbsg564
(idelphi
DelphiAddOp
p3758
(dp3759
g547
S'+'
sg548
(i__main__
DelphiIdentAccess
p3760
(dp3761
g72
S'fileInfo'
p3762
sg177
(lp3763
(idelphi
DelphiFieldEndAccess
p3764
(dp3765
g562
S'tempFile'
p3766
sbasbsg564
(idelphi
DelphiStringAccess
p3767
(dp3768
g177
(lp3769
sg33
(idelphi
DelphiStringValue
p3770
(dp3771
g33
S'Problem with temporary file '
p3772
sbsbsbsbasbasbsba(i__main__
DelphiExitStatement
p3773
(dp3774
g433
g2821
sbasbsbasbsba(i__main__
DelphiAssignStatement
p3775
(dp3776
g346
(i__main__
DelphiIdentAccess
p3777
(dp3778
g72
S'true'
p3779
sg177
(lp3780
sbsg353
(i__main__
DelphiIdentAccess
p3781
(dp3782
g72
S'result'
p3783
sg177
(lp3784
sbsbasg831
(lp3785
(i__main__
DelphiAssignStatement
p3786
(dp3787
g346
Nsg353
(i__main__
DelphiIdentAccess
p3788
(dp3789
g72
S'saveDialog'
p3790
sg177
(lp3791
(idelphi
DelphiFieldEndAccess
p3792
(dp3793
g562
S'free'
p3794
sbasbsbasg281
(lp3795
S'  saveDialog := nil;\r'
p3796
asbasbsg279
(lp3797
(i__main__
DelphiVarSection
p3798
(dp3799
g7
I0
sg8
(lp3800
(idelphi
DelphiVarDecl
p3801
(dp3802
g12
Nsg13
(lp3803
S'saveDialog'
p3804
asg16
(i__main__
DelphiNamedType
p3805
(dp3806
g19
S'TSaveDialog'
p3807
sg518
g1
sg519
Nsbsba(idelphi
DelphiVarDecl
p3808
(dp3809
g12
Nsg13
(lp3810
S'tryBackupName'
p3811
aS'tryTempName'
p3812
aS'fullSuggestedFileName'
p3813
aS'prompt'
p3814
aS'extension'
p3815
asg16
(i__main__
DelphiPrimitiveType
p3816
(dp3817
g19
g33
sbsba(idelphi
DelphiVarDecl
p3818
(dp3819
g12
Nsg13
(lp3820
g3501
asg16
(i__main__
DelphiPrimitiveType
p3821
(dp3822
g19
g1243
sbsba(idelphi
DelphiVarDecl
p3823
(dp3824
g12
Nsg13
(lp3825
S'tempFileHandle'
p3826
asg16
(i__main__
DelphiPrimitiveType
p3827
(dp3828
g19
S'longint'
p3829
sbsbasbasbsba(i__main__
DelphiProceduralImplementation
p3830
(dp3831
g239
(i__main__
DelphiProceduralDeclaration
p3832
(dp3833
g242
(lp3834
(i__main__
DelphiFormalParameter
p3835
(dp3836
g246
Nsg247
(lp3837
S'fileInfo'
p3838
asg16
(i__main__
DelphiNamedType
p3839
(dp3840
g19
S'SaveFileNamesStructure'
p3841
sg518
g1
sg519
Nsbsg252
g2851
sbasg48
S'startFileSave'
p3842
sg254
Nsbsg48
g3842
sg254
Nsg255
(lp3843
sg257
(lp3844
S'fileInfo'
p3845
asg259
(lp3846
g3845
asg262
(dp3847
g3845
(i__main__
DelphiNamedType
p3848
(dp3849
g19
S'SaveFileNamesStructure'
p3850
sg518
g1
sg519
Nsbssg242
(lp3851
(i__main__
DelphiFormalParameter
p3852
(dp3853
g246
Nsg247
(lp3854
g3845
asg16
g3848
sg252
g2851
sbasg270
(lp3855
sg272
(i__main__
DelphiBlock
p3856
(dp3857
g275
(idelphi
DelphiCompoundStatement
p3858
(dp3859
g278
(lp3860
(i__main__
DelphiAssignStatement
p3861
(dp3862
g346
Nsg353
(i__main__
DelphiIdentAccess
p3863
(dp3864
g72
S'cursor_startWait'
p3865
sg177
(lp3866
sbsba(i__main__
DelphiAssignStatement
p3867
(dp3868
g346
Nsg353
(i__main__
DelphiIdentAccess
p3869
(dp3870
g72
S'startWaitMessage'
p3871
sg177
(lp3872
(idelphi
DelphiFunctionEndAccess
p3873
(dp3874
g439
(lp3875
(idelphi
DelphiAddOp
p3876
(dp3877
g547
S'+'
sg548
(idelphi
DelphiStringAccess
p3878
(dp3879
g177
(lp3880
sg33
(idelphi
DelphiStringValue
p3881
(dp3882
g33
S'...'
p3883
sbsbsg564
(idelphi
DelphiAddOp
p3884
(dp3885
g547
S'+'
sg548
(i__main__
DelphiIdentAccess
p3886
(dp3887
g72
S'extractFileName'
p3888
sg177
(lp3889
(idelphi
DelphiFunctionEndAccess
p3890
(dp3891
g439
(lp3892
(i__main__
DelphiIdentAccess
p3893
(dp3894
g72
S'fileInfo'
p3895
sg177
(lp3896
(idelphi
DelphiFieldEndAccess
p3897
(dp3898
g562
S'newFile'
p3899
sbasbasbasbsg564
(idelphi
DelphiStringAccess
p3900
(dp3901
g177
(lp3902
sg33
(idelphi
DelphiStringValue
p3903
(dp3904
g33
S'Saving '
p3905
sbsbsbsbasbasbsbasbsg279
(lp3906
sbsba(i__main__
DelphiProceduralImplementation
p3907
(dp3908
g239
(i__main__
DelphiProceduralDeclaration
p3909
(dp3910
g242
(lp3911
(i__main__
DelphiFormalParameter
p3912
(dp3913
g246
Nsg247
(lp3914
S'fileInfo'
p3915
asg16
(i__main__
DelphiNamedType
p3916
(dp3917
g19
S'SaveFileNamesStructure'
p3918
sg518
g1
sg519
Nsbsg252
g2851
sbasg48
S'cleanUpAfterFileSave'
p3919
sg254
(i__main__
DelphiPrimitiveType
p3920
(dp3921
g19
g20
sbsbsg48
g3919
sg254
(i__main__
DelphiPrimitiveType
p3922
(dp3923
g19
g20
sbsg255
(lp3924
sg257
(lp3925
S'fileInfo'
p3926
asg259
(lp3927
g3926
asg262
(dp3928
g3926
(i__main__
DelphiNamedType
p3929
(dp3930
g19
S'SaveFileNamesStructure'
p3931
sg518
g1
sg519
Nsbssg242
(lp3932
(i__main__
DelphiFormalParameter
p3933
(dp3934
g246
Nsg247
(lp3935
g3926
asg16
g3929
sg252
g2851
sbasg270
(lp3936
sg272
(i__main__
DelphiBlock
p3937
(dp3938
g275
(idelphi
DelphiCompoundStatement
p3939
(dp3940
g278
(lp3941
(i__main__
DelphiAssignStatement
p3942
(dp3943
g346
(i__main__
DelphiIdentAccess
p3944
(dp3945
g72
S'false'
p3946
sg177
(lp3947
sbsg353
(i__main__
DelphiIdentAccess
p3948
(dp3949
g72
S'result'
p3950
sg177
(lp3951
sbsba(i__main__
DelphiAssignStatement
p3952
(dp3953
g346
Nsg353
(i__main__
DelphiIdentAccess
p3954
(dp3955
g72
S'cursor_stopWait'
p3956
sg177
(lp3957
sbsba(i__main__
DelphiAssignStatement
p3958
(dp3959
g346
Nsg353
(i__main__
DelphiIdentAccess
p3960
(dp3961
g72
S'stopWaitMessage'
p3962
sg177
(lp3963
sbsba(i__main__
DelphiAssignStatement
p3964
(dp3965
g346
(i__main__
DelphiIdentAccess
p3966
(dp3967
g72
S'true'
p3968
sg177
(lp3969
sbsg353
(i__main__
DelphiIdentAccess
p3970
(dp3971
g72
S'useBackup'
p3972
sg177
(lp3973
sbsba(idelphi
DelphiIfStatement
p3974
(dp3975
g338
(idelphi
DelphiNot
p3976
(dp3977
g1196
(i__main__
DelphiIdentAccess
p3978
(dp3979
g72
S'fileInfo'
p3980
sg177
(lp3981
(idelphi
DelphiFieldEndAccess
p3982
(dp3983
g562
S'writingWasSuccessful'
p3984
sbasbsbsg343
Nsg358
(idelphi
DelphiCompoundStatement
p3985
(dp3986
g278
(lp3987
(i__main__
DelphiAssignStatement
p3988
(dp3989
g346
Nsg353
(i__main__
DelphiIdentAccess
p3990
(dp3991
g72
S'deleteFile'
p3992
sg177
(lp3993
(idelphi
DelphiFunctionEndAccess
p3994
(dp3995
g439
(lp3996
(i__main__
DelphiIdentAccess
p3997
(dp3998
g72
S'fileInfo'
p3999
sg177
(lp4000
(idelphi
DelphiFieldEndAccess
p4001
(dp4002
g562
S'tempFile'
p4003
sbasbasbasbsg281
(lp4004
S"if couldn't write, then remove temp file and exit without warning"
p4005
asba(i__main__
DelphiExitStatement
p4006
(dp4007
g433
g3907
sbasbsba(idelphi
DelphiIfStatement
p4008
(dp4009
g338
(idelphi
DelphiRelOp
p4010
(dp4011
g419
(i__main__
DelphiIdentAccess
p4012
(dp4013
g72
S'fileInfo'
p4014
sg177
(lp4015
(idelphi
DelphiFieldEndAccess
p4016
(dp4017
g562
S'backupFile'
p4018
sbasbsg424
(idelphi
DelphiStringAccess
p4019
(dp4020
g177
(lp4021
sg33
(idelphi
DelphiStringValue
p4022
(dp4023
g33
S''
sbsbsg430
g3495
sbsg343
(i__main__
DelphiAssignStatement
p4024
(dp4025
g346
(i__main__
DelphiIdentAccess
p4026
(dp4027
g72
S'false'
p4028
sg177
(lp4029
sbsg353
(i__main__
DelphiIdentAccess
p4030
(dp4031
g72
S'useBackup'
p4032
sg177
(lp4033
sbsbsg358
(idelphi
DelphiCompoundStatement
p4034
(dp4035
g278
(lp4036
(idelphi
DelphiIfStatement
p4037
(dp4038
g338
(i__main__
DelphiIdentAccess
p4039
(dp4040
g72
S'fileExists'
p4041
sg177
(lp4042
(idelphi
DelphiFunctionEndAccess
p4043
(dp4044
g439
(lp4045
(i__main__
DelphiIdentAccess
p4046
(dp4047
g72
S'fileInfo'
p4048
sg177
(lp4049
(idelphi
DelphiFieldEndAccess
p4050
(dp4051
g562
S'backupFile'
p4052
sbasbasbasbsg343
Nsg358
(idelphi
DelphiCompoundStatement
p4053
(dp4054
g278
(lp4055
(i__main__
DelphiAssignStatement
p4056
(dp4057
g346
(idelphi
DelphiNot
p4058
(dp4059
g1196
(i__main__
DelphiIdentAccess
p4060
(dp4061
g72
S'deleteFile'
p4062
sg177
(lp4063
(idelphi
DelphiFunctionEndAccess
p4064
(dp4065
g439
(lp4066
(i__main__
DelphiIdentAccess
p4067
(dp4068
g72
S'fileInfo'
p4069
sg177
(lp4070
(idelphi
DelphiFieldEndAccess
p4071
(dp4072
g562
S'backupFile'
p4073
sbasbasbasbsbsg353
(i__main__
DelphiIdentAccess
p4074
(dp4075
g72
S'deletingFailed'
p4076
sg177
(lp4077
sbsg281
(lp4078
S'remove backup file if exists from prior backup'
p4079
aS'try to delete backup file'
p4080
asba(idelphi
DelphiIfStatement
p4081
(dp4082
g338
(i__main__
DelphiIdentAccess
p4083
(dp4084
g72
S'deletingFailed'
p4085
sg177
(lp4086
sbsg343
Nsg358
(idelphi
DelphiCompoundStatement
p4087
(dp4088
g278
(lp4089
(i__main__
DelphiAssignStatement
p4090
(dp4091
g346
(idelphi
DelphiAddOp
p4092
(dp4093
g547
S'+'
sg548
(idelphi
DelphiStringAccess
p4094
(dp4095
g177
(lp4096
sg33
(idelphi
DelphiStringValue
p4097
(dp4098
g33
S'. Continue?'
p4099
sbsbsg564
(idelphi
DelphiAddOp
p4100
(dp4101
g547
S'+'
sg548
(i__main__
DelphiIdentAccess
p4102
(dp4103
g72
S'fileInfo'
p4104
sg177
(lp4105
(idelphi
DelphiFieldEndAccess
p4106
(dp4107
g562
S'backupFile'
p4108
sbasbsg564
(idelphi
DelphiStringAccess
p4109
(dp4110
g177
(lp4111
sg33
(idelphi
DelphiStringValue
p4112
(dp4113
g33
S'Could not write backup file '
p4114
sbsbsbsbsg353
(i__main__
DelphiIdentAccess
p4115
(dp4116
g72
S'prompt'
p4117
sg177
(lp4118
sbsg281
(lp4119
S"couldn't delete backup file"
p4120
asba(idelphi
DelphiIfStatement
p4121
(dp4122
g338
(idelphi
DelphiRelOp
p4123
(dp4124
g419
(i__main__
DelphiIdentAccess
p4125
(dp4126
g72
S'messageDlg'
p4127
sg177
(lp4128
(idelphi
DelphiFunctionEndAccess
p4129
(dp4130
g439
(lp4131
(i__main__
DelphiIdentAccess
p4132
(dp4133
g72
S'prompt'
p4134
sg177
(lp4135
sba(i__main__
DelphiIdentAccess
p4136
(dp4137
g72
S'mtConfirmation'
p4138
sg177
(lp4139
sba(idelphi
DelphiSetConstructor
p4140
(dp4141
g2275
(lp4142
(i__main__
DelphiIdentAccess
p4143
(dp4144
g72
S'mbYes'
p4145
sg177
(lp4146
sba(i__main__
DelphiIdentAccess
p4147
(dp4148
g72
S'mbNo'
p4149
sg177
(lp4150
sbasba(idelphi
DelphiIntegerValue
p4151
(dp4152
g33
S'0'
sbasbasbsg424
(i__main__
DelphiIdentAccess
p4153
(dp4154
g72
S'mrYes'
p4155
sg177
(lp4156
sbsg430
g3495
sbsg343
(i__main__
DelphiAssignStatement
p4157
(dp4158
g346
(i__main__
DelphiIdentAccess
p4159
(dp4160
g72
S'false'
p4161
sg177
(lp4162
sbsg353
(i__main__
DelphiIdentAccess
p4163
(dp4164
g72
S'useBackup'
p4165
sg177
(lp4166
sbsbsg358
(idelphi
DelphiCompoundStatement
p4167
(dp4168
g278
(lp4169
(i__main__
DelphiAssignStatement
p4170
(dp4171
g346
Nsg353
(i__main__
DelphiIdentAccess
p4172
(dp4173
g72
S'deleteFile'
p4174
sg177
(lp4175
(idelphi
DelphiFunctionEndAccess
p4176
(dp4177
g439
(lp4178
(i__main__
DelphiIdentAccess
p4179
(dp4180
g72
S'fileInfo'
p4181
sg177
(lp4182
(idelphi
DelphiFieldEndAccess
p4183
(dp4184
g562
S'tempFile'
p4185
sbasbasbasbsg281
(lp4186
S"user doesn't want to proceed - so cleanup temp file"
p4187
asba(i__main__
DelphiExitStatement
p4188
(dp4189
g433
g3907
sbasbsbasbsbasbsbasbsba(idelphi
DelphiIfStatement
p4190
(dp4191
g338
(i__main__
DelphiIdentAccess
p4192
(dp4193
g72
S'fileExists'
p4194
sg177
(lp4195
(idelphi
DelphiFunctionEndAccess
p4196
(dp4197
g439
(lp4198
(i__main__
DelphiIdentAccess
p4199
(dp4200
g72
S'fileInfo'
p4201
sg177
(lp4202
(idelphi
DelphiFieldEndAccess
p4203
(dp4204
g562
S'newFile'
p4205
sbasbasbasbsg343
Nsg358
(idelphi
DelphiCompoundStatement
p4206
(dp4207
g278
(lp4208
(idelphi
DelphiIfStatement
p4209
(dp4210
g338
(i__main__
DelphiIdentAccess
p4211
(dp4212
g72
S'useBackup'
p4213
sg177
(lp4214
sbsg343
Nsg358
(idelphi
DelphiCompoundStatement
p4215
(dp4216
g278
(lp4217
(i__main__
DelphiAssignStatement
p4218
(dp4219
g346
(idelphi
DelphiNot
p4220
(dp4221
g1196
(i__main__
DelphiIdentAccess
p4222
(dp4223
g72
S'renameFile'
p4224
sg177
(lp4225
(idelphi
DelphiFunctionEndAccess
p4226
(dp4227
g439
(lp4228
(i__main__
DelphiIdentAccess
p4229
(dp4230
g72
S'fileInfo'
p4231
sg177
(lp4232
(idelphi
DelphiFieldEndAccess
p4233
(dp4234
g562
S'newFile'
p4235
sbasba(i__main__
DelphiIdentAccess
p4236
(dp4237
g72
S'fileInfo'
p4238
sg177
(lp4239
(idelphi
DelphiFieldEndAccess
p4240
(dp4241
g562
S'backupFile'
p4242
sbasbasbasbsbsg353
(i__main__
DelphiIdentAccess
p4243
(dp4244
g72
S'renamingFailed'
p4245
sg177
(lp4246
sbsg281
(lp4247
S'if original file exists make backup if requested...'
p4248
aS'rename old copy of new file to make backup'
p4249
asba(idelphi
DelphiIfStatement
p4250
(dp4251
g338
(i__main__
DelphiIdentAccess
p4252
(dp4253
g72
S'renamingFailed'
p4254
sg177
(lp4255
sbsg343
Nsg358
(idelphi
DelphiCompoundStatement
p4256
(dp4257
g278
(lp4258
(i__main__
DelphiAssignStatement
p4259
(dp4260
g346
(idelphi
DelphiAddOp
p4261
(dp4262
g547
S'+'
sg548
(idelphi
DelphiStringAccess
p4263
(dp4264
g177
(lp4265
sg33
(idelphi
DelphiStringValue
p4266
(dp4267
g33
S'. Continue?'
p4268
sbsbsg564
(idelphi
DelphiAddOp
p4269
(dp4270
g547
S'+'
sg548
(i__main__
DelphiIdentAccess
p4271
(dp4272
g72
S'fileInfo'
p4273
sg177
(lp4274
(idelphi
DelphiFieldEndAccess
p4275
(dp4276
g562
S'backupFile'
p4277
sbasbsg564
(idelphi
DelphiStringAccess
p4278
(dp4279
g177
(lp4280
sg33
(idelphi
DelphiStringValue
p4281
(dp4282
g33
S'Could not rename old file to backup file '
p4283
sbsbsbsbsg353
(i__main__
DelphiIdentAccess
p4284
(dp4285
g72
S'prompt'
p4286
sg177
(lp4287
sbsba(idelphi
DelphiIfStatement
p4288
(dp4289
g338
(idelphi
DelphiRelOp
p4290
(dp4291
g419
(i__main__
DelphiIdentAccess
p4292
(dp4293
g72
S'messageDlg'
p4294
sg177
(lp4295
(idelphi
DelphiFunctionEndAccess
p4296
(dp4297
g439
(lp4298
(i__main__
DelphiIdentAccess
p4299
(dp4300
g72
S'prompt'
p4301
sg177
(lp4302
sba(i__main__
DelphiIdentAccess
p4303
(dp4304
g72
S'mtConfirmation'
p4305
sg177
(lp4306
sba(idelphi
DelphiSetConstructor
p4307
(dp4308
g2275
(lp4309
(i__main__
DelphiIdentAccess
p4310
(dp4311
g72
S'mbYes'
p4312
sg177
(lp4313
sba(i__main__
DelphiIdentAccess
p4314
(dp4315
g72
S'mbNo'
p4316
sg177
(lp4317
sbasba(idelphi
DelphiIntegerValue
p4318
(dp4319
g33
S'0'
sbasbasbsg424
(i__main__
DelphiIdentAccess
p4320
(dp4321
g72
S'mrYes'
p4322
sg177
(lp4323
sbsg430
g3495
sbsg343
(i__main__
DelphiAssignStatement
p4324
(dp4325
g346
(i__main__
DelphiIdentAccess
p4326
(dp4327
g72
S'false'
p4328
sg177
(lp4329
sbsg353
(i__main__
DelphiIdentAccess
p4330
(dp4331
g72
S'useBackup'
p4332
sg177
(lp4333
sbsbsg358
(idelphi
DelphiCompoundStatement
p4334
(dp4335
g278
(lp4336
(i__main__
DelphiAssignStatement
p4337
(dp4338
g346
Nsg353
(i__main__
DelphiIdentAccess
p4339
(dp4340
g72
S'deleteFile'
p4341
sg177
(lp4342
(idelphi
DelphiFunctionEndAccess
p4343
(dp4344
g439
(lp4345
(i__main__
DelphiIdentAccess
p4346
(dp4347
g72
S'fileInfo'
p4348
sg177
(lp4349
(idelphi
DelphiFieldEndAccess
p4350
(dp4351
g562
S'tempFile'
p4352
sbasbasbasbsg281
(lp4353
S"user doesn't want to proceed - so cleanup temp file"
p4354
asba(i__main__
DelphiExitStatement
p4355
(dp4356
g433
g3907
sbasbsbasbsbasbsba(idelphi
DelphiIfStatement
p4357
(dp4358
g338
(idelphi
DelphiNot
p4359
(dp4360
g1196
(i__main__
DelphiIdentAccess
p4361
(dp4362
g72
S'useBackup'
p4363
sg177
(lp4364
sbsbsg343
Nsg358
(idelphi
DelphiCompoundStatement
p4365
(dp4366
g278
(lp4367
(i__main__
DelphiAssignStatement
p4368
(dp4369
g346
(idelphi
DelphiNot
p4370
(dp4371
g1196
(i__main__
DelphiIdentAccess
p4372
(dp4373
g72
S'deleteFile'
p4374
sg177
(lp4375
(idelphi
DelphiFunctionEndAccess
p4376
(dp4377
g439
(lp4378
(i__main__
DelphiIdentAccess
p4379
(dp4380
g72
S'fileInfo'
p4381
sg177
(lp4382
(idelphi
DelphiFieldEndAccess
p4383
(dp4384
g562
S'newFile'
p4385
sbasbasbasbsbsg353
(i__main__
DelphiIdentAccess
p4386
(dp4387
g72
S'deletingFailed'
p4388
sg177
(lp4389
sbsg281
(lp4390
S'could not create backup file - so just delete old file instead of renaming'
p4391
asba(idelphi
DelphiIfStatement
p4392
(dp4393
g338
(i__main__
DelphiIdentAccess
p4394
(dp4395
g72
S'deletingFailed'
p4396
sg177
(lp4397
sbsg343
Nsg358
(idelphi
DelphiCompoundStatement
p4398
(dp4399
g278
(lp4400
(i__main__
DelphiAssignStatement
p4401
(dp4402
g346
Nsg353
(i__main__
DelphiIdentAccess
p4403
(dp4404
g72
S'ShowMessage'
p4405
sg177
(lp4406
(idelphi
DelphiFunctionEndAccess
p4407
(dp4408
g439
(lp4409
(idelphi
DelphiAddOp
p4410
(dp4411
g547
S'+'
sg548
(i__main__
DelphiIdentAccess
p4412
(dp4413
g72
S'fileInfo'
p4414
sg177
(lp4415
(idelphi
DelphiFieldEndAccess
p4416
(dp4417
g562
S'newFile'
p4418
sbasbsg564
(idelphi
DelphiStringAccess
p4419
(dp4420
g177
(lp4421
sg33
(idelphi
DelphiStringValue
p4422
(dp4423
g33
S'Could not write file '
p4424
sbsbsbasbasbsba(i__main__
DelphiExitStatement
p4425
(dp4426
g433
g3907
sbasbsbasbsbasbsba(i__main__
DelphiAssignStatement
p4427
(dp4428
g346
(idelphi
DelphiNot
p4429
(dp4430
g1196
(i__main__
DelphiIdentAccess
p4431
(dp4432
g72
S'renameFile'
p4433
sg177
(lp4434
(idelphi
DelphiFunctionEndAccess
p4435
(dp4436
g439
(lp4437
(i__main__
DelphiIdentAccess
p4438
(dp4439
g72
S'fileInfo'
p4440
sg177
(lp4441
(idelphi
DelphiFieldEndAccess
p4442
(dp4443
g562
S'tempFile'
p4444
sbasba(i__main__
DelphiIdentAccess
p4445
(dp4446
g72
S'fileInfo'
p4447
sg177
(lp4448
(idelphi
DelphiFieldEndAccess
p4449
(dp4450
g562
S'newFile'
p4451
sbasbasbasbsbsg353
(i__main__
DelphiIdentAccess
p4452
(dp4453
g72
S'renamingFailed'
p4454
sg177
(lp4455
sbsg281
(lp4456
S'rename temp file to newFile name'
p4457
asba(idelphi
DelphiIfStatement
p4458
(dp4459
g338
(i__main__
DelphiIdentAccess
p4460
(dp4461
g72
S'renamingFailed'
p4462
sg177
(lp4463
sbsg343
Nsg358
(idelphi
DelphiCompoundStatement
p4464
(dp4465
g278
(lp4466
(i__main__
DelphiAssignStatement
p4467
(dp4468
g346
Nsg353
(i__main__
DelphiIdentAccess
p4469
(dp4470
g72
S'ShowMessage'
p4471
sg177
(lp4472
(idelphi
DelphiFunctionEndAccess
p4473
(dp4474
g439
(lp4475
(idelphi
DelphiAddOp
p4476
(dp4477
g547
S'+'
sg548
(i__main__
DelphiIdentAccess
p4478
(dp4479
g72
S'fileInfo'
p4480
sg177
(lp4481
(idelphi
DelphiFieldEndAccess
p4482
(dp4483
g562
S'tempFile'
p4484
sbasbsg564
(idelphi
DelphiAddOp
p4485
(dp4486
g547
S'+'
sg548
(idelphi
DelphiStringAccess
p4487
(dp4488
g177
(lp4489
sg33
(idelphi
DelphiStringValue
p4490
(dp4491
g33
S' from '
p4492
sbsbsg564
(idelphi
DelphiAddOp
p4493
(dp4494
g547
S'+'
sg548
(i__main__
DelphiIdentAccess
p4495
(dp4496
g72
S'fileInfo'
p4497
sg177
(lp4498
(idelphi
DelphiFieldEndAccess
p4499
(dp4500
g562
S'newFile'
p4501
sbasbsg564
(idelphi
DelphiStringAccess
p4502
(dp4503
g177
(lp4504
sg33
(idelphi
DelphiStringValue
p4505
(dp4506
g33
S'Could not write file '
p4507
sbsbsbsbsbasbasbsg281
(lp4508
S'clean up by removing temp file'
p4509
asba(i__main__
DelphiAssignStatement
p4510
(dp4511
g346
Nsg353
(i__main__
DelphiIdentAccess
p4512
(dp4513
g72
S'DeleteFile'
p4514
sg177
(lp4515
(idelphi
DelphiFunctionEndAccess
p4516
(dp4517
g439
(lp4518
(i__main__
DelphiIdentAccess
p4519
(dp4520
g72
S'fileInfo'
p4521
sg177
(lp4522
(idelphi
DelphiFieldEndAccess
p4523
(dp4524
g562
S'tempFile'
p4525
sbasbasbasbsba(i__main__
DelphiExitStatement
p4526
(dp4527
g433
g3907
sbasbsba(i__main__
DelphiAssignStatement
p4528
(dp4529
g346
(i__main__
DelphiIdentAccess
p4530
(dp4531
g72
S'true'
p4532
sg177
(lp4533
sbsg353
(i__main__
DelphiIdentAccess
p4534
(dp4535
g72
S'result'
p4536
sg177
(lp4537
sbsbasbsg279
(lp4538
(i__main__
DelphiVarSection
p4539
(dp4540
g7
I0
sg8
(lp4541
(idelphi
DelphiVarDecl
p4542
(dp4543
g12
Nsg13
(lp4544
S'useBackup'
p4545
aS'renamingFailed'
p4546
aS'deletingFailed'
p4547
asg16
(i__main__
DelphiPrimitiveType
p4548
(dp4549
g19
g20
sbsba(idelphi
DelphiVarDecl
p4550
(dp4551
g12
Nsg13
(lp4552
S'prompt'
p4553
asg16
(i__main__
DelphiPrimitiveType
p4554
(dp4555
g19
g33
sbsbasbasbsbasS'includedUnits'
p4556
NsS'implementationUses'
p4557
(lp4558
S'SysUtils'
p4559
aS'Classes'
p4560
aS'Dialogs'
p4561
aS'Forms'
p4562
aS'FileCtrl'
p4563
aS'Controls'
p4564
aS'ExtCtrls'
p4565
aS'ucursor'
p4566
aS'usstream'
p4567
asg48
S'ufilesupport'
p4568
sS'constSections'
p4569
(lp4570
g64
asS'globalsInProperCase'
p4571
NsS'interfaceUses'
p4572
(lp4573
S'delphi_compatability'
p4574
aS'WinTypes'
p4575
aS'WinProcs'
p4576
aS'StdCtrls'
p4577
aS'Graphics'
p4578
asS'finalCommentToken'
p4579
(i__main__
PassStatement
p4580
(dp4581
g279
(lp4582
sbsS'varSections'
p4583
(lp4584
g5
asS'globals'
p4585
NsS'originalFileName'
p4586
S'../../storyharp-js/converted_source/ufilesupport.pas'
p4587
sS'proceduralImplementations'
p4588
(dp4589
S'getfileopeninfo'
p4590
g2007
sS'cleanupafterfilesave'
p4591
g3907
sS'startwaitmessage'
p4592
g237
sS'filterstringforfiletype'
p4593
g1870
sS'makefilenamefrom'
p4594
g1089
sS'stringtopoint'
p4595
g931
sS'recttostring'
p4596
g506
sS'stopwaitmessage'
p4597
g284
sS'startfilesave'
p4598
g3830
sS'namestringforfiletype'
p4599
g1244
sS'booltostr'
p4600
g301
sS'pointtostring'
p4601
g853
sS'filenameisokayforsaving'
p4602
g2579
sS'getfilesaveinfo'
p4603
g2821
sS'strtobool'
p4604
g372
sS'extensionforfiletype'
p4605
g1553
sS'stringtorect'
p4606
g637
ssS'fileName'
p4607
S'/home/pdfernhout/workspace/storyharp-js/converted_source/ufilesupport.pas'
p4608
sS'proceduralDeclarations'
p4609
(dp4610
S'getfileopeninfo'
p4611
g2009
sS'pointtostring'
p4612
g855
sS'startwaitmessage'
p4613
g240
sS'stringtopoint'
p4614
g933
sS'makefilenamefrom'
p4615
g1091
sS'stringtorect'
p4616
g639
sS'cleanupafterfilesave'
p4617
g3909
sS'recttostring'
p4618
g508
sS'stopwaitmessage'
p4619
g286
sS'startfilesave'
p4620
g3832
sS'namestringforfiletype'
p4621
g1246
sS'getfilesaveinfo'
p4622
g2823
sS'filterstringforfiletype'
p4623
g1872
sS'filenameisokayforsaving'
p4624
g2581
sS'strtobool'
p4625
g374
sS'extensionforfiletype'
p4626
g1555
sS'booltostr'
p4627
g303
ssS'types'
p4628
(dp4629
S'savefilenamesstructure'
p4630
g34
ssb.