(i__main__
DelphiUnit
p1
(dp2
S'sectionsInOrderDefined'
p3
(lp4
(i__main__
DelphiClass
p5
(dp6
S'variableNamesInProperCase'
p7
(dp8
S'printeddetails'
p9
S'printedDetails'
p10
sS'openbrowser'
p11
S'openBrowser'
p12
sS'printbutton'
p13
S'PrintButton'
p14
sS'orderpageedit'
p15
S'orderPageEdit'
p16
sS'label1'
p17
S'Label1'
p18
sS'label2'
p19
S'Label2'
p20
sS'label3'
p21
S'Label3'
p22
sS'label4'
p23
S'Label4'
p24
sS'label5'
p25
S'Label5'
p26
sS'readlicense'
p27
S'readLicense'
p28
sS'registrationcodeedit'
p29
S'registrationCodeEdit'
p30
sS'thankyou'
p31
S'thankYou'
p32
sS'registerme'
p33
S'registerMe'
p34
sS'label6'
p35
S'Label6'
p36
sS'registrationnameedit'
p37
S'registrationNameEdit'
p38
sS'close'
p39
S'close'
p40
sS'panel1'
p41
S'Panel1'
p42
sS'printdialog'
p43
S'PrintDialog'
p44
sS'label11'
p45
S'Label11'
p46
sS'moreinfo'
p47
S'moreInfo'
p48
sS'opened'
p49
S'opened'
p50
ssS'name'
p51
S'TRegistrationForm'
p52
sS'methodDeclarations'
p53
(dp54
S'registermeclick'
p55
(i__main__
DelphiMethodDeclaration
p56
(dp57
g51
S'registerMeClick'
p58
sS'formalParameters'
p59
(lp60
(i__main__
DelphiFormalParameter
p61
(dp62
S'initialValue'
p63
NsS'names'
p64
(lp65
S'Sender'
p66
asS'theType'
p67
(i__main__
DelphiNamedType
p68
(dp69
S'typeName'
p70
S'TObject'
p71
sS'unitDefinedIn'
p72
g1
sS'unitName'
p73
NsbsS'parameterVariety'
p74
NsbasS'className'
p75
g52
sS'resultType'
p76
NsS'isClassMethod'
p77
I0
sS'methodType'
p78
S'procedure'
p79
sbsS'formactivate'
p80
(i__main__
DelphiMethodDeclaration
p81
(dp82
g51
S'FormActivate'
p83
sg59
(lp84
(i__main__
DelphiFormalParameter
p85
(dp86
g63
Nsg64
(lp87
S'Sender'
p88
asg67
(i__main__
DelphiNamedType
p89
(dp90
g70
S'TObject'
p91
sg72
g1
sg73
Nsbsg74
Nsbasg75
g52
sg76
Nsg77
I0
sg78
g79
sbsS'printbuttonclick'
p92
(i__main__
DelphiMethodDeclaration
p93
(dp94
g51
S'PrintButtonClick'
p95
sg59
(lp96
(i__main__
DelphiFormalParameter
p97
(dp98
g63
Nsg64
(lp99
S'Sender'
p100
asg67
(i__main__
DelphiNamedType
p101
(dp102
g70
S'TObject'
p103
sg72
g1
sg73
Nsbsg74
Nsbasg75
g52
sg76
Nsg77
I0
sg78
g79
sbsS'readlicenseclick'
p104
(i__main__
DelphiMethodDeclaration
p105
(dp106
g51
S'readLicenseClick'
p107
sg59
(lp108
(i__main__
DelphiFormalParameter
p109
(dp110
g63
Nsg64
(lp111
S'Sender'
p112
asg67
(i__main__
DelphiNamedType
p113
(dp114
g70
S'TObject'
p115
sg72
g1
sg73
Nsbsg74
Nsbasg75
g52
sg76
Nsg77
I0
sg78
g79
sbsS'moreinfoclick'
p116
(i__main__
DelphiMethodDeclaration
p117
(dp118
g51
S'moreInfoClick'
p119
sg59
(lp120
(i__main__
DelphiFormalParameter
p121
(dp122
g63
Nsg64
(lp123
S'Sender'
p124
asg67
(i__main__
DelphiNamedType
p125
(dp126
g70
S'TObject'
p127
sg72
g1
sg73
Nsbsg74
Nsbasg75
g52
sg76
Nsg77
I0
sg78
g79
sbsS'formclosequery'
p128
(i__main__
DelphiMethodDeclaration
p129
(dp130
g51
S'FormCloseQuery'
p131
sg59
(lp132
(i__main__
DelphiFormalParameter
p133
(dp134
g63
Nsg64
(lp135
S'Sender'
p136
asg67
(i__main__
DelphiNamedType
p137
(dp138
g70
S'TObject'
p139
sg72
g1
sg73
Nsbsg74
Nsba(i__main__
DelphiFormalParameter
p140
(dp141
g63
Nsg64
(lp142
S'CanClose'
p143
asg67
(i__main__
DelphiPrimitiveType
p144
(dp145
g70
S'boolean'
p146
sbsg74
S'var'
p147
sbasg75
g52
sg76
Nsg77
I0
sg78
g79
sbsS'openbrowserclick'
p148
(i__main__
DelphiMethodDeclaration
p149
(dp150
g51
S'openBrowserClick'
p151
sg59
(lp152
(i__main__
DelphiFormalParameter
p153
(dp154
g63
Nsg64
(lp155
S'Sender'
p156
asg67
(i__main__
DelphiNamedType
p157
(dp158
g70
S'TObject'
p159
sg72
g1
sg73
Nsbsg74
Nsbasg75
g52
sg76
Nsg77
I0
sg78
g79
sbsS'formcreate'
p160
(i__main__
DelphiMethodDeclaration
p161
(dp162
g51
S'FormCreate'
p163
sg59
(lp164
(i__main__
DelphiFormalParameter
p165
(dp166
g63
Nsg64
(lp167
S'Sender'
p168
asg67
(i__main__
DelphiNamedType
p169
(dp170
g70
S'TObject'
p171
sg72
g1
sg73
Nsbsg74
Nsbasg75
g52
sg76
Nsg77
I0
sg78
g79
sbsS'closeclick'
p172
(i__main__
DelphiMethodDeclaration
p173
(dp174
g51
S'closeClick'
p175
sg59
(lp176
(i__main__
DelphiFormalParameter
p177
(dp178
g63
Nsg64
(lp179
S'Sender'
p180
asg67
(i__main__
DelphiNamedType
p181
(dp182
g70
S'TObject'
p183
sg72
g1
sg73
Nsbsg74
Nsbasg75
g52
sg76
Nsg77
I0
sg78
g79
sbssS'superclassNamedTypes'
p184
(lp185
(i__main__
DelphiNamedType
p186
(dp187
g70
S'TForm'
p188
sg72
g1
sg73
NsbasS'variableNames'
p189
(dp190
S'printeddetails'
p191
(i__main__
DelphiPrimitiveType
p192
(dp193
g70
g146
sbsS'openbrowser'
p194
(i__main__
DelphiNamedType
p195
(dp196
g70
S'TButton'
p197
sg72
g1
sg73
NsbsS'printbutton'
p198
(i__main__
DelphiNamedType
p199
(dp200
g70
S'TButton'
p201
sg72
g1
sg73
NsbsS'orderpageedit'
p202
(i__main__
DelphiNamedType
p203
(dp204
g70
S'TEdit'
p205
sg72
g1
sg73
NsbsS'label1'
p206
(i__main__
DelphiNamedType
p207
(dp208
g70
S'TLabel'
p209
sg72
g1
sg73
NsbsS'label2'
p210
(i__main__
DelphiNamedType
p211
(dp212
g70
S'TLabel'
p213
sg72
g1
sg73
NsbsS'label3'
p214
(i__main__
DelphiNamedType
p215
(dp216
g70
S'TLabel'
p217
sg72
g1
sg73
NsbsS'label4'
p218
(i__main__
DelphiNamedType
p219
(dp220
g70
S'TLabel'
p221
sg72
g1
sg73
NsbsS'label5'
p222
(i__main__
DelphiNamedType
p223
(dp224
g70
S'TLabel'
p225
sg72
g1
sg73
NsbsS'readlicense'
p226
(i__main__
DelphiNamedType
p227
(dp228
g70
S'TButton'
p229
sg72
g1
sg73
NsbsS'registrationcodeedit'
p230
(i__main__
DelphiNamedType
p231
(dp232
g70
S'TEdit'
p233
sg72
g1
sg73
NsbsS'thankyou'
p234
(i__main__
DelphiNamedType
p235
(dp236
g70
S'TRichEdit'
p237
sg72
g1
sg73
NsbsS'registerme'
p238
(i__main__
DelphiNamedType
p239
(dp240
g70
S'TButton'
p241
sg72
g1
sg73
NsbsS'label6'
p242
(i__main__
DelphiNamedType
p243
(dp244
g70
S'TLabel'
p245
sg72
g1
sg73
NsbsS'registrationnameedit'
p246
(i__main__
DelphiNamedType
p247
(dp248
g70
S'TEdit'
p249
sg72
g1
sg73
NsbsS'close'
p250
(i__main__
DelphiNamedType
p251
(dp252
g70
S'TButton'
p253
sg72
g1
sg73
NsbsS'panel1'
p254
(i__main__
DelphiNamedType
p255
(dp256
g70
S'TPanel'
p257
sg72
g1
sg73
NsbsS'printdialog'
p258
(i__main__
DelphiNamedType
p259
(dp260
g70
S'TPrintDialog'
p261
sg72
g1
sg73
NsbsS'label11'
p262
(i__main__
DelphiNamedType
p263
(dp264
g70
S'TLabel'
p265
sg72
g1
sg73
NsbsS'moreinfo'
p266
(i__main__
DelphiNamedType
p267
(dp268
g70
S'TButton'
p269
sg72
g1
sg73
NsbsS'opened'
p270
(i__main__
DelphiPrimitiveType
p271
(dp272
g70
g146
sbssS'methodNamesInDefinedOrder'
p273
(lp274
S'formactivate'
p275
aS'openbrowserclick'
p276
aS'registermeclick'
p277
aS'formclosequery'
p278
aS'closeclick'
p279
aS'moreinfoclick'
p280
aS'readlicenseclick'
p281
aS'printbuttonclick'
p282
aS'formcreate'
p283
asS'methodImplementations'
p284
(dp285
S'registermeclick'
p286
(i__main__
DelphiMethodImplementation
p287
(dp288
S'originalDeclaration'
p289
g56
sg51
g58
sg59
(lp290
(i__main__
DelphiFormalParameter
p291
(dp292
g63
Nsg64
(lp293
S'Sender'
p294
asg67
(i__main__
DelphiNamedType
p295
(dp296
g70
S'TObject'
p297
sg72
g1
sg73
Nsbsg74
NsbasS'varParamIndexes'
p298
(lp299
sS'varParamsSkipped'
p300
(lp301
sS'argNames'
p302
(lp303
S'self'
p304
ag294
asS'argTypes'
p305
(dp306
g294
g295
ssg75
S'TRegistrationForm'
p307
sg76
NsS'varParamNames'
p308
(lp309
sg77
I0
sg78
g79
sS'block'
p310
(i__main__
DelphiBlock
p311
(dp312
S'compoundStatement'
p313
(idelphi
DelphiCompoundStatement
p314
(dp315
S'statements'
p316
(lp317
(idelphi
DelphiIfStatement
p318
(dp319
S'expression'
p320
(i__main__
DelphiIdentAccess
p321
(dp322
S'ident'
p323
S'RegistrationMatch'
p324
sS'endAccessList'
p325
(lp326
(idelphi
DelphiFunctionEndAccess
p327
(dp328
S'expressionList'
p329
(lp330
(i__main__
DelphiIdentAccess
p331
(dp332
g323
S'registrationNameEdit'
p333
sg325
(lp334
(idelphi
DelphiFieldEndAccess
p335
(dp336
S'field'
p337
S'text'
p338
sbasba(i__main__
DelphiIdentAccess
p339
(dp340
g323
S'registrationCodeEdit'
p341
sg325
(lp342
(idelphi
DelphiFieldEndAccess
p343
(dp344
g337
S'text'
p345
sbasbasbasbsS'ifFalseStatement'
p346
(idelphi
DelphiCompoundStatement
p347
(dp348
g316
(lp349
(i__main__
DelphiAssignStatement
p350
(dp351
S'newValueExpression'
p352
NsS'destinationExpression'
p353
(i__main__
DelphiIdentAccess
p354
(dp355
g323
S'MessageDlg'
p356
sg325
(lp357
(idelphi
DelphiFunctionEndAccess
p358
(dp359
g329
(lp360
(idelphi
DelphiAddOp
p361
(dp362
S'addOp'
p363
S'+'
sS'term2'
p364
(idelphi
DelphiStringAccess
p365
(dp366
g325
(lp367
sS'string'
p368
(idelphi
DelphiStringValue
p369
(dp370
g368
S'and you still get this message, contact us.'
p371
sbsbsS'term1'
p372
(idelphi
DelphiAddOp
p373
(dp374
g363
S'+'
sg364
(i__main__
DelphiIdentAccess
p375
(dp376
g323
S'chr'
p377
sg325
(lp378
(idelphi
DelphiFunctionEndAccess
p379
(dp380
g329
(lp381
(idelphi
DelphiIntegerValue
p382
(dp383
g368
S'13'
p384
sbasbasbsg372
(idelphi
DelphiAddOp
p385
(dp386
g363
S'+'
sg364
(idelphi
DelphiStringAccess
p387
(dp388
g325
(lp389
sg368
(idelphi
DelphiStringValue
p390
(dp391
g368
S'If you are sure they are correct'
p392
sbsbsg372
(idelphi
DelphiAddOp
p393
(dp394
g363
S'+'
sg364
(i__main__
DelphiIdentAccess
p395
(dp396
g323
S'chr'
p397
sg325
(lp398
(idelphi
DelphiFunctionEndAccess
p399
(dp400
g329
(lp401
(idelphi
DelphiIntegerValue
p402
(dp403
g368
S'13'
p404
sbasbasbsg372
(idelphi
DelphiAddOp
p405
(dp406
g363
S'+'
sg364
(i__main__
DelphiIdentAccess
p407
(dp408
g323
S'chr'
p409
sg325
(lp410
(idelphi
DelphiFunctionEndAccess
p411
(dp412
g329
(lp413
(idelphi
DelphiIntegerValue
p414
(dp415
g368
S'13'
p416
sbasbasbsg372
(idelphi
DelphiAddOp
p417
(dp418
g363
S'+'
sg364
(idelphi
DelphiStringAccess
p419
(dp420
g325
(lp421
sg368
(idelphi
DelphiStringValue
p422
(dp423
g368
S'Please retype them and try again.'
p424
sbsbsg372
(idelphi
DelphiAddOp
p425
(dp426
g363
S'+'
sg364
(i__main__
DelphiIdentAccess
p427
(dp428
g323
S'chr'
p429
sg325
(lp430
(idelphi
DelphiFunctionEndAccess
p431
(dp432
g329
(lp433
(idelphi
DelphiIntegerValue
p434
(dp435
g368
S'13'
p436
sbasbasbsg372
(idelphi
DelphiStringAccess
p437
(dp438
g325
(lp439
sg368
(idelphi
DelphiStringValue
p440
(dp441
g368
S'The registration name and code you entered are incorrect.'
p442
sbsbsbsbsbsbsbsbsba(i__main__
DelphiIdentAccess
p443
(dp444
g323
S'mtError'
p445
sg325
(lp446
sba(idelphi
DelphiSetConstructor
p447
(dp448
S'setElementList'
p449
(lp450
(i__main__
DelphiIdentAccess
p451
(dp452
g323
S'mbOK'
p453
sg325
(lp454
sbasba(idelphi
DelphiIntegerValue
p455
(dp456
g368
S'0'
sbasbasbsbasbsS'ifTrueStatement'
p457
(idelphi
DelphiCompoundStatement
p458
(dp459
g316
(lp460
(i__main__
DelphiAssignStatement
p461
(dp462
g352
Nsg353
(i__main__
DelphiIdentAccess
p463
(dp464
g323
S'registerMe'
p465
sg325
(lp466
(idelphi
DelphiFieldEndAccess
p467
(dp468
g337
S'hide'
p469
sbasbsba(i__main__
DelphiAssignStatement
p470
(dp471
g352
Nsg353
(i__main__
DelphiIdentAccess
p472
(dp473
g323
S'thankYou'
p474
sg325
(lp475
(idelphi
DelphiFieldEndAccess
p476
(dp477
g337
S'clear'
p478
sbasbsba(i__main__
DelphiAssignStatement
p479
(dp480
g352
(idelphi
DelphiAddOp
p481
(dp482
g363
S'+'
sg364
(i__main__
DelphiIdentAccess
p483
(dp484
g323
S'chr'
p485
sg325
(lp486
(idelphi
DelphiFunctionEndAccess
p487
(dp488
g329
(lp489
(idelphi
DelphiIntegerValue
p490
(dp491
g368
S'10'
p492
sbasbasbsg372
(i__main__
DelphiIdentAccess
p493
(dp494
g323
S'chr'
p495
sg325
(lp496
(idelphi
DelphiFunctionEndAccess
p497
(dp498
g329
(lp499
(idelphi
DelphiIntegerValue
p500
(dp501
g368
S'13'
p502
sbasbasbsbsg353
(i__main__
DelphiIdentAccess
p503
(dp504
g323
S'cr'
p505
sg325
(lp506
sbsba(i__main__
DelphiAssignStatement
p507
(dp508
g352
(idelphi
DelphiAddOp
p509
(dp510
g363
S'+'
sg364
(idelphi
DelphiStringAccess
p511
(dp512
g325
(lp513
sg368
(idelphi
DelphiStringValue
p514
(dp515
g368
S'-------------------------------------------'
p516
sbsbsg372
(idelphi
DelphiAddOp
p517
(dp518
g363
S'+'
sg364
(i__main__
DelphiIdentAccess
p519
(dp520
g323
S'cr'
p521
sg325
(lp522
sbsg372
(idelphi
DelphiAddOp
p523
(dp524
g363
S'+'
sg364
(idelphi
DelphiStringAccess
p525
(dp526
g325
(lp527
sg368
(idelphi
DelphiStringValue
p528
(dp529
g368
S'http://www.kurtz-fernhout.com'
p530
sbsbsg372
(idelphi
DelphiAddOp
p531
(dp532
g363
S'+'
sg364
(i__main__
DelphiIdentAccess
p533
(dp534
g323
S'cr'
p535
sg325
(lp536
sbsg372
(idelphi
DelphiAddOp
p537
(dp538
g363
S'+'
sg364
(idelphi
DelphiStringAccess
p539
(dp540
g325
(lp541
sg368
(idelphi
DelphiStringValue
p542
(dp543
g368
S'Kurtz-Fernhout Software'
p544
sbsbsg372
(idelphi
DelphiAddOp
p545
(dp546
g363
S'+'
sg364
(i__main__
DelphiIdentAccess
p547
(dp548
g323
S'cr'
p549
sg325
(lp550
sbsg372
(idelphi
DelphiAddOp
p551
(dp552
g363
S'+'
sg364
(idelphi
DelphiStringAccess
p553
(dp554
g325
(lp555
sg368
(idelphi
DelphiStringValue
p556
(dp557
g368
S'--- Paul Fernhout and Cynthia Kurtz'
p558
sbsbsg372
(idelphi
DelphiAddOp
p559
(dp560
g363
S'+'
sg364
(i__main__
DelphiIdentAccess
p561
(dp562
g323
S'cr'
p563
sg325
(lp564
sbsg372
(idelphi
DelphiAddOp
p565
(dp566
g363
S'+'
sg364
(i__main__
DelphiIdentAccess
p567
(dp568
g323
S'cr'
p569
sg325
(lp570
sbsg372
(idelphi
DelphiAddOp
p571
(dp572
g363
S'+'
sg364
(idelphi
DelphiStringAccess
p573
(dp574
g325
(lp575
sg368
(idelphi
DelphiStringValue
p576
(dp577
g368
S'Be sure to visit our web site to read the latest news about StoryHarp. Thank you for your business!'
p578
sbsbsg372
(idelphi
DelphiAddOp
p579
(dp580
g363
S'+'
sg364
(i__main__
DelphiIdentAccess
p581
(dp582
g323
S'cr'
p583
sg325
(lp584
sbsg372
(idelphi
DelphiAddOp
p585
(dp586
g363
S'+'
sg364
(i__main__
DelphiIdentAccess
p587
(dp588
g323
S'cr'
p589
sg325
(lp590
sbsg372
(idelphi
DelphiAddOp
p591
(dp592
g363
S'+'
sg364
(idelphi
DelphiStringAccess
p593
(dp594
g325
(lp595
sg368
(idelphi
DelphiStringValue
p596
(dp597
g368
S'(You should click Print now to print this message.)'
p598
sbsbsg372
(idelphi
DelphiAddOp
p599
(dp600
g363
S'+'
sg364
(i__main__
DelphiIdentAccess
p601
(dp602
g323
S'cr'
p603
sg325
(lp604
sbsg372
(idelphi
DelphiAddOp
p605
(dp606
g363
S'+'
sg364
(i__main__
DelphiIdentAccess
p607
(dp608
g323
S'cr'
p609
sg325
(lp610
sbsg372
(idelphi
DelphiAddOp
p611
(dp612
g363
S'+'
sg364
(idelphi
DelphiStringAccess
p613
(dp614
g325
(lp615
sg368
(idelphi
DelphiStringValue
p616
(dp617
g368
S'We will save encoded registration information in your INI settings file in your Windows directory. You should keep a copy of your name and code in a safe place in case you need to reinstall StoryHarp.'
p618
sbsbsg372
(idelphi
DelphiAddOp
p619
(dp620
g363
S'+'
sg364
(i__main__
DelphiIdentAccess
p621
(dp622
g323
S'cr'
p623
sg325
(lp624
sbsg372
(idelphi
DelphiAddOp
p625
(dp626
g363
S'+'
sg364
(i__main__
DelphiIdentAccess
p627
(dp628
g323
S'cr'
p629
sg325
(lp630
sbsg372
(idelphi
DelphiAddOp
p631
(dp632
g363
S'+'
sg364
(idelphi
DelphiStringAccess
p633
(dp634
g325
(lp635
sg368
(idelphi
DelphiStringValue
p636
(dp637
g368
S'Your registration also entitles you to free upgrades of StoryHarp up to but not including version 2.0. See the help system for details.'
p638
sbsbsg372
(idelphi
DelphiAddOp
p639
(dp640
g363
S'+'
sg364
(i__main__
DelphiIdentAccess
p641
(dp642
g323
S'cr'
p643
sg325
(lp644
sbsg372
(idelphi
DelphiAddOp
p645
(dp646
g363
S'+'
sg364
(i__main__
DelphiIdentAccess
p647
(dp648
g323
S'cr'
p649
sg325
(lp650
sbsg372
(idelphi
DelphiAddOp
p651
(dp652
g363
S'+'
sg364
(idelphi
DelphiStringAccess
p653
(dp654
g325
(lp655
sg368
(idelphi
DelphiStringValue
p656
(dp657
g368
S'You now own a fully registered copy of StoryHarp version 1.x.'
p658
sbsbsg372
(idelphi
DelphiAddOp
p659
(dp660
g363
S'+'
sg364
(i__main__
DelphiIdentAccess
p661
(dp662
g323
S'cr'
p663
sg325
(lp664
sbsg372
(idelphi
DelphiAddOp
p665
(dp666
g363
S'+'
sg364
(idelphi
DelphiStringAccess
p667
(dp668
g325
(lp669
sg368
(idelphi
DelphiStringValue
p670
(dp671
g368
S'Welcome to the StoryHarp community!'
p672
sbsbsg372
(idelphi
DelphiAddOp
p673
(dp674
g363
S'+'
sg364
(i__main__
DelphiIdentAccess
p675
(dp676
g323
S'cr'
p677
sg325
(lp678
sbsg372
(idelphi
DelphiAddOp
p679
(dp680
g363
S'+'
sg364
(i__main__
DelphiIdentAccess
p681
(dp682
g323
S'cr'
p683
sg325
(lp684
sbsg372
(idelphi
DelphiAddOp
p685
(dp686
g363
S'+'
sg364
(i__main__
DelphiIdentAccess
p687
(dp688
g323
S'registrationCodeEdit'
p689
sg325
(lp690
(idelphi
DelphiFieldEndAccess
p691
(dp692
g337
S'text'
p693
sbasbsg372
(idelphi
DelphiAddOp
p694
(dp695
g363
S'+'
sg364
(idelphi
DelphiStringAccess
p696
(dp697
g325
(lp698
sg368
(idelphi
DelphiStringValue
p699
(dp700
g368
S'Registration code:  '
p701
sbsbsg372
(idelphi
DelphiAddOp
p702
(dp703
g363
S'+'
sg364
(i__main__
DelphiIdentAccess
p704
(dp705
g323
S'cr'
p706
sg325
(lp707
sbsg372
(idelphi
DelphiAddOp
p708
(dp709
g363
S'+'
sg364
(i__main__
DelphiIdentAccess
p710
(dp711
g323
S'registrationNameEdit'
p712
sg325
(lp713
(idelphi
DelphiFieldEndAccess
p714
(dp715
g337
S'text'
p716
sbasbsg372
(idelphi
DelphiAddOp
p717
(dp718
g363
S'+'
sg364
(idelphi
DelphiStringAccess
p719
(dp720
g325
(lp721
sg368
(idelphi
DelphiStringValue
p722
(dp723
g368
S'Registration name:  '
p724
sbsbsg372
(idelphi
DelphiAddOp
p725
(dp726
g363
S'+'
sg364
(i__main__
DelphiIdentAccess
p727
(dp728
g323
S'cr'
p729
sg325
(lp730
sbsg372
(idelphi
DelphiAddOp
p731
(dp732
g363
S'+'
sg364
(idelphi
DelphiStringAccess
p733
(dp734
g325
(lp735
sg368
(idelphi
DelphiStringValue
p736
(dp737
g368
S'-------------------------------------------'
p738
sbsbsg372
(idelphi
DelphiAddOp
p739
(dp740
g363
S'+'
sg364
(i__main__
DelphiIdentAccess
p741
(dp742
g323
S'cr'
p743
sg325
(lp744
sbsg372
(idelphi
DelphiStringAccess
p745
(dp746
g325
(lp747
sg368
(idelphi
DelphiStringValue
p748
(dp749
g368
S'StoryHarp version 1.x Registration Details'
p750
sbsbsbsbsbsbsbsbsbsbsbsbsbsbsbsbsbsbsbsbsbsbsbsbsbsbsbsbsbsbsbsbsbsbsbsbsg353
(i__main__
DelphiIdentAccess
p751
(dp752
g323
S'thankYou'
p753
sg325
(lp754
(idelphi
DelphiFieldEndAccess
p755
(dp756
g337
S'text'
p757
sbasbsba(i__main__
DelphiAssignStatement
p758
(dp759
g352
(idelphi
DelphiIntegerValue
p760
(dp761
g368
S'4'
sbsg353
(i__main__
DelphiIdentAccess
p762
(dp763
g323
S'thankYou'
p764
sg325
(lp765
(idelphi
DelphiFieldEndAccess
p766
(dp767
g337
S'left'
p768
sbasbsba(i__main__
DelphiAssignStatement
p769
(dp770
g352
(idelphi
DelphiIntegerValue
p771
(dp772
g368
S'4'
sbsg353
(i__main__
DelphiIdentAccess
p773
(dp774
g323
S'thankYou'
p775
sg325
(lp776
(idelphi
DelphiFieldEndAccess
p777
(dp778
g337
S'top'
p779
sbasbsba(i__main__
DelphiAssignStatement
p780
(dp781
g352
Nsg353
(i__main__
DelphiIdentAccess
p782
(dp783
g323
S'thankYou'
p784
sg325
(lp785
(idelphi
DelphiFieldEndAccess
p786
(dp787
g337
S'show'
p788
sbasbsba(i__main__
DelphiAssignStatement
p789
(dp790
g352
Nsg353
(i__main__
DelphiIdentAccess
p791
(dp792
g323
S'thankYou'
p793
sg325
(lp794
(idelphi
DelphiFieldEndAccess
p795
(dp796
g337
S'bringToFront'
p797
sbasbsba(i__main__
DelphiAssignStatement
p798
(dp799
g352
(i__main__
DelphiIdentAccess
p800
(dp801
g323
S'registrationNameEdit'
p802
sg325
(lp803
(idelphi
DelphiFieldEndAccess
p804
(dp805
g337
S'text'
p806
sbasbsg353
(i__main__
DelphiIdentAccess
p807
(dp808
g323
S'domain'
p809
sg325
(lp810
(idelphi
DelphiFieldEndAccess
p811
(dp812
g337
S'registrationName'
p813
sbasbsba(i__main__
DelphiAssignStatement
p814
(dp815
g352
(i__main__
DelphiIdentAccess
p816
(dp817
g323
S'registrationCodeEdit'
p818
sg325
(lp819
(idelphi
DelphiFieldEndAccess
p820
(dp821
g337
S'text'
p822
sbasbsg353
(i__main__
DelphiIdentAccess
p823
(dp824
g323
S'domain'
p825
sg325
(lp826
(idelphi
DelphiFieldEndAccess
p827
(dp828
g337
S'registrationCode'
p829
sbasbsba(i__main__
DelphiAssignStatement
p830
(dp831
g352
(i__main__
DelphiIdentAccess
p832
(dp833
g323
S'true'
p834
sg325
(lp835
sbsg353
(i__main__
DelphiIdentAccess
p836
(dp837
g323
S'domain'
p838
sg325
(lp839
(idelphi
DelphiFieldEndAccess
p840
(dp841
g337
S'registered'
p842
sbasbsba(i__main__
DelphiAssignStatement
p843
(dp844
g352
(i__main__
DelphiIdentAccess
p845
(dp846
g323
S'true'
p847
sg325
(lp848
sbsg353
(i__main__
DelphiIdentAccess
p849
(dp850
g323
S'domain'
p851
sg325
(lp852
(idelphi
DelphiFieldEndAccess
p853
(dp854
g337
S'justRegistered'
p855
sbasbsba(i__main__
DelphiAssignStatement
p856
(dp857
g352
(i__main__
DelphiIdentAccess
p858
(dp859
g323
S'true'
p860
sg325
(lp861
sbsg353
(i__main__
DelphiIdentAccess
p862
(dp863
g323
S'PrintButton'
p864
sg325
(lp865
(idelphi
DelphiFieldEndAccess
p866
(dp867
g337
S'visible'
p868
sbasbsbasS'commentLinesBefore'
p869
(lp870
S'309 352 0302\r'
p871
asbsbasbsS'limitedDeclSectionList'
p872
(lp873
(i__main__
DelphiVarSection
p874
(dp875
S'atTopLevel'
p876
I0
sS'varDeclList'
p877
(lp878
(idelphi
DelphiVarDecl
p879
(dp880
S'constExpression'
p881
NsS'identList'
p882
(lp883
S'cr'
p884
asg67
(i__main__
DelphiPrimitiveType
p885
(dp886
g70
g368
sbsbasbasbsbsS'formactivate'
p887
(i__main__
DelphiMethodImplementation
p888
(dp889
g289
g81
sg51
g83
sg59
(lp890
(i__main__
DelphiFormalParameter
p891
(dp892
g63
Nsg64
(lp893
S'Sender'
p894
asg67
(i__main__
DelphiNamedType
p895
(dp896
g70
S'TObject'
p897
sg72
g1
sg73
Nsbsg74
Nsbasg298
(lp898
sg300
(lp899
sg302
(lp900
g304
ag894
asg305
(dp901
g894
g895
ssg75
S'TRegistrationForm'
p902
sg76
Nsg308
(lp903
sg77
I0
sg78
g79
sg310
(i__main__
DelphiBlock
p904
(dp905
g313
(idelphi
DelphiCompoundStatement
p906
(dp907
g316
(lp908
(i__main__
DelphiAssignStatement
p909
(dp910
g352
(i__main__
DelphiIdentAccess
p911
(dp912
g323
S'true'
p913
sg325
(lp914
sbsg353
(i__main__
DelphiIdentAccess
p915
(dp916
g323
S'opened'
p917
sg325
(lp918
sbsbasbsg872
(lp919
sbsg869
(lp920
S' Private declarations '
p921
aS' Public declarations '
p922
aS'$R *.DFM'
p923
asbsS'printbuttonclick'
p924
(i__main__
DelphiMethodImplementation
p925
(dp926
g289
g93
sg51
g95
sg59
(lp927
(i__main__
DelphiFormalParameter
p928
(dp929
g63
Nsg64
(lp930
S'Sender'
p931
asg67
(i__main__
DelphiNamedType
p932
(dp933
g70
S'TObject'
p934
sg72
g1
sg73
Nsbsg74
Nsbasg298
(lp935
sg300
(lp936
sg302
(lp937
g304
ag931
asg305
(dp938
g931
g932
ssg75
S'TRegistrationForm'
p939
sg76
Nsg308
(lp940
sg77
I0
sg78
g79
sg310
(i__main__
DelphiBlock
p941
(dp942
g313
(idelphi
DelphiCompoundStatement
p943
(dp944
g316
(lp945
(idelphi
DelphiIfStatement
p946
(dp947
g320
(i__main__
DelphiIdentAccess
p948
(dp949
g323
S'printDialog'
p950
sg325
(lp951
(idelphi
DelphiFieldEndAccess
p952
(dp953
g337
S'execute'
p954
sbasbsg346
Nsg457
(idelphi
DelphiCompoundStatement
p955
(dp956
g316
(lp957
(i__main__
DelphiAssignStatement
p958
(dp959
g352
Nsg353
(i__main__
DelphiIdentAccess
p960
(dp961
g323
S'thankYou'
p962
sg325
(lp963
(idelphi
DelphiFieldEndAccess
p964
(dp965
g337
S'print'
p966
sba(idelphi
DelphiFunctionEndAccess
p967
(dp968
g329
(lp969
(idelphi
DelphiStringAccess
p970
(dp971
g325
(lp972
sg368
(idelphi
DelphiStringValue
p973
(dp974
g368
S'StoryHarp version 1.x Registration Details'
p975
sbsbasbasbsba(i__main__
DelphiAssignStatement
p976
(dp977
g352
(i__main__
DelphiIdentAccess
p978
(dp979
g323
S'true'
p980
sg325
(lp981
sbsg353
(i__main__
DelphiIdentAccess
p982
(dp983
g323
S'printedDetails'
p984
sg325
(lp985
sbsbasbsbasbsg872
(lp986
sbsbsS'readlicenseclick'
p987
(i__main__
DelphiMethodImplementation
p988
(dp989
g289
g105
sg51
g107
sg59
(lp990
(i__main__
DelphiFormalParameter
p991
(dp992
g63
Nsg64
(lp993
S'Sender'
p994
asg67
(i__main__
DelphiNamedType
p995
(dp996
g70
S'TObject'
p997
sg72
g1
sg73
Nsbsg74
Nsbasg298
(lp998
sg300
(lp999
sg302
(lp1000
g304
ag994
asg305
(dp1001
g994
g995
ssg75
S'TRegistrationForm'
p1002
sg76
Nsg308
(lp1003
sg77
I0
sg78
g79
sg310
(i__main__
DelphiBlock
p1004
(dp1005
g313
(idelphi
DelphiCompoundStatement
p1006
(dp1007
g316
(lp1008
(i__main__
DelphiAssignStatement
p1009
(dp1010
g352
Nsg353
(i__main__
DelphiIdentAccess
p1011
(dp1012
g323
S'application'
p1013
sg325
(lp1014
(idelphi
DelphiFieldEndAccess
p1015
(dp1016
g337
S'helpJump'
p1017
sba(idelphi
DelphiFunctionEndAccess
p1018
(dp1019
g329
(lp1020
(idelphi
DelphiStringAccess
p1021
(dp1022
g325
(lp1023
sg368
(idelphi
DelphiStringValue
p1024
(dp1025
g368
S'License'
p1026
sbsbasbasbsbasbsg872
(lp1027
sbsbsS'moreinfoclick'
p1028
(i__main__
DelphiMethodImplementation
p1029
(dp1030
g289
g117
sg51
g119
sg59
(lp1031
(i__main__
DelphiFormalParameter
p1032
(dp1033
g63
Nsg64
(lp1034
S'Sender'
p1035
asg67
(i__main__
DelphiNamedType
p1036
(dp1037
g70
S'TObject'
p1038
sg72
g1
sg73
Nsbsg74
Nsbasg298
(lp1039
sg300
(lp1040
sg302
(lp1041
g304
ag1035
asg305
(dp1042
g1035
g1036
ssg75
S'TRegistrationForm'
p1043
sg76
Nsg308
(lp1044
sg77
I0
sg78
g79
sg310
(i__main__
DelphiBlock
p1045
(dp1046
g313
(idelphi
DelphiCompoundStatement
p1047
(dp1048
g316
(lp1049
(i__main__
DelphiAssignStatement
p1050
(dp1051
g352
Nsg353
(i__main__
DelphiIdentAccess
p1052
(dp1053
g323
S'application'
p1054
sg325
(lp1055
(idelphi
DelphiFieldEndAccess
p1056
(dp1057
g337
S'helpJump'
p1058
sba(idelphi
DelphiFunctionEndAccess
p1059
(dp1060
g329
(lp1061
(idelphi
DelphiStringAccess
p1062
(dp1063
g325
(lp1064
sg368
(idelphi
DelphiStringValue
p1065
(dp1066
g368
S'Why_register?'
p1067
sbsbasbasbsbasbsg872
(lp1068
sbsbsS'formclosequery'
p1069
(i__main__
DelphiMethodImplementation
p1070
(dp1071
g289
g129
sg51
g131
sg59
(lp1072
(i__main__
DelphiFormalParameter
p1073
(dp1074
g63
Nsg64
(lp1075
S'Sender'
p1076
asg67
(i__main__
DelphiNamedType
p1077
(dp1078
g70
S'TObject'
p1079
sg72
g1
sg73
Nsbsg74
Nsba(i__main__
DelphiFormalParameter
p1080
(dp1081
g63
Nsg64
(lp1082
S'CanClose'
p1083
asg67
(i__main__
DelphiPrimitiveType
p1084
(dp1085
g70
g146
sbsg74
g147
sbasg298
(lp1086
I1
asg300
(lp1087
sg302
(lp1088
g304
ag1076
ag1083
asg305
(dp1089
g1083
g1084
sg1076
g1077
ssg75
S'TRegistrationForm'
p1090
sg76
Nsg308
(lp1091
g1083
asg77
I0
sg78
g79
sg310
(i__main__
DelphiBlock
p1092
(dp1093
g313
(idelphi
DelphiCompoundStatement
p1094
(dp1095
g316
(lp1096
(idelphi
DelphiIfStatement
p1097
(dp1098
g320
(idelphi
DelphiNot
p1099
(dp1100
S'factor'
p1101
(i__main__
DelphiIdentAccess
p1102
(dp1103
g323
S'opened'
p1104
sg325
(lp1105
sbsbsg346
Nsg457
(i__main__
DelphiExitStatement
p1106
(dp1107
S'proceduralOrMethodImplementation'
p1108
g1070
sbsba(i__main__
DelphiAssignStatement
p1109
(dp1110
g352
(i__main__
DelphiIdentAccess
p1111
(dp1112
g323
S'false'
p1113
sg325
(lp1114
sbsg353
(i__main__
DelphiIdentAccess
p1115
(dp1116
g323
S'CanClose'
p1117
sg325
(lp1118
sbsba(idelphi
DelphiIfStatement
p1119
(dp1120
g320
(idelphi
DelphiMulOp
p1121
(dp1122
S'signedFactor2'
p1123
(idelphi
DelphiNestedExpressionListAccess
p1124
(dp1125
g325
(lp1126
sg329
(lp1127
(idelphi
DelphiAddOp
p1128
(dp1129
g363
S'or'
p1130
sg364
(idelphi
DelphiNestedExpressionListAccess
p1131
(dp1132
g325
(lp1133
sg329
(lp1134
(idelphi
DelphiRelOp
p1135
(dp1136
S'simpleExpression1'
p1137
(i__main__
DelphiIdentAccess
p1138
(dp1139
g323
S'trim'
p1140
sg325
(lp1141
(idelphi
DelphiFunctionEndAccess
p1142
(dp1143
g329
(lp1144
(i__main__
DelphiIdentAccess
p1145
(dp1146
g323
S'registrationCodeEdit'
p1147
sg325
(lp1148
(idelphi
DelphiFieldEndAccess
p1149
(dp1150
g337
S'text'
p1151
sbasbasbasbsS'simpleExpression2'
p1152
(idelphi
DelphiStringAccess
p1153
(dp1154
g325
(lp1155
sg368
(idelphi
DelphiStringValue
p1156
(dp1157
g368
S''
sbsbsS'relOp'
p1158
S'<>'
p1159
sbasbsg372
(idelphi
DelphiNestedExpressionListAccess
p1160
(dp1161
g325
(lp1162
sg329
(lp1163
(idelphi
DelphiRelOp
p1164
(dp1165
g1137
(i__main__
DelphiIdentAccess
p1166
(dp1167
g323
S'trim'
p1168
sg325
(lp1169
(idelphi
DelphiFunctionEndAccess
p1170
(dp1171
g329
(lp1172
(i__main__
DelphiIdentAccess
p1173
(dp1174
g323
S'registrationNameEdit'
p1175
sg325
(lp1176
(idelphi
DelphiFieldEndAccess
p1177
(dp1178
g337
S'text'
p1179
sbasbasbasbsg1152
(idelphi
DelphiStringAccess
p1180
(dp1181
g325
(lp1182
sg368
(idelphi
DelphiStringValue
p1183
(dp1184
g368
S''
sbsbsg1158
g1159
sbasbsbasbsS'mulOp'
p1185
S'and'
p1186
sS'signedFactor1'
p1187
(idelphi
DelphiNestedExpressionListAccess
p1188
(dp1189
g325
(lp1190
sg329
(lp1191
(idelphi
DelphiNot
p1192
(dp1193
g1101
(i__main__
DelphiIdentAccess
p1194
(dp1195
g323
S'domain'
p1196
sg325
(lp1197
(idelphi
DelphiFieldEndAccess
p1198
(dp1199
g337
S'registered'
p1200
sbasbsbasbsbsg346
Nsg457
(idelphi
DelphiCompoundStatement
p1201
(dp1202
g316
(lp1203
(i__main__
DelphiAssignStatement
p1204
(dp1205
g352
Nsg353
(i__main__
DelphiIdentAccess
p1206
(dp1207
g323
S'ShowMessage'
p1208
sg325
(lp1209
(idelphi
DelphiFunctionEndAccess
p1210
(dp1211
g329
(lp1212
(idelphi
DelphiAddOp
p1213
(dp1214
g363
S'+'
sg364
(idelphi
DelphiStringAccess
p1215
(dp1216
g325
(lp1217
sg368
(idelphi
DelphiStringValue
p1218
(dp1219
g368
S'You should click "Register Me!" or clear out the registration information.'
p1220
sbsbsg372
(idelphi
DelphiAddOp
p1221
(dp1222
g363
S'+'
sg364
(i__main__
DelphiIdentAccess
p1223
(dp1224
g323
S'chr'
p1225
sg325
(lp1226
(idelphi
DelphiFunctionEndAccess
p1227
(dp1228
g329
(lp1229
(idelphi
DelphiIntegerValue
p1230
(dp1231
g368
S'13'
p1232
sbasbasbsg372
(idelphi
DelphiStringAccess
p1233
(dp1234
g325
(lp1235
sg368
(idelphi
DelphiStringValue
p1236
(dp1237
g368
S"You entered registration information but didn''t finish registering."
p1238
sbsbsbsbasbasbsba(i__main__
DelphiExitStatement
p1239
(dp1240
g1108
g1070
sbasbsba(idelphi
DelphiIfStatement
p1241
(dp1242
g320
(idelphi
DelphiMulOp
p1243
(dp1244
g1123
(idelphi
DelphiNestedExpressionListAccess
p1245
(dp1246
g325
(lp1247
sg329
(lp1248
(idelphi
DelphiNot
p1249
(dp1250
g1101
(i__main__
DelphiIdentAccess
p1251
(dp1252
g323
S'printedDetails'
p1253
sg325
(lp1254
sbsbasbsg1185
g1186
sg1187
(idelphi
DelphiNestedExpressionListAccess
p1255
(dp1256
g325
(lp1257
sg329
(lp1258
(i__main__
DelphiIdentAccess
p1259
(dp1260
g323
S'domain'
p1261
sg325
(lp1262
(idelphi
DelphiFieldEndAccess
p1263
(dp1264
g337
S'registered'
p1265
sbasbasbsbsg346
Nsg457
(idelphi
DelphiCompoundStatement
p1266
(dp1267
g316
(lp1268
(idelphi
DelphiIfStatement
p1269
(dp1270
g320
(idelphi
DelphiRelOp
p1271
(dp1272
g1137
(i__main__
DelphiIdentAccess
p1273
(dp1274
g323
S'MessageDlg'
p1275
sg325
(lp1276
(idelphi
DelphiFunctionEndAccess
p1277
(dp1278
g329
(lp1279
(idelphi
DelphiAddOp
p1280
(dp1281
g363
S'+'
sg364
(idelphi
DelphiStringAccess
p1282
(dp1283
g325
(lp1284
sg368
(idelphi
DelphiStringValue
p1285
(dp1286
g368
S'Do you want to leave WITHOUT printing your registration information?'
p1287
sbsbsg372
(idelphi
DelphiAddOp
p1288
(dp1289
g363
S'+'
sg364
(i__main__
DelphiIdentAccess
p1290
(dp1291
g323
S'chr'
p1292
sg325
(lp1293
(idelphi
DelphiFunctionEndAccess
p1294
(dp1295
g329
(lp1296
(idelphi
DelphiIntegerValue
p1297
(dp1298
g368
S'13'
p1299
sbasbasbsg372
(idelphi
DelphiStringAccess
p1300
(dp1301
g325
(lp1302
sg368
(idelphi
DelphiStringValue
p1303
(dp1304
g368
S"You registered but didn''t print the information."
p1305
sbsbsbsba(i__main__
DelphiIdentAccess
p1306
(dp1307
g323
S'mtConfirmation'
p1308
sg325
(lp1309
sba(i__main__
DelphiIdentAccess
p1310
(dp1311
g323
S'mbYesNoCancel'
p1312
sg325
(lp1313
sba(idelphi
DelphiIntegerValue
p1314
(dp1315
g368
S'0'
sbasbasbsg1152
(i__main__
DelphiIdentAccess
p1316
(dp1317
g323
S'IDYES'
p1318
sg325
(lp1319
sbsg1158
g1159
sbsg346
Nsg457
(i__main__
DelphiExitStatement
p1320
(dp1321
g1108
g1070
sbsbasbsba(i__main__
DelphiAssignStatement
p1322
(dp1323
g352
(i__main__
DelphiIdentAccess
p1324
(dp1325
g323
S'true'
p1326
sg325
(lp1327
sbsg353
(i__main__
DelphiIdentAccess
p1328
(dp1329
g323
S'CanClose'
p1330
sg325
(lp1331
sbsbasbsg872
(lp1332
sbsbsS'openbrowserclick'
p1333
(i__main__
DelphiMethodImplementation
p1334
(dp1335
g289
g149
sg51
g151
sg59
(lp1336
(i__main__
DelphiFormalParameter
p1337
(dp1338
g63
Nsg64
(lp1339
S'Sender'
p1340
asg67
(i__main__
DelphiNamedType
p1341
(dp1342
g70
S'TObject'
p1343
sg72
g1
sg73
Nsbsg74
Nsbasg298
(lp1344
sg300
(lp1345
sg302
(lp1346
g304
ag1340
asg305
(dp1347
g1340
g1341
ssg75
S'TRegistrationForm'
p1348
sg76
Nsg308
(lp1349
sg77
I0
sg78
g79
sg310
(i__main__
DelphiBlock
p1350
(dp1351
g313
(idelphi
DelphiCompoundStatement
p1352
(dp1353
g316
(lp1354
(i__main__
DelphiAssignStatement
p1355
(dp1356
g352
Nsg353
(i__main__
DelphiIdentAccess
p1357
(dp1358
g323
S'ShellExecute'
p1359
sg325
(lp1360
(idelphi
DelphiFunctionEndAccess
p1361
(dp1362
g329
(lp1363
(i__main__
DelphiIdentAccess
p1364
(dp1365
g323
S'Handle'
p1366
sg325
(lp1367
sba(i__main__
DelphiValueTypecastAccess
p1368
(dp1369
S'valueTypecast'
p1370
(i__main__
DelphiValueTypecast
p1371
(dp1372
g320
(idelphi
DelphiStringAccess
p1373
(dp1374
g325
(lp1375
sg368
(idelphi
DelphiStringValue
p1376
(dp1377
g368
S'open'
p1378
sbsbsS'typeIdentPredefined'
p1379
(i__main__
DelphiPrimitiveType
p1380
(dp1381
g70
S'pchar'
p1382
sbsbsg325
(lp1383
sba(i__main__
DelphiValueTypecastAccess
p1384
(dp1385
g1370
(i__main__
DelphiValueTypecast
p1386
(dp1387
g320
(idelphi
DelphiStringAccess
p1388
(dp1389
g325
(lp1390
sg368
(idelphi
DelphiStringValue
p1391
(dp1392
g368
S'http://www.kurtz-fernhout.com/order.htm'
p1393
sbsbsg1379
(i__main__
DelphiPrimitiveType
p1394
(dp1395
g70
g1382
sbsbsg325
(lp1396
sba(idelphi
DelphiNilValue
p1397
(dp1398
ba(idelphi
DelphiNilValue
p1399
(dp1400
ba(i__main__
DelphiIdentAccess
p1401
(dp1402
g323
S'SW_SHOWNORMAL'
p1403
sg325
(lp1404
sbasbasbsbasbsg872
(lp1405
sbsbsS'formcreate'
p1406
(i__main__
DelphiMethodImplementation
p1407
(dp1408
g289
g161
sg51
g163
sg59
(lp1409
(i__main__
DelphiFormalParameter
p1410
(dp1411
g63
Nsg64
(lp1412
S'Sender'
p1413
asg67
(i__main__
DelphiNamedType
p1414
(dp1415
g70
S'TObject'
p1416
sg72
g1
sg73
Nsbsg74
Nsbasg298
(lp1417
sg300
(lp1418
sg302
(lp1419
g304
ag1413
asg305
(dp1420
g1413
g1414
ssg75
S'TRegistrationForm'
p1421
sg76
Nsg308
(lp1422
sg77
I0
sg78
g79
sg310
(i__main__
DelphiBlock
p1423
(dp1424
g313
(idelphi
DelphiCompoundStatement
p1425
(dp1426
g316
(lp1427
(i__main__
DelphiAssignStatement
p1428
(dp1429
g352
(i__main__
DelphiIdentAccess
p1430
(dp1431
g323
S'true'
p1432
sg325
(lp1433
sbsg353
(i__main__
DelphiIdentAccess
p1434
(dp1435
g323
S'thankYou'
p1436
sg325
(lp1437
(idelphi
DelphiFieldEndAccess
p1438
(dp1439
g337
S'visible'
p1440
sbasbsba(i__main__
DelphiAssignStatement
p1441
(dp1442
g352
(i__main__
DelphiIdentAccess
p1443
(dp1444
g323
S'false'
p1445
sg325
(lp1446
sbsg353
(i__main__
DelphiIdentAccess
p1447
(dp1448
g323
S'thankYou'
p1449
sg325
(lp1450
(idelphi
DelphiFieldEndAccess
p1451
(dp1452
g337
S'visible'
p1453
sbasbsbasbsg872
(lp1454
sbsbsS'closeclick'
p1455
(i__main__
DelphiMethodImplementation
p1456
(dp1457
g289
g173
sg51
g175
sg59
(lp1458
(i__main__
DelphiFormalParameter
p1459
(dp1460
g63
Nsg64
(lp1461
S'Sender'
p1462
asg67
(i__main__
DelphiNamedType
p1463
(dp1464
g70
S'TObject'
p1465
sg72
g1
sg73
Nsbsg74
Nsbasg298
(lp1466
sg300
(lp1467
sg302
(lp1468
g304
ag1462
asg305
(dp1469
g1462
g1463
ssg75
S'TRegistrationForm'
p1470
sg76
Nsg308
(lp1471
sg77
I0
sg78
g79
sg310
(i__main__
DelphiBlock
p1472
(dp1473
g313
(idelphi
DelphiCompoundStatement
p1474
(dp1475
g316
(lp1476
(idelphi
DelphiIfStatement
p1477
(dp1478
g320
(i__main__
DelphiIdentAccess
p1479
(dp1480
g323
S'domain'
p1481
sg325
(lp1482
(idelphi
DelphiFieldEndAccess
p1483
(dp1484
g337
S'registered'
p1485
sbasbsg346
(i__main__
DelphiAssignStatement
p1486
(dp1487
g352
(i__main__
DelphiIdentAccess
p1488
(dp1489
g323
S'mrCancel'
p1490
sg325
(lp1491
sbsg353
(i__main__
DelphiIdentAccess
p1492
(dp1493
g323
S'modalResult'
p1494
sg325
(lp1495
sbsbsg457
(i__main__
DelphiAssignStatement
p1496
(dp1497
g352
(i__main__
DelphiIdentAccess
p1498
(dp1499
g323
S'mrOK'
p1500
sg325
(lp1501
sbsg353
(i__main__
DelphiIdentAccess
p1502
(dp1503
g323
S'modalResult'
p1504
sg325
(lp1505
sbsbsbasbsg872
(lp1506
sbsbssS'propertyDeclarations'
p1507
(dp1508
sS'variableNamesInDeclaredOrder'
p1509
(lp1510
g46
ag42
ag22
ag24
ag38
ag30
ag18
ag16
ag20
ag26
ag12
ag40
ag28
ag48
ag34
ag36
ag14
ag32
ag44
ag10
ag50
asba(i__main__
DelphiVarSection
p1511
(dp1512
g876
I1
sg877
(lp1513
(idelphi
DelphiVarDecl
p1514
(dp1515
g881
Nsg882
(lp1516
S'RegistrationForm'
p1517
asg67
(i__main__
DelphiNamedType
p1518
(dp1519
g70
S'TRegistrationForm'
p1520
sg72
g1
sg73
NsbsbasbasS'includedUnits'
p1521
NsS'implementationUses'
p1522
(lp1523
S'ShellAPI'
p1524
aS'USDomain'
p1525
aS'UFileSupport'
p1526
aS'URegisterSupport'
p1527
aS'Printers'
p1528
asg51
S'uregister'
p1529
sS'constSections'
p1530
(lp1531
sS'globalsInProperCase'
p1532
NsS'interfaceUses'
p1533
(lp1534
S'delphi_compatability'
p1535
aS'Windows'
p1536
aS'Messages'
p1537
aS'SysUtils'
p1538
aS'Classes'
p1539
aS'Graphics'
p1540
aS'Controls'
p1541
aS'Forms'
p1542
aS'Dialogs'
p1543
aS'StdCtrls'
p1544
aS'Buttons'
p1545
aS'ExtCtrls'
p1546
aS'Grids'
p1547
aS'ComCtrls'
p1548
asS'finalCommentToken'
p1549
(i__main__
PassStatement
p1550
(dp1551
g872
(lp1552
sbsS'varSections'
p1553
(lp1554
g1511
asS'globals'
p1555
NsS'originalFileName'
p1556
S'../../storyharp-js/converted_source/uregister.pas'
p1557
sS'proceduralImplementations'
p1558
(dp1559
sS'fileName'
p1560
S'/home/pdfernhout/workspace/storyharp-js/converted_source/uregister.pas'
p1561
sS'proceduralDeclarations'
p1562
(dp1563
sS'types'
p1564
(dp1565
S'tregistrationform'
p1566
g5
ssb.