(i__main__
DelphiUnit
p1
(dp2
S'sectionsInOrderDefined'
p3
(lp4
(i__main__
DelphiClass
p5
(dp6
S'variableNamesInProperCase'
p7
(dp8
S'label8'
p9
S'Label8'
p10
sS'versionlabel'
p11
S'versionLabel'
p12
sS'okbutton'
p13
S'OKButton'
p14
sS'label1'
p15
S'Label1'
p16
sS'label2'
p17
S'Label2'
p18
sS'label3'
p19
S'Label3'
p20
sS'label4'
p21
S'Label4'
p22
sS'label6'
p23
S'Label6'
p24
sS'label7'
p25
S'Label7'
p26
sS'image1'
p27
S'Image1'
p28
sS'registeredtolabel'
p29
S'registeredToLabel'
p30
ssS'name'
p31
S'TAboutForm'
p32
sS'methodDeclarations'
p33
(dp34
S'setupassplashorabout'
p35
(i__main__
DelphiMethodDeclaration
p36
(dp37
g31
S'setUpAsSplashOrAbout'
p38
sS'formalParameters'
p39
(lp40
(i__main__
DelphiFormalParameter
p41
(dp42
S'initialValue'
p43
NsS'names'
p44
(lp45
S'splash'
p46
asS'theType'
p47
(i__main__
DelphiPrimitiveType
p48
(dp49
S'typeName'
p50
S'boolean'
p51
sbsS'parameterVariety'
p52
NsbasS'className'
p53
g32
sS'resultType'
p54
NsS'isClassMethod'
p55
I0
sS'methodType'
p56
S'procedure'
p57
sbsS'okbuttonclick'
p58
(i__main__
DelphiMethodDeclaration
p59
(dp60
g31
S'OKButtonClick'
p61
sg39
(lp62
(i__main__
DelphiFormalParameter
p63
(dp64
g43
Nsg44
(lp65
S'Sender'
p66
asg47
(i__main__
DelphiNamedType
p67
(dp68
g50
S'TObject'
p69
sS'unitDefinedIn'
p70
g1
sS'unitName'
p71
Nsbsg52
Nsbasg53
g32
sg54
Nsg55
I0
sg56
g57
sbsS'formcreate'
p72
(i__main__
DelphiMethodDeclaration
p73
(dp74
g31
S'FormCreate'
p75
sg39
(lp76
(i__main__
DelphiFormalParameter
p77
(dp78
g43
Nsg44
(lp79
S'Sender'
p80
asg47
(i__main__
DelphiNamedType
p81
(dp82
g50
S'TObject'
p83
sg70
g1
sg71
Nsbsg52
Nsbasg53
g32
sg54
Nsg55
I0
sg56
g57
sbsS'shownamestring'
p84
(i__main__
DelphiMethodDeclaration
p85
(dp86
g31
S'showNameString'
p87
sg39
(lp88
(i__main__
DelphiFormalParameter
p89
(dp90
g43
Nsg44
(lp91
S'aName'
p92
asg47
(i__main__
DelphiPrimitiveType
p93
(dp94
g50
S'string'
p95
sbsg52
Nsbasg53
g32
sg54
Nsg55
I0
sg56
g57
sS'commentLinesBefore'
p96
(lp97
S' Private declarations '
p98
aS' Public declarations '
p99
asbssS'superclassNamedTypes'
p100
(lp101
(i__main__
DelphiNamedType
p102
(dp103
g50
S'TForm'
p104
sg70
g1
sg71
NsbasS'variableNames'
p105
(dp106
S'label8'
p107
(i__main__
DelphiNamedType
p108
(dp109
g50
S'TLabel'
p110
sg70
g1
sg71
NsbsS'versionlabel'
p111
(i__main__
DelphiNamedType
p112
(dp113
g50
S'TLabel'
p114
sg70
g1
sg71
NsbsS'okbutton'
p115
(i__main__
DelphiNamedType
p116
(dp117
g50
S'TButton'
p118
sg70
g1
sg71
NsbsS'label1'
p119
(i__main__
DelphiNamedType
p120
(dp121
g50
S'TLabel'
p122
sg70
g1
sg71
NsbsS'label2'
p123
(i__main__
DelphiNamedType
p124
(dp125
g50
S'TLabel'
p126
sg70
g1
sg71
NsbsS'label3'
p127
(i__main__
DelphiNamedType
p128
(dp129
g50
S'TLabel'
p130
sg70
g1
sg71
NsbsS'label4'
p131
(i__main__
DelphiNamedType
p132
(dp133
g50
S'TLabel'
p134
sg70
g1
sg71
NsbsS'label6'
p135
(i__main__
DelphiNamedType
p136
(dp137
g50
S'TLabel'
p138
sg70
g1
sg71
NsbsS'label7'
p139
(i__main__
DelphiNamedType
p140
(dp141
g50
S'TLabel'
p142
sg70
g1
sg71
NsbsS'image1'
p143
(i__main__
DelphiNamedType
p144
(dp145
g50
S'TImage'
p146
sg70
g1
sg71
NsbsS'registeredtolabel'
p147
(i__main__
DelphiNamedType
p148
(dp149
g50
S'TLabel'
p150
sg70
g1
sg71
NsbssS'methodNamesInDefinedOrder'
p151
(lp152
S'formcreate'
p153
aS'okbuttonclick'
p154
aS'setupassplashorabout'
p155
aS'shownamestring'
p156
asS'methodImplementations'
p157
(dp158
S'setupassplashorabout'
p159
(i__main__
DelphiMethodImplementation
p160
(dp161
S'originalDeclaration'
p162
g36
sg31
g38
sg39
(lp163
(i__main__
DelphiFormalParameter
p164
(dp165
g43
Nsg44
(lp166
S'splash'
p167
asg47
(i__main__
DelphiPrimitiveType
p168
(dp169
g50
g51
sbsg52
NsbasS'varParamIndexes'
p170
(lp171
sS'varParamsSkipped'
p172
(lp173
sS'argNames'
p174
(lp175
S'self'
p176
ag167
asS'argTypes'
p177
(dp178
g167
g168
ssg53
S'TAboutForm'
p179
sg54
NsS'varParamNames'
p180
(lp181
sg55
I0
sg56
g57
sS'block'
p182
(i__main__
DelphiBlock
p183
(dp184
S'compoundStatement'
p185
(idelphi
DelphiCompoundStatement
p186
(dp187
S'statements'
p188
(lp189
(idelphi
DelphiIfStatement
p190
(dp191
S'expression'
p192
(i__main__
DelphiIdentAccess
p193
(dp194
S'ident'
p195
S'splash'
p196
sS'endAccessList'
p197
(lp198
sbsS'ifFalseStatement'
p199
(idelphi
DelphiCompoundStatement
p200
(dp201
g188
(lp202
(i__main__
DelphiAssignStatement
p203
(dp204
S'newValueExpression'
p205
(idelphi
DelphiStringAccess
p206
(dp207
g197
(lp208
sg95
(idelphi
DelphiStringValue
p209
(dp210
g95
S'About StoryHarp'
p211
sbsbsS'destinationExpression'
p212
(i__main__
DelphiIdentAccess
p213
(dp214
g195
S'caption'
p215
sg197
(lp216
sbsba(i__main__
DelphiAssignStatement
p217
(dp218
g205
(idelphi
DelphiSetConstructor
p219
(dp220
S'setElementList'
p221
(lp222
(i__main__
DelphiIdentAccess
p223
(dp224
g195
S'biSystemMenu'
p225
sg197
(lp226
sba(i__main__
DelphiIdentAccess
p227
(dp228
g195
S'biMinimize'
p229
sg197
(lp230
sba(i__main__
DelphiIdentAccess
p231
(dp232
g195
S'biMaximize'
p233
sg197
(lp234
sbasbsg212
(i__main__
DelphiIdentAccess
p235
(dp236
g195
S'borderIcons'
p237
sg197
(lp238
sbsba(i__main__
DelphiAssignStatement
p239
(dp240
g205
(i__main__
DelphiIdentAccess
p241
(dp242
g195
S'true'
p243
sg197
(lp244
sbsg212
(i__main__
DelphiIdentAccess
p245
(dp246
g195
S'okButton'
p247
sg197
(lp248
(idelphi
DelphiFieldEndAccess
p249
(dp250
S'field'
p251
S'visible'
p252
sbasbsba(i__main__
DelphiAssignStatement
p253
(dp254
g205
Nsg212
(i__main__
DelphiIdentAccess
p255
(dp256
g195
S'showNameString'
p257
sg197
(lp258
(idelphi
DelphiFunctionEndAccess
p259
(dp260
S'expressionList'
p261
(lp262
(i__main__
DelphiIdentAccess
p263
(dp264
g195
S'domain'
p265
sg197
(lp266
(idelphi
DelphiFieldEndAccess
p267
(dp268
g251
S'registrationName'
p269
sbasbasbasbsbasbsS'ifTrueStatement'
p270
(idelphi
DelphiCompoundStatement
p271
(dp272
g188
(lp273
(i__main__
DelphiAssignStatement
p274
(dp275
g205
(i__main__
DelphiIdentAccess
p276
(dp277
g195
S'false'
p278
sg197
(lp279
sbsg212
(i__main__
DelphiIdentAccess
p280
(dp281
g195
S'okButton'
p282
sg197
(lp283
(idelphi
DelphiFieldEndAccess
p284
(dp285
g251
S'visible'
p286
sbasbsba(i__main__
DelphiAssignStatement
p287
(dp288
g205
(idelphi
DelphiStringAccess
p289
(dp290
g197
(lp291
sg95
(idelphi
DelphiStringValue
p292
(dp293
g95
S''
sbsbsg212
(i__main__
DelphiIdentAccess
p294
(dp295
g195
S'caption'
p296
sg197
(lp297
sbsba(i__main__
DelphiAssignStatement
p298
(dp299
g205
(idelphi
DelphiSetConstructor
p300
(dp301
g221
(lp302
sbsg212
(i__main__
DelphiIdentAccess
p303
(dp304
g195
S'borderIcons'
p305
sg197
(lp306
sbsba(i__main__
DelphiAssignStatement
p307
(dp308
g205
Nsg212
(i__main__
DelphiIdentAccess
p309
(dp310
g195
S'showNameString'
p311
sg197
(lp312
(idelphi
DelphiFunctionEndAccess
p313
(dp314
g261
(lp315
(idelphi
DelphiStringAccess
p316
(dp317
g197
(lp318
sg95
(idelphi
DelphiStringValue
p319
(dp320
g95
S''
sbsbasbasbsbasbsbasbsS'limitedDeclSectionList'
p321
(lp322
sbsbsS'okbuttonclick'
p323
(i__main__
DelphiMethodImplementation
p324
(dp325
g162
g59
sg31
g61
sg39
(lp326
(i__main__
DelphiFormalParameter
p327
(dp328
g43
Nsg44
(lp329
S'Sender'
p330
asg47
(i__main__
DelphiNamedType
p331
(dp332
g50
S'TObject'
p333
sg70
g1
sg71
Nsbsg52
Nsbasg170
(lp334
sg172
(lp335
sg174
(lp336
g176
ag330
asg177
(dp337
g330
g331
ssg53
S'TAboutForm'
p338
sg54
Nsg180
(lp339
sg55
I0
sg56
g57
sg182
(i__main__
DelphiBlock
p340
(dp341
g185
(idelphi
DelphiCompoundStatement
p342
(dp343
g188
(lp344
(i__main__
DelphiAssignStatement
p345
(dp346
g205
(i__main__
DelphiIdentAccess
p347
(dp348
g195
S'mrOK'
p349
sg197
(lp350
sbsg212
(i__main__
DelphiIdentAccess
p351
(dp352
g195
S'modalResult'
p353
sg197
(lp354
sbsbasbsg321
(lp355
sbsbsS'formcreate'
p356
(i__main__
DelphiMethodImplementation
p357
(dp358
g162
g73
sg31
g75
sg39
(lp359
(i__main__
DelphiFormalParameter
p360
(dp361
g43
Nsg44
(lp362
S'Sender'
p363
asg47
(i__main__
DelphiNamedType
p364
(dp365
g50
S'TObject'
p366
sg70
g1
sg71
Nsbsg52
Nsbasg170
(lp367
sg172
(lp368
sg174
(lp369
g176
ag363
asg177
(dp370
g363
g364
ssg53
S'TAboutForm'
p371
sg54
Nsg180
(lp372
sg55
I0
sg56
g57
sg182
(i__main__
DelphiBlock
p373
(dp374
g185
(idelphi
DelphiCompoundStatement
p375
(dp376
g188
(lp377
(i__main__
DelphiAssignStatement
p378
(dp379
g205
(i__main__
DelphiIdentAccess
p380
(dp381
g195
S'gVersionName'
p382
sg197
(lp383
sbsg212
(i__main__
DelphiIdentAccess
p384
(dp385
g195
S'versionLabel'
p386
sg197
(lp387
(idelphi
DelphiFieldEndAccess
p388
(dp389
g251
S'caption'
p390
sbasbsbasbsg321
(lp391
sbsg96
(lp392
S'$R *.DFM'
p393
asbsS'shownamestring'
p394
(i__main__
DelphiMethodImplementation
p395
(dp396
g162
g85
sg31
g87
sg39
(lp397
(i__main__
DelphiFormalParameter
p398
(dp399
g43
Nsg44
(lp400
S'aName'
p401
asg47
(i__main__
DelphiPrimitiveType
p402
(dp403
g50
g95
sbsg52
Nsbasg170
(lp404
sg172
(lp405
sg174
(lp406
g176
ag401
asg177
(dp407
g401
g402
ssg53
S'TAboutForm'
p408
sg54
Nsg180
(lp409
sg55
I0
sg56
g57
sg182
(i__main__
DelphiBlock
p410
(dp411
g185
(idelphi
DelphiCompoundStatement
p412
(dp413
g188
(lp414
(idelphi
DelphiIfStatement
p415
(dp416
g192
(idelphi
DelphiRelOp
p417
(dp418
S'simpleExpression1'
p419
(i__main__
DelphiIdentAccess
p420
(dp421
g195
S'aName'
p422
sg197
(lp423
sbsS'simpleExpression2'
p424
(idelphi
DelphiStringAccess
p425
(dp426
g197
(lp427
sg95
(idelphi
DelphiStringValue
p428
(dp429
g95
S''
sbsbsS'relOp'
p430
S'='
sbsg199
(idelphi
DelphiIfStatement
p431
(dp432
g192
(i__main__
DelphiIdentAccess
p433
(dp434
g195
S'domain'
p435
sg197
(lp436
(idelphi
DelphiFieldEndAccess
p437
(dp438
g251
S'playerOnly'
p439
sbasbsg199
(idelphi
DelphiIfStatement
p440
(dp441
g192
(idelphi
DelphiNot
p442
(dp443
S'factor'
p444
(i__main__
DelphiIdentAccess
p445
(dp446
g195
S'domain'
p447
sg197
(lp448
(idelphi
DelphiFieldEndAccess
p449
(dp450
g251
S'registered'
p451
sbasbsbsg199
(idelphi
DelphiCompoundStatement
p452
(dp453
g188
(lp454
(idelphi
DelphiIfStatement
p455
(dp456
g192
(idelphi
DelphiMulOp
p457
(dp458
S'signedFactor2'
p459
(idelphi
DelphiNestedExpressionListAccess
p460
(dp461
g197
(lp462
sg261
(lp463
(idelphi
DelphiRelOp
p464
(dp465
g419
(i__main__
DelphiIdentAccess
p466
(dp467
g195
S'aName'
p468
sg197
(lp469
(idelphi
DelphiArrayEndAccess
p470
(dp471
g261
(lp472
(i__main__
DelphiIdentAccess
p473
(dp474
g195
S'length'
p475
sg197
(lp476
(idelphi
DelphiFunctionEndAccess
p477
(dp478
g261
(lp479
(i__main__
DelphiIdentAccess
p480
(dp481
g195
S'aName'
p482
sg197
(lp483
sbasbasbasbasbsg424
(idelphi
DelphiStringAccess
p484
(dp485
g197
(lp486
sg95
(idelphi
DelphiStringValue
p487
(dp488
g95
S','
sbsbsg430
S'='
sbasbsS'mulOp'
p489
S'and'
p490
sS'signedFactor1'
p491
(idelphi
DelphiNestedExpressionListAccess
p492
(dp493
g197
(lp494
sg261
(lp495
(idelphi
DelphiRelOp
p496
(dp497
g419
(i__main__
DelphiIdentAccess
p498
(dp499
g195
S'length'
p500
sg197
(lp501
(idelphi
DelphiFunctionEndAccess
p502
(dp503
g261
(lp504
(i__main__
DelphiIdentAccess
p505
(dp506
g195
S'aName'
p507
sg197
(lp508
sbasbasbsg424
(idelphi
DelphiIntegerValue
p509
(dp510
g95
S'1'
sbsg430
S'>'
sbasbsbsg199
Nsg270
(i__main__
DelphiAssignStatement
p511
(dp512
g205
(i__main__
DelphiIdentAccess
p513
(dp514
g195
S'copy'
p515
sg197
(lp516
(idelphi
DelphiFunctionEndAccess
p517
(dp518
g261
(lp519
(i__main__
DelphiIdentAccess
p520
(dp521
g195
S'aName'
p522
sg197
(lp523
sba(idelphi
DelphiIntegerValue
p524
(dp525
g95
S'1'
sba(idelphi
DelphiAddOp
p526
(dp527
S'addOp'
p528
S'-'
sS'term2'
p529
(idelphi
DelphiIntegerValue
p530
(dp531
g95
S'1'
sbsS'term1'
p532
(i__main__
DelphiIdentAccess
p533
(dp534
g195
S'length'
p535
sg197
(lp536
(idelphi
DelphiFunctionEndAccess
p537
(dp538
g261
(lp539
(i__main__
DelphiIdentAccess
p540
(dp541
g195
S'aName'
p542
sg197
(lp543
sbasbasbsbasbasbsg212
(i__main__
DelphiIdentAccess
p544
(dp545
g195
S'aName'
p546
sg197
(lp547
sbsbsba(i__main__
DelphiAssignStatement
p548
(dp549
g205
(idelphi
DelphiAddOp
p550
(dp551
g528
S'+'
sg529
(i__main__
DelphiIdentAccess
p552
(dp553
g195
S'aName'
p554
sg197
(lp555
sbsg532
(idelphi
DelphiStringAccess
p556
(dp557
g197
(lp558
sg95
(idelphi
DelphiStringValue
p559
(dp560
g95
S'Registered to: '
p561
sbsbsbsg212
(i__main__
DelphiIdentAccess
p562
(dp563
g195
S'registeredToLabel'
p564
sg197
(lp565
(idelphi
DelphiFieldEndAccess
p566
(dp567
g251
S'caption'
p568
sbasbsbasbsg270
(i__main__
DelphiAssignStatement
p569
(dp570
g205
(idelphi
DelphiStringAccess
p571
(dp572
g197
(lp573
sg95
(idelphi
DelphiStringValue
p574
(dp575
g95
S'Unregistered'
p576
sbsbsg212
(i__main__
DelphiIdentAccess
p577
(dp578
g195
S'registeredToLabel'
p579
sg197
(lp580
(idelphi
DelphiFieldEndAccess
p581
(dp582
g251
S'caption'
p583
sbasbsbsbsg270
(i__main__
DelphiAssignStatement
p584
(dp585
g205
(idelphi
DelphiStringAccess
p586
(dp587
g197
(lp588
sg95
(idelphi
DelphiStringValue
p589
(dp590
g95
S'Player-only mode'
p591
sbsbsg212
(i__main__
DelphiIdentAccess
p592
(dp593
g195
S'registeredToLabel'
p594
sg197
(lp595
(idelphi
DelphiFieldEndAccess
p596
(dp597
g251
S'caption'
p598
sbasbsbsbsg270
(i__main__
DelphiAssignStatement
p599
(dp600
g205
(idelphi
DelphiStringAccess
p601
(dp602
g197
(lp603
sg95
(idelphi
DelphiStringValue
p604
(dp605
g95
S''
sbsbsg212
(i__main__
DelphiIdentAccess
p606
(dp607
g195
S'registeredToLabel'
p608
sg197
(lp609
(idelphi
DelphiFieldEndAccess
p610
(dp611
g251
S'caption'
p612
sbasbsbsbasbsg321
(lp613
sbsg96
g97
sbssS'propertyDeclarations'
p614
(dp615
sS'variableNamesInDeclaredOrder'
p616
(lp617
g14
ag28
ag16
ag18
ag20
ag22
ag12
ag24
ag26
ag10
ag30
asba(i__main__
DelphiVarSection
p618
(dp619
S'atTopLevel'
p620
I1
sS'varDeclList'
p621
(lp622
(idelphi
DelphiVarDecl
p623
(dp624
S'constExpression'
p625
NsS'identList'
p626
(lp627
S'AboutForm'
p628
asg47
(i__main__
DelphiNamedType
p629
(dp630
g50
S'TAboutForm'
p631
sg70
g1
sg71
Nsbsbasba(i__main__
DelphiConstSection
p632
(dp633
S'constDeclList'
p634
(lp635
(idelphi
DelphiConstDeclaration
p636
(dp637
g625
(i__main__
DelphiIdentAccess
p638
(dp639
g195
S'true'
p640
sg197
(lp641
sbsg195
S'kAsSplash'
p642
sg47
(idelphi
DelphiPrimitiveType
p643
(dp644
g50
S'UNDEFINED_NEEDS_CALCULATION'
p645
sbsba(idelphi
DelphiConstDeclaration
p646
(dp647
g625
(i__main__
DelphiIdentAccess
p648
(dp649
g195
S'false'
p650
sg197
(lp651
sbsg195
S'kAsAbout'
p652
sg47
(idelphi
DelphiPrimitiveType
p653
(dp654
g50
g645
sbsbasg620
I1
sbasS'includedUnits'
p655
NsS'implementationUses'
p656
(lp657
S'USDomain'
p658
aS'UFileSupport'
p659
asg31
S'usabout'
p660
sS'constSections'
p661
(lp662
g632
asS'globalsInProperCase'
p663
NsS'interfaceUses'
p664
(lp665
S'delphi_compatability'
p666
aS'Windows'
p667
aS'Messages'
p668
aS'SysUtils'
p669
aS'Classes'
p670
aS'Graphics'
p671
aS'Controls'
p672
aS'Forms'
p673
aS'Dialogs'
p674
aS'StdCtrls'
p675
aS'ExtCtrls'
p676
asS'finalCommentToken'
p677
(i__main__
PassStatement
p678
(dp679
g321
(lp680
sbsS'varSections'
p681
(lp682
g618
asS'globals'
p683
NsS'originalFileName'
p684
S'../../storyharp-js/converted_source/usabout.pas'
p685
sS'proceduralImplementations'
p686
(dp687
sS'fileName'
p688
S'/home/pdfernhout/workspace/storyharp-js/converted_source/usabout.pas'
p689
sS'proceduralDeclarations'
p690
(dp691
sS'types'
p692
(dp693
S'taboutform'
p694
g5
ssb.