(i__main__
DelphiUnit
p1
(dp2
S'sectionsInOrderDefined'
p3
(lp4
(i__main__
DelphiClass
p5
(dp6
S'variableNamesInProperCase'
p7
(dp8
S'sequenceendpanel'
p9
S'sequenceEndPanel'
p10
sS'contextlistimage'
p11
S'contextListImage'
p12
sS'generatesequence'
p13
S'GenerateSequence'
p14
sS'sequenceendarrow'
p15
S'sequenceEndArrow'
p16
sS'contextbox'
p17
S'ContextBox'
p18
sS'endsequenceremovethelastcommand'
p19
S'endSequenceRemoveTheLastCommand'
p20
sS'lastfloodedcontextprefix'
p21
S'lastFloodedContextPrefix'
p22
sS'label12'
p23
S'Label12'
p24
sS'prefixedit'
p25
S'PrefixEdit'
p26
sS'label19'
p27
S'Label19'
p28
sS'gonext'
p29
S'goNext'
p30
sS'cancel'
p31
S'cancel'
p32
sS'label13'
p33
S'Label13'
p34
sS'label10'
p35
S'Label10'
p36
sS'label11'
p37
S'Label11'
p38
sS'label16'
p39
S'Label16'
p40
sS'label17'
p41
S'Label17'
p42
sS'label14'
p43
S'Label14'
p44
sS'label15'
p45
S'Label15'
p46
sS'endsequencelabel'
p47
S'endSequenceLabel'
p48
sS'helpbutton'
p49
S'helpButton'
p50
sS'prefixlabel'
p51
S'PrefixLabel'
p52
sS'endsequenceleavelastcommand'
p53
S'endSequenceLeaveLastCommand'
p54
sS'image8'
p55
S'Image8'
p56
sS'goback'
p57
S'goBack'
p58
sS'replystartpageimage'
p59
S'replyStartPageImage'
p60
sS'generated'
p61
S'generated'
p62
sS'label8'
p63
S'Label8'
p64
sS'label9'
p65
S'Label9'
p66
sS'contextstartpageimage'
p67
S'contextStartPageImage'
p68
sS'requirementsstartpageimage'
p69
S'requirementsStartPageImage'
p70
sS'label1'
p71
S'Label1'
p72
sS'label2'
p73
S'Label2'
p74
sS'label3'
p75
S'Label3'
p76
sS'label4'
p77
S'Label4'
p78
sS'label5'
p79
S'Label5'
p80
sS'label6'
p81
S'Label6'
p82
sS'label7'
p83
S'Label7'
p84
sS'label23'
p85
S'Label23'
p86
sS'label22'
p87
S'Label22'
p88
sS'prefixnote'
p89
S'prefixNote'
p90
sS'notebook'
p91
S'notebook'
p92
sS'prefixarrow'
p93
S'prefixArrow'
p94
sS'newcommandsmemo'
p95
S'NewCommandsMemo'
p96
sS'label25'
p97
S'Label25'
p98
sS'label24'
p99
S'Label24'
p100
sS'image3'
p101
S'Image3'
p102
sS'image2'
p103
S'Image2'
p104
sS'image1'
p105
S'Image1'
p106
sS'image4'
p107
S'Image4'
p108
sS'label21'
p109
S'Label21'
p110
sS'changesstartpageimage'
p111
S'changesStartPageImage'
p112
sS'label18'
p113
S'Label18'
p114
sS'newcommandsforcontextlabel'
p115
S'newCommandsForContextLabel'
p116
sS'endsequencelooptofirst'
p117
S'endSequenceLoopToFirst'
p118
sS'label27'
p119
S'Label27'
p120
sS'commandstartpageimage'
p121
S'commandStartPageImage'
p122
sS'label20'
p123
S'Label20'
p124
sS'label26'
p125
S'Label26'
p126
ssS'name'
p127
S'TCommandWizardForm'
p128
sS'methodDeclarations'
p129
(dp130
S'helpbuttonclick'
p131
(i__main__
DelphiMethodDeclaration
p132
(dp133
g127
S'helpButtonClick'
p134
sS'formalParameters'
p135
(lp136
(i__main__
DelphiFormalParameter
p137
(dp138
S'initialValue'
p139
NsS'names'
p140
(lp141
S'Sender'
p142
asS'theType'
p143
(i__main__
DelphiNamedType
p144
(dp145
S'typeName'
p146
S'TObject'
p147
sS'unitDefinedIn'
p148
g1
sS'unitName'
p149
NsbsS'parameterVariety'
p150
NsbasS'className'
p151
g128
sS'resultType'
p152
NsS'isClassMethod'
p153
I0
sS'methodType'
p154
S'procedure'
p155
sbsS'notebookpagechanged'
p156
(i__main__
DelphiMethodDeclaration
p157
(dp158
g127
S'notebookPageChanged'
p159
sg135
(lp160
(i__main__
DelphiFormalParameter
p161
(dp162
g139
Nsg140
(lp163
S'Sender'
p164
asg143
(i__main__
DelphiNamedType
p165
(dp166
g146
S'TObject'
p167
sg148
g1
sg149
Nsbsg150
Nsbasg151
g128
sg152
Nsg153
I0
sg154
g155
sbsS'cancelclick'
p168
(i__main__
DelphiMethodDeclaration
p169
(dp170
g127
S'cancelClick'
p171
sg135
(lp172
(i__main__
DelphiFormalParameter
p173
(dp174
g139
Nsg140
(lp175
S'Sender'
p176
asg143
(i__main__
DelphiNamedType
p177
(dp178
g146
S'TObject'
p179
sg148
g1
sg149
Nsbsg150
Nsbasg151
g128
sg152
Nsg153
I0
sg154
g155
sbsS'generatesequenceclick'
p180
(i__main__
DelphiMethodDeclaration
p181
(dp182
g127
S'GenerateSequenceClick'
p183
sg135
(lp184
(i__main__
DelphiFormalParameter
p185
(dp186
g139
Nsg140
(lp187
S'Sender'
p188
asg143
(i__main__
DelphiNamedType
p189
(dp190
g146
S'TObject'
p191
sg148
g1
sg149
Nsbsg150
Nsbasg151
g128
sg152
Nsg153
I0
sg154
g155
sbsS'formclosequery'
p192
(i__main__
DelphiMethodDeclaration
p193
(dp194
g127
S'FormCloseQuery'
p195
sg135
(lp196
(i__main__
DelphiFormalParameter
p197
(dp198
g139
Nsg140
(lp199
S'Sender'
p200
asg143
(i__main__
DelphiNamedType
p201
(dp202
g146
S'TObject'
p203
sg148
g1
sg149
Nsbsg150
Nsba(i__main__
DelphiFormalParameter
p204
(dp205
g139
Nsg140
(lp206
S'CanClose'
p207
asg143
(i__main__
DelphiPrimitiveType
p208
(dp209
g146
S'boolean'
p210
sbsg150
S'var'
p211
sbasg151
g128
sg152
Nsg153
I0
sg154
g155
sbsS'gobackclick'
p212
(i__main__
DelphiMethodDeclaration
p213
(dp214
g127
S'goBackClick'
p215
sg135
(lp216
(i__main__
DelphiFormalParameter
p217
(dp218
g139
Nsg140
(lp219
S'Sender'
p220
asg143
(i__main__
DelphiNamedType
p221
(dp222
g146
S'TObject'
p223
sg148
g1
sg149
Nsbsg150
Nsbasg151
g128
sg152
Nsg153
I0
sg154
g155
sbsS'initialize'
p224
(i__main__
DelphiMethodDeclaration
p225
(dp226
g127
S'initialize'
p227
sg135
(lp228
sg151
g128
sg152
(i__main__
DelphiPrimitiveType
p229
(dp230
g146
g210
sbsg153
I0
sg154
S'function'
p231
sS'commentLinesBefore'
p232
(lp233
S' Private declarations '
p234
aS' Public declarations '
p235
asbsS'formactivate'
p236
(i__main__
DelphiMethodDeclaration
p237
(dp238
g127
S'FormActivate'
p239
sg135
(lp240
(i__main__
DelphiFormalParameter
p241
(dp242
g139
Nsg140
(lp243
S'Sender'
p244
asg143
(i__main__
DelphiNamedType
p245
(dp246
g146
S'TObject'
p247
sg148
g1
sg149
Nsbsg150
Nsbasg151
g128
sg152
Nsg153
I0
sg154
g155
sbsS'gonextclick'
p248
(i__main__
DelphiMethodDeclaration
p249
(dp250
g127
S'goNextClick'
p251
sg135
(lp252
(i__main__
DelphiFormalParameter
p253
(dp254
g139
Nsg140
(lp255
S'Sender'
p256
asg143
(i__main__
DelphiNamedType
p257
(dp258
g146
S'TObject'
p259
sg148
g1
sg149
Nsbsg150
Nsbasg151
g128
sg152
Nsg153
I0
sg154
g155
sbsS'generaterules'
p260
(i__main__
DelphiMethodDeclaration
p261
(dp262
g127
S'generateRules'
p263
sg135
(lp264
sg151
g128
sg152
Nsg153
I0
sg154
g155
sbssS'superclassNamedTypes'
p265
(lp266
(i__main__
DelphiNamedType
p267
(dp268
g146
S'TForm'
p269
sg148
g1
sg149
NsbasS'variableNames'
p270
(dp271
S'sequenceendpanel'
p272
(i__main__
DelphiNamedType
p273
(dp274
g146
S'TPanel'
p275
sg148
g1
sg149
NsbsS'contextlistimage'
p276
(i__main__
DelphiNamedType
p277
(dp278
g146
S'TImage'
p279
sg148
g1
sg149
NsbsS'generatesequence'
p280
(i__main__
DelphiNamedType
p281
(dp282
g146
S'TCheckBox'
p283
sg148
g1
sg149
NsbsS'sequenceendarrow'
p284
(i__main__
DelphiNamedType
p285
(dp286
g146
S'TImage'
p287
sg148
g1
sg149
NsbsS'contextbox'
p288
(i__main__
DelphiNamedType
p289
(dp290
g146
S'TListBox'
p291
sg148
g1
sg149
NsbsS'endsequenceremovethelastcommand'
p292
(i__main__
DelphiNamedType
p293
(dp294
g146
S'TRadioButton'
p295
sg148
g1
sg149
NsbsS'lastfloodedcontextprefix'
p296
(i__main__
DelphiPrimitiveType
p297
(dp298
g146
S'string'
p299
sbsS'label12'
p300
(i__main__
DelphiNamedType
p301
(dp302
g146
S'TLabel'
p303
sg148
g1
sg149
NsbsS'prefixedit'
p304
(i__main__
DelphiNamedType
p305
(dp306
g146
S'TEdit'
p307
sg148
g1
sg149
NsbsS'label19'
p308
(i__main__
DelphiNamedType
p309
(dp310
g146
S'TLabel'
p311
sg148
g1
sg149
NsbsS'gonext'
p312
(i__main__
DelphiNamedType
p313
(dp314
g146
S'TButton'
p315
sg148
g1
sg149
NsbsS'cancel'
p316
(i__main__
DelphiNamedType
p317
(dp318
g146
S'TButton'
p319
sg148
g1
sg149
NsbsS'label13'
p320
(i__main__
DelphiNamedType
p321
(dp322
g146
S'TLabel'
p323
sg148
g1
sg149
NsbsS'label10'
p324
(i__main__
DelphiNamedType
p325
(dp326
g146
S'TLabel'
p327
sg148
g1
sg149
NsbsS'label11'
p328
(i__main__
DelphiNamedType
p329
(dp330
g146
S'TLabel'
p331
sg148
g1
sg149
NsbsS'label16'
p332
(i__main__
DelphiNamedType
p333
(dp334
g146
S'TLabel'
p335
sg148
g1
sg149
NsbsS'label17'
p336
(i__main__
DelphiNamedType
p337
(dp338
g146
S'TLabel'
p339
sg148
g1
sg149
NsbsS'label14'
p340
(i__main__
DelphiNamedType
p341
(dp342
g146
S'TLabel'
p343
sg148
g1
sg149
NsbsS'label15'
p344
(i__main__
DelphiNamedType
p345
(dp346
g146
S'TLabel'
p347
sg148
g1
sg149
NsbsS'endsequencelabel'
p348
(i__main__
DelphiNamedType
p349
(dp350
g146
S'TLabel'
p351
sg148
g1
sg149
NsbsS'helpbutton'
p352
(i__main__
DelphiNamedType
p353
(dp354
g146
S'TButton'
p355
sg148
g1
sg149
NsbsS'prefixlabel'
p356
(i__main__
DelphiNamedType
p357
(dp358
g146
S'TLabel'
p359
sg148
g1
sg149
NsbsS'endsequenceleavelastcommand'
p360
(i__main__
DelphiNamedType
p361
(dp362
g146
S'TRadioButton'
p363
sg148
g1
sg149
NsbsS'image8'
p364
(i__main__
DelphiNamedType
p365
(dp366
g146
S'TImage'
p367
sg148
g1
sg149
NsbsS'goback'
p368
(i__main__
DelphiNamedType
p369
(dp370
g146
S'TButton'
p371
sg148
g1
sg149
NsbsS'replystartpageimage'
p372
(i__main__
DelphiNamedType
p373
(dp374
g146
S'TImage'
p375
sg148
g1
sg149
NsbsS'generated'
p376
(i__main__
DelphiPrimitiveType
p377
(dp378
g146
g210
sbsS'label8'
p379
(i__main__
DelphiNamedType
p380
(dp381
g146
S'TLabel'
p382
sg148
g1
sg149
NsbsS'label9'
p383
(i__main__
DelphiNamedType
p384
(dp385
g146
S'TLabel'
p386
sg148
g1
sg149
NsbsS'contextstartpageimage'
p387
(i__main__
DelphiNamedType
p388
(dp389
g146
S'TImage'
p390
sg148
g1
sg149
NsbsS'requirementsstartpageimage'
p391
(i__main__
DelphiNamedType
p392
(dp393
g146
S'TImage'
p394
sg148
g1
sg149
NsbsS'label1'
p395
(i__main__
DelphiNamedType
p396
(dp397
g146
S'TLabel'
p398
sg148
g1
sg149
NsbsS'label2'
p399
(i__main__
DelphiNamedType
p400
(dp401
g146
S'TLabel'
p402
sg148
g1
sg149
NsbsS'label3'
p403
(i__main__
DelphiNamedType
p404
(dp405
g146
S'TLabel'
p406
sg148
g1
sg149
NsbsS'label4'
p407
(i__main__
DelphiNamedType
p408
(dp409
g146
S'TLabel'
p410
sg148
g1
sg149
NsbsS'label5'
p411
(i__main__
DelphiNamedType
p412
(dp413
g146
S'TLabel'
p414
sg148
g1
sg149
NsbsS'label6'
p415
(i__main__
DelphiNamedType
p416
(dp417
g146
S'TLabel'
p418
sg148
g1
sg149
NsbsS'label7'
p419
(i__main__
DelphiNamedType
p420
(dp421
g146
S'TLabel'
p422
sg148
g1
sg149
NsbsS'label23'
p423
(i__main__
DelphiNamedType
p424
(dp425
g146
S'TLabel'
p426
sg148
g1
sg149
NsbsS'label22'
p427
(i__main__
DelphiNamedType
p428
(dp429
g146
S'TLabel'
p430
sg148
g1
sg149
NsbsS'prefixnote'
p431
(i__main__
DelphiNamedType
p432
(dp433
g146
S'TLabel'
p434
sg148
g1
sg149
NsbsS'notebook'
p435
(i__main__
DelphiNamedType
p436
(dp437
g146
S'TNotebook'
p438
sg148
g1
sg149
NsbsS'prefixarrow'
p439
(i__main__
DelphiNamedType
p440
(dp441
g146
S'TImage'
p442
sg148
g1
sg149
NsbsS'newcommandsmemo'
p443
(i__main__
DelphiNamedType
p444
(dp445
g146
S'TMemo'
p446
sg148
g1
sg149
NsbsS'label25'
p447
(i__main__
DelphiNamedType
p448
(dp449
g146
S'TLabel'
p450
sg148
g1
sg149
NsbsS'label24'
p451
(i__main__
DelphiNamedType
p452
(dp453
g146
S'TLabel'
p454
sg148
g1
sg149
NsbsS'image3'
p455
(i__main__
DelphiNamedType
p456
(dp457
g146
S'TImage'
p458
sg148
g1
sg149
NsbsS'image2'
p459
(i__main__
DelphiNamedType
p460
(dp461
g146
S'TImage'
p462
sg148
g1
sg149
NsbsS'image1'
p463
(i__main__
DelphiNamedType
p464
(dp465
g146
S'TImage'
p466
sg148
g1
sg149
NsbsS'image4'
p467
(i__main__
DelphiNamedType
p468
(dp469
g146
S'TImage'
p470
sg148
g1
sg149
NsbsS'label21'
p471
(i__main__
DelphiNamedType
p472
(dp473
g146
S'TLabel'
p474
sg148
g1
sg149
NsbsS'changesstartpageimage'
p475
(i__main__
DelphiNamedType
p476
(dp477
g146
S'TImage'
p478
sg148
g1
sg149
NsbsS'label18'
p479
(i__main__
DelphiNamedType
p480
(dp481
g146
S'TLabel'
p482
sg148
g1
sg149
NsbsS'newcommandsforcontextlabel'
p483
(i__main__
DelphiNamedType
p484
(dp485
g146
S'TLabel'
p486
sg148
g1
sg149
NsbsS'endsequencelooptofirst'
p487
(i__main__
DelphiNamedType
p488
(dp489
g146
S'TRadioButton'
p490
sg148
g1
sg149
NsbsS'label27'
p491
(i__main__
DelphiNamedType
p492
(dp493
g146
S'TLabel'
p494
sg148
g1
sg149
NsbsS'commandstartpageimage'
p495
(i__main__
DelphiNamedType
p496
(dp497
g146
S'TImage'
p498
sg148
g1
sg149
NsbsS'label20'
p499
(i__main__
DelphiNamedType
p500
(dp501
g146
S'TLabel'
p502
sg148
g1
sg149
NsbsS'label26'
p503
(i__main__
DelphiNamedType
p504
(dp505
g146
S'TLabel'
p506
sg148
g1
sg149
NsbssS'methodNamesInDefinedOrder'
p507
(lp508
S'formactivate'
p509
aS'initialize'
p510
aS'gonextclick'
p511
aS'gobackclick'
p512
aS'notebookpagechanged'
p513
aS'cancelclick'
p514
aS'generaterules'
p515
aS'generatesequenceclick'
p516
aS'formclosequery'
p517
aS'helpbuttonclick'
p518
asS'methodImplementations'
p519
(dp520
S'helpbuttonclick'
p521
(i__main__
DelphiMethodImplementation
p522
(dp523
S'originalDeclaration'
p524
g132
sg127
g134
sg135
(lp525
(i__main__
DelphiFormalParameter
p526
(dp527
g139
Nsg140
(lp528
S'Sender'
p529
asg143
(i__main__
DelphiNamedType
p530
(dp531
g146
S'TObject'
p532
sg148
g1
sg149
Nsbsg150
NsbasS'varParamIndexes'
p533
(lp534
sS'varParamsSkipped'
p535
(lp536
sS'argNames'
p537
(lp538
S'self'
p539
ag529
asS'argTypes'
p540
(dp541
g529
g530
ssg151
S'TCommandWizardForm'
p542
sg152
NsS'varParamNames'
p543
(lp544
sg153
I0
sg154
g155
sS'block'
p545
(i__main__
DelphiBlock
p546
(dp547
S'compoundStatement'
p548
(idelphi
DelphiCompoundStatement
p549
(dp550
S'statements'
p551
(lp552
(i__main__
DelphiAssignStatement
p553
(dp554
S'newValueExpression'
p555
NsS'destinationExpression'
p556
(i__main__
DelphiIdentAccess
p557
(dp558
S'ident'
p559
S'Application'
p560
sS'endAccessList'
p561
(lp562
(idelphi
DelphiFieldEndAccess
p563
(dp564
S'field'
p565
S'helpJump'
p566
sba(idelphi
DelphiFunctionEndAccess
p567
(dp568
S'expressionList'
p569
(lp570
(idelphi
DelphiStringAccess
p571
(dp572
g561
(lp573
sg299
(idelphi
DelphiStringValue
p574
(dp575
g299
S'Making_new_rules_using_the_new_commands_wizard'
p576
sbsbasbasbsbasbsS'limitedDeclSectionList'
p577
(lp578
sbsbsS'formactivate'
p579
(i__main__
DelphiMethodImplementation
p580
(dp581
g524
g237
sg127
g239
sg135
(lp582
(i__main__
DelphiFormalParameter
p583
(dp584
g139
Nsg140
(lp585
S'Sender'
p586
asg143
(i__main__
DelphiNamedType
p587
(dp588
g146
S'TObject'
p589
sg148
g1
sg149
Nsbsg150
Nsbasg533
(lp590
sg535
(lp591
sg537
(lp592
g539
ag586
asg540
(dp593
g586
g587
ssg151
S'TCommandWizardForm'
p594
sg152
Nsg543
(lp595
sg153
I0
sg154
g155
sg545
(i__main__
DelphiBlock
p596
(dp597
g548
(idelphi
DelphiCompoundStatement
p598
(dp599
g551
(lp600
(i__main__
DelphiAssignStatement
p601
(dp602
g555
(i__main__
DelphiIdentAccess
p603
(dp604
g559
S'ConsoleForm'
p605
sg561
(lp606
(idelphi
DelphiFieldEndAccess
p607
(dp608
g565
S'ContextButton'
p609
sba(idelphi
DelphiFieldEndAccess
p610
(dp611
g565
S'glyph'
p612
sbasbsg556
(i__main__
DelphiIdentAccess
p613
(dp614
g559
S'contextStartPageImage'
p615
sg561
(lp616
(idelphi
DelphiFieldEndAccess
p617
(dp618
g565
S'picture'
p619
sba(idelphi
DelphiFieldEndAccess
p620
(dp621
g565
S'bitmap'
p622
sbasbsba(i__main__
DelphiAssignStatement
p623
(dp624
g555
(i__main__
DelphiIdentAccess
p625
(dp626
g559
S'ConsoleForm'
p627
sg561
(lp628
(idelphi
DelphiFieldEndAccess
p629
(dp630
g565
S'CommandButton'
p631
sba(idelphi
DelphiFieldEndAccess
p632
(dp633
g565
S'glyph'
p634
sbasbsg556
(i__main__
DelphiIdentAccess
p635
(dp636
g559
S'commandStartPageImage'
p637
sg561
(lp638
(idelphi
DelphiFieldEndAccess
p639
(dp640
g565
S'picture'
p641
sba(idelphi
DelphiFieldEndAccess
p642
(dp643
g565
S'bitmap'
p644
sbasbsba(i__main__
DelphiAssignStatement
p645
(dp646
g555
(i__main__
DelphiIdentAccess
p647
(dp648
g559
S'RuleEditorForm'
p649
sg561
(lp650
(idelphi
DelphiFieldEndAccess
p651
(dp652
g565
S'ReplyPicture'
p653
sba(idelphi
DelphiFieldEndAccess
p654
(dp655
g565
S'picture'
p656
sba(idelphi
DelphiFieldEndAccess
p657
(dp658
g565
S'bitmap'
p659
sbasbsg556
(i__main__
DelphiIdentAccess
p660
(dp661
g559
S'replyStartPageImage'
p662
sg561
(lp663
(idelphi
DelphiFieldEndAccess
p664
(dp665
g565
S'picture'
p666
sba(idelphi
DelphiFieldEndAccess
p667
(dp668
g565
S'bitmap'
p669
sbasbsba(i__main__
DelphiAssignStatement
p670
(dp671
g555
(i__main__
DelphiIdentAccess
p672
(dp673
g559
S'ConsoleForm'
p674
sg561
(lp675
(idelphi
DelphiFieldEndAccess
p676
(dp677
g565
S'RequirementsButton'
p678
sba(idelphi
DelphiFieldEndAccess
p679
(dp680
g565
S'glyph'
p681
sbasbsg556
(i__main__
DelphiIdentAccess
p682
(dp683
g559
S'requirementsStartPageImage'
p684
sg561
(lp685
(idelphi
DelphiFieldEndAccess
p686
(dp687
g565
S'picture'
p688
sba(idelphi
DelphiFieldEndAccess
p689
(dp690
g565
S'bitmap'
p691
sbasbsba(i__main__
DelphiAssignStatement
p692
(dp693
g555
(i__main__
DelphiIdentAccess
p694
(dp695
g559
S'ConsoleForm'
p696
sg561
(lp697
(idelphi
DelphiFieldEndAccess
p698
(dp699
g565
S'ChangesButton'
p700
sba(idelphi
DelphiFieldEndAccess
p701
(dp702
g565
S'glyph'
p703
sbasbsg556
(i__main__
DelphiIdentAccess
p704
(dp705
g559
S'changesStartPageImage'
p706
sg561
(lp707
(idelphi
DelphiFieldEndAccess
p708
(dp709
g565
S'picture'
p710
sba(idelphi
DelphiFieldEndAccess
p711
(dp712
g565
S'bitmap'
p713
sbasbsba(i__main__
DelphiAssignStatement
p714
(dp715
g555
(i__main__
DelphiIdentAccess
p716
(dp717
g559
S'ConsoleForm'
p718
sg561
(lp719
(idelphi
DelphiFieldEndAccess
p720
(dp721
g565
S'ContextButton'
p722
sba(idelphi
DelphiFieldEndAccess
p723
(dp724
g565
S'glyph'
p725
sbasbsg556
(i__main__
DelphiIdentAccess
p726
(dp727
g559
S'contextListImage'
p728
sg561
(lp729
(idelphi
DelphiFieldEndAccess
p730
(dp731
g565
S'picture'
p732
sba(idelphi
DelphiFieldEndAccess
p733
(dp734
g565
S'bitmap'
p735
sbasbsbasbsg577
(lp736
sbsg232
(lp737
S'$R *.DFM'
p738
asbsS'cancelclick'
p739
(i__main__
DelphiMethodImplementation
p740
(dp741
g524
g169
sg127
g171
sg135
(lp742
(i__main__
DelphiFormalParameter
p743
(dp744
g139
Nsg140
(lp745
S'Sender'
p746
asg143
(i__main__
DelphiNamedType
p747
(dp748
g146
S'TObject'
p749
sg148
g1
sg149
Nsbsg150
Nsbasg533
(lp750
sg535
(lp751
sg537
(lp752
g539
ag746
asg540
(dp753
g746
g747
ssg151
S'TCommandWizardForm'
p754
sg152
Nsg543
(lp755
sg153
I0
sg154
g155
sg545
(i__main__
DelphiBlock
p756
(dp757
g548
(idelphi
DelphiCompoundStatement
p758
(dp759
g551
(lp760
(i__main__
DelphiAssignStatement
p761
(dp762
g555
(i__main__
DelphiIdentAccess
p763
(dp764
g559
S'mrCancel'
p765
sg561
(lp766
sbsg556
(i__main__
DelphiIdentAccess
p767
(dp768
g559
S'modalResult'
p769
sg561
(lp770
sbsbasbsg577
(lp771
sbsbsS'notebookpagechanged'
p772
(i__main__
DelphiMethodImplementation
p773
(dp774
g524
g157
sg127
g159
sg135
(lp775
(i__main__
DelphiFormalParameter
p776
(dp777
g139
Nsg140
(lp778
S'Sender'
p779
asg143
(i__main__
DelphiNamedType
p780
(dp781
g146
S'TObject'
p782
sg148
g1
sg149
Nsbsg150
Nsbasg533
(lp783
sg535
(lp784
sg537
(lp785
g539
ag779
asg540
(dp786
g779
g780
ssg151
S'TCommandWizardForm'
p787
sg152
Nsg543
(lp788
sg153
I0
sg154
g155
sg545
(i__main__
DelphiBlock
p789
(dp790
g548
(idelphi
DelphiCompoundStatement
p791
(dp792
g551
(lp793
(i__main__
DelphiAssignStatement
p794
(dp795
g555
(idelphi
DelphiRelOp
p796
(dp797
S'simpleExpression1'
p798
(i__main__
DelphiIdentAccess
p799
(dp800
g559
S'notebook'
p801
sg561
(lp802
(idelphi
DelphiFieldEndAccess
p803
(dp804
g565
S'pageIndex'
p805
sbasbsS'simpleExpression2'
p806
(i__main__
DelphiIdentAccess
p807
(dp808
g559
S'kStartPage'
p809
sg561
(lp810
sbsS'relOp'
p811
S'>'
sbsg556
(i__main__
DelphiIdentAccess
p812
(dp813
g559
S'goBack'
p814
sg561
(lp815
(idelphi
DelphiFieldEndAccess
p816
(dp817
g565
S'enabled'
p818
sbasbsba(idelphi
DelphiIfStatement
p819
(dp820
S'expression'
p821
(idelphi
DelphiRelOp
p822
(dp823
g798
(i__main__
DelphiIdentAccess
p824
(dp825
g559
S'noteBook'
p826
sg561
(lp827
(idelphi
DelphiFieldEndAccess
p828
(dp829
g565
S'pageIndex'
p830
sbasbsg806
(i__main__
DelphiIdentAccess
p831
(dp832
g559
S'kFinishPage'
p833
sg561
(lp834
sbsg811
S'<>'
p835
sbsS'ifFalseStatement'
p836
(i__main__
DelphiAssignStatement
p837
(dp838
g555
(idelphi
DelphiStringAccess
p839
(dp840
g561
(lp841
sg299
(idelphi
DelphiStringValue
p842
(dp843
g299
S'&Finish'
p844
sbsbsg556
(i__main__
DelphiIdentAccess
p845
(dp846
g559
S'goNext'
p847
sg561
(lp848
(idelphi
DelphiFieldEndAccess
p849
(dp850
g565
S'caption'
p851
sbasbsbsS'ifTrueStatement'
p852
(i__main__
DelphiAssignStatement
p853
(dp854
g555
(idelphi
DelphiStringAccess
p855
(dp856
g561
(lp857
sg299
(idelphi
DelphiStringValue
p858
(dp859
g299
S'&Next >>'
p860
sbsbsg556
(i__main__
DelphiIdentAccess
p861
(dp862
g559
S'goNext'
p863
sg561
(lp864
(idelphi
DelphiFieldEndAccess
p865
(dp866
g565
S'caption'
p867
sbasbsbsbasbsg577
(lp868
sbsbsS'generatesequenceclick'
p869
(i__main__
DelphiMethodImplementation
p870
(dp871
g524
g181
sg127
g183
sg135
(lp872
(i__main__
DelphiFormalParameter
p873
(dp874
g139
Nsg140
(lp875
S'Sender'
p876
asg143
(i__main__
DelphiNamedType
p877
(dp878
g146
S'TObject'
p879
sg148
g1
sg149
Nsbsg150
Nsbasg533
(lp880
sg535
(lp881
sg537
(lp882
g539
ag876
asg540
(dp883
g876
g877
ssg151
S'TCommandWizardForm'
p884
sg152
Nsg543
(lp885
sg153
I0
sg154
g155
sg545
(i__main__
DelphiBlock
p886
(dp887
g548
(idelphi
DelphiCompoundStatement
p888
(dp889
g551
(lp890
(i__main__
DelphiAssignStatement
p891
(dp892
g555
(i__main__
DelphiIdentAccess
p893
(dp894
g559
S'GenerateSequence'
p895
sg561
(lp896
(idelphi
DelphiFieldEndAccess
p897
(dp898
g565
S'checked'
p899
sbasbsg556
(i__main__
DelphiIdentAccess
p900
(dp901
g559
S'doSequence'
p902
sg561
(lp903
sbsba(i__main__
DelphiAssignStatement
p904
(dp905
g555
(i__main__
DelphiIdentAccess
p906
(dp907
g559
S'doSequence'
p908
sg561
(lp909
sbsg556
(i__main__
DelphiIdentAccess
p910
(dp911
g559
S'prefixArrow'
p912
sg561
(lp913
(idelphi
DelphiFieldEndAccess
p914
(dp915
g565
S'visible'
p916
sbasbsba(i__main__
DelphiAssignStatement
p917
(dp918
g555
(i__main__
DelphiIdentAccess
p919
(dp920
g559
S'doSequence'
p921
sg561
(lp922
sbsg556
(i__main__
DelphiIdentAccess
p923
(dp924
g559
S'PrefixLabel'
p925
sg561
(lp926
(idelphi
DelphiFieldEndAccess
p927
(dp928
g565
S'enabled'
p929
sbasbsba(i__main__
DelphiAssignStatement
p930
(dp931
g555
(i__main__
DelphiIdentAccess
p932
(dp933
g559
S'doSequence'
p934
sg561
(lp935
sbsg556
(i__main__
DelphiIdentAccess
p936
(dp937
g559
S'PrefixEdit'
p938
sg561
(lp939
(idelphi
DelphiFieldEndAccess
p940
(dp941
g565
S'visible'
p942
sbasbsba(i__main__
DelphiAssignStatement
p943
(dp944
g555
(i__main__
DelphiIdentAccess
p945
(dp946
g559
S'doSequence'
p947
sg561
(lp948
sbsg556
(i__main__
DelphiIdentAccess
p949
(dp950
g559
S'prefixNote'
p951
sg561
(lp952
(idelphi
DelphiFieldEndAccess
p953
(dp954
g565
S'enabled'
p955
sbasbsba(i__main__
DelphiAssignStatement
p956
(dp957
g555
(i__main__
DelphiIdentAccess
p958
(dp959
g559
S'doSequence'
p960
sg561
(lp961
sbsg556
(i__main__
DelphiIdentAccess
p962
(dp963
g559
S'sequenceEndArrow'
p964
sg561
(lp965
(idelphi
DelphiFieldEndAccess
p966
(dp967
g565
S'visible'
p968
sbasbsba(i__main__
DelphiAssignStatement
p969
(dp970
g555
(i__main__
DelphiIdentAccess
p971
(dp972
g559
S'doSequence'
p973
sg561
(lp974
sbsg556
(i__main__
DelphiIdentAccess
p975
(dp976
g559
S'endSequenceLabel'
p977
sg561
(lp978
(idelphi
DelphiFieldEndAccess
p979
(dp980
g565
S'enabled'
p981
sbasbsba(i__main__
DelphiAssignStatement
p982
(dp983
g555
(i__main__
DelphiIdentAccess
p984
(dp985
g559
S'doSequence'
p986
sg561
(lp987
sbsg556
(i__main__
DelphiIdentAccess
p988
(dp989
g559
S'endSequenceLoopToFirst'
p990
sg561
(lp991
(idelphi
DelphiFieldEndAccess
p992
(dp993
g565
S'enabled'
p994
sbasbsba(i__main__
DelphiAssignStatement
p995
(dp996
g555
(i__main__
DelphiIdentAccess
p997
(dp998
g559
S'doSequence'
p999
sg561
(lp1000
sbsg556
(i__main__
DelphiIdentAccess
p1001
(dp1002
g559
S'endSequenceLeaveLastCommand'
p1003
sg561
(lp1004
(idelphi
DelphiFieldEndAccess
p1005
(dp1006
g565
S'enabled'
p1007
sbasbsba(i__main__
DelphiAssignStatement
p1008
(dp1009
g555
(i__main__
DelphiIdentAccess
p1010
(dp1011
g559
S'doSequence'
p1012
sg561
(lp1013
sbsg556
(i__main__
DelphiIdentAccess
p1014
(dp1015
g559
S'endSequenceRemoveTheLastCommand'
p1016
sg561
(lp1017
(idelphi
DelphiFieldEndAccess
p1018
(dp1019
g565
S'enabled'
p1020
sbasbsbasbsg577
(lp1021
(i__main__
DelphiVarSection
p1022
(dp1023
S'atTopLevel'
p1024
I0
sS'varDeclList'
p1025
(lp1026
(idelphi
DelphiVarDecl
p1027
(dp1028
S'constExpression'
p1029
NsS'identList'
p1030
(lp1031
S'doSequence'
p1032
asg143
(i__main__
DelphiPrimitiveType
p1033
(dp1034
g146
g210
sbsbasbasbsbsS'formclosequery'
p1035
(i__main__
DelphiMethodImplementation
p1036
(dp1037
g524
g193
sg127
g195
sg135
(lp1038
(i__main__
DelphiFormalParameter
p1039
(dp1040
g139
Nsg140
(lp1041
S'Sender'
p1042
asg143
(i__main__
DelphiNamedType
p1043
(dp1044
g146
S'TObject'
p1045
sg148
g1
sg149
Nsbsg150
Nsba(i__main__
DelphiFormalParameter
p1046
(dp1047
g139
Nsg140
(lp1048
S'CanClose'
p1049
asg143
(i__main__
DelphiPrimitiveType
p1050
(dp1051
g146
g210
sbsg150
g211
sbasg533
(lp1052
I1
asg535
(lp1053
sg537
(lp1054
g539
ag1042
ag1049
asg540
(dp1055
g1049
g1050
sg1042
g1043
ssg151
S'TCommandWizardForm'
p1056
sg152
Nsg543
(lp1057
g1049
asg153
I0
sg154
g155
sg545
(i__main__
DelphiBlock
p1058
(dp1059
g548
(idelphi
DelphiCompoundStatement
p1060
(dp1061
g551
(lp1062
(idelphi
DelphiIfStatement
p1063
(dp1064
g821
(i__main__
DelphiIdentAccess
p1065
(dp1066
g559
S'generated'
p1067
sg561
(lp1068
sbsg836
Nsg852
(i__main__
DelphiExitStatement
p1069
(dp1070
S'proceduralOrMethodImplementation'
p1071
g1036
sbsba(idelphi
DelphiIfStatement
p1072
(dp1073
g821
(idelphi
DelphiRelOp
p1074
(dp1075
g798
(i__main__
DelphiIdentAccess
p1076
(dp1077
g559
S'Trim'
p1078
sg561
(lp1079
(idelphi
DelphiFunctionEndAccess
p1080
(dp1081
g569
(lp1082
(i__main__
DelphiIdentAccess
p1083
(dp1084
g559
S'NewCommandsMemo'
p1085
sg561
(lp1086
(idelphi
DelphiFieldEndAccess
p1087
(dp1088
g565
S'text'
p1089
sbasbasbasbsg806
(idelphi
DelphiStringAccess
p1090
(dp1091
g561
(lp1092
sg299
(idelphi
DelphiStringValue
p1093
(dp1094
g299
S''
sbsbsg811
g835
sbsg836
Nsg852
(idelphi
DelphiCompoundStatement
p1095
(dp1096
g551
(lp1097
(i__main__
DelphiAssignStatement
p1098
(dp1099
g555
(i__main__
DelphiIdentAccess
p1100
(dp1101
g559
S'MessageDlg'
p1102
sg561
(lp1103
(idelphi
DelphiFunctionEndAccess
p1104
(dp1105
g569
(lp1106
(idelphi
DelphiAddOp
p1107
(dp1108
S'addOp'
p1109
S'+'
sS'term2'
p1110
(idelphi
DelphiStringAccess
p1111
(dp1112
g561
(lp1113
sg299
(idelphi
DelphiStringValue
p1114
(dp1115
g299
S'Is this OK?'
p1116
sbsbsS'term1'
p1117
(idelphi
DelphiAddOp
p1118
(dp1119
g1109
S'+'
sg1110
(i__main__
DelphiIdentAccess
p1120
(dp1121
g559
S'chr'
p1122
sg561
(lp1123
(idelphi
DelphiFunctionEndAccess
p1124
(dp1125
g569
(lp1126
(idelphi
DelphiIntegerValue
p1127
(dp1128
g299
S'13'
p1129
sbasbasbsg1117
(idelphi
DelphiAddOp
p1130
(dp1131
g1109
S'+'
sg1110
(i__main__
DelphiIdentAccess
p1132
(dp1133
g559
S'chr'
p1134
sg561
(lp1135
(idelphi
DelphiFunctionEndAccess
p1136
(dp1137
g569
(lp1138
(idelphi
DelphiIntegerValue
p1139
(dp1140
g299
S'13'
p1141
sbasbasbsg1117
(idelphi
DelphiAddOp
p1142
(dp1143
g1109
S'+'
sg1110
(idelphi
DelphiStringAccess
p1144
(dp1145
g561
(lp1146
sg299
(idelphi
DelphiStringValue
p1147
(dp1148
g299
S'and lose any work done with it.'
p1149
sbsbsg1117
(idelphi
DelphiAddOp
p1150
(dp1151
g1109
S'+'
sg1110
(i__main__
DelphiIdentAccess
p1152
(dp1153
g559
S'chr'
p1154
sg561
(lp1155
(idelphi
DelphiFunctionEndAccess
p1156
(dp1157
g569
(lp1158
(idelphi
DelphiIntegerValue
p1159
(dp1160
g299
S'13'
p1161
sbasbasbsg1117
(idelphi
DelphiStringAccess
p1162
(dp1163
g561
(lp1164
sg299
(idelphi
DelphiStringValue
p1165
(dp1166
g299
S'You are about to close this wizard'
p1167
sbsbsbsbsbsbsba(i__main__
DelphiIdentAccess
p1168
(dp1169
g559
S'mtConfirmation'
p1170
sg561
(lp1171
sba(idelphi
DelphiSetConstructor
p1172
(dp1173
S'setElementList'
p1174
(lp1175
(i__main__
DelphiIdentAccess
p1176
(dp1177
g559
S'mbYes'
p1178
sg561
(lp1179
sba(i__main__
DelphiIdentAccess
p1180
(dp1181
g559
S'mbNo'
p1182
sg561
(lp1183
sbasba(idelphi
DelphiIntegerValue
p1184
(dp1185
g299
S'0'
sbasbasbsg556
(i__main__
DelphiIdentAccess
p1186
(dp1187
g559
S'result'
p1188
sg561
(lp1189
sbsba(idelphi
DelphiIfStatement
p1190
(dp1191
g821
(idelphi
DelphiRelOp
p1192
(dp1193
g798
(i__main__
DelphiIdentAccess
p1194
(dp1195
g559
S'result'
p1196
sg561
(lp1197
sbsg806
(i__main__
DelphiIdentAccess
p1198
(dp1199
g559
S'mrYes'
p1200
sg561
(lp1201
sbsg811
g835
sbsg836
Nsg852
(i__main__
DelphiExitStatement
p1202
(dp1203
g1071
g1036
sbsba(i__main__
DelphiAssignStatement
p1204
(dp1205
g555
Nsg556
(i__main__
DelphiIdentAccess
p1206
(dp1207
g559
S'ChangeLogForm'
p1208
sg561
(lp1209
(idelphi
DelphiFieldEndAccess
p1210
(dp1211
g565
S'addToLog'
p1212
sba(idelphi
DelphiFunctionEndAccess
p1213
(dp1214
g569
(lp1215
(i__main__
DelphiIdentAccess
p1216
(dp1217
g559
S'NewCommandsMemo'
p1218
sg561
(lp1219
(idelphi
DelphiFieldEndAccess
p1220
(dp1221
g565
S'Text'
p1222
sbasbasbasbsbasbsba(i__main__
DelphiAssignStatement
p1223
(dp1224
g555
(i__main__
DelphiIdentAccess
p1225
(dp1226
g559
S'mrCancel'
p1227
sg561
(lp1228
sbsg556
(i__main__
DelphiIdentAccess
p1229
(dp1230
g559
S'modalResult'
p1231
sg561
(lp1232
sbsbasbsg577
(lp1233
(i__main__
DelphiVarSection
p1234
(dp1235
g1024
I0
sg1025
(lp1236
(idelphi
DelphiVarDecl
p1237
(dp1238
g1029
Nsg1030
(lp1239
S'result'
p1240
asg143
(i__main__
DelphiPrimitiveType
p1241
(dp1242
g146
S'word'
p1243
sbsbasbasbsg232
(lp1244
S'\r'
aS"talk to the grue|The grue won't listen.\r"
p1245
aS'talk to the grue|The grue seems to be getting very agitated.\r'
p1246
aS'talk to the grue|The grue seems about to fly into a rage.\r'
p1247
aS'talk to the grue|The grue devours you (except your bones of course).\r'
p1248
aS'grue pit\r'
p1249
aS''
asbsS'gobackclick'
p1250
(i__main__
DelphiMethodImplementation
p1251
(dp1252
g524
g213
sg127
g215
sg135
(lp1253
(i__main__
DelphiFormalParameter
p1254
(dp1255
g139
Nsg140
(lp1256
S'Sender'
p1257
asg143
(i__main__
DelphiNamedType
p1258
(dp1259
g146
S'TObject'
p1260
sg148
g1
sg149
Nsbsg150
Nsbasg533
(lp1261
sg535
(lp1262
sg537
(lp1263
g539
ag1257
asg540
(dp1264
g1257
g1258
ssg151
S'TCommandWizardForm'
p1265
sg152
Nsg543
(lp1266
sg153
I0
sg154
g155
sg545
(i__main__
DelphiBlock
p1267
(dp1268
g548
(idelphi
DelphiCompoundStatement
p1269
(dp1270
g551
(lp1271
(idelphi
DelphiWithStatement
p1272
(dp1273
S'statement'
p1274
(idelphi
DelphiIfStatement
p1275
(dp1276
g821
(idelphi
DelphiRelOp
p1277
(dp1278
g798
(i__main__
DelphiIdentAccess
p1279
(dp1280
g559
S'pageIndex'
p1281
sg561
(lp1282
sbsg806
(i__main__
DelphiIdentAccess
p1283
(dp1284
g559
S'kStartPage'
p1285
sg561
(lp1286
sbsg811
S'>'
sbsg836
Nsg852
(i__main__
DelphiAssignStatement
p1287
(dp1288
g555
(idelphi
DelphiAddOp
p1289
(dp1290
g1109
S'-'
sg1110
(idelphi
DelphiIntegerValue
p1291
(dp1292
g299
S'1'
sbsg1117
(i__main__
DelphiIdentAccess
p1293
(dp1294
g559
S'pageIndex'
p1295
sg561
(lp1296
sbsbsg556
(i__main__
DelphiIdentAccess
p1297
(dp1298
g559
S'pageIndex'
p1299
sg561
(lp1300
sbsbsbsS'variableReferenceList'
p1301
(lp1302
(i__main__
DelphiIdentAccess
p1303
(dp1304
g559
S'notebook'
p1305
sg561
(lp1306
sbasbasbsg577
(lp1307
sbsbsS'initialize'
p1308
(i__main__
DelphiMethodImplementation
p1309
(dp1310
g524
g225
sg127
g227
sg135
(lp1311
sg533
(lp1312
sg535
(lp1313
sg537
(lp1314
g539
asg540
(dp1315
sg151
S'TCommandWizardForm'
p1316
sg152
(i__main__
DelphiPrimitiveType
p1317
(dp1318
g146
g210
sbsg543
(lp1319
sg153
I0
sg154
g231
sg545
(i__main__
DelphiBlock
p1320
(dp1321
g548
(idelphi
DelphiCompoundStatement
p1322
(dp1323
g551
(lp1324
(i__main__
DelphiAssignStatement
p1325
(dp1326
g555
(i__main__
DelphiIdentAccess
p1327
(dp1328
g559
S'false'
p1329
sg561
(lp1330
sbsg556
(i__main__
DelphiIdentAccess
p1331
(dp1332
g559
S'generated'
p1333
sg561
(lp1334
sbsba(i__main__
DelphiAssignStatement
p1335
(dp1336
g555
(i__main__
DelphiIdentAccess
p1337
(dp1338
g559
S'kStartPage'
p1339
sg561
(lp1340
sbsg556
(i__main__
DelphiIdentAccess
p1341
(dp1342
g559
S'notebook'
p1343
sg561
(lp1344
(idelphi
DelphiFieldEndAccess
p1345
(dp1346
g565
S'pageIndex'
p1347
sbasbsba(i__main__
DelphiAssignStatement
p1348
(dp1349
g555
Nsg556
(i__main__
DelphiIdentAccess
p1350
(dp1351
g559
S'domain'
p1352
sg561
(lp1353
(idelphi
DelphiFieldEndAccess
p1354
(dp1355
g565
S'world'
p1356
sba(idelphi
DelphiFieldEndAccess
p1357
(dp1358
g565
S'addContextsToListBox'
p1359
sba(idelphi
DelphiFunctionEndAccess
p1360
(dp1361
g569
(lp1362
(i__main__
DelphiIdentAccess
p1363
(dp1364
g559
S'ContextBox'
p1365
sg561
(lp1366
sbasbasbsba(idelphi
DelphiIfStatement
p1367
(dp1368
g821
(idelphi
DelphiRelOp
p1369
(dp1370
g798
(i__main__
DelphiIdentAccess
p1371
(dp1372
g559
S'ContextBox'
p1373
sg561
(lp1374
(idelphi
DelphiFieldEndAccess
p1375
(dp1376
g565
S'items'
p1377
sba(idelphi
DelphiFieldEndAccess
p1378
(dp1379
g565
S'count'
p1380
sbasbsg806
(idelphi
DelphiIntegerValue
p1381
(dp1382
g299
S'1'
sbsg811
S'<'
sbsg836
Nsg852
(idelphi
DelphiCompoundStatement
p1383
(dp1384
g551
(lp1385
(i__main__
DelphiAssignStatement
p1386
(dp1387
g555
(i__main__
DelphiIdentAccess
p1388
(dp1389
g559
S'false'
p1390
sg561
(lp1391
sbsg556
(i__main__
DelphiIdentAccess
p1392
(dp1393
g559
S'result'
p1394
sg561
(lp1395
sbsba(i__main__
DelphiAssignStatement
p1396
(dp1397
g555
Nsg556
(i__main__
DelphiIdentAccess
p1398
(dp1399
g559
S'ShowMessage'
p1400
sg561
(lp1401
(idelphi
DelphiFunctionEndAccess
p1402
(dp1403
g569
(lp1404
(idelphi
DelphiStringAccess
p1405
(dp1406
g561
(lp1407
sg299
(idelphi
DelphiStringValue
p1408
(dp1409
g299
S'You must create at least one context before using the command wizard.'
p1410
sbsbasbasbsba(i__main__
DelphiExitStatement
p1411
(dp1412
g1071
g1309
sbasbsba(i__main__
DelphiAssignStatement
p1413
(dp1414
g555
(idelphi
DelphiStringAccess
p1415
(dp1416
g561
(lp1417
sg299
(idelphi
DelphiStringValue
p1418
(dp1419
g299
S''
sbsbsg556
(i__main__
DelphiIdentAccess
p1420
(dp1421
g559
S'NewCommandsMemo'
p1422
sg561
(lp1423
(idelphi
DelphiFieldEndAccess
p1424
(dp1425
g565
S'text'
p1426
sbasbsg232
(lp1427
S'self.GenerateSequenceClick(self);\r'
p1428
asba(i__main__
DelphiAssignStatement
p1429
(dp1430
g555
(i__main__
DelphiIdentAccess
p1431
(dp1432
g559
S'false'
p1433
sg561
(lp1434
sbsg556
(i__main__
DelphiIdentAccess
p1435
(dp1436
g559
S'GenerateSequence'
p1437
sg561
(lp1438
(idelphi
DelphiFieldEndAccess
p1439
(dp1440
g565
S'checked'
p1441
sbasbsba(i__main__
DelphiAssignStatement
p1442
(dp1443
g555
(idelphi
DelphiStringAccess
p1444
(dp1445
g561
(lp1446
sg299
(idelphi
DelphiStringValue
p1447
(dp1448
g299
S''
sbsbsg556
(i__main__
DelphiIdentAccess
p1449
(dp1450
g559
S'PrefixEdit'
p1451
sg561
(lp1452
(idelphi
DelphiFieldEndAccess
p1453
(dp1454
g565
S'text'
p1455
sbasbsba(i__main__
DelphiAssignStatement
p1456
(dp1457
g555
(i__main__
DelphiIdentAccess
p1458
(dp1459
g559
S'true'
p1460
sg561
(lp1461
sbsg556
(i__main__
DelphiIdentAccess
p1462
(dp1463
g559
S'endSequenceLoopToFirst'
p1464
sg561
(lp1465
(idelphi
DelphiFieldEndAccess
p1466
(dp1467
g565
S'checked'
p1468
sbasbsba(i__main__
DelphiAssignStatement
p1469
(dp1470
g555
(idelphi
DelphiStringAccess
p1471
(dp1472
g561
(lp1473
sg299
(idelphi
DelphiStringValue
p1474
(dp1475
g299
S''
sbsbsg556
(i__main__
DelphiIdentAccess
p1476
(dp1477
g559
S'lastFloodedContextPrefix'
p1478
sg561
(lp1479
sbsba(idelphi
DelphiForStatement
p1480
(dp1481
S'variable'
p1482
S'i'
sS'finalValue'
p1483
(idelphi
DelphiAddOp
p1484
(dp1485
g1109
S'-'
sg1110
(idelphi
DelphiIntegerValue
p1486
(dp1487
g299
S'1'
sbsg1117
(i__main__
DelphiIdentAccess
p1488
(dp1489
g559
S'domain'
p1490
sg561
(lp1491
(idelphi
DelphiFieldEndAccess
p1492
(dp1493
g565
S'world'
p1494
sba(idelphi
DelphiFieldEndAccess
p1495
(dp1496
g565
S'variables'
p1497
sba(idelphi
DelphiFieldEndAccess
p1498
(dp1499
g565
S'count'
p1500
sbasbsbsS'direction'
p1501
S'to'
p1502
sg139
(idelphi
DelphiIntegerValue
p1503
(dp1504
g299
S'0'
sbsg1274
(idelphi
DelphiCompoundStatement
p1505
(dp1506
g551
(lp1507
(i__main__
DelphiAssignStatement
p1508
(dp1509
g555
(i__main__
DelphiIdentAccess
p1510
(dp1511
g559
S'TSVariable'
p1512
sg561
(lp1513
(idelphi
DelphiFunctionEndAccess
p1514
(dp1515
g569
(lp1516
(i__main__
DelphiIdentAccess
p1517
(dp1518
g559
S'domain'
p1519
sg561
(lp1520
(idelphi
DelphiFieldEndAccess
p1521
(dp1522
g565
S'world'
p1523
sba(idelphi
DelphiFieldEndAccess
p1524
(dp1525
g565
S'variables'
p1526
sba(idelphi
DelphiArrayEndAccess
p1527
(dp1528
g569
(lp1529
(i__main__
DelphiIdentAccess
p1530
(dp1531
g559
S'i'
sg561
(lp1532
sbasbasbasbasbsg556
(i__main__
DelphiIdentAccess
p1533
(dp1534
g559
S'variable'
p1535
sg561
(lp1536
sbsba(idelphi
DelphiIfStatement
p1537
(dp1538
g821
(i__main__
DelphiIdentAccess
p1539
(dp1540
g559
S'variable'
p1541
sg561
(lp1542
(idelphi
DelphiFieldEndAccess
p1543
(dp1544
g565
S'selected'
p1545
sbasbsg836
Nsg852
(idelphi
DelphiCompoundStatement
p1546
(dp1547
g551
(lp1548
(idelphi
DelphiForStatement
p1549
(dp1550
g1482
S'j'
sg1483
(idelphi
DelphiAddOp
p1551
(dp1552
g1109
S'-'
sg1110
(idelphi
DelphiIntegerValue
p1553
(dp1554
g299
S'1'
sbsg1117
(i__main__
DelphiIdentAccess
p1555
(dp1556
g559
S'ContextBox'
p1557
sg561
(lp1558
(idelphi
DelphiFieldEndAccess
p1559
(dp1560
g565
S'items'
p1561
sba(idelphi
DelphiFieldEndAccess
p1562
(dp1563
g565
S'count'
p1564
sbasbsbsg1501
g1502
sg139
(idelphi
DelphiIntegerValue
p1565
(dp1566
g299
S'0'
sbsg1274
(idelphi
DelphiIfStatement
p1567
(dp1568
g821
(idelphi
DelphiRelOp
p1569
(dp1570
g798
(i__main__
DelphiIdentAccess
p1571
(dp1572
g559
S'ContextBox'
p1573
sg561
(lp1574
(idelphi
DelphiFieldEndAccess
p1575
(dp1576
g565
S'items'
p1577
sba(idelphi
DelphiArrayEndAccess
p1578
(dp1579
g569
(lp1580
(i__main__
DelphiIdentAccess
p1581
(dp1582
g559
S'j'
sg561
(lp1583
sbasbasbsg806
(i__main__
DelphiIdentAccess
p1584
(dp1585
g559
S'variable'
p1586
sg561
(lp1587
(idelphi
DelphiFieldEndAccess
p1588
(dp1589
g565
S'phrase'
p1590
sbasbsg811
S'='
sbsg836
Nsg852
(idelphi
DelphiCompoundStatement
p1591
(dp1592
g551
(lp1593
(i__main__
DelphiAssignStatement
p1594
(dp1595
g555
(i__main__
DelphiIdentAccess
p1596
(dp1597
g559
S'j'
sg561
(lp1598
sbsg556
(i__main__
DelphiIdentAccess
p1599
(dp1600
g559
S'ContextBox'
p1601
sg561
(lp1602
(idelphi
DelphiFieldEndAccess
p1603
(dp1604
g565
S'itemIndex'
p1605
sbasbsba(idelphi
DelphiBreakStatement
p1606
(dp1607
basbsbsbasbsbasbsba(i__main__
DelphiAssignStatement
p1608
(dp1609
g555
(i__main__
DelphiIdentAccess
p1610
(dp1611
g559
S'true'
p1612
sg561
(lp1613
sbsg556
(i__main__
DelphiIdentAccess
p1614
(dp1615
g559
S'result'
p1616
sg561
(lp1617
sbsbasbsg577
(lp1618
(i__main__
DelphiVarSection
p1619
(dp1620
g1024
I0
sg1025
(lp1621
(idelphi
DelphiVarDecl
p1622
(dp1623
g1029
Nsg1030
(lp1624
S'variable'
p1625
asg143
(i__main__
DelphiNamedType
p1626
(dp1627
g146
S'TSVariable'
p1628
sg148
g1
sg149
Nsbsba(idelphi
DelphiVarDecl
p1629
(dp1630
g1029
Nsg1030
(lp1631
S'i'
aS'j'
asg143
(i__main__
DelphiPrimitiveType
p1632
(dp1633
g146
S'integer'
p1634
sbsbasbasbsg232
g233
sbsS'gonextclick'
p1635
(i__main__
DelphiMethodImplementation
p1636
(dp1637
g524
g249
sg127
g251
sg135
(lp1638
(i__main__
DelphiFormalParameter
p1639
(dp1640
g139
Nsg140
(lp1641
S'Sender'
p1642
asg143
(i__main__
DelphiNamedType
p1643
(dp1644
g146
S'TObject'
p1645
sg148
g1
sg149
Nsbsg150
Nsbasg533
(lp1646
sg535
(lp1647
sg537
(lp1648
g539
ag1642
asg540
(dp1649
g1642
g1643
ssg151
S'TCommandWizardForm'
p1650
sg152
Nsg543
(lp1651
sg153
I0
sg154
g155
sg545
(i__main__
DelphiBlock
p1652
(dp1653
g548
(idelphi
DelphiCompoundStatement
p1654
(dp1655
g551
(lp1656
(idelphi
DelphiIfStatement
p1657
(dp1658
g821
(idelphi
DelphiRelOp
p1659
(dp1660
g798
(i__main__
DelphiIdentAccess
p1661
(dp1662
g559
S'notebook'
p1663
sg561
(lp1664
(idelphi
DelphiFieldEndAccess
p1665
(dp1666
g565
S'pageIndex'
p1667
sbasbsg806
(i__main__
DelphiIdentAccess
p1668
(dp1669
g559
S'kFinishPage'
p1670
sg561
(lp1671
sbsg811
S'='
sbsg836
(idelphi
DelphiIfStatement
p1672
(dp1673
g821
(idelphi
DelphiRelOp
p1674
(dp1675
g798
(i__main__
DelphiIdentAccess
p1676
(dp1677
g559
S'notebook'
p1678
sg561
(lp1679
(idelphi
DelphiFieldEndAccess
p1680
(dp1681
g565
S'pageIndex'
p1682
sbasbsg806
(i__main__
DelphiIdentAccess
p1683
(dp1684
g559
S'kContextPage'
p1685
sg561
(lp1686
sbsg811
S'='
sbsg836
(idelphi
DelphiIfStatement
p1687
(dp1688
g821
(idelphi
DelphiRelOp
p1689
(dp1690
g798
(i__main__
DelphiIdentAccess
p1691
(dp1692
g559
S'notebook'
p1693
sg561
(lp1694
(idelphi
DelphiFieldEndAccess
p1695
(dp1696
g565
S'pageIndex'
p1697
sbasbsg806
(i__main__
DelphiIdentAccess
p1698
(dp1699
g559
S'kCommandsPage'
p1700
sg561
(lp1701
sbsg811
S'='
sbsg836
(idelphi
DelphiIfStatement
p1702
(dp1703
g821
(idelphi
DelphiRelOp
p1704
(dp1705
g798
(i__main__
DelphiIdentAccess
p1706
(dp1707
g559
S'notebook'
p1708
sg561
(lp1709
(idelphi
DelphiFieldEndAccess
p1710
(dp1711
g565
S'pageIndex'
p1712
sbasbsg806
(i__main__
DelphiIdentAccess
p1713
(dp1714
g559
S'kSequencePage'
p1715
sg561
(lp1716
sbsg811
S'='
sbsg836
Nsg852
(idelphi
DelphiCompoundStatement
p1717
(dp1718
g551
(lp1719
(idelphi
DelphiIfStatement
p1720
(dp1721
g821
(i__main__
DelphiIdentAccess
p1722
(dp1723
g559
S'GenerateSequence'
p1724
sg561
(lp1725
(idelphi
DelphiFieldEndAccess
p1726
(dp1727
g565
S'checked'
p1728
sbasbsg836
Nsg852
(idelphi
DelphiCompoundStatement
p1729
(dp1730
g551
(lp1731
(idelphi
DelphiIfStatement
p1732
(dp1733
g821
(idelphi
DelphiNestedExpressionListAccess
p1734
(dp1735
g561
(lp1736
sg569
(lp1737
(idelphi
DelphiRelOp
p1738
(dp1739
g798
(i__main__
DelphiIdentAccess
p1740
(dp1741
g559
S'Trim'
p1742
sg561
(lp1743
(idelphi
DelphiFunctionEndAccess
p1744
(dp1745
g569
(lp1746
(i__main__
DelphiIdentAccess
p1747
(dp1748
g559
S'PrefixEdit'
p1749
sg561
(lp1750
(idelphi
DelphiFieldEndAccess
p1751
(dp1752
g565
S'text'
p1753
sbasbasbasbsg806
(idelphi
DelphiStringAccess
p1754
(dp1755
g561
(lp1756
sg299
(idelphi
DelphiStringValue
p1757
(dp1758
g299
S''
sbsbsg811
S'='
sbasbsg836
Nsg852
(idelphi
DelphiCompoundStatement
p1759
(dp1760
g551
(lp1761
(i__main__
DelphiAssignStatement
p1762
(dp1763
g555
Nsg556
(i__main__
DelphiIdentAccess
p1764
(dp1765
g559
S'ShowMessage'
p1766
sg561
(lp1767
(idelphi
DelphiFunctionEndAccess
p1768
(dp1769
g569
(lp1770
(idelphi
DelphiStringAccess
p1771
(dp1772
g561
(lp1773
sg299
(idelphi
DelphiStringValue
p1774
(dp1775
g299
S'You must enter a prefix to proceed.'
p1776
sbsbasbasbsba(i__main__
DelphiExitStatement
p1777
(dp1778
g1071
g1636
sbasbsbasbsbasbsbsg852
(idelphi
DelphiCompoundStatement
p1779
(dp1780
g551
(lp1781
(idelphi
DelphiIfStatement
p1782
(dp1783
g821
(idelphi
DelphiNestedExpressionListAccess
p1784
(dp1785
g561
(lp1786
sg569
(lp1787
(idelphi
DelphiRelOp
p1788
(dp1789
g798
(i__main__
DelphiIdentAccess
p1790
(dp1791
g559
S'Trim'
p1792
sg561
(lp1793
(idelphi
DelphiFunctionEndAccess
p1794
(dp1795
g569
(lp1796
(i__main__
DelphiIdentAccess
p1797
(dp1798
g559
S'NewCommandsMemo'
p1799
sg561
(lp1800
(idelphi
DelphiFieldEndAccess
p1801
(dp1802
g565
S'text'
p1803
sbasbasbasbsg806
(idelphi
DelphiStringAccess
p1804
(dp1805
g561
(lp1806
sg299
(idelphi
DelphiStringValue
p1807
(dp1808
g299
S''
sbsbsg811
S'='
sbasbsg836
Nsg852
(idelphi
DelphiCompoundStatement
p1809
(dp1810
g551
(lp1811
(i__main__
DelphiAssignStatement
p1812
(dp1813
g555
Nsg556
(i__main__
DelphiIdentAccess
p1814
(dp1815
g559
S'ShowMessage'
p1816
sg561
(lp1817
(idelphi
DelphiFunctionEndAccess
p1818
(dp1819
g569
(lp1820
(idelphi
DelphiStringAccess
p1821
(dp1822
g561
(lp1823
sg299
(idelphi
DelphiStringValue
p1824
(dp1825
g299
S'You must enter one or more commands to proceed.'
p1826
sbsbasbasbsba(i__main__
DelphiExitStatement
p1827
(dp1828
g1071
g1636
sbasbsbasbsbsg852
(idelphi
DelphiCompoundStatement
p1829
(dp1830
g551
(lp1831
(idelphi
DelphiIfStatement
p1832
(dp1833
g821
(idelphi
DelphiNestedExpressionListAccess
p1834
(dp1835
g561
(lp1836
sg569
(lp1837
(idelphi
DelphiRelOp
p1838
(dp1839
g798
(i__main__
DelphiIdentAccess
p1840
(dp1841
g559
S'ContextBox'
p1842
sg561
(lp1843
(idelphi
DelphiFieldEndAccess
p1844
(dp1845
g565
S'itemIndex'
p1846
sbasbsg806
(idelphi
DelphiIntegerValue
p1847
(dp1848
g299
S'0'
sbsg811
S'<'
sbasbsg836
Nsg852
(idelphi
DelphiCompoundStatement
p1849
(dp1850
g551
(lp1851
(i__main__
DelphiAssignStatement
p1852
(dp1853
g555
Nsg556
(i__main__
DelphiIdentAccess
p1854
(dp1855
g559
S'ShowMessage'
p1856
sg561
(lp1857
(idelphi
DelphiFunctionEndAccess
p1858
(dp1859
g569
(lp1860
(idelphi
DelphiStringAccess
p1861
(dp1862
g561
(lp1863
sg299
(idelphi
DelphiStringValue
p1864
(dp1865
g299
S'You must select a context to proceed.'
p1866
sbsbasbasbsba(i__main__
DelphiExitStatement
p1867
(dp1868
g1071
g1636
sbasbsba(idelphi
DelphiIfStatement
p1869
(dp1870
g821
(idelphi
DelphiAddOp
p1871
(dp1872
g1109
S'or'
p1873
sg1110
(idelphi
DelphiNestedExpressionListAccess
p1874
(dp1875
g561
(lp1876
sg569
(lp1877
(idelphi
DelphiRelOp
p1878
(dp1879
g798
(i__main__
DelphiIdentAccess
p1880
(dp1881
g559
S'Trim'
p1882
sg561
(lp1883
(idelphi
DelphiFunctionEndAccess
p1884
(dp1885
g569
(lp1886
(i__main__
DelphiIdentAccess
p1887
(dp1888
g559
S'PrefixEdit'
p1889
sg561
(lp1890
(idelphi
DelphiFieldEndAccess
p1891
(dp1892
g565
S'text'
p1893
sbasbasbasbsg806
(i__main__
DelphiIdentAccess
p1894
(dp1895
g559
S'lastFloodedContextPrefix'
p1896
sg561
(lp1897
sbsg811
S'='
sbasbsg1117
(idelphi
DelphiNestedExpressionListAccess
p1898
(dp1899
g561
(lp1900
sg569
(lp1901
(idelphi
DelphiRelOp
p1902
(dp1903
g798
(i__main__
DelphiIdentAccess
p1904
(dp1905
g559
S'Trim'
p1906
sg561
(lp1907
(idelphi
DelphiFunctionEndAccess
p1908
(dp1909
g569
(lp1910
(i__main__
DelphiIdentAccess
p1911
(dp1912
g559
S'PrefixEdit'
p1913
sg561
(lp1914
(idelphi
DelphiFieldEndAccess
p1915
(dp1916
g565
S'text'
p1917
sbasbasbasbsg806
(idelphi
DelphiStringAccess
p1918
(dp1919
g561
(lp1920
sg299
(idelphi
DelphiStringValue
p1921
(dp1922
g299
S''
sbsbsg811
S'='
sbasbsbsg836
Nsg852
(idelphi
DelphiCompoundStatement
p1923
(dp1924
g551
(lp1925
(i__main__
DelphiAssignStatement
p1926
(dp1927
g555
(i__main__
DelphiIdentAccess
p1928
(dp1929
g559
S'ContextBox'
p1930
sg561
(lp1931
(idelphi
DelphiFieldEndAccess
p1932
(dp1933
g565
S'items'
p1934
sba(idelphi
DelphiArrayEndAccess
p1935
(dp1936
g569
(lp1937
(i__main__
DelphiIdentAccess
p1938
(dp1939
g559
S'ContextBox'
p1940
sg561
(lp1941
(idelphi
DelphiFieldEndAccess
p1942
(dp1943
g565
S'itemIndex'
p1944
sbasbasbasbsg556
(i__main__
DelphiIdentAccess
p1945
(dp1946
g559
S'PrefixEdit'
p1947
sg561
(lp1948
(idelphi
DelphiFieldEndAccess
p1949
(dp1950
g565
S'text'
p1951
sbasbsba(i__main__
DelphiAssignStatement
p1952
(dp1953
g555
(i__main__
DelphiIdentAccess
p1954
(dp1955
g559
S'ContextBox'
p1956
sg561
(lp1957
(idelphi
DelphiFieldEndAccess
p1958
(dp1959
g565
S'items'
p1960
sba(idelphi
DelphiArrayEndAccess
p1961
(dp1962
g569
(lp1963
(i__main__
DelphiIdentAccess
p1964
(dp1965
g559
S'ContextBox'
p1966
sg561
(lp1967
(idelphi
DelphiFieldEndAccess
p1968
(dp1969
g565
S'itemIndex'
p1970
sbasbasbasbsg556
(i__main__
DelphiIdentAccess
p1971
(dp1972
g559
S'lastFloodedContextPrefix'
p1973
sg561
(lp1974
sbsbasbsba(i__main__
DelphiAssignStatement
p1975
(dp1976
g555
(idelphi
DelphiAddOp
p1977
(dp1978
g1109
S'+'
sg1110
(i__main__
DelphiIdentAccess
p1979
(dp1980
g559
S'ContextBox'
p1981
sg561
(lp1982
(idelphi
DelphiFieldEndAccess
p1983
(dp1984
g565
S'items'
p1985
sba(idelphi
DelphiArrayEndAccess
p1986
(dp1987
g569
(lp1988
(i__main__
DelphiIdentAccess
p1989
(dp1990
g559
S'ContextBox'
p1991
sg561
(lp1992
(idelphi
DelphiFieldEndAccess
p1993
(dp1994
g565
S'itemIndex'
p1995
sbasbasbasbsg1117
(idelphi
DelphiStringAccess
p1996
(dp1997
g561
(lp1998
sg299
(idelphi
DelphiStringValue
p1999
(dp2000
g299
S'New commands for: '
p2001
sbsbsbsg556
(i__main__
DelphiIdentAccess
p2002
(dp2003
g559
S'newCommandsForContextLabel'
p2004
sg561
(lp2005
(idelphi
DelphiFieldEndAccess
p2006
(dp2007
g565
S'caption'
p2008
sbasbsbasbsbsg852
(i__main__
DelphiAssignStatement
p2009
(dp2010
g555
Nsg556
(i__main__
DelphiIdentAccess
p2011
(dp2012
g559
S'self'
p2013
sg561
(lp2014
(idelphi
DelphiFieldEndAccess
p2015
(dp2016
g565
S'generateRules'
p2017
sbasbsbsba(idelphi
DelphiWithStatement
p2018
(dp2019
g1274
(idelphi
DelphiIfStatement
p2020
(dp2021
g821
(idelphi
DelphiRelOp
p2022
(dp2023
g798
(i__main__
DelphiIdentAccess
p2024
(dp2025
g559
S'pageIndex'
p2026
sg561
(lp2027
sbsg806
(i__main__
DelphiIdentAccess
p2028
(dp2029
g559
S'kFinishPage'
p2030
sg561
(lp2031
sbsg811
S'<'
sbsg836
Nsg852
(i__main__
DelphiAssignStatement
p2032
(dp2033
g555
(idelphi
DelphiAddOp
p2034
(dp2035
g1109
S'+'
sg1110
(idelphi
DelphiIntegerValue
p2036
(dp2037
g299
S'1'
sbsg1117
(i__main__
DelphiIdentAccess
p2038
(dp2039
g559
S'pageIndex'
p2040
sg561
(lp2041
sbsbsg556
(i__main__
DelphiIdentAccess
p2042
(dp2043
g559
S'pageIndex'
p2044
sg561
(lp2045
sbsbsbsg1301
(lp2046
(i__main__
DelphiIdentAccess
p2047
(dp2048
g559
S'notebook'
p2049
sg561
(lp2050
sbasbasbsg577
(lp2051
sbsbsS'generaterules'
p2052
(i__main__
DelphiMethodImplementation
p2053
(dp2054
g524
g261
sg127
g263
sg135
(lp2055
sg533
(lp2056
sg535
(lp2057
sg537
(lp2058
g539
asg540
(dp2059
sg151
S'TCommandWizardForm'
p2060
sg152
Nsg543
(lp2061
sg153
I0
sg154
g155
sg545
(i__main__
DelphiBlock
p2062
(dp2063
g548
(idelphi
DelphiCompoundStatement
p2064
(dp2065
g551
(lp2066
(i__main__
DelphiAssignStatement
p2067
(dp2068
g555
Nsg556
(i__main__
DelphiIdentAccess
p2069
(dp2070
g559
S'ChangeLogForm'
p2071
sg561
(lp2072
(idelphi
DelphiFieldEndAccess
p2073
(dp2074
g565
S'addToLog'
p2075
sba(idelphi
DelphiFunctionEndAccess
p2076
(dp2077
g569
(lp2078
(i__main__
DelphiIdentAccess
p2079
(dp2080
g559
S'NewCommandsMemo'
p2081
sg561
(lp2082
(idelphi
DelphiFieldEndAccess
p2083
(dp2084
g565
S'Text'
p2085
sbasbasbasbsba(i__main__
DelphiAssignStatement
p2086
(dp2087
g555
(i__main__
DelphiIdentAccess
p2088
(dp2089
g559
S'RuleEditorForm'
p2090
sg561
(lp2091
(idelphi
DelphiFieldEndAccess
p2092
(dp2093
g565
S'goodPosition'
p2094
sbasbsg556
(i__main__
DelphiIdentAccess
p2095
(dp2096
g559
S'position'
p2097
sg561
(lp2098
sbsba(i__main__
DelphiAssignStatement
p2099
(dp2100
g555
(i__main__
DelphiIdentAccess
p2101
(dp2102
g559
S'TStringStream'
p2103
sg561
(lp2104
(idelphi
DelphiFieldEndAccess
p2105
(dp2106
g565
S'create'
p2107
sba(idelphi
DelphiFunctionEndAccess
p2108
(dp2109
g569
(lp2110
(i__main__
DelphiIdentAccess
p2111
(dp2112
g559
S'NewCommandsMemo'
p2113
sg561
(lp2114
(idelphi
DelphiFieldEndAccess
p2115
(dp2116
g565
S'Text'
p2117
sbasbasbasbsg556
(i__main__
DelphiIdentAccess
p2118
(dp2119
g559
S'stream'
p2120
sg561
(lp2121
sbsba(i__main__
DelphiAssignStatement
p2122
(dp2123
g555
(idelphi
DelphiStringAccess
p2124
(dp2125
g561
(lp2126
sg299
(idelphi
DelphiStringValue
p2127
(dp2128
g299
S''
sbsbsg556
(i__main__
DelphiIdentAccess
p2129
(dp2130
g559
S'previousContext'
p2131
sg561
(lp2132
sbsba(i__main__
DelphiAssignStatement
p2133
(dp2134
g555
(idelphi
DelphiIntegerValue
p2135
(dp2136
g299
S'1'
sbsg556
(i__main__
DelphiIdentAccess
p2137
(dp2138
g559
S'index'
p2139
sg561
(lp2140
sbsba(i__main__
DelphiAssignStatement
p2141
(dp2142
g555
(i__main__
DelphiIdentAccess
p2143
(dp2144
g559
S'TSNewRulesCommand'
p2145
sg561
(lp2146
(idelphi
DelphiFieldEndAccess
p2147
(dp2148
g565
S'create'
p2149
sbasbsg556
(i__main__
DelphiIdentAccess
p2150
(dp2151
g559
S'newRulesCommand'
p2152
sg561
(lp2153
sbsba(i__main__
DelphiAssignStatement
p2154
(dp2155
g555
(idelphi
DelphiStringAccess
p2156
(dp2157
g561
(lp2158
sg299
(idelphi
DelphiStringValue
p2159
(dp2160
g299
S'command sequence wizard'
p2161
sbsbsg556
(i__main__
DelphiIdentAccess
p2162
(dp2163
g559
S'newRulesCommand'
p2164
sg561
(lp2165
(idelphi
DelphiFieldEndAccess
p2166
(dp2167
g565
S'creator'
p2168
sbasbsba(i__main__
DelphiAssignStatement
p2169
(dp2170
g555
(idelphi
DelphiNilValue
p2171
(dp2172
bsg556
(i__main__
DelphiIdentAccess
p2173
(dp2174
g559
S'newRule'
p2175
sg561
(lp2176
sbsba(idelphi
DelphiTryFinallyStatement
p2177
(dp2178
S'tryStatements'
p2179
(lp2180
(i__main__
DelphiAssignStatement
p2181
(dp2182
g555
(i__main__
DelphiIdentAccess
p2183
(dp2184
g559
S'stream'
p2185
sg561
(lp2186
(idelphi
DelphiFieldEndAccess
p2187
(dp2188
g565
S'ReadString'
p2189
sba(idelphi
DelphiFunctionEndAccess
p2190
(dp2191
g569
(lp2192
(idelphi
DelphiIntegerValue
p2193
(dp2194
g299
S'1'
sbasbasbsg556
(i__main__
DelphiIdentAccess
p2195
(dp2196
g559
S'character'
p2197
sg561
(lp2198
sbsba(idelphi
DelphiWhileStatement
p2199
(dp2200
g1274
(idelphi
DelphiCompoundStatement
p2201
(dp2202
g551
(lp2203
(i__main__
DelphiAssignStatement
p2204
(dp2205
g555
(idelphi
DelphiStringAccess
p2206
(dp2207
g561
(lp2208
sg299
(idelphi
DelphiStringValue
p2209
(dp2210
g299
S''
sbsbsg556
(i__main__
DelphiIdentAccess
p2211
(dp2212
g559
S'line'
p2213
sg561
(lp2214
sbsba(i__main__
DelphiAssignStatement
p2215
(dp2216
g555
(idelphi
DelphiStringAccess
p2217
(dp2218
g561
(lp2219
sg299
(idelphi
DelphiStringValue
p2220
(dp2221
g299
S''
sbsbsg556
(i__main__
DelphiIdentAccess
p2222
(dp2223
g559
S'commandPhrase'
p2224
sg561
(lp2225
sbsba(i__main__
DelphiAssignStatement
p2226
(dp2227
g555
(idelphi
DelphiStringAccess
p2228
(dp2229
g561
(lp2230
sg299
(idelphi
DelphiStringValue
p2231
(dp2232
g299
S''
sbsbsg556
(i__main__
DelphiIdentAccess
p2233
(dp2234
g559
S'commandResponse'
p2235
sg561
(lp2236
sbsba(i__main__
DelphiAssignStatement
p2237
(dp2238
g555
(i__main__
DelphiIdentAccess
p2239
(dp2240
g559
S'false'
p2241
sg561
(lp2242
sbsg556
(i__main__
DelphiIdentAccess
p2243
(dp2244
g559
S'pipeRead'
p2245
sg561
(lp2246
sbsba(i__main__
DelphiAssignStatement
p2247
(dp2248
g555
(i__main__
DelphiIdentAccess
p2249
(dp2250
g559
S'Trim'
p2251
sg561
(lp2252
(idelphi
DelphiFunctionEndAccess
p2253
(dp2254
g569
(lp2255
(i__main__
DelphiIdentAccess
p2256
(dp2257
g559
S'PrefixEdit'
p2258
sg561
(lp2259
(idelphi
DelphiFieldEndAccess
p2260
(dp2261
g565
S'text'
p2262
sbasbasbasbsg556
(i__main__
DelphiIdentAccess
p2263
(dp2264
g559
S'prefix'
p2265
sg561
(lp2266
sbsba(idelphi
DelphiWhileStatement
p2267
(dp2268
g1274
(idelphi
DelphiCompoundStatement
p2269
(dp2270
g551
(lp2271
(i__main__
DelphiAssignStatement
p2272
(dp2273
g555
(idelphi
DelphiAddOp
p2274
(dp2275
g1109
S'+'
sg1110
(i__main__
DelphiIdentAccess
p2276
(dp2277
g559
S'character'
p2278
sg561
(lp2279
sbsg1117
(i__main__
DelphiIdentAccess
p2280
(dp2281
g559
S'line'
p2282
sg561
(lp2283
sbsbsg556
(i__main__
DelphiIdentAccess
p2284
(dp2285
g559
S'line'
p2286
sg561
(lp2287
sbsba(idelphi
DelphiIfStatement
p2288
(dp2289
g821
(i__main__
DelphiIdentAccess
p2290
(dp2291
g559
S'pipeRead'
p2292
sg561
(lp2293
sbsg836
(idelphi
DelphiIfStatement
p2294
(dp2295
g821
(idelphi
DelphiRelOp
p2296
(dp2297
g798
(i__main__
DelphiIdentAccess
p2298
(dp2299
g559
S'character'
p2300
sg561
(lp2301
sbsg806
(idelphi
DelphiStringAccess
p2302
(dp2303
g561
(lp2304
sg299
(idelphi
DelphiStringValue
p2305
(dp2306
g299
S'|'
sbsbsg811
S'='
sbsg836
(i__main__
DelphiAssignStatement
p2307
(dp2308
g555
(idelphi
DelphiAddOp
p2309
(dp2310
g1109
S'+'
sg1110
(i__main__
DelphiIdentAccess
p2311
(dp2312
g559
S'character'
p2313
sg561
(lp2314
sbsg1117
(i__main__
DelphiIdentAccess
p2315
(dp2316
g559
S'commandPhrase'
p2317
sg561
(lp2318
sbsbsg556
(i__main__
DelphiIdentAccess
p2319
(dp2320
g559
S'commandPhrase'
p2321
sg561
(lp2322
sbsbsg852
(i__main__
DelphiAssignStatement
p2323
(dp2324
g555
(i__main__
DelphiIdentAccess
p2325
(dp2326
g559
S'true'
p2327
sg561
(lp2328
sbsg556
(i__main__
DelphiIdentAccess
p2329
(dp2330
g559
S'pipeRead'
p2331
sg561
(lp2332
sbsbsbsg852
(i__main__
DelphiAssignStatement
p2333
(dp2334
g555
(idelphi
DelphiAddOp
p2335
(dp2336
g1109
S'+'
sg1110
(i__main__
DelphiIdentAccess
p2337
(dp2338
g559
S'character'
p2339
sg561
(lp2340
sbsg1117
(i__main__
DelphiIdentAccess
p2341
(dp2342
g559
S'commandResponse'
p2343
sg561
(lp2344
sbsbsg556
(i__main__
DelphiIdentAccess
p2345
(dp2346
g559
S'commandResponse'
p2347
sg561
(lp2348
sbsbsba(i__main__
DelphiAssignStatement
p2349
(dp2350
g555
(i__main__
DelphiIdentAccess
p2351
(dp2352
g559
S'stream'
p2353
sg561
(lp2354
(idelphi
DelphiFieldEndAccess
p2355
(dp2356
g565
S'ReadString'
p2357
sba(idelphi
DelphiFunctionEndAccess
p2358
(dp2359
g569
(lp2360
(idelphi
DelphiIntegerValue
p2361
(dp2362
g299
S'1'
sbasbasbsg556
(i__main__
DelphiIdentAccess
p2363
(dp2364
g559
S'character'
p2365
sg561
(lp2366
sbsbasbsS'whileExpression'
p2367
(idelphi
DelphiNot
p2368
(dp2369
S'factor'
p2370
(idelphi
DelphiNestedExpressionListAccess
p2371
(dp2372
g561
(lp2373
sg569
(lp2374
(idelphi
DelphiAddOp
p2375
(dp2376
g1109
g1873
sg1110
(idelphi
DelphiNestedExpressionListAccess
p2377
(dp2378
g561
(lp2379
sg569
(lp2380
(idelphi
DelphiRelOp
p2381
(dp2382
g798
(i__main__
DelphiIdentAccess
p2383
(dp2384
g559
S'character'
p2385
sg561
(lp2386
sbsg806
(idelphi
DelphiStringAccess
p2387
(dp2388
g561
(lp2389
sg299
(idelphi
DelphiStringValue
p2390
(dp2391
g299
S''
sbsbsg811
S'='
sbasbsg1117
(idelphi
DelphiAddOp
p2392
(dp2393
g1109
g1873
sg1110
(idelphi
DelphiNestedExpressionListAccess
p2394
(dp2395
g561
(lp2396
sg569
(lp2397
(idelphi
DelphiRelOp
p2398
(dp2399
g798
(i__main__
DelphiIdentAccess
p2400
(dp2401
g559
S'character'
p2402
sg561
(lp2403
sbsg806
(idelphi
DelphiControlValue
p2404
(dp2405
g299
S'#10'
p2406
sbsg811
S'='
sbasbsg1117
(idelphi
DelphiNestedExpressionListAccess
p2407
(dp2408
g561
(lp2409
sg569
(lp2410
(idelphi
DelphiRelOp
p2411
(dp2412
g798
(i__main__
DelphiIdentAccess
p2413
(dp2414
g559
S'character'
p2415
sg561
(lp2416
sbsg806
(idelphi
DelphiControlValue
p2417
(dp2418
g299
S'#13'
p2419
sbsg811
S'='
sbasbsbsbasbsbsba(i__main__
DelphiAssignStatement
p2420
(dp2421
g555
(idelphi
DelphiStringAccess
p2422
(dp2423
g561
(lp2424
sg299
(idelphi
DelphiStringValue
p2425
(dp2426
g299
S''
sbsbsg556
(i__main__
DelphiIdentAccess
p2427
(dp2428
g559
S'context'
p2429
sg561
(lp2430
sbsg232
(lp2431
S"  \tShowMessage('name: ' + contextName);\r"
p2432
aS"  ShowMessage('description: ' + contextDescription);\r"
p2433
asba(idelphi
DelphiIfStatement
p2434
(dp2435
g821
(idelphi
DelphiRelOp
p2436
(dp2437
g798
(i__main__
DelphiIdentAccess
p2438
(dp2439
g559
S'ContextBox'
p2440
sg561
(lp2441
(idelphi
DelphiFieldEndAccess
p2442
(dp2443
g565
S'itemIndex'
p2444
sbasbsg806
(idelphi
DelphiIntegerValue
p2445
(dp2446
g299
S'0'
sbsg811
S'>='
p2447
sbsg836
Nsg852
(i__main__
DelphiAssignStatement
p2448
(dp2449
g555
(i__main__
DelphiIdentAccess
p2450
(dp2451
g559
S'ContextBox'
p2452
sg561
(lp2453
(idelphi
DelphiFieldEndAccess
p2454
(dp2455
g565
S'items'
p2456
sba(idelphi
DelphiArrayEndAccess
p2457
(dp2458
g569
(lp2459
(i__main__
DelphiIdentAccess
p2460
(dp2461
g559
S'ContextBox'
p2462
sg561
(lp2463
(idelphi
DelphiFieldEndAccess
p2464
(dp2465
g565
S'itemIndex'
p2466
sbasbasbasbsg556
(i__main__
DelphiIdentAccess
p2467
(dp2468
g559
S'context'
p2469
sg561
(lp2470
sbsbsba(idelphi
DelphiIfStatement
p2471
(dp2472
g821
(idelphi
DelphiRelOp
p2473
(dp2474
g798
(i__main__
DelphiIdentAccess
p2475
(dp2476
g559
S'Trim'
p2477
sg561
(lp2478
(idelphi
DelphiFunctionEndAccess
p2479
(dp2480
g569
(lp2481
(i__main__
DelphiIdentAccess
p2482
(dp2483
g559
S'commandResponse'
p2484
sg561
(lp2485
sbasbasbsg806
(idelphi
DelphiStringAccess
p2486
(dp2487
g561
(lp2488
sg299
(idelphi
DelphiStringValue
p2489
(dp2490
g299
S''
sbsbsg811
S'='
sbsg836
Nsg852
(i__main__
DelphiAssignStatement
p2491
(dp2492
g555
(idelphi
DelphiStringAccess
p2493
(dp2494
g561
(lp2495
sg299
(idelphi
DelphiStringValue
p2496
(dp2497
g299
S'Nothing happens.'
p2498
sbsbsg556
(i__main__
DelphiIdentAccess
p2499
(dp2500
g559
S'commandResponse'
p2501
sg561
(lp2502
sbsbsba(idelphi
DelphiIfStatement
p2503
(dp2504
g821
(idelphi
DelphiMulOp
p2505
(dp2506
S'signedFactor2'
p2507
(idelphi
DelphiNestedExpressionListAccess
p2508
(dp2509
g561
(lp2510
sg569
(lp2511
(idelphi
DelphiRelOp
p2512
(dp2513
g798
(i__main__
DelphiIdentAccess
p2514
(dp2515
g559
S'Trim'
p2516
sg561
(lp2517
(idelphi
DelphiFunctionEndAccess
p2518
(dp2519
g569
(lp2520
(i__main__
DelphiIdentAccess
p2521
(dp2522
g559
S'context'
p2523
sg561
(lp2524
sbasbasbsg806
(idelphi
DelphiStringAccess
p2525
(dp2526
g561
(lp2527
sg299
(idelphi
DelphiStringValue
p2528
(dp2529
g299
S''
sbsbsg811
g835
sbasbsS'mulOp'
p2530
S'and'
p2531
sS'signedFactor1'
p2532
(idelphi
DelphiNestedExpressionListAccess
p2533
(dp2534
g561
(lp2535
sg569
(lp2536
(idelphi
DelphiRelOp
p2537
(dp2538
g798
(i__main__
DelphiIdentAccess
p2539
(dp2540
g559
S'Trim'
p2541
sg561
(lp2542
(idelphi
DelphiFunctionEndAccess
p2543
(dp2544
g569
(lp2545
(i__main__
DelphiIdentAccess
p2546
(dp2547
g559
S'commandPhrase'
p2548
sg561
(lp2549
sbasbasbsg806
(idelphi
DelphiStringAccess
p2550
(dp2551
g561
(lp2552
sg299
(idelphi
DelphiStringValue
p2553
(dp2554
g299
S''
sbsbsg811
g835
sbasbsbsg836
Nsg852
(idelphi
DelphiCompoundStatement
p2555
(dp2556
g551
(lp2557
(i__main__
DelphiAssignStatement
p2558
(dp2559
g555
(i__main__
DelphiIdentAccess
p2560
(dp2561
g559
S'domain'
p2562
sg561
(lp2563
(idelphi
DelphiFieldEndAccess
p2564
(dp2565
g565
S'world'
p2566
sba(idelphi
DelphiFieldEndAccess
p2567
(dp2568
g565
S'newRule'
p2569
sbasbsg556
(i__main__
DelphiIdentAccess
p2570
(dp2571
g559
S'newRule'
p2572
sg561
(lp2573
sbsba(i__main__
DelphiAssignStatement
p2574
(dp2575
g555
Nsg556
(i__main__
DelphiIdentAccess
p2576
(dp2577
g559
S'newRulesCommand'
p2578
sg561
(lp2579
(idelphi
DelphiFieldEndAccess
p2580
(dp2581
g565
S'addRule'
p2582
sba(idelphi
DelphiFunctionEndAccess
p2583
(dp2584
g569
(lp2585
(i__main__
DelphiIdentAccess
p2586
(dp2587
g559
S'newRule'
p2588
sg561
(lp2589
sbasbasbsba(i__main__
DelphiAssignStatement
p2590
(dp2591
g555
(i__main__
DelphiIdentAccess
p2592
(dp2593
g559
S'newRule'
p2594
sg561
(lp2595
sbsg556
(i__main__
DelphiIdentAccess
p2596
(dp2597
g559
S'RuleEditorForm'
p2598
sg561
(lp2599
(idelphi
DelphiFieldEndAccess
p2600
(dp2601
g565
S'lastChoice'
p2602
sbasbsba(i__main__
DelphiAssignStatement
p2603
(dp2604
g555
(i__main__
DelphiIdentAccess
p2605
(dp2606
g559
S'position'
p2607
sg561
(lp2608
sbsg556
(i__main__
DelphiIdentAccess
p2609
(dp2610
g559
S'newRule'
p2611
sg561
(lp2612
(idelphi
DelphiFieldEndAccess
p2613
(dp2614
g565
S'position'
p2615
sbasbsba(i__main__
DelphiAssignStatement
p2616
(dp2617
g555
Nsg556
(i__main__
DelphiIdentAccess
p2618
(dp2619
g559
S'newRule'
p2620
sg561
(lp2621
(idelphi
DelphiFieldEndAccess
p2622
(dp2623
g565
S'setContext'
p2624
sba(idelphi
DelphiFunctionEndAccess
p2625
(dp2626
g569
(lp2627
(i__main__
DelphiIdentAccess
p2628
(dp2629
g559
S'Trim'
p2630
sg561
(lp2631
(idelphi
DelphiFunctionEndAccess
p2632
(dp2633
g569
(lp2634
(i__main__
DelphiIdentAccess
p2635
(dp2636
g559
S'context'
p2637
sg561
(lp2638
sbasbasbasbasbsba(i__main__
DelphiAssignStatement
p2639
(dp2640
g555
Nsg556
(i__main__
DelphiIdentAccess
p2641
(dp2642
g559
S'newRule'
p2643
sg561
(lp2644
(idelphi
DelphiFieldEndAccess
p2645
(dp2646
g565
S'setCommand'
p2647
sba(idelphi
DelphiFunctionEndAccess
p2648
(dp2649
g569
(lp2650
(i__main__
DelphiIdentAccess
p2651
(dp2652
g559
S'Trim'
p2653
sg561
(lp2654
(idelphi
DelphiFunctionEndAccess
p2655
(dp2656
g569
(lp2657
(i__main__
DelphiIdentAccess
p2658
(dp2659
g559
S'commandPhrase'
p2660
sg561
(lp2661
sbasbasbasbasbsba(i__main__
DelphiAssignStatement
p2662
(dp2663
g555
Nsg556
(i__main__
DelphiIdentAccess
p2664
(dp2665
g559
S'newRule'
p2666
sg561
(lp2667
(idelphi
DelphiFieldEndAccess
p2668
(dp2669
g565
S'setReply'
p2670
sba(idelphi
DelphiFunctionEndAccess
p2671
(dp2672
g569
(lp2673
(i__main__
DelphiIdentAccess
p2674
(dp2675
g559
S'Trim'
p2676
sg561
(lp2677
(idelphi
DelphiFunctionEndAccess
p2678
(dp2679
g569
(lp2680
(i__main__
DelphiIdentAccess
p2681
(dp2682
g559
S'commandResponse'
p2683
sg561
(lp2684
sbasbasbasbasbsba(idelphi
DelphiIfStatement
p2685
(dp2686
g821
(idelphi
DelphiMulOp
p2687
(dp2688
g2507
(idelphi
DelphiNestedExpressionListAccess
p2689
(dp2690
g561
(lp2691
sg569
(lp2692
(idelphi
DelphiRelOp
p2693
(dp2694
g798
(i__main__
DelphiIdentAccess
p2695
(dp2696
g559
S'prefix'
p2697
sg561
(lp2698
sbsg806
(idelphi
DelphiStringAccess
p2699
(dp2700
g561
(lp2701
sg299
(idelphi
DelphiStringValue
p2702
(dp2703
g299
S''
sbsbsg811
g835
sbasbsg2530
g2531
sg2532
(i__main__
DelphiIdentAccess
p2704
(dp2705
g559
S'GenerateSequence'
p2706
sg561
(lp2707
(idelphi
DelphiFieldEndAccess
p2708
(dp2709
g565
S'checked'
p2710
sbasbsbsg836
Nsg852
(idelphi
DelphiCompoundStatement
p2711
(dp2712
g551
(lp2713
(idelphi
DelphiIfStatement
p2714
(dp2715
g821
(idelphi
DelphiRelOp
p2716
(dp2717
g798
(i__main__
DelphiIdentAccess
p2718
(dp2719
g559
g2139
sg561
(lp2720
sbsg806
(idelphi
DelphiIntegerValue
p2721
(dp2722
g299
S'1'
sbsg811
S'='
sbsg836
(idelphi
DelphiCompoundStatement
p2723
(dp2724
g551
(lp2725
(i__main__
DelphiAssignStatement
p2726
(dp2727
g555
(idelphi
DelphiAddOp
p2728
(dp2729
g1109
S'+'
sg1110
(idelphi
DelphiStringAccess
p2730
(dp2731
g561
(lp2732
sg299
(idelphi
DelphiStringValue
p2733
(dp2734
g299
S'0'
sbsbsg1117
(idelphi
DelphiAddOp
p2735
(dp2736
g1109
S'+'
sg1110
(i__main__
DelphiIdentAccess
p2737
(dp2738
g559
S'IntToStr'
p2739
sg561
(lp2740
(idelphi
DelphiFunctionEndAccess
p2741
(dp2742
g569
(lp2743
(idelphi
DelphiAddOp
p2744
(dp2745
g1109
S'-'
sg1110
(idelphi
DelphiIntegerValue
p2746
(dp2747
g299
S'1'
sbsg1117
(i__main__
DelphiIdentAccess
p2748
(dp2749
g559
g2139
sg561
(lp2750
sbsbasbasbsg1117
(idelphi
DelphiAddOp
p2751
(dp2752
g1109
S'+'
sg1110
(idelphi
DelphiStringAccess
p2753
(dp2754
g561
(lp2755
sg299
(idelphi
DelphiStringValue
p2756
(dp2757
g299
S' '
sbsbsg1117
(i__main__
DelphiIdentAccess
p2758
(dp2759
g559
S'prefix'
p2760
sg561
(lp2761
sbsbsbsbsg556
(i__main__
DelphiIdentAccess
p2762
(dp2763
g559
S'requirements'
p2764
sg561
(lp2765
sbsba(i__main__
DelphiAssignStatement
p2766
(dp2767
g555
(idelphi
DelphiAddOp
p2768
(dp2769
g1109
S'+'
sg1110
(idelphi
DelphiStringAccess
p2770
(dp2771
g561
(lp2772
sg299
(idelphi
DelphiStringValue
p2773
(dp2774
g299
S'0'
sbsbsg1117
(idelphi
DelphiAddOp
p2775
(dp2776
g1109
S'+'
sg1110
(i__main__
DelphiIdentAccess
p2777
(dp2778
g559
S'IntToStr'
p2779
sg561
(lp2780
(idelphi
DelphiFunctionEndAccess
p2781
(dp2782
g569
(lp2783
(i__main__
DelphiIdentAccess
p2784
(dp2785
g559
g2139
sg561
(lp2786
sbasbasbsg1117
(idelphi
DelphiAddOp
p2787
(dp2788
g1109
S'+'
sg1110
(idelphi
DelphiStringAccess
p2789
(dp2790
g561
(lp2791
sg299
(idelphi
DelphiStringValue
p2792
(dp2793
g299
S' '
sbsbsg1117
(idelphi
DelphiAddOp
p2794
(dp2795
g1109
S'+'
sg1110
(i__main__
DelphiIdentAccess
p2796
(dp2797
g559
S'prefix'
p2798
sg561
(lp2799
sbsg1117
(idelphi
DelphiAddOp
p2800
(dp2801
g1109
S'+'
sg1110
(idelphi
DelphiStringAccess
p2802
(dp2803
g561
(lp2804
sg299
(idelphi
DelphiStringValue
p2805
(dp2806
g299
S'0 & '
p2807
sbsbsg1117
(idelphi
DelphiAddOp
p2808
(dp2809
g1109
S'+'
sg1110
(i__main__
DelphiIdentAccess
p2810
(dp2811
g559
S'IntToStr'
p2812
sg561
(lp2813
(idelphi
DelphiFunctionEndAccess
p2814
(dp2815
g569
(lp2816
(idelphi
DelphiAddOp
p2817
(dp2818
g1109
S'-'
sg1110
(idelphi
DelphiIntegerValue
p2819
(dp2820
g299
S'1'
sbsg1117
(i__main__
DelphiIdentAccess
p2821
(dp2822
g559
g2139
sg561
(lp2823
sbsbasbasbsg1117
(idelphi
DelphiAddOp
p2824
(dp2825
g1109
S'+'
sg1110
(idelphi
DelphiStringAccess
p2826
(dp2827
g561
(lp2828
sg299
(idelphi
DelphiStringValue
p2829
(dp2830
g299
S' '
sbsbsg1117
(idelphi
DelphiAddOp
p2831
(dp2832
g1109
S'+'
sg1110
(i__main__
DelphiIdentAccess
p2833
(dp2834
g559
S'prefix'
p2835
sg561
(lp2836
sbsg1117
(idelphi
DelphiStringAccess
p2837
(dp2838
g561
(lp2839
sg299
(idelphi
DelphiStringValue
p2840
(dp2841
g299
S'~'
sbsbsbsbsbsbsbsbsbsbsg556
(i__main__
DelphiIdentAccess
p2842
(dp2843
g559
S'changes'
p2844
sg561
(lp2845
sbsbasbsg852
(idelphi
DelphiCompoundStatement
p2846
(dp2847
g551
(lp2848
(i__main__
DelphiAssignStatement
p2849
(dp2850
g555
(idelphi
DelphiAddOp
p2851
(dp2852
g1109
S'+'
sg1110
(idelphi
DelphiStringAccess
p2853
(dp2854
g561
(lp2855
sg299
(idelphi
DelphiStringValue
p2856
(dp2857
g299
S' started'
p2858
sbsbsg1117
(idelphi
DelphiAddOp
p2859
(dp2860
g1109
S'+'
sg1110
(i__main__
DelphiIdentAccess
p2861
(dp2862
g559
S'prefix'
p2863
sg561
(lp2864
sbsg1117
(idelphi
DelphiStringAccess
p2865
(dp2866
g561
(lp2867
sg299
(idelphi
DelphiStringValue
p2868
(dp2869
g299
S'~'
sbsbsbsbsg556
(i__main__
DelphiIdentAccess
p2870
(dp2871
g559
S'requirements'
p2872
sg561
(lp2873
sbsba(i__main__
DelphiAssignStatement
p2874
(dp2875
g555
(idelphi
DelphiAddOp
p2876
(dp2877
g1109
S'+'
sg1110
(idelphi
DelphiStringAccess
p2878
(dp2879
g561
(lp2880
sg299
(idelphi
DelphiStringValue
p2881
(dp2882
g299
S'0'
sbsbsg1117
(idelphi
DelphiAddOp
p2883
(dp2884
g1109
S'+'
sg1110
(i__main__
DelphiIdentAccess
p2885
(dp2886
g559
S'IntToStr'
p2887
sg561
(lp2888
(idelphi
DelphiFunctionEndAccess
p2889
(dp2890
g569
(lp2891
(i__main__
DelphiIdentAccess
p2892
(dp2893
g559
g2139
sg561
(lp2894
sbasbasbsg1117
(idelphi
DelphiAddOp
p2895
(dp2896
g1109
S'+'
sg1110
(idelphi
DelphiStringAccess
p2897
(dp2898
g561
(lp2899
sg299
(idelphi
DelphiStringValue
p2900
(dp2901
g299
S' '
sbsbsg1117
(idelphi
DelphiAddOp
p2902
(dp2903
g1109
S'+'
sg1110
(i__main__
DelphiIdentAccess
p2904
(dp2905
g559
S'prefix'
p2906
sg561
(lp2907
sbsg1117
(idelphi
DelphiAddOp
p2908
(dp2909
g1109
S'+'
sg1110
(idelphi
DelphiStringAccess
p2910
(dp2911
g561
(lp2912
sg299
(idelphi
DelphiStringValue
p2913
(dp2914
g299
S' started & '
p2915
sbsbsg1117
(i__main__
DelphiIdentAccess
p2916
(dp2917
g559
S'prefix'
p2918
sg561
(lp2919
sbsbsbsbsbsbsg556
(i__main__
DelphiIdentAccess
p2920
(dp2921
g559
S'changes'
p2922
sg561
(lp2923
sbsbasbsba(i__main__
DelphiAssignStatement
p2924
(dp2925
g555
Nsg556
(i__main__
DelphiIdentAccess
p2926
(dp2927
g559
S'newRule'
p2928
sg561
(lp2929
(idelphi
DelphiFieldEndAccess
p2930
(dp2931
g565
S'setRequirements'
p2932
sba(idelphi
DelphiFunctionEndAccess
p2933
(dp2934
g569
(lp2935
(i__main__
DelphiIdentAccess
p2936
(dp2937
g559
S'requirements'
p2938
sg561
(lp2939
sbasbasbsba(i__main__
DelphiAssignStatement
p2940
(dp2941
g555
Nsg556
(i__main__
DelphiIdentAccess
p2942
(dp2943
g559
S'newRule'
p2944
sg561
(lp2945
(idelphi
DelphiFieldEndAccess
p2946
(dp2947
g565
S'setChanges'
p2948
sba(idelphi
DelphiFunctionEndAccess
p2949
(dp2950
g569
(lp2951
(i__main__
DelphiIdentAccess
p2952
(dp2953
g559
S'changes'
p2954
sg561
(lp2955
sbasbasbsbasbsba(i__main__
DelphiAssignStatement
p2956
(dp2957
g555
(idelphi
DelphiAddOp
p2958
(dp2959
g1109
S'+'
sg1110
(idelphi
DelphiIntegerValue
p2960
(dp2961
g299
S'60'
p2962
sbsg1117
(i__main__
DelphiIdentAccess
p2963
(dp2964
g559
S'position'
p2965
sg561
(lp2966
(idelphi
DelphiFieldEndAccess
p2967
(dp2968
g565
S'y'
sbasbsbsg556
(i__main__
DelphiIdentAccess
p2969
(dp2970
g559
S'position'
p2971
sg561
(lp2972
(idelphi
DelphiFieldEndAccess
p2973
(dp2974
g565
S'y'
sbasbsba(i__main__
DelphiIncOrDecStatement
p2975
(dp2976
S'incOrDecString'
p2977
S'inc'
p2978
sS'incrementExpression'
p2979
Nsg556
(i__main__
DelphiIdentAccess
p2980
(dp2981
g559
g2139
sg561
(lp2982
sbsbasbsba(idelphi
DelphiWhileStatement
p2983
(dp2984
g1274
(i__main__
DelphiAssignStatement
p2985
(dp2986
g555
(i__main__
DelphiIdentAccess
p2987
(dp2988
g559
S'stream'
p2989
sg561
(lp2990
(idelphi
DelphiFieldEndAccess
p2991
(dp2992
g565
S'ReadString'
p2993
sba(idelphi
DelphiFunctionEndAccess
p2994
(dp2995
g569
(lp2996
(idelphi
DelphiIntegerValue
p2997
(dp2998
g299
S'1'
sbasbasbsg556
(i__main__
DelphiIdentAccess
p2999
(dp3000
g559
S'character'
p3001
sg561
(lp3002
sbsbsg2367
(idelphi
DelphiAddOp
p3003
(dp3004
g1109
g1873
sg1110
(idelphi
DelphiNestedExpressionListAccess
p3005
(dp3006
g561
(lp3007
sg569
(lp3008
(idelphi
DelphiRelOp
p3009
(dp3010
g798
(i__main__
DelphiIdentAccess
p3011
(dp3012
g559
S'character'
p3013
sg561
(lp3014
sbsg806
(idelphi
DelphiControlValue
p3015
(dp3016
g299
S'#10'
p3017
sbsg811
S'='
sbasbsg1117
(idelphi
DelphiNestedExpressionListAccess
p3018
(dp3019
g561
(lp3020
sg569
(lp3021
(idelphi
DelphiRelOp
p3022
(dp3023
g798
(i__main__
DelphiIdentAccess
p3024
(dp3025
g559
S'character'
p3026
sg561
(lp3027
sbsg806
(idelphi
DelphiControlValue
p3028
(dp3029
g299
S'#13'
p3030
sbsg811
S'='
sbasbsbsbasbsg2367
(idelphi
DelphiRelOp
p3031
(dp3032
g798
(i__main__
DelphiIdentAccess
p3033
(dp3034
g559
S'character'
p3035
sg561
(lp3036
sbsg806
(idelphi
DelphiStringAccess
p3037
(dp3038
g561
(lp3039
sg299
(idelphi
DelphiStringValue
p3040
(dp3041
g299
S''
sbsbsg811
g835
sbsba(idelphi
DelphiIfStatement
p3042
(dp3043
g821
(idelphi
DelphiMulOp
p3044
(dp3045
g2507
(idelphi
DelphiNestedExpressionListAccess
p3046
(dp3047
g561
(lp3048
sg569
(lp3049
(idelphi
DelphiRelOp
p3050
(dp3051
g798
(i__main__
DelphiIdentAccess
p3052
(dp3053
g559
g2139
sg561
(lp3054
sbsg806
(idelphi
DelphiIntegerValue
p3055
(dp3056
g299
S'2'
sbsg811
S'>'
sbasbsg2530
g2531
sg2532
(idelphi
DelphiMulOp
p3057
(dp3058
g2507
(idelphi
DelphiNestedExpressionListAccess
p3059
(dp3060
g561
(lp3061
sg569
(lp3062
(idelphi
DelphiRelOp
p3063
(dp3064
g798
(i__main__
DelphiIdentAccess
p3065
(dp3066
g559
S'newRule'
p3067
sg561
(lp3068
sbsg806
(idelphi
DelphiNilValue
p3069
(dp3070
bsg811
g835
sbasbsg2530
g2531
sg2532
(idelphi
DelphiMulOp
p3071
(dp3072
g2507
(idelphi
DelphiNestedExpressionListAccess
p3073
(dp3074
g561
(lp3075
sg569
(lp3076
(idelphi
DelphiRelOp
p3077
(dp3078
g798
(i__main__
DelphiIdentAccess
p3079
(dp3080
g559
S'prefix'
p3081
sg561
(lp3082
sbsg806
(idelphi
DelphiStringAccess
p3083
(dp3084
g561
(lp3085
sg299
(idelphi
DelphiStringValue
p3086
(dp3087
g299
S''
sbsbsg811
g835
sbasbsg2530
g2531
sg2532
(i__main__
DelphiIdentAccess
p3088
(dp3089
g559
S'GenerateSequence'
p3090
sg561
(lp3091
(idelphi
DelphiFieldEndAccess
p3092
(dp3093
g565
S'checked'
p3094
sbasbsbsbsbsg836
Nsg852
(idelphi
DelphiCompoundStatement
p3095
(dp3096
g551
(lp3097
(i__main__
DelphiAssignStatement
p3098
(dp3099
g555
(i__main__
DelphiIdentAccess
p3100
(dp3101
g559
S'newRule'
p3102
sg561
(lp3103
(idelphi
DelphiFieldEndAccess
p3104
(dp3105
g565
S'changesString'
p3106
sbasbsg556
(i__main__
DelphiIdentAccess
p3107
(dp3108
g559
S'changes'
p3109
sg561
(lp3110
sbsg232
(lp3111
S' cleanup for last rule\r'
p3112
asba(idelphi
DelphiIfStatement
p3113
(dp3114
g821
(i__main__
DelphiIdentAccess
p3115
(dp3116
g559
S'endSequenceLoopToFirst'
p3117
sg561
(lp3118
(idelphi
DelphiFieldEndAccess
p3119
(dp3120
g565
S'checked'
p3121
sbasbsg836
(idelphi
DelphiIfStatement
p3122
(dp3123
g821
(i__main__
DelphiIdentAccess
p3124
(dp3125
g559
S'endSequenceLeaveLastCommand'
p3126
sg561
(lp3127
(idelphi
DelphiFieldEndAccess
p3128
(dp3129
g565
S'checked'
p3130
sbasbsg836
(idelphi
DelphiIfStatement
p3131
(dp3132
g821
(i__main__
DelphiIdentAccess
p3133
(dp3134
g559
S'endSequenceRemoveTheLastCommand'
p3135
sg561
(lp3136
(idelphi
DelphiFieldEndAccess
p3137
(dp3138
g565
S'checked'
p3139
sbasbsg836
Nsg852
(idelphi
DelphiCompoundStatement
p3140
(dp3141
g551
(lp3142
(i__main__
DelphiAssignStatement
p3143
(dp3144
g555
(idelphi
DelphiAddOp
p3145
(dp3146
g1109
S'+'
sg1110
(idelphi
DelphiStringAccess
p3147
(dp3148
g561
(lp3149
sg299
(idelphi
DelphiStringValue
p3150
(dp3151
g299
S'0'
sbsbsg1117
(idelphi
DelphiAddOp
p3152
(dp3153
g1109
S'+'
sg1110
(i__main__
DelphiIdentAccess
p3154
(dp3155
g559
S'IntToStr'
p3156
sg561
(lp3157
(idelphi
DelphiFunctionEndAccess
p3158
(dp3159
g569
(lp3160
(idelphi
DelphiAddOp
p3161
(dp3162
g1109
S'-'
sg1110
(idelphi
DelphiIntegerValue
p3163
(dp3164
g299
S'2'
sbsg1117
(i__main__
DelphiIdentAccess
p3165
(dp3166
g559
g2139
sg561
(lp3167
sbsbasbasbsg1117
(idelphi
DelphiAddOp
p3168
(dp3169
g1109
S'+'
sg1110
(idelphi
DelphiStringAccess
p3170
(dp3171
g561
(lp3172
sg299
(idelphi
DelphiStringValue
p3173
(dp3174
g299
S' '
sbsbsg1117
(idelphi
DelphiAddOp
p3175
(dp3176
g1109
S'+'
sg1110
(i__main__
DelphiIdentAccess
p3177
(dp3178
g559
S'prefix'
p3179
sg561
(lp3180
sbsg1117
(idelphi
DelphiStringAccess
p3181
(dp3182
g561
(lp3183
sg299
(idelphi
DelphiStringValue
p3184
(dp3185
g299
S'~'
sbsbsbsbsbsbsg556
(i__main__
DelphiIdentAccess
p3186
(dp3187
g559
S'changes'
p3188
sg561
(lp3189
sbsbasbsbsg852
(idelphi
DelphiCompoundStatement
p3190
(dp3191
g551
(lp3192
(i__main__
DelphiAssignStatement
p3193
(dp3194
g555
(idelphi
DelphiStringAccess
p3195
(dp3196
g561
(lp3197
sg299
(idelphi
DelphiStringValue
p3198
(dp3199
g299
S''
sbsbsg556
(i__main__
DelphiIdentAccess
p3200
(dp3201
g559
S'changes'
p3202
sg561
(lp3203
sbsbasbsbsg852
(idelphi
DelphiCompoundStatement
p3204
(dp3205
g551
(lp3206
(i__main__
DelphiAssignStatement
p3207
(dp3208
g555
(idelphi
DelphiAddOp
p3209
(dp3210
g1109
S'+'
sg1110
(idelphi
DelphiStringAccess
p3211
(dp3212
g561
(lp3213
sg299
(idelphi
DelphiStringValue
p3214
(dp3215
g299
S' started'
p3216
sbsbsg1117
(idelphi
DelphiAddOp
p3217
(dp3218
g1109
S'+'
sg1110
(i__main__
DelphiIdentAccess
p3219
(dp3220
g559
S'prefix'
p3221
sg561
(lp3222
sbsg1117
(idelphi
DelphiAddOp
p3223
(dp3224
g1109
S'+'
sg1110
(idelphi
DelphiStringAccess
p3225
(dp3226
g561
(lp3227
sg299
(idelphi
DelphiStringValue
p3228
(dp3229
g299
S'~'
sbsbsg1117
(idelphi
DelphiAddOp
p3230
(dp3231
g1109
S'+'
sg1110
(idelphi
DelphiStringAccess
p3232
(dp3233
g561
(lp3234
sg299
(idelphi
DelphiStringValue
p3235
(dp3236
g299
S'0 & '
p3237
sbsbsg1117
(idelphi
DelphiAddOp
p3238
(dp3239
g1109
S'+'
sg1110
(i__main__
DelphiIdentAccess
p3240
(dp3241
g559
S'IntToStr'
p3242
sg561
(lp3243
(idelphi
DelphiFunctionEndAccess
p3244
(dp3245
g569
(lp3246
(idelphi
DelphiAddOp
p3247
(dp3248
g1109
S'-'
sg1110
(idelphi
DelphiIntegerValue
p3249
(dp3250
g299
S'2'
sbsg1117
(i__main__
DelphiIdentAccess
p3251
(dp3252
g559
g2139
sg561
(lp3253
sbsbasbasbsg1117
(idelphi
DelphiAddOp
p3254
(dp3255
g1109
S'+'
sg1110
(idelphi
DelphiStringAccess
p3256
(dp3257
g561
(lp3258
sg299
(idelphi
DelphiStringValue
p3259
(dp3260
g299
S' '
sbsbsg1117
(idelphi
DelphiAddOp
p3261
(dp3262
g1109
S'+'
sg1110
(i__main__
DelphiIdentAccess
p3263
(dp3264
g559
S'prefix'
p3265
sg561
(lp3266
sbsg1117
(idelphi
DelphiStringAccess
p3267
(dp3268
g561
(lp3269
sg299
(idelphi
DelphiStringValue
p3270
(dp3271
g299
S'~'
sbsbsbsbsbsbsbsbsbsg556
(i__main__
DelphiIdentAccess
p3272
(dp3273
g559
S'changes'
p3274
sg561
(lp3275
sbsbasbsba(i__main__
DelphiAssignStatement
p3276
(dp3277
g555
Nsg556
(i__main__
DelphiIdentAccess
p3278
(dp3279
g559
S'newRule'
p3280
sg561
(lp3281
(idelphi
DelphiFieldEndAccess
p3282
(dp3283
g565
S'setChanges'
p3284
sba(idelphi
DelphiFunctionEndAccess
p3285
(dp3286
g569
(lp3287
(i__main__
DelphiIdentAccess
p3288
(dp3289
g559
S'changes'
p3290
sg561
(lp3291
sbasbasbsbasbsbasS'finallyStatements'
p3292
(lp3293
(i__main__
DelphiAssignStatement
p3294
(dp3295
g555
Nsg556
(i__main__
DelphiIdentAccess
p3296
(dp3297
g559
S'stream'
p3298
sg561
(lp3299
(idelphi
DelphiFieldEndAccess
p3300
(dp3301
g565
S'free'
p3302
sbasbsbasba(idelphi
DelphiIfStatement
p3303
(dp3304
g821
(idelphi
DelphiRelOp
p3305
(dp3306
g798
(i__main__
DelphiIdentAccess
p3307
(dp3308
g559
S'newRulesCommand'
p3309
sg561
(lp3310
(idelphi
DelphiFieldEndAccess
p3311
(dp3312
g565
S'rules'
p3313
sba(idelphi
DelphiFieldEndAccess
p3314
(dp3315
g565
S'count'
p3316
sbasbsg806
(idelphi
DelphiIntegerValue
p3317
(dp3318
g299
S'0'
sbsg811
S'>'
sbsg836
(i__main__
DelphiAssignStatement
p3319
(dp3320
g555
Nsg556
(i__main__
DelphiIdentAccess
p3321
(dp3322
g559
S'newRulesCommand'
p3323
sg561
(lp3324
(idelphi
DelphiFieldEndAccess
p3325
(dp3326
g565
S'free'
p3327
sbasbsbsg852
(i__main__
DelphiAssignStatement
p3328
(dp3329
g555
Nsg556
(i__main__
DelphiIdentAccess
p3330
(dp3331
g559
S'domain'
p3332
sg561
(lp3333
(idelphi
DelphiFieldEndAccess
p3334
(dp3335
g565
S'worldCommandList'
p3336
sba(idelphi
DelphiFieldEndAccess
p3337
(dp3338
g565
S'doCommand'
p3339
sba(idelphi
DelphiFunctionEndAccess
p3340
(dp3341
g569
(lp3342
(i__main__
DelphiIdentAccess
p3343
(dp3344
g559
S'newRulesCommand'
p3345
sg561
(lp3346
sbasbasbsbsba(i__main__
DelphiAssignStatement
p3347
(dp3348
g555
Nsg556
(i__main__
DelphiIdentAccess
p3349
(dp3350
g559
S'RuleEditorForm'
p3351
sg561
(lp3352
(idelphi
DelphiFieldEndAccess
p3353
(dp3354
g565
S'updateForRuleChange'
p3355
sbasbsba(i__main__
DelphiAssignStatement
p3356
(dp3357
g555
Nsg556
(i__main__
DelphiIdentAccess
p3358
(dp3359
g559
S'RuleEditorForm'
p3360
sg561
(lp3361
(idelphi
DelphiFieldEndAccess
p3362
(dp3363
g565
S'adjustScrollBars'
p3364
sbasbsba(i__main__
DelphiAssignStatement
p3365
(dp3366
g555
(idelphi
DelphiIntegerValue
p3367
(dp3368
g299
S'1'
sbsg556
(i__main__
DelphiIdentAccess
p3369
(dp3370
g559
S'self'
p3371
sg561
(lp3372
(idelphi
DelphiFieldEndAccess
p3373
(dp3374
g565
S'modalResult'
p3375
sbasbsba(i__main__
DelphiAssignStatement
p3376
(dp3377
g555
(i__main__
DelphiIdentAccess
p3378
(dp3379
g559
S'true'
p3380
sg561
(lp3381
sbsg556
(i__main__
DelphiIdentAccess
p3382
(dp3383
g559
S'generated'
p3384
sg561
(lp3385
sbsbasbsg577
(lp3386
(i__main__
DelphiVarSection
p3387
(dp3388
g1024
I0
sg1025
(lp3389
(idelphi
DelphiVarDecl
p3390
(dp3391
g1029
Nsg1030
(lp3392
S'stream'
p3393
asg143
(i__main__
DelphiNamedType
p3394
(dp3395
g146
S'TStringStream'
p3396
sg148
g1
sg149
Nsbsba(idelphi
DelphiVarDecl
p3397
(dp3398
g1029
Nsg1030
(lp3399
S'line'
p3400
asg143
(i__main__
DelphiPrimitiveType
p3401
(dp3402
g146
g299
sbsba(idelphi
DelphiVarDecl
p3403
(dp3404
g1029
Nsg1030
(lp3405
S'previousContext'
p3406
asg143
(i__main__
DelphiPrimitiveType
p3407
(dp3408
g146
g299
sbsba(idelphi
DelphiVarDecl
p3409
(dp3410
g1029
Nsg1030
(lp3411
S'commandPhrase'
p3412
aS'commandResponse'
p3413
asg143
(i__main__
DelphiPrimitiveType
p3414
(dp3415
g146
g299
sbsba(idelphi
DelphiVarDecl
p3416
(dp3417
g1029
Nsg1030
(lp3418
S'character'
p3419
asg143
(i__main__
DelphiPrimitiveType
p3420
(dp3421
g146
g299
sbsba(idelphi
DelphiVarDecl
p3422
(dp3423
g1029
Nsg1030
(lp3424
S'pipeRead'
p3425
asg143
(i__main__
DelphiPrimitiveType
p3426
(dp3427
g146
g210
sbsba(idelphi
DelphiVarDecl
p3428
(dp3429
g1029
Nsg1030
(lp3430
S'newRule'
p3431
asg143
(i__main__
DelphiNamedType
p3432
(dp3433
g146
S'TSRule'
p3434
sg148
g1
sg149
Nsbsba(idelphi
DelphiVarDecl
p3435
(dp3436
g1029
Nsg1030
(lp3437
S'position'
p3438
asg143
(i__main__
DelphiNamedType
p3439
(dp3440
g146
S'TPoint'
p3441
sg148
g1
sg149
Nsbsba(idelphi
DelphiVarDecl
p3442
(dp3443
g1029
Nsg1030
(lp3444
g2139
asg143
(i__main__
DelphiPrimitiveType
p3445
(dp3446
g146
g1634
sbsba(idelphi
DelphiVarDecl
p3447
(dp3448
g1029
Nsg1030
(lp3449
S'newRulesCommand'
p3450
asg143
(i__main__
DelphiNamedType
p3451
(dp3452
g146
S'TSNewRulesCommand'
p3453
sg148
g1
sg149
Nsbsba(idelphi
DelphiVarDecl
p3454
(dp3455
g1029
Nsg1030
(lp3456
S'context'
p3457
asg143
(i__main__
DelphiPrimitiveType
p3458
(dp3459
g146
g299
sbsba(idelphi
DelphiVarDecl
p3460
(dp3461
g1029
Nsg1030
(lp3462
S'requirements'
p3463
aS'changes'
p3464
asg143
(i__main__
DelphiPrimitiveType
p3465
(dp3466
g146
g299
sbsba(idelphi
DelphiVarDecl
p3467
(dp3468
g1029
Nsg1030
(lp3469
S'prefix'
p3470
asg143
(i__main__
DelphiPrimitiveType
p3471
(dp3472
g146
g299
sbsbasbasbsbssS'propertyDeclarations'
p3473
(dp3474
sS'variableNamesInDeclaredOrder'
p3475
(lp3476
g92
ag72
ag74
ag96
ag14
ag26
ag52
ag10
ag48
ag118
ag20
ag54
ag50
ag58
ag30
ag32
ag106
ag84
ag42
ag126
ag102
ag64
ag38
ag104
ag66
ag24
ag108
ag34
ag94
ag16
ag90
ag114
ag40
ag124
ag76
ag56
ag18
ag122
ag80
ag68
ag82
ag60
ag36
ag12
ag78
ag44
ag110
ag88
ag86
ag28
ag46
ag70
ag112
ag100
ag98
ag120
ag116
ag22
ag62
asba(i__main__
DelphiVarSection
p3477
(dp3478
g1024
I1
sg1025
(lp3479
(idelphi
DelphiVarDecl
p3480
(dp3481
g1029
Nsg1030
(lp3482
S'CommandWizardForm'
p3483
asg143
(i__main__
DelphiNamedType
p3484
(dp3485
g146
S'TCommandWizardForm'
p3486
sg148
g1
sg149
Nsbsbasba(i__main__
DelphiConstSection
p3487
(dp3488
S'constDeclList'
p3489
(lp3490
(idelphi
DelphiConstDeclaration
p3491
(dp3492
g1029
(idelphi
DelphiIntegerValue
p3493
(dp3494
g299
S'0'
sbsg559
S'kStartPage'
p3495
sg143
(idelphi
DelphiPrimitiveType
p3496
(dp3497
g146
S'UNDEFINED_NEEDS_CALCULATION'
p3498
sbsba(idelphi
DelphiConstDeclaration
p3499
(dp3500
g1029
(idelphi
DelphiIntegerValue
p3501
(dp3502
g299
S'1'
sbsg559
S'kContextPage'
p3503
sg143
(idelphi
DelphiPrimitiveType
p3504
(dp3505
g146
g3498
sbsba(idelphi
DelphiConstDeclaration
p3506
(dp3507
g1029
(idelphi
DelphiIntegerValue
p3508
(dp3509
g299
S'2'
sbsg559
S'kCommandsPage'
p3510
sg143
(idelphi
DelphiPrimitiveType
p3511
(dp3512
g146
g3498
sbsba(idelphi
DelphiConstDeclaration
p3513
(dp3514
g1029
(idelphi
DelphiIntegerValue
p3515
(dp3516
g299
S'3'
sbsg559
S'kSequencePage'
p3517
sg143
(idelphi
DelphiPrimitiveType
p3518
(dp3519
g146
g3498
sbsba(idelphi
DelphiConstDeclaration
p3520
(dp3521
g1029
(idelphi
DelphiIntegerValue
p3522
(dp3523
g299
S'4'
sbsg559
S'kFinishPage'
p3524
sg143
(idelphi
DelphiPrimitiveType
p3525
(dp3526
g146
g3498
sbsbasg1024
I1
sbasS'includedUnits'
p3527
NsS'implementationUses'
p3528
(lp3529
S'USDomain'
p3530
aS'USWorld'
p3531
aS'USRuleEditorForm'
p3532
aS'USConsoleForm'
p3533
aS'USCommands'
p3534
aS'USChangeLog'
p3535
asg127
S'uscommandwizard'
p3536
sS'constSections'
p3537
(lp3538
g3487
asS'globalsInProperCase'
p3539
NsS'interfaceUses'
p3540
(lp3541
S'delphi_compatability'
p3542
aS'Windows'
p3543
aS'Messages'
p3544
aS'SysUtils'
p3545
aS'Classes'
p3546
aS'Graphics'
p3547
aS'Controls'
p3548
aS'Forms'
p3549
aS'Dialogs'
p3550
aS'StdCtrls'
p3551
aS'ExtCtrls'
p3552
aS'ComCtrls'
p3553
asS'finalCommentToken'
p3554
(i__main__
PassStatement
p3555
(dp3556
g577
(lp3557
sbsS'varSections'
p3558
(lp3559
g3477
asS'globals'
p3560
NsS'originalFileName'
p3561
S'../../storyharp-js/converted_source/uscommandwizard.pas'
p3562
sS'proceduralImplementations'
p3563
(dp3564
sS'fileName'
p3565
S'/home/pdfernhout/workspace/storyharp-js/converted_source/uscommandwizard.pas'
p3566
sS'proceduralDeclarations'
p3567
(dp3568
sS'types'
p3569
(dp3570
S'tcommandwizardform'
p3571
g5
ssb.