(i__main__
DelphiUnit
p1
(dp2
S'sectionsInOrderDefined'
p3
(lp4
(i__main__
DelphiClass
p5
(dp6
S'variableNamesInProperCase'
p7
(dp8
S'field'
p9
S'field'
p10
sS'oldvalue'
p11
S'oldValue'
p12
sS'rule'
p13
S'rule'
p14
sS'newvalue'
p15
S'newValue'
p16
ssS'name'
p17
S'TSRuleFieldChange'
p18
sS'methodDeclarations'
p19
(dp20
S'updateeditorforchange'
p21
(i__main__
DelphiMethodDeclaration
p22
(dp23
g17
S'updateEditorForChange'
p24
sS'formalParameters'
p25
(lp26
sS'className'
p27
g18
sS'resultType'
p28
NsS'isClassMethod'
p29
I0
sS'methodType'
p30
S'procedure'
p31
sbsS'description'
p32
(i__main__
DelphiMethodDeclaration
p33
(dp34
g17
S'description'
p35
sg25
(lp36
sg27
g18
sg28
(i__main__
DelphiPrimitiveType
p37
(dp38
S'typeName'
p39
S'string'
p40
sbsg29
I0
sg30
S'function'
p41
sbsS'createwithrule'
p42
(i__main__
DelphiMethodDeclaration
p43
(dp44
g17
S'createWithRule'
p45
sg25
(lp46
(i__main__
DelphiFormalParameter
p47
(dp48
S'initialValue'
p49
NsS'names'
p50
(lp51
S'rule'
p52
asS'theType'
p53
(i__main__
DelphiNamedType
p54
(dp55
g39
S'TSRule'
p56
sS'unitDefinedIn'
p57
g1
sS'unitName'
p58
NsbsS'parameterVariety'
p59
Nsba(i__main__
DelphiFormalParameter
p60
(dp61
g49
Nsg50
(lp62
S'field'
p63
asg53
(i__main__
DelphiPrimitiveType
p64
(dp65
g39
S'integer'
p66
sbsg59
Nsba(i__main__
DelphiFormalParameter
p67
(dp68
g49
Nsg50
(lp69
S'newValue'
p70
asg53
(i__main__
DelphiPrimitiveType
p71
(dp72
g39
g40
sbsg59
S'const'
p73
sbasg27
g18
sg28
Nsg29
I0
sg30
S'constructor'
p74
sbsS'docommand'
p75
(i__main__
DelphiMethodDeclaration
p76
(dp77
g17
S'doCommand'
p78
sg25
(lp79
sg27
g18
sg28
Nsg29
I0
sg30
g31
sbsS'redocommand'
p80
(i__main__
DelphiMethodDeclaration
p81
(dp82
g17
S'redoCommand'
p83
sg25
(lp84
sg27
g18
sg28
Nsg29
I0
sg30
g31
sbsS'undocommand'
p85
(i__main__
DelphiMethodDeclaration
p86
(dp87
g17
S'undoCommand'
p88
sg25
(lp89
sg27
g18
sg28
Nsg29
I0
sg30
g31
sbssS'superclassNamedTypes'
p90
(lp91
(i__main__
DelphiNamedType
p92
(dp93
g39
S'KfCommand'
p94
sg57
g1
sg58
NsbasS'variableNames'
p95
(dp96
S'field'
p97
(i__main__
DelphiPrimitiveType
p98
(dp99
g39
g66
sbsS'oldvalue'
p100
(i__main__
DelphiPrimitiveType
p101
(dp102
g39
g40
sbsS'rule'
p103
(i__main__
DelphiNamedType
p104
(dp105
g39
S'TSRule'
p106
sg57
g1
sg58
NsbsS'newvalue'
p107
(i__main__
DelphiPrimitiveType
p108
(dp109
g39
g40
sbssS'methodNamesInDefinedOrder'
p110
(lp111
S'createwithrule'
p112
aS'updateeditorforchange'
p113
aS'docommand'
p114
aS'undocommand'
p115
aS'redocommand'
p116
aS'description'
p117
asS'methodImplementations'
p118
(dp119
S'updateeditorforchange'
p120
(i__main__
DelphiMethodImplementation
p121
(dp122
S'originalDeclaration'
p123
g22
sg17
g24
sg25
(lp124
sS'varParamIndexes'
p125
(lp126
sS'varParamsSkipped'
p127
(lp128
sS'argNames'
p129
(lp130
S'self'
p131
asS'argTypes'
p132
(dp133
sg27
S'TSRuleFieldChange'
p134
sg28
NsS'varParamNames'
p135
(lp136
sg29
I0
sg30
g31
sS'block'
p137
(i__main__
DelphiBlock
p138
(dp139
S'compoundStatement'
p140
(idelphi
DelphiCompoundStatement
p141
(dp142
S'statements'
p143
(lp144
(i__main__
DelphiAssignStatement
p145
(dp146
S'newValueExpression'
p147
(i__main__
DelphiIdentAccess
p148
(dp149
S'ident'
p150
S'rule'
p151
sS'endAccessList'
p152
(lp153
sbsS'destinationExpression'
p154
(i__main__
DelphiIdentAccess
p155
(dp156
g150
S'RuleEditorForm'
p157
sg152
(lp158
(idelphi
DelphiFieldEndAccess
p159
(dp160
S'field'
p161
S'rule'
p162
sbasbsba(i__main__
DelphiAssignStatement
p163
(dp164
g147
Nsg154
(i__main__
DelphiIdentAccess
p165
(dp166
g150
S'RuleEditorForm'
p167
sg152
(lp168
(idelphi
DelphiFieldEndAccess
p169
(dp170
g161
S'loadAllRuleFields'
p171
sbasbsba(idelphi
DelphiIfStatement
p172
(dp173
S'expression'
p174
(idelphi
DelphiAddOp
p175
(dp176
S'addOp'
p177
S'or'
p178
sS'term2'
p179
(idelphi
DelphiNestedExpressionListAccess
p180
(dp181
g152
(lp182
sS'expressionList'
p183
(lp184
(idelphi
DelphiRelOp
p185
(dp186
S'simpleExpression1'
p187
(i__main__
DelphiIdentAccess
p188
(dp189
g150
S'field'
p190
sg152
(lp191
sbsS'simpleExpression2'
p192
(i__main__
DelphiIdentAccess
p193
(dp194
g150
S'kRuleMove'
p195
sg152
(lp196
sbsS'relOp'
p197
S'='
sbasbsS'term1'
p198
(idelphi
DelphiNestedExpressionListAccess
p199
(dp200
g152
(lp201
sg183
(lp202
(idelphi
DelphiRelOp
p203
(dp204
g187
(i__main__
DelphiIdentAccess
p205
(dp206
g150
S'field'
p207
sg152
(lp208
sbsg192
(i__main__
DelphiIdentAccess
p209
(dp210
g150
S'kRuleContext'
p211
sg152
(lp212
sbsg197
S'='
sbasbsbsS'ifFalseStatement'
p213
NsS'ifTrueStatement'
p214
(i__main__
DelphiAssignStatement
p215
(dp216
g147
(i__main__
DelphiIdentAccess
p217
(dp218
g150
S'false'
p219
sg152
(lp220
sbsg154
(i__main__
DelphiIdentAccess
p221
(dp222
g150
S'ConsoleForm'
p223
sg152
(lp224
(idelphi
DelphiFieldEndAccess
p225
(dp226
g161
S'locationCacheValid'
p227
sbasbsbsba(idelphi
DelphiIfStatement
p228
(dp229
g174
(idelphi
DelphiRelOp
p230
(dp231
g187
(i__main__
DelphiIdentAccess
p232
(dp233
g150
S'field'
p234
sg152
(lp235
sbsg192
(i__main__
DelphiIdentAccess
p236
(dp237
g150
S'kRuleRequirements'
p238
sg152
(lp239
sbsg197
S'='
sbsg213
(idelphi
DelphiIfStatement
p240
(dp241
g174
(idelphi
DelphiRelOp
p242
(dp243
g187
(i__main__
DelphiIdentAccess
p244
(dp245
g150
S'field'
p246
sg152
(lp247
sbsg192
(i__main__
DelphiIdentAccess
p248
(dp249
g150
S'kRuleChanges'
p250
sg152
(lp251
sbsg197
S'='
sbsg213
Nsg214
(i__main__
DelphiAssignStatement
p252
(dp253
g147
Nsg154
(i__main__
DelphiIdentAccess
p254
(dp255
g150
S'RuleEditorForm'
p256
sg152
(lp257
(idelphi
DelphiFieldEndAccess
p258
(dp259
g161
S'fillListBox'
p260
sba(idelphi
DelphiFunctionEndAccess
p261
(dp262
g183
(lp263
(i__main__
DelphiIdentAccess
p264
(dp265
g150
S'RuleEditorForm'
p266
sg152
(lp267
(idelphi
DelphiFieldEndAccess
p268
(dp269
g161
S'changesListBox'
p270
sbasba(i__main__
DelphiIdentAccess
p271
(dp272
g150
S'rule'
p273
sg152
(lp274
(idelphi
DelphiFieldEndAccess
p275
(dp276
g161
S'changes'
p277
sbasbasbasbsbsbsg214
(i__main__
DelphiAssignStatement
p278
(dp279
g147
Nsg154
(i__main__
DelphiIdentAccess
p280
(dp281
g150
S'RuleEditorForm'
p282
sg152
(lp283
(idelphi
DelphiFieldEndAccess
p284
(dp285
g161
S'fillListBox'
p286
sba(idelphi
DelphiFunctionEndAccess
p287
(dp288
g183
(lp289
(i__main__
DelphiIdentAccess
p290
(dp291
g150
S'RuleEditorForm'
p292
sg152
(lp293
(idelphi
DelphiFieldEndAccess
p294
(dp295
g161
S'requirementsListBox'
p296
sbasba(i__main__
DelphiIdentAccess
p297
(dp298
g150
S'rule'
p299
sg152
(lp300
(idelphi
DelphiFieldEndAccess
p301
(dp302
g161
S'requirements'
p303
sbasbasbasbsS'commentLinesBefore'
p304
(lp305
S'wrapper entries will get freed if list box - so reset them'
p306
asbsba(i__main__
DelphiAssignStatement
p307
(dp308
g147
Nsg154
(i__main__
DelphiIdentAccess
p309
(dp310
g150
S'RuleEditorForm'
p311
sg152
(lp312
(idelphi
DelphiFieldEndAccess
p313
(dp314
g161
S'RuleGrid'
p315
sba(idelphi
DelphiFieldEndAccess
p316
(dp317
g161
S'invalidate'
p318
sbasbsba(i__main__
DelphiAssignStatement
p319
(dp320
g147
Nsg154
(i__main__
DelphiIdentAccess
p321
(dp322
g150
S'RuleEditorForm'
p323
sg152
(lp324
(idelphi
DelphiFieldEndAccess
p325
(dp326
g161
S'MapPaintBoxChanged'
p327
sbasbsba(i__main__
DelphiAssignStatement
p328
(dp329
g147
Nsg154
(i__main__
DelphiIdentAccess
p330
(dp331
g150
S'RuleEditorForm'
p332
sg152
(lp333
(idelphi
DelphiFieldEndAccess
p334
(dp335
g161
S'SecondListBox'
p336
sba(idelphi
DelphiFieldEndAccess
p337
(dp338
g161
S'invalidate'
p339
sbasbsg304
(lp340
S' could optimize to only do in certain cases\r'
p341
asba(idelphi
DelphiIfStatement
p342
(dp343
g174
(idelphi
DelphiRelOp
p344
(dp345
g187
(i__main__
DelphiIdentAccess
p346
(dp347
g150
S'RuleEditorForm'
p348
sg152
(lp349
(idelphi
DelphiFieldEndAccess
p350
(dp351
g161
S'organizeByField'
p352
sbasbsg192
(i__main__
DelphiIdentAccess
p353
(dp354
g150
S'field'
p355
sg152
(lp356
sbsg197
S'='
sbsg213
Nsg214
(i__main__
DelphiAssignStatement
p357
(dp358
g147
Nsg154
(i__main__
DelphiIdentAccess
p359
(dp360
g150
S'RuleEditorForm'
p361
sg152
(lp362
(idelphi
DelphiFieldEndAccess
p363
(dp364
g161
S'setOrganizeByField'
p365
sba(idelphi
DelphiFunctionEndAccess
p366
(dp367
g183
(lp368
(i__main__
DelphiIdentAccess
p369
(dp370
g150
S'RuleEditorForm'
p371
sg152
(lp372
(idelphi
DelphiFieldEndAccess
p373
(dp374
g161
S'organizeByField'
p375
sbasbasbasbsg304
(lp376
S' could optimize to only do when browser visible\r'
p377
asbsbasbsS'limitedDeclSectionList'
p378
(lp379
sbsbsS'description'
p380
(i__main__
DelphiMethodImplementation
p381
(dp382
g123
g33
sg17
g35
sg25
(lp383
sg125
(lp384
sg127
(lp385
sg129
(lp386
g131
asg132
(dp387
sg27
S'TSRuleFieldChange'
p388
sg28
(i__main__
DelphiPrimitiveType
p389
(dp390
g39
g40
sbsg135
(lp391
sg29
I0
sg30
g41
sg137
(i__main__
DelphiBlock
p392
(dp393
g140
(idelphi
DelphiCompoundStatement
p394
(dp395
g143
(lp396
(i__main__
DelphiAssignStatement
p397
(dp398
g147
(idelphi
DelphiAddOp
p399
(dp400
g177
S'+'
sg179
(i__main__
DelphiIdentAccess
p401
(dp402
g150
S'IntToStr'
p403
sg152
(lp404
(idelphi
DelphiFunctionEndAccess
p405
(dp406
g183
(lp407
(idelphi
DelphiAddOp
p408
(dp409
g177
S'+'
sg179
(idelphi
DelphiIntegerValue
p410
(dp411
g40
S'1'
sbsg198
(i__main__
DelphiIdentAccess
p412
(dp413
g150
S'domain'
p414
sg152
(lp415
(idelphi
DelphiFieldEndAccess
p416
(dp417
g161
S'world'
p418
sba(idelphi
DelphiFieldEndAccess
p419
(dp420
g161
S'rules'
p421
sba(idelphi
DelphiFieldEndAccess
p422
(dp423
g161
S'indexOf'
p424
sba(idelphi
DelphiFunctionEndAccess
p425
(dp426
g183
(lp427
(i__main__
DelphiIdentAccess
p428
(dp429
g150
S'rule'
p430
sg152
(lp431
sbasbasbsbasbasbsg198
(idelphi
DelphiAddOp
p432
(dp433
g177
S'+'
sg179
(idelphi
DelphiStringAccess
p434
(dp435
g152
(lp436
sg40
(idelphi
DelphiStringValue
p437
(dp438
g40
S' For Rule '
p439
sbsbsg198
(idelphi
DelphiAddOp
p440
(dp441
g177
S'+'
sg179
(i__main__
DelphiIdentAccess
p442
(dp443
g150
S'TSRule'
p444
sg152
(lp445
(idelphi
DelphiFieldEndAccess
p446
(dp447
g161
S'headerForField'
p448
sba(idelphi
DelphiFunctionEndAccess
p449
(dp450
g183
(lp451
(i__main__
DelphiIdentAccess
p452
(dp453
g150
S'field'
p454
sg152
(lp455
sbasbasbsg198
(idelphi
DelphiStringAccess
p456
(dp457
g152
(lp458
sg40
(idelphi
DelphiStringValue
p459
(dp460
g40
S'Change '
p461
sbsbsbsbsbsg154
(i__main__
DelphiIdentAccess
p462
(dp463
g150
S'result'
p464
sg152
(lp465
sbsg304
(lp466
S"  result := 'rule ' + IntToStr(domain.world.rules.indexOf(rule) + 1) + ' change of ' + TSRule.headerForField(field);\r"
p467
asbasbsg378
(lp468
sbsbsS'createwithrule'
p469
(i__main__
DelphiMethodImplementation
p470
(dp471
g123
g43
sg17
g45
sg25
(lp472
(i__main__
DelphiFormalParameter
p473
(dp474
g49
Nsg50
(lp475
S'rule'
p476
asg53
(i__main__
DelphiNamedType
p477
(dp478
g39
S'TSRule'
p479
sg57
g1
sg58
Nsbsg59
Nsba(i__main__
DelphiFormalParameter
p480
(dp481
g49
Nsg50
(lp482
S'field'
p483
asg53
(i__main__
DelphiPrimitiveType
p484
(dp485
g39
g66
sbsg59
Nsba(i__main__
DelphiFormalParameter
p486
(dp487
g49
Nsg50
(lp488
S'newValue'
p489
asg53
(i__main__
DelphiPrimitiveType
p490
(dp491
g39
g40
sbsg59
g73
sbasg125
(lp492
sg127
(lp493
sg129
(lp494
g131
ag476
ag483
ag489
asg132
(dp495
g483
g484
sg489
g490
sg476
g477
ssg27
S'TSRuleFieldChange'
p496
sg28
Nsg135
(lp497
sg29
I0
sg30
g74
sg137
(i__main__
DelphiBlock
p498
(dp499
g140
(idelphi
DelphiCompoundStatement
p500
(dp501
g143
(lp502
(i__main__
DelphiAssignStatement
p503
(dp504
g147
Nsg154
(i__main__
DelphiIdentAccess
p505
(dp506
g150
S'create'
p507
sg152
(lp508
sbsba(i__main__
DelphiAssignStatement
p509
(dp510
g147
(i__main__
DelphiIdentAccess
p511
(dp512
g150
S'rule'
p513
sg152
(lp514
sbsg154
(i__main__
DelphiIdentAccess
p515
(dp516
g150
S'self'
p517
sg152
(lp518
(idelphi
DelphiFieldEndAccess
p519
(dp520
g161
S'rule'
p521
sbasbsba(i__main__
DelphiAssignStatement
p522
(dp523
g147
(i__main__
DelphiIdentAccess
p524
(dp525
g150
S'field'
p526
sg152
(lp527
sbsg154
(i__main__
DelphiIdentAccess
p528
(dp529
g150
S'self'
p530
sg152
(lp531
(idelphi
DelphiFieldEndAccess
p532
(dp533
g161
S'field'
p534
sbasbsba(i__main__
DelphiAssignStatement
p535
(dp536
g147
(i__main__
DelphiIdentAccess
p537
(dp538
g150
S'rule'
p539
sg152
(lp540
(idelphi
DelphiFieldEndAccess
p541
(dp542
g161
S'getTextForField'
p543
sba(idelphi
DelphiFunctionEndAccess
p544
(dp545
g183
(lp546
(i__main__
DelphiIdentAccess
p547
(dp548
g150
S'field'
p549
sg152
(lp550
sbasbasbsg154
(i__main__
DelphiIdentAccess
p551
(dp552
g150
S'self'
p553
sg152
(lp554
(idelphi
DelphiFieldEndAccess
p555
(dp556
g161
S'oldValue'
p557
sbasbsba(i__main__
DelphiAssignStatement
p558
(dp559
g147
(i__main__
DelphiIdentAccess
p560
(dp561
g150
S'newValue'
p562
sg152
(lp563
sbsg154
(i__main__
DelphiIdentAccess
p564
(dp565
g150
S'self'
p566
sg152
(lp567
(idelphi
DelphiFieldEndAccess
p568
(dp569
g161
S'newValue'
p570
sbasbsbasbsg378
(lp571
sbsg304
(lp572
S' TSRuleFieldChange ------------------------------------------'
p573
asbsS'docommand'
p574
(i__main__
DelphiMethodImplementation
p575
(dp576
g123
g76
sg17
g78
sg25
(lp577
sg125
(lp578
sg127
(lp579
sg129
(lp580
g131
asg132
(dp581
sg27
S'TSRuleFieldChange'
p582
sg28
Nsg135
(lp583
sg29
I0
sg30
g31
sg137
(i__main__
DelphiBlock
p584
(dp585
g140
(idelphi
DelphiCompoundStatement
p586
(dp587
g143
(lp588
(i__main__
DelphiAssignStatement
p589
(dp590
g147
(idelphi
DelphiStringAccess
p591
(dp592
g152
(lp593
sg40
(idelphi
DelphiStringValue
p594
(dp595
g40
S''
sbsbsg154
(i__main__
DelphiIdentAccess
p596
(dp597
g150
S'Domain'
p598
sg152
(lp599
(idelphi
DelphiFieldEndAccess
p600
(dp601
g161
S'world'
p602
sba(idelphi
DelphiFieldEndAccess
p603
(dp604
g161
S'lastVariableCreated'
p605
sbasbsba(i__main__
DelphiAssignStatement
p606
(dp607
g147
Nsg154
(i__main__
DelphiIdentAccess
p608
(dp609
g150
S'rule'
p610
sg152
(lp611
(idelphi
DelphiFieldEndAccess
p612
(dp613
g161
S'setTextForField'
p614
sba(idelphi
DelphiFunctionEndAccess
p615
(dp616
g183
(lp617
(i__main__
DelphiIdentAccess
p618
(dp619
g150
S'field'
p620
sg152
(lp621
sba(i__main__
DelphiIdentAccess
p622
(dp623
g150
S'newValue'
p624
sg152
(lp625
sbasbasbsba(idelphi
DelphiIfStatement
p626
(dp627
g174
(idelphi
DelphiRelOp
p628
(dp629
g187
(i__main__
DelphiIdentAccess
p630
(dp631
g150
S'field'
p632
sg152
(lp633
sbsg192
(i__main__
DelphiIdentAccess
p634
(dp635
g150
S'kRuleReply'
p636
sg152
(lp637
sbsg197
S'<>'
p638
sbsg213
(i__main__
DelphiAssignStatement
p639
(dp640
g147
Nsg154
(i__main__
DelphiIdentAccess
p641
(dp642
g150
S'ChangeLogForm'
p643
sg152
(lp644
(idelphi
DelphiFieldEndAccess
p645
(dp646
g161
S'addToLog'
p647
sba(idelphi
DelphiFunctionEndAccess
p648
(dp649
g183
(lp650
(i__main__
DelphiIdentAccess
p651
(dp652
g150
S'newValue'
p653
sg152
(lp654
sbasbasbsbsg214
(i__main__
DelphiAssignStatement
p655
(dp656
g147
Nsg154
(i__main__
DelphiIdentAccess
p657
(dp658
g150
S'ChangeLogForm'
p659
sg152
(lp660
(idelphi
DelphiFieldEndAccess
p661
(dp662
g161
S'addToLog'
p663
sba(idelphi
DelphiFunctionEndAccess
p664
(dp665
g183
(lp666
(i__main__
DelphiIdentAccess
p667
(dp668
g150
S'Domain'
p669
sg152
(lp670
(idelphi
DelphiFieldEndAccess
p671
(dp672
g161
S'world'
p673
sba(idelphi
DelphiFieldEndAccess
p674
(dp675
g161
S'lastVariableCreated'
p676
sbasbasbasbsg304
(lp677
S' log changes\r'
p678
asbsba(i__main__
DelphiAssignStatement
p679
(dp680
g147
Nsg154
(i__main__
DelphiIdentAccess
p681
(dp682
g150
S'self'
p683
sg152
(lp684
(idelphi
DelphiFieldEndAccess
p685
(dp686
g161
S'updateEditorForChange'
p687
sbasbsba(i__main__
DelphiAssignStatement
p688
(dp689
g147
Nsg154
(idelphi
DelphiInheritedCall
p690
(dp691
g150
S'doCommand'
p692
sg183
Nsbsbasbsg378
(lp693
sbsbsS'redocommand'
p694
(i__main__
DelphiMethodImplementation
p695
(dp696
g123
g81
sg17
g83
sg25
(lp697
sg125
(lp698
sg127
(lp699
sg129
(lp700
g131
asg132
(dp701
sg27
S'TSRuleFieldChange'
p702
sg28
Nsg135
(lp703
sg29
I0
sg30
g31
sg137
(i__main__
DelphiBlock
p704
(dp705
g140
(idelphi
DelphiCompoundStatement
p706
(dp707
g143
(lp708
(i__main__
DelphiAssignStatement
p709
(dp710
g147
Nsg154
(i__main__
DelphiIdentAccess
p711
(dp712
g150
S'rule'
p713
sg152
(lp714
(idelphi
DelphiFieldEndAccess
p715
(dp716
g161
S'setTextForField'
p717
sba(idelphi
DelphiFunctionEndAccess
p718
(dp719
g183
(lp720
(i__main__
DelphiIdentAccess
p721
(dp722
g150
S'field'
p723
sg152
(lp724
sba(i__main__
DelphiIdentAccess
p725
(dp726
g150
S'newValue'
p727
sg152
(lp728
sbasbasbsba(i__main__
DelphiAssignStatement
p729
(dp730
g147
Nsg154
(i__main__
DelphiIdentAccess
p731
(dp732
g150
S'self'
p733
sg152
(lp734
(idelphi
DelphiFieldEndAccess
p735
(dp736
g161
S'updateEditorForChange'
p737
sbasbsba(i__main__
DelphiAssignStatement
p738
(dp739
g147
Nsg154
(i__main__
DelphiIdentAccess
p740
(dp741
g150
S'RuleEditorForm'
p742
sg152
(lp743
(idelphi
DelphiFieldEndAccess
p744
(dp745
g161
S'selectEditorField'
p746
sba(idelphi
DelphiFunctionEndAccess
p747
(dp748
g183
(lp749
(i__main__
DelphiIdentAccess
p750
(dp751
g150
S'field'
p752
sg152
(lp753
sbasbasbsba(i__main__
DelphiAssignStatement
p754
(dp755
g147
Nsg154
(idelphi
DelphiInheritedCall
p756
(dp757
g150
S'doCommand'
p758
sg183
Nsbsbasbsg378
(lp759
sbsbsS'undocommand'
p760
(i__main__
DelphiMethodImplementation
p761
(dp762
g123
g86
sg17
g88
sg25
(lp763
sg125
(lp764
sg127
(lp765
sg129
(lp766
g131
asg132
(dp767
sg27
S'TSRuleFieldChange'
p768
sg28
Nsg135
(lp769
sg29
I0
sg30
g31
sg137
(i__main__
DelphiBlock
p770
(dp771
g140
(idelphi
DelphiCompoundStatement
p772
(dp773
g143
(lp774
(i__main__
DelphiAssignStatement
p775
(dp776
g147
Nsg154
(i__main__
DelphiIdentAccess
p777
(dp778
g150
S'rule'
p779
sg152
(lp780
(idelphi
DelphiFieldEndAccess
p781
(dp782
g161
S'setTextForField'
p783
sba(idelphi
DelphiFunctionEndAccess
p784
(dp785
g183
(lp786
(i__main__
DelphiIdentAccess
p787
(dp788
g150
S'field'
p789
sg152
(lp790
sba(i__main__
DelphiIdentAccess
p791
(dp792
g150
S'oldValue'
p793
sg152
(lp794
sbasbasbsba(i__main__
DelphiAssignStatement
p795
(dp796
g147
Nsg154
(i__main__
DelphiIdentAccess
p797
(dp798
g150
S'self'
p799
sg152
(lp800
(idelphi
DelphiFieldEndAccess
p801
(dp802
g161
S'updateEditorForChange'
p803
sbasbsba(i__main__
DelphiAssignStatement
p804
(dp805
g147
Nsg154
(i__main__
DelphiIdentAccess
p806
(dp807
g150
S'RuleEditorForm'
p808
sg152
(lp809
(idelphi
DelphiFieldEndAccess
p810
(dp811
g161
S'selectEditorField'
p812
sba(idelphi
DelphiFunctionEndAccess
p813
(dp814
g183
(lp815
(i__main__
DelphiIdentAccess
p816
(dp817
g150
S'field'
p818
sg152
(lp819
sbasbasbsba(i__main__
DelphiAssignStatement
p820
(dp821
g147
Nsg154
(idelphi
DelphiInheritedCall
p822
(dp823
g150
S'undoCommand'
p824
sg183
Nsbsbasbsg378
(lp825
sbsbssS'propertyDeclarations'
p826
(dp827
sS'variableNamesInDeclaredOrder'
p828
(lp829
g14
ag10
ag12
ag16
asg304
(lp830
S'TEditChangeCommand = class(KfCommand)\r'
p831
aS'  \tentryField: TObject;\r'
p832
aS'    oldSelectionInformation: TSelectionInformation;\r'
p833
aS'    newSelectionInformation: TSelectionInformation;\r'
p834
aS'\t\tclosed: boolean;\r'
p835
aS'\t\tprocedure recordChangesMadeToEdit;\r'
p836
aS'\t\tconstructor createWithEdit(Sender: TObject;  const lastSelectionInformation: TSelectionInformation);\r'
p837
aS' \t\tprocedure doCommand; override;\r'
p838
aS'\t\tprocedure undoCommand; override;\r'
p839
aS'\t\tprocedure redoCommand; override;\r'
p840
aS'\t\tfunction description: string; override;\r'
p841
aS'\t\tend;\r'
p842
aS'\r'
aS'  \tentryField: TObject;\r'
p843
aS'    newSelectionInformation: TSelectionInformation;\r'
p844
aS'\t\tconstructor createWithRule(Sender: TObject;  const lastSelectionInformation: TSelectionInformation);\r'
p845
aS'   '
p846
asba(i__main__
DelphiClass
p847
(dp848
g7
(dp849
S'rules'
p850
S'rules'
p851
sS'creator'
p852
S'creator'
p853
ssg17
S'TSNewRulesCommand'
p854
sg19
(dp855
S'description'
p856
(i__main__
DelphiMethodDeclaration
p857
(dp858
g17
S'description'
p859
sg25
(lp860
sg27
g854
sg28
(i__main__
DelphiPrimitiveType
p861
(dp862
g39
g40
sbsg29
I0
sg30
g41
sbsS'addrule'
p863
(i__main__
DelphiMethodDeclaration
p864
(dp865
g17
S'addRule'
p866
sg25
(lp867
(i__main__
DelphiFormalParameter
p868
(dp869
g49
Nsg50
(lp870
S'rule'
p871
asg53
(i__main__
DelphiNamedType
p872
(dp873
g39
S'TSRule'
p874
sg57
g1
sg58
Nsbsg59
Nsbasg27
g854
sg28
Nsg29
I0
sg30
g31
sbsS'create'
p875
(i__main__
DelphiMethodDeclaration
p876
(dp877
g17
S'create'
p878
sg25
(lp879
sg27
g854
sg28
Nsg29
I0
sg30
g74
sbsS'docommand'
p880
(i__main__
DelphiMethodDeclaration
p881
(dp882
g17
S'doCommand'
p883
sg25
(lp884
sg27
g854
sg28
Nsg29
I0
sg30
g31
sbsS'redocommand'
p885
(i__main__
DelphiMethodDeclaration
p886
(dp887
g17
S'redoCommand'
p888
sg25
(lp889
sg27
g854
sg28
Nsg29
I0
sg30
g31
sbsS'destroy'
p890
(i__main__
DelphiMethodDeclaration
p891
(dp892
g17
S'destroy'
p893
sg25
(lp894
sg27
g854
sg28
Nsg29
I0
sg30
S'destructor'
p895
sbsS'undocommand'
p896
(i__main__
DelphiMethodDeclaration
p897
(dp898
g17
S'undoCommand'
p899
sg25
(lp900
sg27
g854
sg28
Nsg29
I0
sg30
g31
sbssg90
(lp901
(i__main__
DelphiNamedType
p902
(dp903
g39
S'KfCommand'
p904
sg57
g1
sg58
Nsbasg95
(dp905
S'rules'
p906
(i__main__
DelphiNamedType
p907
(dp908
g39
S'TList'
p909
sg57
g1
sg58
NsbsS'creator'
p910
(i__main__
DelphiPrimitiveType
p911
(dp912
g39
g40
sbssg110
(lp913
S'create'
p914
aS'destroy'
p915
aS'addrule'
p916
aS'docommand'
p917
aS'undocommand'
p918
aS'redocommand'
p919
aS'description'
p920
asg118
(dp921
S'description'
p922
(i__main__
DelphiMethodImplementation
p923
(dp924
g123
g857
sg17
g859
sg25
(lp925
sg125
(lp926
sg127
(lp927
sg129
(lp928
g131
asg132
(dp929
sg27
S'TSNewRulesCommand'
p930
sg28
(i__main__
DelphiPrimitiveType
p931
(dp932
g39
g40
sbsg135
(lp933
sg29
I0
sg30
g41
sg137
(i__main__
DelphiBlock
p934
(dp935
g140
(idelphi
DelphiCompoundStatement
p936
(dp937
g143
(lp938
(idelphi
DelphiIfStatement
p939
(dp940
g174
(idelphi
DelphiRelOp
p941
(dp942
g187
(i__main__
DelphiIdentAccess
p943
(dp944
g150
S'rules'
p945
sg152
(lp946
(idelphi
DelphiFieldEndAccess
p947
(dp948
g161
S'count'
p949
sbasbsg192
(idelphi
DelphiIntegerValue
p950
(dp951
g40
S'1'
sbsg197
S'>'
sbsg213
(idelphi
DelphiIfStatement
p952
(dp953
g174
(idelphi
DelphiRelOp
p954
(dp955
g187
(i__main__
DelphiIdentAccess
p956
(dp957
g150
S'rules'
p958
sg152
(lp959
(idelphi
DelphiFieldEndAccess
p960
(dp961
g161
S'count'
p962
sbasbsg192
(idelphi
DelphiIntegerValue
p963
(dp964
g40
S'1'
sbsg197
S'='
sbsg213
(i__main__
DelphiAssignStatement
p965
(dp966
g147
(idelphi
DelphiStringAccess
p967
(dp968
g152
(lp969
sg40
(idelphi
DelphiStringValue
p970
(dp971
g40
S'new rule'
p972
sbsbsg154
(i__main__
DelphiIdentAccess
p973
(dp974
g150
S'result'
p975
sg152
(lp976
sbsbsg214
(i__main__
DelphiAssignStatement
p977
(dp978
g147
(idelphi
DelphiStringAccess
p979
(dp980
g152
(lp981
sg40
(idelphi
DelphiStringValue
p982
(dp983
g40
S'new rule'
p984
sbsbsg154
(i__main__
DelphiIdentAccess
p985
(dp986
g150
S'result'
p987
sg152
(lp988
sbsbsbsg214
(i__main__
DelphiAssignStatement
p989
(dp990
g147
(idelphi
DelphiStringAccess
p991
(dp992
g152
(lp993
sg40
(idelphi
DelphiStringValue
p994
(dp995
g40
S'new rules'
p996
sbsbsg154
(i__main__
DelphiIdentAccess
p997
(dp998
g150
S'result'
p999
sg152
(lp1000
sbsbsba(idelphi
DelphiIfStatement
p1001
(dp1002
g174
(idelphi
DelphiRelOp
p1003
(dp1004
g187
(i__main__
DelphiIdentAccess
p1005
(dp1006
g150
S'creator'
p1007
sg152
(lp1008
sbsg192
(idelphi
DelphiStringAccess
p1009
(dp1010
g152
(lp1011
sg40
(idelphi
DelphiStringValue
p1012
(dp1013
g40
S''
sbsbsg197
g638
sbsg213
Nsg214
(i__main__
DelphiAssignStatement
p1014
(dp1015
g147
(idelphi
DelphiAddOp
p1016
(dp1017
g177
S'+'
sg179
(i__main__
DelphiIdentAccess
p1018
(dp1019
g150
S'creator'
p1020
sg152
(lp1021
sbsg198
(idelphi
DelphiAddOp
p1022
(dp1023
g177
S'+'
sg179
(idelphi
DelphiStringAccess
p1024
(dp1025
g152
(lp1026
sg40
(idelphi
DelphiStringValue
p1027
(dp1028
g40
S' from '
p1029
sbsbsg198
(i__main__
DelphiIdentAccess
p1030
(dp1031
g150
S'result'
p1032
sg152
(lp1033
sbsbsbsg154
(i__main__
DelphiIdentAccess
p1034
(dp1035
g150
S'result'
p1036
sg152
(lp1037
sbsbsba(idelphi
DelphiIfStatement
p1038
(dp1039
g174
(idelphi
DelphiRelOp
p1040
(dp1041
g187
(i__main__
DelphiIdentAccess
p1042
(dp1043
g150
S'creator'
p1044
sg152
(lp1045
sbsg192
(idelphi
DelphiStringAccess
p1046
(dp1047
g152
(lp1048
sg40
(idelphi
DelphiStringValue
p1049
(dp1050
g40
S'duplicating'
p1051
sbsbsg197
S'='
sbsg213
Nsg214
(i__main__
DelphiAssignStatement
p1052
(dp1053
g147
(idelphi
DelphiStringAccess
p1054
(dp1055
g152
(lp1056
sg40
(idelphi
DelphiStringValue
p1057
(dp1058
g40
S'duplicate rule'
p1059
sbsbsg154
(i__main__
DelphiIdentAccess
p1060
(dp1061
g150
S'result'
p1062
sg152
(lp1063
sbsbsbasbsg378
(lp1064
sbsbsS'addrule'
p1065
(i__main__
DelphiMethodImplementation
p1066
(dp1067
g123
g864
sg17
g866
sg25
(lp1068
(i__main__
DelphiFormalParameter
p1069
(dp1070
g49
Nsg50
(lp1071
S'rule'
p1072
asg53
(i__main__
DelphiNamedType
p1073
(dp1074
g39
S'TSRule'
p1075
sg57
g1
sg58
Nsbsg59
Nsbasg125
(lp1076
sg127
(lp1077
sg129
(lp1078
g131
ag1072
asg132
(dp1079
g1072
g1073
ssg27
S'TSNewRulesCommand'
p1080
sg28
Nsg135
(lp1081
sg29
I0
sg30
g31
sg137
(i__main__
DelphiBlock
p1082
(dp1083
g140
(idelphi
DelphiCompoundStatement
p1084
(dp1085
g143
(lp1086
(i__main__
DelphiAssignStatement
p1087
(dp1088
g147
Nsg154
(i__main__
DelphiIdentAccess
p1089
(dp1090
g150
S'rules'
p1091
sg152
(lp1092
(idelphi
DelphiFieldEndAccess
p1093
(dp1094
g161
S'add'
p1095
sba(idelphi
DelphiFunctionEndAccess
p1096
(dp1097
g183
(lp1098
(i__main__
DelphiIdentAccess
p1099
(dp1100
g150
S'rule'
p1101
sg152
(lp1102
sbasbasbsbasbsg378
(lp1103
sbsbsS'create'
p1104
(i__main__
DelphiMethodImplementation
p1105
(dp1106
g123
g876
sg17
g878
sg25
(lp1107
sg125
(lp1108
sg127
(lp1109
sg129
(lp1110
g131
asg132
(dp1111
sg27
S'TSNewRulesCommand'
p1112
sg28
Nsg135
(lp1113
sg29
I0
sg30
g74
sg137
(i__main__
DelphiBlock
p1114
(dp1115
g140
(idelphi
DelphiCompoundStatement
p1116
(dp1117
g143
(lp1118
(i__main__
DelphiAssignStatement
p1119
(dp1120
g147
(i__main__
DelphiIdentAccess
p1121
(dp1122
g150
S'TList'
p1123
sg152
(lp1124
(idelphi
DelphiFieldEndAccess
p1125
(dp1126
g161
S'create'
p1127
sbasbsg154
(i__main__
DelphiIdentAccess
p1128
(dp1129
g150
S'rules'
p1130
sg152
(lp1131
sbsbasbsg378
(lp1132
sbsg304
(lp1133
S' TSNewRulesCommand ------------------------------------------'
p1134
asbsS'docommand'
p1135
(i__main__
DelphiMethodImplementation
p1136
(dp1137
g123
g881
sg17
g883
sg25
(lp1138
sg125
(lp1139
sg127
(lp1140
sg129
(lp1141
g131
asg132
(dp1142
sg27
S'TSNewRulesCommand'
p1143
sg28
Nsg135
(lp1144
sg29
I0
sg30
g31
sg137
(i__main__
DelphiBlock
p1145
(dp1146
g140
(idelphi
DelphiCompoundStatement
p1147
(dp1148
g143
(lp1149
(i__main__
DelphiAssignStatement
p1150
(dp1151
g147
Nsg154
(idelphi
DelphiInheritedCall
p1152
(dp1153
g150
S'doCommand'
p1154
sg183
Nsbsg304
(lp1155
S'already added at start'
p1156
asba(i__main__
DelphiAssignStatement
p1157
(dp1158
g147
Nsg154
(i__main__
DelphiIdentAccess
p1159
(dp1160
g150
S'RuleEditorForm'
p1161
sg152
(lp1162
(idelphi
DelphiFieldEndAccess
p1163
(dp1164
g161
S'updateForRuleChange'
p1165
sbasbsba(i__main__
DelphiAssignStatement
p1166
(dp1167
g147
Nsg154
(i__main__
DelphiIdentAccess
p1168
(dp1169
g150
S'RuleEditorForm'
p1170
sg152
(lp1171
(idelphi
DelphiFieldEndAccess
p1172
(dp1173
g161
S'scrollGridSelectionsIntoView'
p1174
sba(idelphi
DelphiFunctionEndAccess
p1175
(dp1176
g183
(lp1177
(i__main__
DelphiIdentAccess
p1178
(dp1179
g150
S'kFromBottom'
p1180
sg152
(lp1181
sbasbasbsbasbsg378
(lp1182
sbsbsS'redocommand'
p1183
(i__main__
DelphiMethodImplementation
p1184
(dp1185
g123
g886
sg17
g888
sg25
(lp1186
sg125
(lp1187
sg127
(lp1188
sg129
(lp1189
g131
asg132
(dp1190
sg27
S'TSNewRulesCommand'
p1191
sg28
Nsg135
(lp1192
sg29
I0
sg30
g31
sg137
(i__main__
DelphiBlock
p1193
(dp1194
g140
(idelphi
DelphiCompoundStatement
p1195
(dp1196
g143
(lp1197
(i__main__
DelphiAssignStatement
p1198
(dp1199
g147
Nsg154
(i__main__
DelphiIdentAccess
p1200
(dp1201
g150
S'domain'
p1202
sg152
(lp1203
(idelphi
DelphiFieldEndAccess
p1204
(dp1205
g161
S'world'
p1206
sba(idelphi
DelphiFieldEndAccess
p1207
(dp1208
g161
S'deselectAllExcept'
p1209
sba(idelphi
DelphiFunctionEndAccess
p1210
(dp1211
g183
(lp1212
(idelphi
DelphiNilValue
p1213
(dp1214
basbasbsba(idelphi
DelphiForStatement
p1215
(dp1216
S'variable'
p1217
S'i'
sS'finalValue'
p1218
(idelphi
DelphiAddOp
p1219
(dp1220
g177
S'-'
sg179
(idelphi
DelphiIntegerValue
p1221
(dp1222
g40
S'1'
sbsg198
(i__main__
DelphiIdentAccess
p1223
(dp1224
g150
S'rules'
p1225
sg152
(lp1226
(idelphi
DelphiFieldEndAccess
p1227
(dp1228
g161
S'count'
p1229
sbasbsbsS'direction'
p1230
S'to'
p1231
sg49
(idelphi
DelphiIntegerValue
p1232
(dp1233
g40
S'0'
sbsS'statement'
p1234
(idelphi
DelphiCompoundStatement
p1235
(dp1236
g143
(lp1237
(i__main__
DelphiAssignStatement
p1238
(dp1239
g147
(i__main__
DelphiIdentAccess
p1240
(dp1241
g150
S'TSRule'
p1242
sg152
(lp1243
(idelphi
DelphiFunctionEndAccess
p1244
(dp1245
g183
(lp1246
(i__main__
DelphiIdentAccess
p1247
(dp1248
g150
S'rules'
p1249
sg152
(lp1250
(idelphi
DelphiArrayEndAccess
p1251
(dp1252
g183
(lp1253
(i__main__
DelphiIdentAccess
p1254
(dp1255
g150
S'i'
sg152
(lp1256
sbasbasbasbasbsg154
(i__main__
DelphiIdentAccess
p1257
(dp1258
g150
S'rule'
p1259
sg152
(lp1260
sbsba(i__main__
DelphiAssignStatement
p1261
(dp1262
g147
(i__main__
DelphiIdentAccess
p1263
(dp1264
g150
S'true'
p1265
sg152
(lp1266
sbsg154
(i__main__
DelphiIdentAccess
p1267
(dp1268
g150
S'rule'
p1269
sg152
(lp1270
(idelphi
DelphiFieldEndAccess
p1271
(dp1272
g161
S'selected'
p1273
sbasbsba(i__main__
DelphiAssignStatement
p1274
(dp1275
g147
Nsg154
(i__main__
DelphiIdentAccess
p1276
(dp1277
g150
S'domain'
p1278
sg152
(lp1279
(idelphi
DelphiFieldEndAccess
p1280
(dp1281
g161
S'world'
p1282
sba(idelphi
DelphiFieldEndAccess
p1283
(dp1284
g161
S'rules'
p1285
sba(idelphi
DelphiFieldEndAccess
p1286
(dp1287
g161
S'add'
p1288
sba(idelphi
DelphiFunctionEndAccess
p1289
(dp1290
g183
(lp1291
(i__main__
DelphiIdentAccess
p1292
(dp1293
g150
S'rule'
p1294
sg152
(lp1295
sbasbasbsba(i__main__
DelphiAssignStatement
p1296
(dp1297
g147
Nsg154
(i__main__
DelphiIdentAccess
p1298
(dp1299
g150
S'rule'
p1300
sg152
(lp1301
(idelphi
DelphiFieldEndAccess
p1302
(dp1303
g161
S'addUseages'
p1304
sbasbsbasbsba(i__main__
DelphiAssignStatement
p1305
(dp1306
g147
Nsg154
(idelphi
DelphiInheritedCall
p1307
(dp1308
g150
S'doCommand'
p1309
sg183
Nsbsba(i__main__
DelphiAssignStatement
p1310
(dp1311
g147
Nsg154
(i__main__
DelphiIdentAccess
p1312
(dp1313
g150
S'RuleEditorForm'
p1314
sg152
(lp1315
(idelphi
DelphiFieldEndAccess
p1316
(dp1317
g161
S'updateForRuleChange'
p1318
sbasbsba(i__main__
DelphiAssignStatement
p1319
(dp1320
g147
Nsg154
(i__main__
DelphiIdentAccess
p1321
(dp1322
g150
S'RuleEditorForm'
p1323
sg152
(lp1324
(idelphi
DelphiFieldEndAccess
p1325
(dp1326
g161
S'scrollGridSelectionsIntoView'
p1327
sba(idelphi
DelphiFunctionEndAccess
p1328
(dp1329
g183
(lp1330
(i__main__
DelphiIdentAccess
p1331
(dp1332
g150
S'kFromBottom'
p1333
sg152
(lp1334
sbasbasbsbasg304
(lp1335
S'if rules.count > 0 then\r'
p1336
aS'  RuleEditorForm.editRule(rules[rules.count - 1]);\r'
p1337
asbsg378
(lp1338
(i__main__
DelphiVarSection
p1339
(dp1340
S'atTopLevel'
p1341
I0
sS'varDeclList'
p1342
(lp1343
(idelphi
DelphiVarDecl
p1344
(dp1345
S'constExpression'
p1346
NsS'identList'
p1347
(lp1348
S'i'
asg53
(i__main__
DelphiPrimitiveType
p1349
(dp1350
g39
g66
sbsba(idelphi
DelphiVarDecl
p1351
(dp1352
g1346
Nsg1347
(lp1353
S'rule'
p1354
asg53
(i__main__
DelphiNamedType
p1355
(dp1356
g39
S'TSRule'
p1357
sg57
g1
sg58
NsbsbasbasbsbsS'destroy'
p1358
(i__main__
DelphiMethodImplementation
p1359
(dp1360
g123
g891
sg17
g893
sg25
(lp1361
sg125
(lp1362
sg127
(lp1363
sg129
(lp1364
g131
asg132
(dp1365
sg27
S'TSNewRulesCommand'
p1366
sg28
Nsg135
(lp1367
sg29
I0
sg30
g895
sg137
(i__main__
DelphiBlock
p1368
(dp1369
g140
(idelphi
DelphiCompoundStatement
p1370
(dp1371
g143
(lp1372
(idelphi
DelphiIfStatement
p1373
(dp1374
g174
(idelphi
DelphiNot
p1375
(dp1376
S'factor'
p1377
(i__main__
DelphiIdentAccess
p1378
(dp1379
g150
S'self'
p1380
sg152
(lp1381
(idelphi
DelphiFieldEndAccess
p1382
(dp1383
g161
S'done'
p1384
sbasbsbsg213
Nsg214
(idelphi
DelphiIfStatement
p1385
(dp1386
g174
(idelphi
DelphiRelOp
p1387
(dp1388
g187
(i__main__
DelphiIdentAccess
p1389
(dp1390
g150
S'rules'
p1391
sg152
(lp1392
sbsg192
(idelphi
DelphiNilValue
p1393
(dp1394
bsg197
g638
sbsg213
Nsg214
(idelphi
DelphiForStatement
p1395
(dp1396
g1217
S'i'
sg1218
(idelphi
DelphiAddOp
p1397
(dp1398
g177
S'-'
sg179
(idelphi
DelphiIntegerValue
p1399
(dp1400
g40
S'1'
sbsg198
(i__main__
DelphiIdentAccess
p1401
(dp1402
g150
S'rules'
p1403
sg152
(lp1404
(idelphi
DelphiFieldEndAccess
p1405
(dp1406
g161
S'count'
p1407
sbasbsbsg1230
g1231
sg49
(idelphi
DelphiIntegerValue
p1408
(dp1409
g40
S'0'
sbsg1234
(i__main__
DelphiAssignStatement
p1410
(dp1411
g147
Nsg154
(i__main__
DelphiIdentAccess
p1412
(dp1413
g150
S'TObject'
p1414
sg152
(lp1415
(idelphi
DelphiFunctionEndAccess
p1416
(dp1417
g183
(lp1418
(i__main__
DelphiIdentAccess
p1419
(dp1420
g150
S'rules'
p1421
sg152
(lp1422
(idelphi
DelphiArrayEndAccess
p1423
(dp1424
g183
(lp1425
(i__main__
DelphiIdentAccess
p1426
(dp1427
g150
S'i'
sg152
(lp1428
sbasbasbasba(idelphi
DelphiFieldEndAccess
p1429
(dp1430
g161
S'free'
p1431
sbasbsbsbsbsba(i__main__
DelphiAssignStatement
p1432
(dp1433
g147
Nsg154
(i__main__
DelphiIdentAccess
p1434
(dp1435
g150
S'rules'
p1436
sg152
(lp1437
(idelphi
DelphiFieldEndAccess
p1438
(dp1439
g161
S'free'
p1440
sbasbsba(i__main__
DelphiAssignStatement
p1441
(dp1442
g147
(idelphi
DelphiNilValue
p1443
(dp1444
bsg154
(i__main__
DelphiIdentAccess
p1445
(dp1446
g150
S'rules'
p1447
sg152
(lp1448
sbsbasbsg378
(lp1449
(i__main__
DelphiVarSection
p1450
(dp1451
g1341
I0
sg1342
(lp1452
(idelphi
DelphiVarDecl
p1453
(dp1454
g1346
Nsg1347
(lp1455
S'i'
asg53
(i__main__
DelphiPrimitiveType
p1456
(dp1457
g39
g66
sbsbasbasbsbsS'undocommand'
p1458
(i__main__
DelphiMethodImplementation
p1459
(dp1460
g123
g897
sg17
g899
sg25
(lp1461
sg125
(lp1462
sg127
(lp1463
sg129
(lp1464
g131
asg132
(dp1465
sg27
S'TSNewRulesCommand'
p1466
sg28
Nsg135
(lp1467
sg29
I0
sg30
g31
sg137
(i__main__
DelphiBlock
p1468
(dp1469
g140
(idelphi
DelphiCompoundStatement
p1470
(dp1471
g143
(lp1472
(idelphi
DelphiForStatement
p1473
(dp1474
g1217
S'i'
sg1218
(idelphi
DelphiAddOp
p1475
(dp1476
g177
S'-'
sg179
(idelphi
DelphiIntegerValue
p1477
(dp1478
g40
S'1'
sbsg198
(i__main__
DelphiIdentAccess
p1479
(dp1480
g150
S'rules'
p1481
sg152
(lp1482
(idelphi
DelphiFieldEndAccess
p1483
(dp1484
g161
S'count'
p1485
sbasbsbsg1230
g1231
sg49
(idelphi
DelphiIntegerValue
p1486
(dp1487
g40
S'0'
sbsg1234
(idelphi
DelphiCompoundStatement
p1488
(dp1489
g143
(lp1490
(i__main__
DelphiAssignStatement
p1491
(dp1492
g147
(i__main__
DelphiIdentAccess
p1493
(dp1494
g150
S'TSRule'
p1495
sg152
(lp1496
(idelphi
DelphiFunctionEndAccess
p1497
(dp1498
g183
(lp1499
(i__main__
DelphiIdentAccess
p1500
(dp1501
g150
S'rules'
p1502
sg152
(lp1503
(idelphi
DelphiArrayEndAccess
p1504
(dp1505
g183
(lp1506
(i__main__
DelphiIdentAccess
p1507
(dp1508
g150
S'i'
sg152
(lp1509
sbasbasbasbasbsg154
(i__main__
DelphiIdentAccess
p1510
(dp1511
g150
S'rule'
p1512
sg152
(lp1513
sbsba(i__main__
DelphiAssignStatement
p1514
(dp1515
g147
Nsg154
(i__main__
DelphiIdentAccess
p1516
(dp1517
g150
S'domain'
p1518
sg152
(lp1519
(idelphi
DelphiFieldEndAccess
p1520
(dp1521
g161
S'world'
p1522
sba(idelphi
DelphiFieldEndAccess
p1523
(dp1524
g161
S'rules'
p1525
sba(idelphi
DelphiFieldEndAccess
p1526
(dp1527
g161
S'remove'
p1528
sba(idelphi
DelphiFunctionEndAccess
p1529
(dp1530
g183
(lp1531
(i__main__
DelphiIdentAccess
p1532
(dp1533
g150
S'rule'
p1534
sg152
(lp1535
sbasbasbsba(i__main__
DelphiAssignStatement
p1536
(dp1537
g147
(i__main__
DelphiIdentAccess
p1538
(dp1539
g150
S'false'
p1540
sg152
(lp1541
sbsg154
(i__main__
DelphiIdentAccess
p1542
(dp1543
g150
S'rule'
p1544
sg152
(lp1545
(idelphi
DelphiFieldEndAccess
p1546
(dp1547
g161
S'selected'
p1548
sbasbsba(i__main__
DelphiAssignStatement
p1549
(dp1550
g147
Nsg154
(i__main__
DelphiIdentAccess
p1551
(dp1552
g150
S'rule'
p1553
sg152
(lp1554
(idelphi
DelphiFieldEndAccess
p1555
(dp1556
g161
S'removeUseages'
p1557
sbasbsbasbsba(i__main__
DelphiAssignStatement
p1558
(dp1559
g147
Nsg154
(idelphi
DelphiInheritedCall
p1560
(dp1561
g150
S'undoCommand'
p1562
sg183
Nsbsba(idelphi
DelphiIfStatement
p1563
(dp1564
g174
(idelphi
DelphiRelOp
p1565
(dp1566
g187
(i__main__
DelphiIdentAccess
p1567
(dp1568
g150
S'rules'
p1569
sg152
(lp1570
(idelphi
DelphiFieldEndAccess
p1571
(dp1572
g161
S'IndexOf'
p1573
sba(idelphi
DelphiFunctionEndAccess
p1574
(dp1575
g183
(lp1576
(i__main__
DelphiIdentAccess
p1577
(dp1578
g150
S'RuleEditorForm'
p1579
sg152
(lp1580
(idelphi
DelphiFieldEndAccess
p1581
(dp1582
g161
S'rule'
p1583
sbasbasbasbsg192
(idelphi
DelphiIntegerValue
p1584
(dp1585
g40
S'0'
sbsg197
S'>='
p1586
sbsg213
Nsg214
(i__main__
DelphiAssignStatement
p1587
(dp1588
g147
Nsg154
(i__main__
DelphiIdentAccess
p1589
(dp1590
g150
S'RuleEditorForm'
p1591
sg152
(lp1592
(idelphi
DelphiFieldEndAccess
p1593
(dp1594
g161
S'editRule'
p1595
sba(idelphi
DelphiFunctionEndAccess
p1596
(dp1597
g183
(lp1598
(idelphi
DelphiNilValue
p1599
(dp1600
basbasbsbsba(i__main__
DelphiAssignStatement
p1601
(dp1602
g147
Nsg154
(i__main__
DelphiIdentAccess
p1603
(dp1604
g150
S'RuleEditorForm'
p1605
sg152
(lp1606
(idelphi
DelphiFieldEndAccess
p1607
(dp1608
g161
S'updateForRuleChange'
p1609
sbasbsbasbsg378
(lp1610
(i__main__
DelphiVarSection
p1611
(dp1612
g1341
I0
sg1342
(lp1613
(idelphi
DelphiVarDecl
p1614
(dp1615
g1346
Nsg1347
(lp1616
S'i'
asg53
(i__main__
DelphiPrimitiveType
p1617
(dp1618
g39
g66
sbsba(idelphi
DelphiVarDecl
p1619
(dp1620
g1346
Nsg1347
(lp1621
S'rule'
p1622
asg53
(i__main__
DelphiNamedType
p1623
(dp1624
g39
S'TSRule'
p1625
sg57
g1
sg58
Nsbsbasbasbsbssg826
(dp1626
sg828
(lp1627
g851
ag853
asba(i__main__
DelphiClass
p1628
(dp1629
g7
(dp1630
S'rulewrappers'
p1631
S'ruleWrappers'
p1632
ssg17
S'TSDeleteRulesCommand'
p1633
sg19
(dp1634
S'description'
p1635
(i__main__
DelphiMethodDeclaration
p1636
(dp1637
g17
S'description'
p1638
sg25
(lp1639
sg27
g1633
sg28
(i__main__
DelphiPrimitiveType
p1640
(dp1641
g39
g40
sbsg29
I0
sg30
g41
sbsS'addrule'
p1642
(i__main__
DelphiMethodDeclaration
p1643
(dp1644
g17
S'addRule'
p1645
sg25
(lp1646
(i__main__
DelphiFormalParameter
p1647
(dp1648
g49
Nsg50
(lp1649
S'rule'
p1650
asg53
(i__main__
DelphiNamedType
p1651
(dp1652
g39
S'TSRule'
p1653
sg57
g1
sg58
Nsbsg59
Nsba(i__main__
DelphiFormalParameter
p1654
(dp1655
g49
Nsg50
(lp1656
S'newIndex'
p1657
asg53
(i__main__
DelphiPrimitiveType
p1658
(dp1659
g39
g66
sbsg59
Nsbasg27
g1633
sg28
Nsg29
I0
sg30
g31
sbsS'create'
p1660
(i__main__
DelphiMethodDeclaration
p1661
(dp1662
g17
S'create'
p1663
sg25
(lp1664
sg27
g1633
sg28
Nsg29
I0
sg30
g74
sbsS'docommand'
p1665
(i__main__
DelphiMethodDeclaration
p1666
(dp1667
g17
S'doCommand'
p1668
sg25
(lp1669
sg27
g1633
sg28
Nsg29
I0
sg30
g31
sbsS'redocommand'
p1670
(i__main__
DelphiMethodDeclaration
p1671
(dp1672
g17
S'redoCommand'
p1673
sg25
(lp1674
sg27
g1633
sg28
Nsg29
I0
sg30
g31
sbsS'destroy'
p1675
(i__main__
DelphiMethodDeclaration
p1676
(dp1677
g17
S'destroy'
p1678
sg25
(lp1679
sg27
g1633
sg28
Nsg29
I0
sg30
g895
sbsS'undocommand'
p1680
(i__main__
DelphiMethodDeclaration
p1681
(dp1682
g17
S'undoCommand'
p1683
sg25
(lp1684
sg27
g1633
sg28
Nsg29
I0
sg30
g31
sbssg90
(lp1685
(i__main__
DelphiNamedType
p1686
(dp1687
g39
S'KfCommand'
p1688
sg57
g1
sg58
Nsbasg95
(dp1689
S'rulewrappers'
p1690
(i__main__
DelphiNamedType
p1691
(dp1692
g39
S'TList'
p1693
sg57
g1
sg58
Nsbssg110
(lp1694
S'create'
p1695
aS'destroy'
p1696
aS'addrule'
p1697
aS'docommand'
p1698
aS'undocommand'
p1699
aS'redocommand'
p1700
aS'description'
p1701
asg118
(dp1702
S'description'
p1703
(i__main__
DelphiMethodImplementation
p1704
(dp1705
g123
g1636
sg17
g1638
sg25
(lp1706
sg125
(lp1707
sg127
(lp1708
sg129
(lp1709
g131
asg132
(dp1710
sg27
S'TSDeleteRulesCommand'
p1711
sg28
(i__main__
DelphiPrimitiveType
p1712
(dp1713
g39
g40
sbsg135
(lp1714
sg29
I0
sg30
g41
sg137
(i__main__
DelphiBlock
p1715
(dp1716
g140
(idelphi
DelphiCompoundStatement
p1717
(dp1718
g143
(lp1719
(idelphi
DelphiIfStatement
p1720
(dp1721
g174
(idelphi
DelphiRelOp
p1722
(dp1723
g187
(i__main__
DelphiIdentAccess
p1724
(dp1725
g150
S'ruleWrappers'
p1726
sg152
(lp1727
(idelphi
DelphiFieldEndAccess
p1728
(dp1729
g161
S'count'
p1730
sbasbsg192
(idelphi
DelphiIntegerValue
p1731
(dp1732
g40
S'1'
sbsg197
S'>'
sbsg213
(idelphi
DelphiIfStatement
p1733
(dp1734
g174
(idelphi
DelphiRelOp
p1735
(dp1736
g187
(i__main__
DelphiIdentAccess
p1737
(dp1738
g150
S'ruleWrappers'
p1739
sg152
(lp1740
(idelphi
DelphiFieldEndAccess
p1741
(dp1742
g161
S'count'
p1743
sbasbsg192
(idelphi
DelphiIntegerValue
p1744
(dp1745
g40
S'1'
sbsg197
S'='
sbsg213
(i__main__
DelphiAssignStatement
p1746
(dp1747
g147
(idelphi
DelphiStringAccess
p1748
(dp1749
g152
(lp1750
sg40
(idelphi
DelphiStringValue
p1751
(dp1752
g40
S'delete rule'
p1753
sbsbsg154
(i__main__
DelphiIdentAccess
p1754
(dp1755
g150
S'result'
p1756
sg152
(lp1757
sbsbsg214
(i__main__
DelphiAssignStatement
p1758
(dp1759
g147
(idelphi
DelphiStringAccess
p1760
(dp1761
g152
(lp1762
sg40
(idelphi
DelphiStringValue
p1763
(dp1764
g40
S'delete rule'
p1765
sbsbsg154
(i__main__
DelphiIdentAccess
p1766
(dp1767
g150
S'result'
p1768
sg152
(lp1769
sbsbsbsg214
(i__main__
DelphiAssignStatement
p1770
(dp1771
g147
(idelphi
DelphiStringAccess
p1772
(dp1773
g152
(lp1774
sg40
(idelphi
DelphiStringValue
p1775
(dp1776
g40
S'delete rules'
p1777
sbsbsg154
(i__main__
DelphiIdentAccess
p1778
(dp1779
g150
S'result'
p1780
sg152
(lp1781
sbsbsbasbsg378
(lp1782
sbsbsS'addrule'
p1783
(i__main__
DelphiMethodImplementation
p1784
(dp1785
g123
g1643
sg17
g1645
sg25
(lp1786
(i__main__
DelphiFormalParameter
p1787
(dp1788
g49
Nsg50
(lp1789
S'rule'
p1790
asg53
(i__main__
DelphiNamedType
p1791
(dp1792
g39
S'TSRule'
p1793
sg57
g1
sg58
Nsbsg59
Nsba(i__main__
DelphiFormalParameter
p1794
(dp1795
g49
Nsg50
(lp1796
S'newIndex'
p1797
asg53
(i__main__
DelphiPrimitiveType
p1798
(dp1799
g39
g66
sbsg59
Nsbasg125
(lp1800
sg127
(lp1801
sg129
(lp1802
g131
ag1790
ag1797
asg132
(dp1803
g1797
g1798
sg1790
g1791
ssg27
S'TSDeleteRulesCommand'
p1804
sg28
Nsg135
(lp1805
sg29
I0
sg30
g31
sg137
(i__main__
DelphiBlock
p1806
(dp1807
g140
(idelphi
DelphiCompoundStatement
p1808
(dp1809
g143
(lp1810
(i__main__
DelphiAssignStatement
p1811
(dp1812
g147
(i__main__
DelphiIdentAccess
p1813
(dp1814
g150
S'TSIndexChangeRuleWrapper'
p1815
sg152
(lp1816
(idelphi
DelphiFieldEndAccess
p1817
(dp1818
g161
S'createWithRuleNewIndex'
p1819
sba(idelphi
DelphiFunctionEndAccess
p1820
(dp1821
g183
(lp1822
(i__main__
DelphiIdentAccess
p1823
(dp1824
g150
S'rule'
p1825
sg152
(lp1826
sba(i__main__
DelphiIdentAccess
p1827
(dp1828
g150
S'newIndex'
p1829
sg152
(lp1830
sbasbasbsg154
(i__main__
DelphiIdentAccess
p1831
(dp1832
g150
S'wrapper'
p1833
sg152
(lp1834
sbsba(i__main__
DelphiAssignStatement
p1835
(dp1836
g147
Nsg154
(i__main__
DelphiIdentAccess
p1837
(dp1838
g150
S'ruleWrappers'
p1839
sg152
(lp1840
(idelphi
DelphiFieldEndAccess
p1841
(dp1842
g161
S'add'
p1843
sba(idelphi
DelphiFunctionEndAccess
p1844
(dp1845
g183
(lp1846
(i__main__
DelphiIdentAccess
p1847
(dp1848
g150
S'wrapper'
p1849
sg152
(lp1850
sbasbasbsbasbsg378
(lp1851
(i__main__
DelphiVarSection
p1852
(dp1853
g1341
I0
sg1342
(lp1854
(idelphi
DelphiVarDecl
p1855
(dp1856
g1346
Nsg1347
(lp1857
S'wrapper'
p1858
asg53
(i__main__
DelphiNamedType
p1859
(dp1860
g39
S'TSIndexChangeRuleWrapper'
p1861
sg57
g1
sg58
NsbsbasbasbsbsS'create'
p1862
(i__main__
DelphiMethodImplementation
p1863
(dp1864
g123
g1661
sg17
g1663
sg25
(lp1865
sg125
(lp1866
sg127
(lp1867
sg129
(lp1868
g131
asg132
(dp1869
sg27
S'TSDeleteRulesCommand'
p1870
sg28
Nsg135
(lp1871
sg29
I0
sg30
g74
sg137
(i__main__
DelphiBlock
p1872
(dp1873
g140
(idelphi
DelphiCompoundStatement
p1874
(dp1875
g143
(lp1876
(i__main__
DelphiAssignStatement
p1877
(dp1878
g147
(i__main__
DelphiIdentAccess
p1879
(dp1880
g150
S'TList'
p1881
sg152
(lp1882
(idelphi
DelphiFieldEndAccess
p1883
(dp1884
g161
S'create'
p1885
sbasbsg154
(i__main__
DelphiIdentAccess
p1886
(dp1887
g150
S'ruleWrappers'
p1888
sg152
(lp1889
sbsbasbsg378
(lp1890
sbsg304
(lp1891
S' TSDeleteRulesCommand ------------------------------------------'
p1892
asbsS'docommand'
p1893
(i__main__
DelphiMethodImplementation
p1894
(dp1895
g123
g1666
sg17
g1668
sg25
(lp1896
sg125
(lp1897
sg127
(lp1898
sg129
(lp1899
g131
asg132
(dp1900
sg27
S'TSDeleteRulesCommand'
p1901
sg28
Nsg135
(lp1902
sg29
I0
sg30
g31
sg137
(i__main__
DelphiBlock
p1903
(dp1904
g140
(idelphi
DelphiCompoundStatement
p1905
(dp1906
g143
(lp1907
(idelphi
DelphiForStatement
p1908
(dp1909
g1217
S'i'
sg1218
(idelphi
DelphiIntegerValue
p1910
(dp1911
g40
S'0'
sbsg1230
S'downto'
p1912
sg49
(idelphi
DelphiAddOp
p1913
(dp1914
g177
S'-'
sg179
(idelphi
DelphiIntegerValue
p1915
(dp1916
g40
S'1'
sbsg198
(i__main__
DelphiIdentAccess
p1917
(dp1918
g150
S'ruleWrappers'
p1919
sg152
(lp1920
(idelphi
DelphiFieldEndAccess
p1921
(dp1922
g161
S'count'
p1923
sbasbsbsg1234
(idelphi
DelphiCompoundStatement
p1924
(dp1925
g143
(lp1926
(i__main__
DelphiAssignStatement
p1927
(dp1928
g147
(i__main__
DelphiIdentAccess
p1929
(dp1930
g150
S'TSIndexChangeRuleWrapper'
p1931
sg152
(lp1932
(idelphi
DelphiFunctionEndAccess
p1933
(dp1934
g183
(lp1935
(i__main__
DelphiIdentAccess
p1936
(dp1937
g150
S'ruleWrappers'
p1938
sg152
(lp1939
(idelphi
DelphiArrayEndAccess
p1940
(dp1941
g183
(lp1942
(i__main__
DelphiIdentAccess
p1943
(dp1944
g150
S'i'
sg152
(lp1945
sbasbasbasbasbsg154
(i__main__
DelphiIdentAccess
p1946
(dp1947
g150
S'wrapper'
p1948
sg152
(lp1949
sbsba(idelphi
DelphiIfStatement
p1950
(dp1951
g174
(idelphi
DelphiNestedExpressionListAccess
p1952
(dp1953
g152
(lp1954
sg183
(lp1955
(idelphi
DelphiRelOp
p1956
(dp1957
g187
(i__main__
DelphiIdentAccess
p1958
(dp1959
g150
S'wrapper'
p1960
sg152
(lp1961
(idelphi
DelphiFieldEndAccess
p1962
(dp1963
g161
S'rule'
p1964
sbasbsg192
(i__main__
DelphiIdentAccess
p1965
(dp1966
g150
S'RuleEditorForm'
p1967
sg152
(lp1968
(idelphi
DelphiFieldEndAccess
p1969
(dp1970
g161
S'rule'
p1971
sbasbsg197
S'='
sbasbsg213
Nsg214
(i__main__
DelphiAssignStatement
p1972
(dp1973
g147
Nsg154
(i__main__
DelphiIdentAccess
p1974
(dp1975
g150
S'RuleEditorForm'
p1976
sg152
(lp1977
(idelphi
DelphiFieldEndAccess
p1978
(dp1979
g161
S'editRule'
p1980
sba(idelphi
DelphiFunctionEndAccess
p1981
(dp1982
g183
(lp1983
(idelphi
DelphiNilValue
p1984
(dp1985
basbasbsbsba(i__main__
DelphiAssignStatement
p1986
(dp1987
g147
Nsg154
(i__main__
DelphiIdentAccess
p1988
(dp1989
g150
S'wrapper'
p1990
sg152
(lp1991
(idelphi
DelphiFieldEndAccess
p1992
(dp1993
g161
S'rule'
p1994
sba(idelphi
DelphiFieldEndAccess
p1995
(dp1996
g161
S'removeUseages'
p1997
sbasbsba(i__main__
DelphiAssignStatement
p1998
(dp1999
g147
Nsg154
(i__main__
DelphiIdentAccess
p2000
(dp2001
g150
S'wrapper'
p2002
sg152
(lp2003
(idelphi
DelphiFieldEndAccess
p2004
(dp2005
g161
S'doChange'
p2006
sbasbsbasbsba(i__main__
DelphiAssignStatement
p2007
(dp2008
g147
Nsg154
(idelphi
DelphiInheritedCall
p2009
(dp2010
g150
S'doCommand'
p2011
sg183
Nsbsba(i__main__
DelphiAssignStatement
p2012
(dp2013
g147
Nsg154
(i__main__
DelphiIdentAccess
p2014
(dp2015
g150
S'RuleEditorForm'
p2016
sg152
(lp2017
(idelphi
DelphiFieldEndAccess
p2018
(dp2019
g161
S'updateForRuleChange'
p2020
sbasbsbasbsg378
(lp2021
(i__main__
DelphiVarSection
p2022
(dp2023
g1341
I0
sg1342
(lp2024
(idelphi
DelphiVarDecl
p2025
(dp2026
g1346
Nsg1347
(lp2027
S'i'
asg53
(i__main__
DelphiPrimitiveType
p2028
(dp2029
g39
g66
sbsba(idelphi
DelphiVarDecl
p2030
(dp2031
g1346
Nsg1347
(lp2032
S'wrapper'
p2033
asg53
(i__main__
DelphiNamedType
p2034
(dp2035
g39
S'TSIndexChangeRuleWrapper'
p2036
sg57
g1
sg58
NsbsbasbasbsbsS'redocommand'
p2037
(i__main__
DelphiMethodImplementation
p2038
(dp2039
g123
g1671
sg17
g1673
sg25
(lp2040
sg125
(lp2041
sg127
(lp2042
sg129
(lp2043
g131
asg132
(dp2044
sg27
S'TSDeleteRulesCommand'
p2045
sg28
Nsg135
(lp2046
sg29
I0
sg30
g31
sg137
(i__main__
DelphiBlock
p2047
(dp2048
g140
(idelphi
DelphiCompoundStatement
p2049
(dp2050
g143
(lp2051
(i__main__
DelphiAssignStatement
p2052
(dp2053
g147
Nsg154
(i__main__
DelphiIdentAccess
p2054
(dp2055
g150
S'domain'
p2056
sg152
(lp2057
(idelphi
DelphiFieldEndAccess
p2058
(dp2059
g161
S'world'
p2060
sba(idelphi
DelphiFieldEndAccess
p2061
(dp2062
g161
S'deselectAllExcept'
p2063
sba(idelphi
DelphiFunctionEndAccess
p2064
(dp2065
g183
(lp2066
(idelphi
DelphiNilValue
p2067
(dp2068
basbasbsba(idelphi
DelphiForStatement
p2069
(dp2070
g1217
S'i'
sg1218
(idelphi
DelphiIntegerValue
p2071
(dp2072
g40
S'0'
sbsg1230
g1912
sg49
(idelphi
DelphiAddOp
p2073
(dp2074
g177
S'-'
sg179
(idelphi
DelphiIntegerValue
p2075
(dp2076
g40
S'1'
sbsg198
(i__main__
DelphiIdentAccess
p2077
(dp2078
g150
S'ruleWrappers'
p2079
sg152
(lp2080
(idelphi
DelphiFieldEndAccess
p2081
(dp2082
g161
S'count'
p2083
sbasbsbsg1234
(idelphi
DelphiCompoundStatement
p2084
(dp2085
g143
(lp2086
(i__main__
DelphiAssignStatement
p2087
(dp2088
g147
(i__main__
DelphiIdentAccess
p2089
(dp2090
g150
S'TSIndexChangeRuleWrapper'
p2091
sg152
(lp2092
(idelphi
DelphiFunctionEndAccess
p2093
(dp2094
g183
(lp2095
(i__main__
DelphiIdentAccess
p2096
(dp2097
g150
S'ruleWrappers'
p2098
sg152
(lp2099
(idelphi
DelphiArrayEndAccess
p2100
(dp2101
g183
(lp2102
(i__main__
DelphiIdentAccess
p2103
(dp2104
g150
S'i'
sg152
(lp2105
sbasbasbasbasbsg154
(i__main__
DelphiIdentAccess
p2106
(dp2107
g150
S'wrapper'
p2108
sg152
(lp2109
sbsba(idelphi
DelphiIfStatement
p2110
(dp2111
g174
(idelphi
DelphiNestedExpressionListAccess
p2112
(dp2113
g152
(lp2114
sg183
(lp2115
(idelphi
DelphiRelOp
p2116
(dp2117
g187
(i__main__
DelphiIdentAccess
p2118
(dp2119
g150
S'wrapper'
p2120
sg152
(lp2121
(idelphi
DelphiFieldEndAccess
p2122
(dp2123
g161
S'rule'
p2124
sbasbsg192
(i__main__
DelphiIdentAccess
p2125
(dp2126
g150
S'RuleEditorForm'
p2127
sg152
(lp2128
(idelphi
DelphiFieldEndAccess
p2129
(dp2130
g161
S'rule'
p2131
sbasbsg197
S'='
sbasbsg213
Nsg214
(i__main__
DelphiAssignStatement
p2132
(dp2133
g147
Nsg154
(i__main__
DelphiIdentAccess
p2134
(dp2135
g150
S'RuleEditorForm'
p2136
sg152
(lp2137
(idelphi
DelphiFieldEndAccess
p2138
(dp2139
g161
S'editRule'
p2140
sba(idelphi
DelphiFunctionEndAccess
p2141
(dp2142
g183
(lp2143
(idelphi
DelphiNilValue
p2144
(dp2145
basbasbsbsba(i__main__
DelphiAssignStatement
p2146
(dp2147
g147
Nsg154
(i__main__
DelphiIdentAccess
p2148
(dp2149
g150
S'wrapper'
p2150
sg152
(lp2151
(idelphi
DelphiFieldEndAccess
p2152
(dp2153
g161
S'rule'
p2154
sba(idelphi
DelphiFieldEndAccess
p2155
(dp2156
g161
S'removeUseages'
p2157
sbasbsba(i__main__
DelphiAssignStatement
p2158
(dp2159
g147
Nsg154
(i__main__
DelphiIdentAccess
p2160
(dp2161
g150
S'wrapper'
p2162
sg152
(lp2163
(idelphi
DelphiFieldEndAccess
p2164
(dp2165
g161
S'doChange'
p2166
sbasbsbasbsba(i__main__
DelphiAssignStatement
p2167
(dp2168
g147
Nsg154
(idelphi
DelphiInheritedCall
p2169
(dp2170
g150
S'doCommand'
p2171
sg183
Nsbsba(i__main__
DelphiAssignStatement
p2172
(dp2173
g147
Nsg154
(i__main__
DelphiIdentAccess
p2174
(dp2175
g150
S'RuleEditorForm'
p2176
sg152
(lp2177
(idelphi
DelphiFieldEndAccess
p2178
(dp2179
g161
S'updateForRuleChange'
p2180
sbasbsbasbsg378
(lp2181
(i__main__
DelphiVarSection
p2182
(dp2183
g1341
I0
sg1342
(lp2184
(idelphi
DelphiVarDecl
p2185
(dp2186
g1346
Nsg1347
(lp2187
S'i'
asg53
(i__main__
DelphiPrimitiveType
p2188
(dp2189
g39
g66
sbsba(idelphi
DelphiVarDecl
p2190
(dp2191
g1346
Nsg1347
(lp2192
S'wrapper'
p2193
asg53
(i__main__
DelphiNamedType
p2194
(dp2195
g39
S'TSIndexChangeRuleWrapper'
p2196
sg57
g1
sg58
NsbsbasbasbsbsS'destroy'
p2197
(i__main__
DelphiMethodImplementation
p2198
(dp2199
g123
g1676
sg17
g1678
sg25
(lp2200
sg125
(lp2201
sg127
(lp2202
sg129
(lp2203
g131
asg132
(dp2204
sg27
S'TSDeleteRulesCommand'
p2205
sg28
Nsg135
(lp2206
sg29
I0
sg30
g895
sg137
(i__main__
DelphiBlock
p2207
(dp2208
g140
(idelphi
DelphiCompoundStatement
p2209
(dp2210
g143
(lp2211
(idelphi
DelphiIfStatement
p2212
(dp2213
g174
(idelphi
DelphiRelOp
p2214
(dp2215
g187
(i__main__
DelphiIdentAccess
p2216
(dp2217
g150
S'ruleWrappers'
p2218
sg152
(lp2219
sbsg192
(idelphi
DelphiNilValue
p2220
(dp2221
bsg197
g638
sbsg213
Nsg214
(idelphi
DelphiForStatement
p2222
(dp2223
g1217
S'i'
sg1218
(idelphi
DelphiAddOp
p2224
(dp2225
g177
S'-'
sg179
(idelphi
DelphiIntegerValue
p2226
(dp2227
g40
S'1'
sbsg198
(i__main__
DelphiIdentAccess
p2228
(dp2229
g150
S'ruleWrappers'
p2230
sg152
(lp2231
(idelphi
DelphiFieldEndAccess
p2232
(dp2233
g161
S'count'
p2234
sbasbsbsg1230
g1231
sg49
(idelphi
DelphiIntegerValue
p2235
(dp2236
g40
S'0'
sbsg1234
(idelphi
DelphiCompoundStatement
p2237
(dp2238
g143
(lp2239
(i__main__
DelphiAssignStatement
p2240
(dp2241
g147
(i__main__
DelphiIdentAccess
p2242
(dp2243
g150
S'TSIndexChangeRuleWrapper'
p2244
sg152
(lp2245
(idelphi
DelphiFunctionEndAccess
p2246
(dp2247
g183
(lp2248
(i__main__
DelphiIdentAccess
p2249
(dp2250
g150
S'ruleWrappers'
p2251
sg152
(lp2252
(idelphi
DelphiArrayEndAccess
p2253
(dp2254
g183
(lp2255
(i__main__
DelphiIdentAccess
p2256
(dp2257
g150
S'i'
sg152
(lp2258
sbasbasbasbasbsg154
(i__main__
DelphiIdentAccess
p2259
(dp2260
g150
S'wrapper'
p2261
sg152
(lp2262
sbsba(i__main__
DelphiAssignStatement
p2263
(dp2264
g147
(i__main__
DelphiIdentAccess
p2265
(dp2266
g150
S'wrapper'
p2267
sg152
(lp2268
(idelphi
DelphiFieldEndAccess
p2269
(dp2270
g161
S'rule'
p2271
sbasbsg154
(i__main__
DelphiIdentAccess
p2272
(dp2273
g150
S'rule'
p2274
sg152
(lp2275
sbsba(idelphi
DelphiIfStatement
p2276
(dp2277
g174
(i__main__
DelphiIdentAccess
p2278
(dp2279
g150
S'self'
p2280
sg152
(lp2281
(idelphi
DelphiFieldEndAccess
p2282
(dp2283
g161
S'done'
p2284
sbasbsg213
Nsg214
(i__main__
DelphiAssignStatement
p2285
(dp2286
g147
Nsg154
(i__main__
DelphiIdentAccess
p2287
(dp2288
g150
S'rule'
p2289
sg152
(lp2290
(idelphi
DelphiFieldEndAccess
p2291
(dp2292
g161
S'free'
p2293
sbasbsbsba(i__main__
DelphiAssignStatement
p2294
(dp2295
g147
Nsg154
(i__main__
DelphiIdentAccess
p2296
(dp2297
g150
S'wrapper'
p2298
sg152
(lp2299
(idelphi
DelphiFieldEndAccess
p2300
(dp2301
g161
S'free'
p2302
sbasbsbasbsbsba(i__main__
DelphiAssignStatement
p2303
(dp2304
g147
Nsg154
(i__main__
DelphiIdentAccess
p2305
(dp2306
g150
S'ruleWrappers'
p2307
sg152
(lp2308
(idelphi
DelphiFieldEndAccess
p2309
(dp2310
g161
S'free'
p2311
sbasbsba(i__main__
DelphiAssignStatement
p2312
(dp2313
g147
(idelphi
DelphiNilValue
p2314
(dp2315
bsg154
(i__main__
DelphiIdentAccess
p2316
(dp2317
g150
S'ruleWrappers'
p2318
sg152
(lp2319
sbsbasbsg378
(lp2320
(i__main__
DelphiVarSection
p2321
(dp2322
g1341
I0
sg1342
(lp2323
(idelphi
DelphiVarDecl
p2324
(dp2325
g1346
Nsg1347
(lp2326
S'i'
asg53
(i__main__
DelphiPrimitiveType
p2327
(dp2328
g39
g66
sbsba(idelphi
DelphiVarDecl
p2329
(dp2330
g1346
Nsg1347
(lp2331
S'rule'
p2332
asg53
(i__main__
DelphiNamedType
p2333
(dp2334
g39
S'TSRule'
p2335
sg57
g1
sg58
Nsbsba(idelphi
DelphiVarDecl
p2336
(dp2337
g1346
Nsg1347
(lp2338
S'wrapper'
p2339
asg53
(i__main__
DelphiNamedType
p2340
(dp2341
g39
S'TSIndexChangeRuleWrapper'
p2342
sg57
g1
sg58
NsbsbasbasbsbsS'undocommand'
p2343
(i__main__
DelphiMethodImplementation
p2344
(dp2345
g123
g1681
sg17
g1683
sg25
(lp2346
sg125
(lp2347
sg127
(lp2348
sg129
(lp2349
g131
asg132
(dp2350
sg27
S'TSDeleteRulesCommand'
p2351
sg28
Nsg135
(lp2352
sg29
I0
sg30
g31
sg137
(i__main__
DelphiBlock
p2353
(dp2354
g140
(idelphi
DelphiCompoundStatement
p2355
(dp2356
g143
(lp2357
(i__main__
DelphiAssignStatement
p2358
(dp2359
g147
Nsg154
(i__main__
DelphiIdentAccess
p2360
(dp2361
g150
S'domain'
p2362
sg152
(lp2363
(idelphi
DelphiFieldEndAccess
p2364
(dp2365
g161
S'world'
p2366
sba(idelphi
DelphiFieldEndAccess
p2367
(dp2368
g161
S'deselectAllExcept'
p2369
sba(idelphi
DelphiFunctionEndAccess
p2370
(dp2371
g183
(lp2372
(idelphi
DelphiNilValue
p2373
(dp2374
basbasbsba(idelphi
DelphiForStatement
p2375
(dp2376
g1217
S'i'
sg1218
(idelphi
DelphiAddOp
p2377
(dp2378
g177
S'-'
sg179
(idelphi
DelphiIntegerValue
p2379
(dp2380
g40
S'1'
sbsg198
(i__main__
DelphiIdentAccess
p2381
(dp2382
g150
S'ruleWrappers'
p2383
sg152
(lp2384
(idelphi
DelphiFieldEndAccess
p2385
(dp2386
g161
S'count'
p2387
sbasbsbsg1230
g1231
sg49
(idelphi
DelphiIntegerValue
p2388
(dp2389
g40
S'0'
sbsg1234
(idelphi
DelphiCompoundStatement
p2390
(dp2391
g143
(lp2392
(i__main__
DelphiAssignStatement
p2393
(dp2394
g147
(i__main__
DelphiIdentAccess
p2395
(dp2396
g150
S'TSIndexChangeRuleWrapper'
p2397
sg152
(lp2398
(idelphi
DelphiFunctionEndAccess
p2399
(dp2400
g183
(lp2401
(i__main__
DelphiIdentAccess
p2402
(dp2403
g150
S'ruleWrappers'
p2404
sg152
(lp2405
(idelphi
DelphiArrayEndAccess
p2406
(dp2407
g183
(lp2408
(i__main__
DelphiIdentAccess
p2409
(dp2410
g150
S'i'
sg152
(lp2411
sbasbasbasbasbsg154
(i__main__
DelphiIdentAccess
p2412
(dp2413
g150
S'wrapper'
p2414
sg152
(lp2415
sbsba(i__main__
DelphiAssignStatement
p2416
(dp2417
g147
Nsg154
(i__main__
DelphiIdentAccess
p2418
(dp2419
g150
S'wrapper'
p2420
sg152
(lp2421
(idelphi
DelphiFieldEndAccess
p2422
(dp2423
g161
S'rule'
p2424
sba(idelphi
DelphiFieldEndAccess
p2425
(dp2426
g161
S'addUseages'
p2427
sbasbsba(i__main__
DelphiAssignStatement
p2428
(dp2429
g147
Nsg154
(i__main__
DelphiIdentAccess
p2430
(dp2431
g150
S'wrapper'
p2432
sg152
(lp2433
(idelphi
DelphiFieldEndAccess
p2434
(dp2435
g161
S'undoChange'
p2436
sbasbsba(i__main__
DelphiAssignStatement
p2437
(dp2438
g147
(i__main__
DelphiIdentAccess
p2439
(dp2440
g150
S'true'
p2441
sg152
(lp2442
sbsg154
(i__main__
DelphiIdentAccess
p2443
(dp2444
g150
S'wrapper'
p2445
sg152
(lp2446
(idelphi
DelphiFieldEndAccess
p2447
(dp2448
g161
S'rule'
p2449
sba(idelphi
DelphiFieldEndAccess
p2450
(dp2451
g161
S'selected'
p2452
sbasbsbasbsba(idelphi
DelphiIfStatement
p2453
(dp2454
g174
(idelphi
DelphiRelOp
p2455
(dp2456
g187
(i__main__
DelphiIdentAccess
p2457
(dp2458
g150
S'ruleWrappers'
p2459
sg152
(lp2460
(idelphi
DelphiFieldEndAccess
p2461
(dp2462
g161
S'count'
p2463
sbasbsg192
(idelphi
DelphiIntegerValue
p2464
(dp2465
g40
S'0'
sbsg197
S'>'
sbsg213
Nsg214
(i__main__
DelphiAssignStatement
p2466
(dp2467
g147
Nsg154
(i__main__
DelphiIdentAccess
p2468
(dp2469
g150
S'RuleEditorForm'
p2470
sg152
(lp2471
(idelphi
DelphiFieldEndAccess
p2472
(dp2473
g161
S'editRule'
p2474
sba(idelphi
DelphiFunctionEndAccess
p2475
(dp2476
g183
(lp2477
(i__main__
DelphiIdentAccess
p2478
(dp2479
g150
S'TSIndexChangeRuleWrapper'
p2480
sg152
(lp2481
(idelphi
DelphiFunctionEndAccess
p2482
(dp2483
g183
(lp2484
(i__main__
DelphiIdentAccess
p2485
(dp2486
g150
S'ruleWrappers'
p2487
sg152
(lp2488
(idelphi
DelphiArrayEndAccess
p2489
(dp2490
g183
(lp2491
(idelphi
DelphiIntegerValue
p2492
(dp2493
g40
S'0'
sbasbasbasba(idelphi
DelphiFieldEndAccess
p2494
(dp2495
g161
S'rule'
p2496
sbasbasbasbsbsba(i__main__
DelphiAssignStatement
p2497
(dp2498
g147
Nsg154
(idelphi
DelphiInheritedCall
p2499
(dp2500
g150
S'undoCommand'
p2501
sg183
Nsbsba(i__main__
DelphiAssignStatement
p2502
(dp2503
g147
Nsg154
(i__main__
DelphiIdentAccess
p2504
(dp2505
g150
S'RuleEditorForm'
p2506
sg152
(lp2507
(idelphi
DelphiFieldEndAccess
p2508
(dp2509
g161
S'updateForRuleChange'
p2510
sbasbsba(i__main__
DelphiAssignStatement
p2511
(dp2512
g147
Nsg154
(i__main__
DelphiIdentAccess
p2513
(dp2514
g150
S'RuleEditorForm'
p2515
sg152
(lp2516
(idelphi
DelphiFieldEndAccess
p2517
(dp2518
g161
S'scrollGridSelectionsIntoView'
p2519
sba(idelphi
DelphiFunctionEndAccess
p2520
(dp2521
g183
(lp2522
(i__main__
DelphiIdentAccess
p2523
(dp2524
g150
S'kFromTop'
p2525
sg152
(lp2526
sbasbasbsbasbsg378
(lp2527
(i__main__
DelphiVarSection
p2528
(dp2529
g1341
I0
sg1342
(lp2530
(idelphi
DelphiVarDecl
p2531
(dp2532
g1346
Nsg1347
(lp2533
S'i'
asg53
(i__main__
DelphiPrimitiveType
p2534
(dp2535
g39
g66
sbsba(idelphi
DelphiVarDecl
p2536
(dp2537
g1346
Nsg1347
(lp2538
S'wrapper'
p2539
asg53
(i__main__
DelphiNamedType
p2540
(dp2541
g39
S'TSIndexChangeRuleWrapper'
p2542
sg57
g1
sg58
Nsbsbasbasbsbssg826
(dp2543
sg828
(lp2544
g1632
asba(i__main__
DelphiClass
p2545
(dp2546
g7
(dp2547
S'action'
p2548
S'action'
p2549
sS'rulewrappers'
p2550
S'ruleWrappers'
p2551
ssg17
S'TSMoveRulesCommand'
p2552
sg19
(dp2553
S'description'
p2554
(i__main__
DelphiMethodDeclaration
p2555
(dp2556
g17
S'description'
p2557
sg25
(lp2558
sg27
g2552
sg28
(i__main__
DelphiPrimitiveType
p2559
(dp2560
g39
g40
sbsg29
I0
sg30
g41
sbsS'addrule'
p2561
(i__main__
DelphiMethodDeclaration
p2562
(dp2563
g17
S'addRule'
p2564
sg25
(lp2565
(i__main__
DelphiFormalParameter
p2566
(dp2567
g49
Nsg50
(lp2568
S'rule'
p2569
asg53
(i__main__
DelphiNamedType
p2570
(dp2571
g39
S'TSRule'
p2572
sg57
g1
sg58
Nsbsg59
Nsba(i__main__
DelphiFormalParameter
p2573
(dp2574
g49
Nsg50
(lp2575
S'newIndex'
p2576
asg53
(i__main__
DelphiPrimitiveType
p2577
(dp2578
g39
g66
sbsg59
Nsbasg27
g2552
sg28
Nsg29
I0
sg30
g31
sbsS'create'
p2579
(i__main__
DelphiMethodDeclaration
p2580
(dp2581
g17
S'create'
p2582
sg25
(lp2583
sg27
g2552
sg28
Nsg29
I0
sg30
g74
sbsS'docommand'
p2584
(i__main__
DelphiMethodDeclaration
p2585
(dp2586
g17
S'doCommand'
p2587
sg25
(lp2588
sg27
g2552
sg28
Nsg29
I0
sg30
g31
sbsS'redocommand'
p2589
(i__main__
DelphiMethodDeclaration
p2590
(dp2591
g17
S'redoCommand'
p2592
sg25
(lp2593
sg27
g2552
sg28
Nsg29
I0
sg30
g31
sbsS'destroy'
p2594
(i__main__
DelphiMethodDeclaration
p2595
(dp2596
g17
S'destroy'
p2597
sg25
(lp2598
sg27
g2552
sg28
Nsg29
I0
sg30
g895
sbsS'undocommand'
p2599
(i__main__
DelphiMethodDeclaration
p2600
(dp2601
g17
S'undoCommand'
p2602
sg25
(lp2603
sg27
g2552
sg28
Nsg29
I0
sg30
g31
sbssg90
(lp2604
(i__main__
DelphiNamedType
p2605
(dp2606
g39
S'KfCommand'
p2607
sg57
g1
sg58
Nsbasg95
(dp2608
S'action'
p2609
(i__main__
DelphiPrimitiveType
p2610
(dp2611
g39
g40
sbsS'rulewrappers'
p2612
(i__main__
DelphiNamedType
p2613
(dp2614
g39
S'TList'
p2615
sg57
g1
sg58
Nsbssg110
(lp2616
S'create'
p2617
aS'destroy'
p2618
aS'addrule'
p2619
aS'docommand'
p2620
aS'undocommand'
p2621
aS'redocommand'
p2622
aS'description'
p2623
asg118
(dp2624
S'description'
p2625
(i__main__
DelphiMethodImplementation
p2626
(dp2627
g123
g2555
sg17
g2557
sg25
(lp2628
sg125
(lp2629
sg127
(lp2630
sg129
(lp2631
g131
asg132
(dp2632
sg27
S'TSMoveRulesCommand'
p2633
sg28
(i__main__
DelphiPrimitiveType
p2634
(dp2635
g39
g40
sbsg135
(lp2636
sg29
I0
sg30
g41
sg137
(i__main__
DelphiBlock
p2637
(dp2638
g140
(idelphi
DelphiCompoundStatement
p2639
(dp2640
g143
(lp2641
(idelphi
DelphiIfStatement
p2642
(dp2643
g174
(idelphi
DelphiRelOp
p2644
(dp2645
g187
(i__main__
DelphiIdentAccess
p2646
(dp2647
g150
S'ruleWrappers'
p2648
sg152
(lp2649
(idelphi
DelphiFieldEndAccess
p2650
(dp2651
g161
S'count'
p2652
sbasbsg192
(idelphi
DelphiIntegerValue
p2653
(dp2654
g40
S'1'
sbsg197
S'>'
sbsg213
(idelphi
DelphiIfStatement
p2655
(dp2656
g174
(idelphi
DelphiRelOp
p2657
(dp2658
g187
(i__main__
DelphiIdentAccess
p2659
(dp2660
g150
S'ruleWrappers'
p2661
sg152
(lp2662
(idelphi
DelphiFieldEndAccess
p2663
(dp2664
g161
S'count'
p2665
sbasbsg192
(idelphi
DelphiIntegerValue
p2666
(dp2667
g40
S'1'
sbsg197
S'='
sbsg213
(i__main__
DelphiAssignStatement
p2668
(dp2669
g147
(idelphi
DelphiStringAccess
p2670
(dp2671
g152
(lp2672
sg40
(idelphi
DelphiStringValue
p2673
(dp2674
g40
S'rule'
p2675
sbsbsg154
(i__main__
DelphiIdentAccess
p2676
(dp2677
g150
S'result'
p2678
sg152
(lp2679
sbsbsg214
(i__main__
DelphiAssignStatement
p2680
(dp2681
g147
(idelphi
DelphiStringAccess
p2682
(dp2683
g152
(lp2684
sg40
(idelphi
DelphiStringValue
p2685
(dp2686
g40
S'rule'
p2687
sbsbsg154
(i__main__
DelphiIdentAccess
p2688
(dp2689
g150
S'result'
p2690
sg152
(lp2691
sbsbsbsg214
(i__main__
DelphiAssignStatement
p2692
(dp2693
g147
(idelphi
DelphiStringAccess
p2694
(dp2695
g152
(lp2696
sg40
(idelphi
DelphiStringValue
p2697
(dp2698
g40
S'rules'
p2699
sbsbsg154
(i__main__
DelphiIdentAccess
p2700
(dp2701
g150
S'result'
p2702
sg152
(lp2703
sbsbsba(idelphi
DelphiIfStatement
p2704
(dp2705
g174
(idelphi
DelphiRelOp
p2706
(dp2707
g187
(i__main__
DelphiIdentAccess
p2708
(dp2709
g150
S'action'
p2710
sg152
(lp2711
sbsg192
(idelphi
DelphiStringAccess
p2712
(dp2713
g152
(lp2714
sg40
(idelphi
DelphiStringValue
p2715
(dp2716
g40
S''
sbsbsg197
g638
sbsg213
(i__main__
DelphiAssignStatement
p2717
(dp2718
g147
(idelphi
DelphiAddOp
p2719
(dp2720
g177
S'+'
sg179
(i__main__
DelphiIdentAccess
p2721
(dp2722
g150
S'result'
p2723
sg152
(lp2724
sbsg198
(idelphi
DelphiStringAccess
p2725
(dp2726
g152
(lp2727
sg40
(idelphi
DelphiStringValue
p2728
(dp2729
g40
S'move '
p2730
sbsbsbsg154
(i__main__
DelphiIdentAccess
p2731
(dp2732
g150
S'result'
p2733
sg152
(lp2734
sbsbsg214
(i__main__
DelphiAssignStatement
p2735
(dp2736
g147
(idelphi
DelphiAddOp
p2737
(dp2738
g177
S'+'
sg179
(i__main__
DelphiIdentAccess
p2739
(dp2740
g150
S'result'
p2741
sg152
(lp2742
sbsg198
(idelphi
DelphiAddOp
p2743
(dp2744
g177
S'+'
sg179
(idelphi
DelphiStringAccess
p2745
(dp2746
g152
(lp2747
sg40
(idelphi
DelphiStringValue
p2748
(dp2749
g40
S' '
sbsbsg198
(i__main__
DelphiIdentAccess
p2750
(dp2751
g150
S'action'
p2752
sg152
(lp2753
sbsbsbsg154
(i__main__
DelphiIdentAccess
p2754
(dp2755
g150
S'result'
p2756
sg152
(lp2757
sbsbsbasbsg378
(lp2758
sbsbsS'addrule'
p2759
(i__main__
DelphiMethodImplementation
p2760
(dp2761
g123
g2562
sg17
g2564
sg25
(lp2762
(i__main__
DelphiFormalParameter
p2763
(dp2764
g49
Nsg50
(lp2765
S'rule'
p2766
asg53
(i__main__
DelphiNamedType
p2767
(dp2768
g39
S'TSRule'
p2769
sg57
g1
sg58
Nsbsg59
Nsba(i__main__
DelphiFormalParameter
p2770
(dp2771
g49
Nsg50
(lp2772
S'newIndex'
p2773
asg53
(i__main__
DelphiPrimitiveType
p2774
(dp2775
g39
g66
sbsg59
Nsbasg125
(lp2776
sg127
(lp2777
sg129
(lp2778
g131
ag2766
ag2773
asg132
(dp2779
g2773
g2774
sg2766
g2767
ssg27
S'TSMoveRulesCommand'
p2780
sg28
Nsg135
(lp2781
sg29
I0
sg30
g31
sg137
(i__main__
DelphiBlock
p2782
(dp2783
g140
(idelphi
DelphiCompoundStatement
p2784
(dp2785
g143
(lp2786
(i__main__
DelphiAssignStatement
p2787
(dp2788
g147
(i__main__
DelphiIdentAccess
p2789
(dp2790
g150
S'TSIndexChangeRuleWrapper'
p2791
sg152
(lp2792
(idelphi
DelphiFieldEndAccess
p2793
(dp2794
g161
S'createWithRuleNewIndex'
p2795
sba(idelphi
DelphiFunctionEndAccess
p2796
(dp2797
g183
(lp2798
(i__main__
DelphiIdentAccess
p2799
(dp2800
g150
S'rule'
p2801
sg152
(lp2802
sba(i__main__
DelphiIdentAccess
p2803
(dp2804
g150
S'newIndex'
p2805
sg152
(lp2806
sbasbasbsg154
(i__main__
DelphiIdentAccess
p2807
(dp2808
g150
S'wrapper'
p2809
sg152
(lp2810
sbsba(i__main__
DelphiAssignStatement
p2811
(dp2812
g147
Nsg154
(i__main__
DelphiIdentAccess
p2813
(dp2814
g150
S'ruleWrappers'
p2815
sg152
(lp2816
(idelphi
DelphiFieldEndAccess
p2817
(dp2818
g161
S'add'
p2819
sba(idelphi
DelphiFunctionEndAccess
p2820
(dp2821
g183
(lp2822
(i__main__
DelphiIdentAccess
p2823
(dp2824
g150
S'wrapper'
p2825
sg152
(lp2826
sbasbasbsbasbsg378
(lp2827
(i__main__
DelphiVarSection
p2828
(dp2829
g1341
I0
sg1342
(lp2830
(idelphi
DelphiVarDecl
p2831
(dp2832
g1346
Nsg1347
(lp2833
S'wrapper'
p2834
asg53
(i__main__
DelphiNamedType
p2835
(dp2836
g39
S'TSIndexChangeRuleWrapper'
p2837
sg57
g1
sg58
NsbsbasbasbsbsS'create'
p2838
(i__main__
DelphiMethodImplementation
p2839
(dp2840
g123
g2580
sg17
g2582
sg25
(lp2841
sg125
(lp2842
sg127
(lp2843
sg129
(lp2844
g131
asg132
(dp2845
sg27
S'TSMoveRulesCommand'
p2846
sg28
Nsg135
(lp2847
sg29
I0
sg30
g74
sg137
(i__main__
DelphiBlock
p2848
(dp2849
g140
(idelphi
DelphiCompoundStatement
p2850
(dp2851
g143
(lp2852
(i__main__
DelphiAssignStatement
p2853
(dp2854
g147
(i__main__
DelphiIdentAccess
p2855
(dp2856
g150
S'TList'
p2857
sg152
(lp2858
(idelphi
DelphiFieldEndAccess
p2859
(dp2860
g161
S'create'
p2861
sbasbsg154
(i__main__
DelphiIdentAccess
p2862
(dp2863
g150
S'ruleWrappers'
p2864
sg152
(lp2865
sbsbasbsg378
(lp2866
sbsg304
(lp2867
S' TSMoveRulesCommand ------------------------------------------'
p2868
asbsS'docommand'
p2869
(i__main__
DelphiMethodImplementation
p2870
(dp2871
g123
g2585
sg17
g2587
sg25
(lp2872
sg125
(lp2873
sg127
(lp2874
sg129
(lp2875
g131
asg132
(dp2876
sg27
S'TSMoveRulesCommand'
p2877
sg28
Nsg135
(lp2878
sg29
I0
sg30
g31
sg137
(i__main__
DelphiBlock
p2879
(dp2880
g140
(idelphi
DelphiCompoundStatement
p2881
(dp2882
g143
(lp2883
(idelphi
DelphiForStatement
p2884
(dp2885
g1217
S'i'
sg1218
(idelphi
DelphiAddOp
p2886
(dp2887
g177
S'-'
sg179
(idelphi
DelphiIntegerValue
p2888
(dp2889
g40
S'1'
sbsg198
(i__main__
DelphiIdentAccess
p2890
(dp2891
g150
S'ruleWrappers'
p2892
sg152
(lp2893
(idelphi
DelphiFieldEndAccess
p2894
(dp2895
g161
S'count'
p2896
sbasbsbsg1230
g1231
sg49
(idelphi
DelphiIntegerValue
p2897
(dp2898
g40
S'0'
sbsg1234
(idelphi
DelphiCompoundStatement
p2899
(dp2900
g143
(lp2901
(i__main__
DelphiAssignStatement
p2902
(dp2903
g147
(i__main__
DelphiIdentAccess
p2904
(dp2905
g150
S'TSIndexChangeRuleWrapper'
p2906
sg152
(lp2907
(idelphi
DelphiFunctionEndAccess
p2908
(dp2909
g183
(lp2910
(i__main__
DelphiIdentAccess
p2911
(dp2912
g150
S'ruleWrappers'
p2913
sg152
(lp2914
(idelphi
DelphiArrayEndAccess
p2915
(dp2916
g183
(lp2917
(i__main__
DelphiIdentAccess
p2918
(dp2919
g150
S'i'
sg152
(lp2920
sbasbasbasbasbsg154
(i__main__
DelphiIdentAccess
p2921
(dp2922
g150
S'wrapper'
p2923
sg152
(lp2924
sbsba(i__main__
DelphiAssignStatement
p2925
(dp2926
g147
Nsg154
(i__main__
DelphiIdentAccess
p2927
(dp2928
g150
S'wrapper'
p2929
sg152
(lp2930
(idelphi
DelphiFieldEndAccess
p2931
(dp2932
g161
S'doChange'
p2933
sbasbsbasbsba(i__main__
DelphiAssignStatement
p2934
(dp2935
g147
Nsg154
(idelphi
DelphiInheritedCall
p2936
(dp2937
g150
S'doCommand'
p2938
sg183
Nsbsba(i__main__
DelphiAssignStatement
p2939
(dp2940
g147
Nsg154
(i__main__
DelphiIdentAccess
p2941
(dp2942
g150
S'RuleEditorForm'
p2943
sg152
(lp2944
(idelphi
DelphiFieldEndAccess
p2945
(dp2946
g161
S'RuleGrid'
p2947
sba(idelphi
DelphiFieldEndAccess
p2948
(dp2949
g161
S'invalidate'
p2950
sbasbsba(idelphi
DelphiIfStatement
p2951
(dp2952
g174
(idelphi
DelphiRelOp
p2953
(dp2954
g187
(i__main__
DelphiIdentAccess
p2955
(dp2956
g150
S'action'
p2957
sg152
(lp2958
sbsg192
(idelphi
DelphiStringAccess
p2959
(dp2960
g152
(lp2961
sg40
(idelphi
DelphiStringValue
p2962
(dp2963
g40
S'raise'
p2964
sbsbsg197
S'='
sbsg213
(i__main__
DelphiAssignStatement
p2965
(dp2966
g147
Nsg154
(i__main__
DelphiIdentAccess
p2967
(dp2968
g150
S'RuleEditorForm'
p2969
sg152
(lp2970
(idelphi
DelphiFieldEndAccess
p2971
(dp2972
g161
S'scrollGridSelectionsIntoView'
p2973
sba(idelphi
DelphiFunctionEndAccess
p2974
(dp2975
g183
(lp2976
(i__main__
DelphiIdentAccess
p2977
(dp2978
g150
S'kFromBottom'
p2979
sg152
(lp2980
sbasbasbsbsg214
(i__main__
DelphiAssignStatement
p2981
(dp2982
g147
Nsg154
(i__main__
DelphiIdentAccess
p2983
(dp2984
g150
S'RuleEditorForm'
p2985
sg152
(lp2986
(idelphi
DelphiFieldEndAccess
p2987
(dp2988
g161
S'scrollGridSelectionsIntoView'
p2989
sba(idelphi
DelphiFunctionEndAccess
p2990
(dp2991
g183
(lp2992
(i__main__
DelphiIdentAccess
p2993
(dp2994
g150
S'kFromTop'
p2995
sg152
(lp2996
sbasbasbsbsba(i__main__
DelphiAssignStatement
p2997
(dp2998
g147
Nsg154
(i__main__
DelphiIdentAccess
p2999
(dp3000
g150
S'RuleEditorForm'
p3001
sg152
(lp3002
(idelphi
DelphiFieldEndAccess
p3003
(dp3004
g161
S'updateRuleNumberLabel'
p3005
sbasbsbasbsg378
(lp3006
(i__main__
DelphiVarSection
p3007
(dp3008
g1341
I0
sg1342
(lp3009
(idelphi
DelphiVarDecl
p3010
(dp3011
g1346
Nsg1347
(lp3012
S'i'
asg53
(i__main__
DelphiPrimitiveType
p3013
(dp3014
g39
g66
sbsba(idelphi
DelphiVarDecl
p3015
(dp3016
g1346
Nsg1347
(lp3017
S'wrapper'
p3018
asg53
(i__main__
DelphiNamedType
p3019
(dp3020
g39
S'TSIndexChangeRuleWrapper'
p3021
sg57
g1
sg58
NsbsbasbasbsbsS'redocommand'
p3022
(i__main__
DelphiMethodImplementation
p3023
(dp3024
g123
g2590
sg17
g2592
sg25
(lp3025
sg125
(lp3026
sg127
(lp3027
sg129
(lp3028
g131
asg132
(dp3029
sg27
S'TSMoveRulesCommand'
p3030
sg28
Nsg135
(lp3031
sg29
I0
sg30
g31
sg137
(i__main__
DelphiBlock
p3032
(dp3033
g140
(idelphi
DelphiCompoundStatement
p3034
(dp3035
g143
(lp3036
(i__main__
DelphiAssignStatement
p3037
(dp3038
g147
Nsg154
(i__main__
DelphiIdentAccess
p3039
(dp3040
g150
S'domain'
p3041
sg152
(lp3042
(idelphi
DelphiFieldEndAccess
p3043
(dp3044
g161
S'world'
p3045
sba(idelphi
DelphiFieldEndAccess
p3046
(dp3047
g161
S'deselectAllExcept'
p3048
sba(idelphi
DelphiFunctionEndAccess
p3049
(dp3050
g183
(lp3051
(idelphi
DelphiNilValue
p3052
(dp3053
basbasbsba(idelphi
DelphiForStatement
p3054
(dp3055
g1217
S'i'
sg1218
(idelphi
DelphiAddOp
p3056
(dp3057
g177
S'-'
sg179
(idelphi
DelphiIntegerValue
p3058
(dp3059
g40
S'1'
sbsg198
(i__main__
DelphiIdentAccess
p3060
(dp3061
g150
S'ruleWrappers'
p3062
sg152
(lp3063
(idelphi
DelphiFieldEndAccess
p3064
(dp3065
g161
S'count'
p3066
sbasbsbsg1230
g1231
sg49
(idelphi
DelphiIntegerValue
p3067
(dp3068
g40
S'0'
sbsg1234
(idelphi
DelphiCompoundStatement
p3069
(dp3070
g143
(lp3071
(i__main__
DelphiAssignStatement
p3072
(dp3073
g147
(i__main__
DelphiIdentAccess
p3074
(dp3075
g150
S'TSIndexChangeRuleWrapper'
p3076
sg152
(lp3077
(idelphi
DelphiFunctionEndAccess
p3078
(dp3079
g183
(lp3080
(i__main__
DelphiIdentAccess
p3081
(dp3082
g150
S'ruleWrappers'
p3083
sg152
(lp3084
(idelphi
DelphiArrayEndAccess
p3085
(dp3086
g183
(lp3087
(i__main__
DelphiIdentAccess
p3088
(dp3089
g150
S'i'
sg152
(lp3090
sbasbasbasbasbsg154
(i__main__
DelphiIdentAccess
p3091
(dp3092
g150
S'wrapper'
p3093
sg152
(lp3094
sbsba(i__main__
DelphiAssignStatement
p3095
(dp3096
g147
(i__main__
DelphiIdentAccess
p3097
(dp3098
g150
S'true'
p3099
sg152
(lp3100
sbsg154
(i__main__
DelphiIdentAccess
p3101
(dp3102
g150
S'wrapper'
p3103
sg152
(lp3104
(idelphi
DelphiFieldEndAccess
p3105
(dp3106
g161
S'rule'
p3107
sba(idelphi
DelphiFieldEndAccess
p3108
(dp3109
g161
S'selected'
p3110
sbasbsba(i__main__
DelphiAssignStatement
p3111
(dp3112
g147
Nsg154
(i__main__
DelphiIdentAccess
p3113
(dp3114
g150
S'wrapper'
p3115
sg152
(lp3116
(idelphi
DelphiFieldEndAccess
p3117
(dp3118
g161
S'doChange'
p3119
sbasbsbasbsba(i__main__
DelphiAssignStatement
p3120
(dp3121
g147
Nsg154
(idelphi
DelphiInheritedCall
p3122
(dp3123
g150
S'doCommand'
p3124
sg183
Nsbsba(i__main__
DelphiAssignStatement
p3125
(dp3126
g147
Nsg154
(i__main__
DelphiIdentAccess
p3127
(dp3128
g150
S'RuleEditorForm'
p3129
sg152
(lp3130
(idelphi
DelphiFieldEndAccess
p3131
(dp3132
g161
S'RuleGrid'
p3133
sba(idelphi
DelphiFieldEndAccess
p3134
(dp3135
g161
S'invalidate'
p3136
sbasbsba(idelphi
DelphiIfStatement
p3137
(dp3138
g174
(idelphi
DelphiRelOp
p3139
(dp3140
g187
(i__main__
DelphiIdentAccess
p3141
(dp3142
g150
S'action'
p3143
sg152
(lp3144
sbsg192
(idelphi
DelphiStringAccess
p3145
(dp3146
g152
(lp3147
sg40
(idelphi
DelphiStringValue
p3148
(dp3149
g40
S'raise'
p3150
sbsbsg197
S'='
sbsg213
(i__main__
DelphiAssignStatement
p3151
(dp3152
g147
Nsg154
(i__main__
DelphiIdentAccess
p3153
(dp3154
g150
S'RuleEditorForm'
p3155
sg152
(lp3156
(idelphi
DelphiFieldEndAccess
p3157
(dp3158
g161
S'scrollGridSelectionsIntoView'
p3159
sba(idelphi
DelphiFunctionEndAccess
p3160
(dp3161
g183
(lp3162
(i__main__
DelphiIdentAccess
p3163
(dp3164
g150
S'kFromBottom'
p3165
sg152
(lp3166
sbasbasbsbsg214
(i__main__
DelphiAssignStatement
p3167
(dp3168
g147
Nsg154
(i__main__
DelphiIdentAccess
p3169
(dp3170
g150
S'RuleEditorForm'
p3171
sg152
(lp3172
(idelphi
DelphiFieldEndAccess
p3173
(dp3174
g161
S'scrollGridSelectionsIntoView'
p3175
sba(idelphi
DelphiFunctionEndAccess
p3176
(dp3177
g183
(lp3178
(i__main__
DelphiIdentAccess
p3179
(dp3180
g150
S'kFromTop'
p3181
sg152
(lp3182
sbasbasbsbsba(i__main__
DelphiAssignStatement
p3183
(dp3184
g147
Nsg154
(i__main__
DelphiIdentAccess
p3185
(dp3186
g150
S'RuleEditorForm'
p3187
sg152
(lp3188
(idelphi
DelphiFieldEndAccess
p3189
(dp3190
g161
S'updateRuleNumberLabel'
p3191
sbasbsbasbsg378
(lp3192
(i__main__
DelphiVarSection
p3193
(dp3194
g1341
I0
sg1342
(lp3195
(idelphi
DelphiVarDecl
p3196
(dp3197
g1346
Nsg1347
(lp3198
S'i'
asg53
(i__main__
DelphiPrimitiveType
p3199
(dp3200
g39
g66
sbsba(idelphi
DelphiVarDecl
p3201
(dp3202
g1346
Nsg1347
(lp3203
S'wrapper'
p3204
asg53
(i__main__
DelphiNamedType
p3205
(dp3206
g39
S'TSIndexChangeRuleWrapper'
p3207
sg57
g1
sg58
NsbsbasbasbsbsS'destroy'
p3208
(i__main__
DelphiMethodImplementation
p3209
(dp3210
g123
g2595
sg17
g2597
sg25
(lp3211
sg125
(lp3212
sg127
(lp3213
sg129
(lp3214
g131
asg132
(dp3215
sg27
S'TSMoveRulesCommand'
p3216
sg28
Nsg135
(lp3217
sg29
I0
sg30
g895
sg137
(i__main__
DelphiBlock
p3218
(dp3219
g140
(idelphi
DelphiCompoundStatement
p3220
(dp3221
g143
(lp3222
(idelphi
DelphiIfStatement
p3223
(dp3224
g174
(idelphi
DelphiRelOp
p3225
(dp3226
g187
(i__main__
DelphiIdentAccess
p3227
(dp3228
g150
S'ruleWrappers'
p3229
sg152
(lp3230
sbsg192
(idelphi
DelphiNilValue
p3231
(dp3232
bsg197
g638
sbsg213
Nsg214
(idelphi
DelphiForStatement
p3233
(dp3234
g1217
S'i'
sg1218
(idelphi
DelphiAddOp
p3235
(dp3236
g177
S'-'
sg179
(idelphi
DelphiIntegerValue
p3237
(dp3238
g40
S'1'
sbsg198
(i__main__
DelphiIdentAccess
p3239
(dp3240
g150
S'ruleWrappers'
p3241
sg152
(lp3242
(idelphi
DelphiFieldEndAccess
p3243
(dp3244
g161
S'count'
p3245
sbasbsbsg1230
g1231
sg49
(idelphi
DelphiIntegerValue
p3246
(dp3247
g40
S'0'
sbsg1234
(idelphi
DelphiCompoundStatement
p3248
(dp3249
g143
(lp3250
(i__main__
DelphiAssignStatement
p3251
(dp3252
g147
(i__main__
DelphiIdentAccess
p3253
(dp3254
g150
S'TSIndexChangeRuleWrapper'
p3255
sg152
(lp3256
(idelphi
DelphiFunctionEndAccess
p3257
(dp3258
g183
(lp3259
(i__main__
DelphiIdentAccess
p3260
(dp3261
g150
S'ruleWrappers'
p3262
sg152
(lp3263
(idelphi
DelphiArrayEndAccess
p3264
(dp3265
g183
(lp3266
(i__main__
DelphiIdentAccess
p3267
(dp3268
g150
S'i'
sg152
(lp3269
sbasbasbasbasbsg154
(i__main__
DelphiIdentAccess
p3270
(dp3271
g150
S'wrapper'
p3272
sg152
(lp3273
sbsba(i__main__
DelphiAssignStatement
p3274
(dp3275
g147
Nsg154
(i__main__
DelphiIdentAccess
p3276
(dp3277
g150
S'wrapper'
p3278
sg152
(lp3279
(idelphi
DelphiFieldEndAccess
p3280
(dp3281
g161
S'free'
p3282
sbasbsbasbsbsba(i__main__
DelphiAssignStatement
p3283
(dp3284
g147
Nsg154
(i__main__
DelphiIdentAccess
p3285
(dp3286
g150
S'ruleWrappers'
p3287
sg152
(lp3288
(idelphi
DelphiFieldEndAccess
p3289
(dp3290
g161
S'free'
p3291
sbasbsba(i__main__
DelphiAssignStatement
p3292
(dp3293
g147
(idelphi
DelphiNilValue
p3294
(dp3295
bsg154
(i__main__
DelphiIdentAccess
p3296
(dp3297
g150
S'ruleWrappers'
p3298
sg152
(lp3299
sbsbasbsg378
(lp3300
(i__main__
DelphiVarSection
p3301
(dp3302
g1341
I0
sg1342
(lp3303
(idelphi
DelphiVarDecl
p3304
(dp3305
g1346
Nsg1347
(lp3306
S'i'
asg53
(i__main__
DelphiPrimitiveType
p3307
(dp3308
g39
g66
sbsba(idelphi
DelphiVarDecl
p3309
(dp3310
g1346
Nsg1347
(lp3311
S'wrapper'
p3312
asg53
(i__main__
DelphiNamedType
p3313
(dp3314
g39
S'TSIndexChangeRuleWrapper'
p3315
sg57
g1
sg58
NsbsbasbasbsbsS'undocommand'
p3316
(i__main__
DelphiMethodImplementation
p3317
(dp3318
g123
g2600
sg17
g2602
sg25
(lp3319
sg125
(lp3320
sg127
(lp3321
sg129
(lp3322
g131
asg132
(dp3323
sg27
S'TSMoveRulesCommand'
p3324
sg28
Nsg135
(lp3325
sg29
I0
sg30
g31
sg137
(i__main__
DelphiBlock
p3326
(dp3327
g140
(idelphi
DelphiCompoundStatement
p3328
(dp3329
g143
(lp3330
(i__main__
DelphiAssignStatement
p3331
(dp3332
g147
Nsg154
(i__main__
DelphiIdentAccess
p3333
(dp3334
g150
S'domain'
p3335
sg152
(lp3336
(idelphi
DelphiFieldEndAccess
p3337
(dp3338
g161
S'world'
p3339
sba(idelphi
DelphiFieldEndAccess
p3340
(dp3341
g161
S'deselectAllExcept'
p3342
sba(idelphi
DelphiFunctionEndAccess
p3343
(dp3344
g183
(lp3345
(idelphi
DelphiNilValue
p3346
(dp3347
basbasbsba(idelphi
DelphiForStatement
p3348
(dp3349
g1217
S'i'
sg1218
(idelphi
DelphiIntegerValue
p3350
(dp3351
g40
S'0'
sbsg1230
g1912
sg49
(idelphi
DelphiAddOp
p3352
(dp3353
g177
S'-'
sg179
(idelphi
DelphiIntegerValue
p3354
(dp3355
g40
S'1'
sbsg198
(i__main__
DelphiIdentAccess
p3356
(dp3357
g150
S'ruleWrappers'
p3358
sg152
(lp3359
(idelphi
DelphiFieldEndAccess
p3360
(dp3361
g161
S'count'
p3362
sbasbsbsg1234
(idelphi
DelphiCompoundStatement
p3363
(dp3364
g143
(lp3365
(i__main__
DelphiAssignStatement
p3366
(dp3367
g147
(i__main__
DelphiIdentAccess
p3368
(dp3369
g150
S'TSIndexChangeRuleWrapper'
p3370
sg152
(lp3371
(idelphi
DelphiFunctionEndAccess
p3372
(dp3373
g183
(lp3374
(i__main__
DelphiIdentAccess
p3375
(dp3376
g150
S'ruleWrappers'
p3377
sg152
(lp3378
(idelphi
DelphiArrayEndAccess
p3379
(dp3380
g183
(lp3381
(i__main__
DelphiIdentAccess
p3382
(dp3383
g150
S'i'
sg152
(lp3384
sbasbasbasbasbsg154
(i__main__
DelphiIdentAccess
p3385
(dp3386
g150
S'wrapper'
p3387
sg152
(lp3388
sbsba(i__main__
DelphiAssignStatement
p3389
(dp3390
g147
(i__main__
DelphiIdentAccess
p3391
(dp3392
g150
S'true'
p3393
sg152
(lp3394
sbsg154
(i__main__
DelphiIdentAccess
p3395
(dp3396
g150
S'wrapper'
p3397
sg152
(lp3398
(idelphi
DelphiFieldEndAccess
p3399
(dp3400
g161
S'rule'
p3401
sba(idelphi
DelphiFieldEndAccess
p3402
(dp3403
g161
S'selected'
p3404
sbasbsba(i__main__
DelphiAssignStatement
p3405
(dp3406
g147
Nsg154
(i__main__
DelphiIdentAccess
p3407
(dp3408
g150
S'wrapper'
p3409
sg152
(lp3410
(idelphi
DelphiFieldEndAccess
p3411
(dp3412
g161
S'undoChange'
p3413
sbasbsbasbsba(i__main__
DelphiAssignStatement
p3414
(dp3415
g147
Nsg154
(idelphi
DelphiInheritedCall
p3416
(dp3417
g150
S'undoCommand'
p3418
sg183
Nsbsba(i__main__
DelphiAssignStatement
p3419
(dp3420
g147
Nsg154
(i__main__
DelphiIdentAccess
p3421
(dp3422
g150
S'RuleEditorForm'
p3423
sg152
(lp3424
(idelphi
DelphiFieldEndAccess
p3425
(dp3426
g161
S'RuleGrid'
p3427
sba(idelphi
DelphiFieldEndAccess
p3428
(dp3429
g161
S'invalidate'
p3430
sbasbsba(idelphi
DelphiIfStatement
p3431
(dp3432
g174
(idelphi
DelphiRelOp
p3433
(dp3434
g187
(i__main__
DelphiIdentAccess
p3435
(dp3436
g150
S'action'
p3437
sg152
(lp3438
sbsg192
(idelphi
DelphiStringAccess
p3439
(dp3440
g152
(lp3441
sg40
(idelphi
DelphiStringValue
p3442
(dp3443
g40
S'raise'
p3444
sbsbsg197
S'='
sbsg213
(i__main__
DelphiAssignStatement
p3445
(dp3446
g147
Nsg154
(i__main__
DelphiIdentAccess
p3447
(dp3448
g150
S'RuleEditorForm'
p3449
sg152
(lp3450
(idelphi
DelphiFieldEndAccess
p3451
(dp3452
g161
S'scrollGridSelectionsIntoView'
p3453
sba(idelphi
DelphiFunctionEndAccess
p3454
(dp3455
g183
(lp3456
(i__main__
DelphiIdentAccess
p3457
(dp3458
g150
S'kFromTop'
p3459
sg152
(lp3460
sbasbasbsbsg214
(i__main__
DelphiAssignStatement
p3461
(dp3462
g147
Nsg154
(i__main__
DelphiIdentAccess
p3463
(dp3464
g150
S'RuleEditorForm'
p3465
sg152
(lp3466
(idelphi
DelphiFieldEndAccess
p3467
(dp3468
g161
S'scrollGridSelectionsIntoView'
p3469
sba(idelphi
DelphiFunctionEndAccess
p3470
(dp3471
g183
(lp3472
(i__main__
DelphiIdentAccess
p3473
(dp3474
g150
S'kFromBottom'
p3475
sg152
(lp3476
sbasbasbsbsba(i__main__
DelphiAssignStatement
p3477
(dp3478
g147
Nsg154
(i__main__
DelphiIdentAccess
p3479
(dp3480
g150
S'RuleEditorForm'
p3481
sg152
(lp3482
(idelphi
DelphiFieldEndAccess
p3483
(dp3484
g161
S'updateRuleNumberLabel'
p3485
sbasbsbasbsg378
(lp3486
(i__main__
DelphiVarSection
p3487
(dp3488
g1341
I0
sg1342
(lp3489
(idelphi
DelphiVarDecl
p3490
(dp3491
g1346
Nsg1347
(lp3492
S'i'
asg53
(i__main__
DelphiPrimitiveType
p3493
(dp3494
g39
g66
sbsba(idelphi
DelphiVarDecl
p3495
(dp3496
g1346
Nsg1347
(lp3497
S'wrapper'
p3498
asg53
(i__main__
DelphiNamedType
p3499
(dp3500
g39
S'TSIndexChangeRuleWrapper'
p3501
sg57
g1
sg58
Nsbsbasbasbsbssg826
(dp3502
sg828
(lp3503
g2551
ag2549
asba(i__main__
DelphiClass
p3504
(dp3505
g7
(dp3506
S'notifyprocedure'
p3507
S'notifyProcedure'
p3508
sS'dragrecords'
p3509
S'dragRecords'
p3510
ssg17
S'TSMapDragCommand'
p3511
sg19
(dp3512
S'description'
p3513
(i__main__
DelphiMethodDeclaration
p3514
(dp3515
g17
S'description'
p3516
sg25
(lp3517
sg27
g3511
sg28
(i__main__
DelphiPrimitiveType
p3518
(dp3519
g39
g40
sbsg29
I0
sg30
g41
sbsS'create'
p3520
(i__main__
DelphiMethodDeclaration
p3521
(dp3522
g17
S'create'
p3523
sg25
(lp3524
sg27
g3511
sg28
Nsg29
I0
sg30
g74
sbsS'docommand'
p3525
(i__main__
DelphiMethodDeclaration
p3526
(dp3527
g17
S'doCommand'
p3528
sg25
(lp3529
sg27
g3511
sg28
Nsg29
I0
sg30
g31
sbsS'trackmouse'
p3530
(i__main__
DelphiMethodDeclaration
p3531
(dp3532
g17
S'TrackMouse'
p3533
sg25
(lp3534
(i__main__
DelphiFormalParameter
p3535
(dp3536
g49
Nsg50
(lp3537
S'aTrackPhase'
p3538
asg53
(i__main__
DelphiNamedType
p3539
(dp3540
g39
S'TrackPhase'
p3541
sg57
g1
sg58
Nsbsg59
Nsba(i__main__
DelphiFormalParameter
p3542
(dp3543
g49
Nsg50
(lp3544
S'anchorPoint'
p3545
aS'previousPoint'
p3546
aS'nextPoint'
p3547
asg53
(i__main__
DelphiNamedType
p3548
(dp3549
g39
S'TPoint'
p3550
sg57
g1
sg58
Nsbsg59
S'var'
p3551
sba(i__main__
DelphiFormalParameter
p3552
(dp3553
g49
Nsg50
(lp3554
S'mouseDidMove'
p3555
aS'rightButtonDown'
p3556
asg53
(i__main__
DelphiPrimitiveType
p3557
(dp3558
g39
S'boolean'
p3559
sbsg59
Nsbasg27
g3511
sg28
(i__main__
DelphiNamedType
p3560
(dp3561
g39
S'KfCommand'
p3562
sg57
g1
sg58
Nsbsg29
I0
sg30
g41
sbsS'redocommand'
p3563
(i__main__
DelphiMethodDeclaration
p3564
(dp3565
g17
S'redoCommand'
p3566
sg25
(lp3567
sg27
g3511
sg28
Nsg29
I0
sg30
g31
sbsS'destroy'
p3568
(i__main__
DelphiMethodDeclaration
p3569
(dp3570
g17
S'destroy'
p3571
sg25
(lp3572
sg27
g3511
sg28
Nsg29
I0
sg30
g895
sbsS'undocommand'
p3573
(i__main__
DelphiMethodDeclaration
p3574
(dp3575
g17
S'undoCommand'
p3576
sg25
(lp3577
sg27
g3511
sg28
Nsg29
I0
sg30
g31
sbssg90
(lp3578
(i__main__
DelphiNamedType
p3579
(dp3580
g39
S'KfCommand'
p3581
sg57
g1
sg58
Nsbasg95
(dp3582
S'notifyprocedure'
p3583
(i__main__
DelphiNamedType
p3584
(dp3585
g39
S'TCommandEvent'
p3586
sg57
g1
sg58
NsbsS'dragrecords'
p3587
(i__main__
DelphiNamedType
p3588
(dp3589
g39
S'TList'
p3590
sg57
g1
sg58
Nsbssg110
(lp3591
S'create'
p3592
aS'destroy'
p3593
aS'docommand'
p3594
aS'undocommand'
p3595
aS'redocommand'
p3596
aS'description'
p3597
aS'trackmouse'
p3598
asg118
(dp3599
S'description'
p3600
(i__main__
DelphiMethodImplementation
p3601
(dp3602
g123
g3514
sg17
g3516
sg25
(lp3603
sg125
(lp3604
sg127
(lp3605
sg129
(lp3606
g131
asg132
(dp3607
sg27
S'TSMapDragCommand'
p3608
sg28
(i__main__
DelphiPrimitiveType
p3609
(dp3610
g39
g40
sbsg135
(lp3611
sg29
I0
sg30
g41
sg137
(i__main__
DelphiBlock
p3612
(dp3613
g140
(idelphi
DelphiCompoundStatement
p3614
(dp3615
g143
(lp3616
(idelphi
DelphiIfStatement
p3617
(dp3618
g174
(idelphi
DelphiRelOp
p3619
(dp3620
g187
(i__main__
DelphiIdentAccess
p3621
(dp3622
g150
S'dragRecords'
p3623
sg152
(lp3624
(idelphi
DelphiFieldEndAccess
p3625
(dp3626
g161
S'count'
p3627
sbasbsg192
(idelphi
DelphiIntegerValue
p3628
(dp3629
g40
S'1'
sbsg197
S'>'
sbsg213
(idelphi
DelphiIfStatement
p3630
(dp3631
g174
(idelphi
DelphiRelOp
p3632
(dp3633
g187
(i__main__
DelphiIdentAccess
p3634
(dp3635
g150
S'dragRecords'
p3636
sg152
(lp3637
(idelphi
DelphiFieldEndAccess
p3638
(dp3639
g161
S'count'
p3640
sbasbsg192
(idelphi
DelphiIntegerValue
p3641
(dp3642
g40
S'1'
sbsg197
S'='
sbsg213
(i__main__
DelphiAssignStatement
p3643
(dp3644
g147
(idelphi
DelphiStringAccess
p3645
(dp3646
g152
(lp3647
sg40
(idelphi
DelphiStringValue
p3648
(dp3649
g40
S'Drag'
p3650
sbsbsg154
(i__main__
DelphiIdentAccess
p3651
(dp3652
g150
S'result'
p3653
sg152
(lp3654
sbsbsg214
(i__main__
DelphiAssignStatement
p3655
(dp3656
g147
(idelphi
DelphiAddOp
p3657
(dp3658
g177
S'+'
sg179
(i__main__
DelphiIdentAccess
p3659
(dp3660
g150
S'TSDragRecord'
p3661
sg152
(lp3662
(idelphi
DelphiFunctionEndAccess
p3663
(dp3664
g183
(lp3665
(i__main__
DelphiIdentAccess
p3666
(dp3667
g150
S'dragRecords'
p3668
sg152
(lp3669
(idelphi
DelphiArrayEndAccess
p3670
(dp3671
g183
(lp3672
(idelphi
DelphiIntegerValue
p3673
(dp3674
g40
S'0'
sbasbasbasba(idelphi
DelphiFieldEndAccess
p3675
(dp3676
g161
S'draggedNode'
p3677
sba(idelphi
DelphiFieldEndAccess
p3678
(dp3679
g161
S'displayName'
p3680
sbasbsg198
(idelphi
DelphiStringAccess
p3681
(dp3682
g152
(lp3683
sg40
(idelphi
DelphiStringValue
p3684
(dp3685
g40
S'Drag '
p3686
sbsbsbsg154
(i__main__
DelphiIdentAccess
p3687
(dp3688
g150
S'result'
p3689
sg152
(lp3690
sbsbsbsg214
(i__main__
DelphiAssignStatement
p3691
(dp3692
g147
(idelphi
DelphiStringAccess
p3693
(dp3694
g152
(lp3695
sg40
(idelphi
DelphiStringValue
p3696
(dp3697
g40
S'Drag nodes'
p3698
sbsbsg154
(i__main__
DelphiIdentAccess
p3699
(dp3700
g150
S'result'
p3701
sg152
(lp3702
sbsbsbasbsg378
(lp3703
sbsbsS'create'
p3704
(i__main__
DelphiMethodImplementation
p3705
(dp3706
g123
g3521
sg17
g3523
sg25
(lp3707
sg125
(lp3708
sg127
(lp3709
sg129
(lp3710
g131
asg132
(dp3711
sg27
S'TSMapDragCommand'
p3712
sg28
Nsg135
(lp3713
sg29
I0
sg30
g74
sg137
(i__main__
DelphiBlock
p3714
(dp3715
g140
(idelphi
DelphiCompoundStatement
p3716
(dp3717
g143
(lp3718
(i__main__
DelphiAssignStatement
p3719
(dp3720
g147
(i__main__
DelphiIdentAccess
p3721
(dp3722
g150
S'TList'
p3723
sg152
(lp3724
(idelphi
DelphiFieldEndAccess
p3725
(dp3726
g161
S'create'
p3727
sbasbsg154
(i__main__
DelphiIdentAccess
p3728
(dp3729
g150
S'dragRecords'
p3730
sg152
(lp3731
sbsba(i__main__
DelphiAssignStatement
p3732
(dp3733
g147
Nsg154
(i__main__
DelphiIdentAccess
p3734
(dp3735
g150
S'domain'
p3736
sg152
(lp3737
(idelphi
DelphiFieldEndAccess
p3738
(dp3739
g161
S'world'
p3740
sba(idelphi
DelphiFieldEndAccess
p3741
(dp3742
g161
S'addDragRecordsToList'
p3743
sba(idelphi
DelphiFunctionEndAccess
p3744
(dp3745
g183
(lp3746
(i__main__
DelphiIdentAccess
p3747
(dp3748
g150
S'dragRecords'
p3749
sg152
(lp3750
sbasbasbsbasbsg378
(lp3751
sbsg304
(lp3752
S' TSMapDragCommand ------------------------------------------'
p3753
asbsS'docommand'
p3754
(i__main__
DelphiMethodImplementation
p3755
(dp3756
g123
g3526
sg17
g3528
sg25
(lp3757
sg125
(lp3758
sg127
(lp3759
sg129
(lp3760
g131
asg132
(dp3761
sg27
S'TSMapDragCommand'
p3762
sg28
Nsg135
(lp3763
sg29
I0
sg30
g31
sg137
(i__main__
DelphiBlock
p3764
(dp3765
g140
(idelphi
DelphiCompoundStatement
p3766
(dp3767
g143
(lp3768
(idelphi
DelphiForStatement
p3769
(dp3770
g1217
S'i'
sg1218
(idelphi
DelphiAddOp
p3771
(dp3772
g177
S'-'
sg179
(idelphi
DelphiIntegerValue
p3773
(dp3774
g40
S'1'
sbsg198
(i__main__
DelphiIdentAccess
p3775
(dp3776
g150
S'dragRecords'
p3777
sg152
(lp3778
(idelphi
DelphiFieldEndAccess
p3779
(dp3780
g161
S'count'
p3781
sbasbsbsg1230
g1231
sg49
(idelphi
DelphiIntegerValue
p3782
(dp3783
g40
S'0'
sbsg1234
(i__main__
DelphiAssignStatement
p3784
(dp3785
g147
Nsg154
(i__main__
DelphiIdentAccess
p3786
(dp3787
g150
S'TSDragRecord'
p3788
sg152
(lp3789
(idelphi
DelphiFunctionEndAccess
p3790
(dp3791
g183
(lp3792
(i__main__
DelphiIdentAccess
p3793
(dp3794
g150
S'dragRecords'
p3795
sg152
(lp3796
(idelphi
DelphiArrayEndAccess
p3797
(dp3798
g183
(lp3799
(i__main__
DelphiIdentAccess
p3800
(dp3801
g150
S'i'
sg152
(lp3802
sbasbasbasba(idelphi
DelphiFieldEndAccess
p3803
(dp3804
g161
S'doDrag'
p3805
sbasbsbsba(idelphi
DelphiIfStatement
p3806
(dp3807
g174
(i__main__
DelphiIdentAccess
p3808
(dp3809
g150
S'assigned'
p3810
sg152
(lp3811
(idelphi
DelphiFunctionEndAccess
p3812
(dp3813
g183
(lp3814
(i__main__
DelphiIdentAccess
p3815
(dp3816
g150
S'notifyProcedure'
p3817
sg152
(lp3818
sbasbasbsg213
Nsg214
(i__main__
DelphiAssignStatement
p3819
(dp3820
g147
Nsg154
(i__main__
DelphiIdentAccess
p3821
(dp3822
g150
S'notifyProcedure'
p3823
sg152
(lp3824
(idelphi
DelphiFunctionEndAccess
p3825
(dp3826
g183
(lp3827
(i__main__
DelphiIdentAccess
p3828
(dp3829
g150
S'self'
p3830
sg152
(lp3831
sba(i__main__
DelphiIdentAccess
p3832
(dp3833
g150
S'commandDone'
p3834
sg152
(lp3835
sbasbasbsbsba(i__main__
DelphiAssignStatement
p3836
(dp3837
g147
Nsg154
(idelphi
DelphiInheritedCall
p3838
(dp3839
g150
S'doCommand'
p3840
sg183
Nsbsbasbsg378
(lp3841
(i__main__
DelphiVarSection
p3842
(dp3843
g1341
I0
sg1342
(lp3844
(idelphi
DelphiVarDecl
p3845
(dp3846
g1346
Nsg1347
(lp3847
S'i'
asg53
(i__main__
DelphiPrimitiveType
p3848
(dp3849
g39
g66
sbsbasbasbsbsS'trackmouse'
p3850
(i__main__
DelphiMethodImplementation
p3851
(dp3852
g123
g3531
sg17
g3533
sg25
(lp3853
(i__main__
DelphiFormalParameter
p3854
(dp3855
g49
Nsg50
(lp3856
S'aTrackPhase'
p3857
asg53
(i__main__
DelphiNamedType
p3858
(dp3859
g39
S'TrackPhase'
p3860
sg57
g1
sg58
Nsbsg59
Nsba(i__main__
DelphiFormalParameter
p3861
(dp3862
g49
Nsg50
(lp3863
S'anchorPoint'
p3864
aS'previousPoint'
p3865
aS'nextPoint'
p3866
asg53
(i__main__
DelphiNamedType
p3867
(dp3868
g39
S'TPoint'
p3869
sg57
g1
sg58
Nsbsg59
g3551
sba(i__main__
DelphiFormalParameter
p3870
(dp3871
g49
Nsg50
(lp3872
S'mouseDidMove'
p3873
aS'rightButtonDown'
p3874
asg53
(i__main__
DelphiPrimitiveType
p3875
(dp3876
g39
g3559
sbsg59
Nsbasg125
(lp3877
sg127
(lp3878
g3864
ag3865
ag3866
asg129
(lp3879
g131
ag3857
ag3864
ag3865
ag3866
ag3873
ag3874
asg132
(dp3880
g3864
g3867
sg3865
g3867
sg3874
g3875
sg3866
g3867
sg3857
g3858
sg3873
g3875
ssg27
S'TSMapDragCommand'
p3881
sg28
(i__main__
DelphiNamedType
p3882
(dp3883
g39
S'KfCommand'
p3884
sg57
g1
sg58
Nsbsg135
(lp3885
sg29
I0
sg30
g41
sg137
(i__main__
DelphiBlock
p3886
(dp3887
g140
(idelphi
DelphiCompoundStatement
p3888
(dp3889
g143
(lp3890
(i__main__
DelphiAssignStatement
p3891
(dp3892
g147
(i__main__
DelphiIdentAccess
p3893
(dp3894
g150
S'self'
p3895
sg152
(lp3896
sbsg154
(i__main__
DelphiIdentAccess
p3897
(dp3898
g150
S'result'
p3899
sg152
(lp3900
sbsba(idelphi
DelphiCaseStatement
p3901
(dp3902
S'elseStatement'
p3903
Nsg174
(i__main__
DelphiIdentAccess
p3904
(dp3905
g150
S'aTrackPhase'
p3906
sg152
(lp3907
sbsS'caseSelectorList'
p3908
(lp3909
(idelphi
DelphiCaseSelector
p3910
(dp3911
g1234
(idelphi
DelphiCompoundStatement
p3912
(dp3913
g143
(lp3914
(idelphi
DelphiIfStatement
p3915
(dp3916
g174
(idelphi
DelphiRelOp
p3917
(dp3918
g187
(i__main__
DelphiIdentAccess
p3919
(dp3920
g150
S'dragRecords'
p3921
sg152
(lp3922
(idelphi
DelphiFieldEndAccess
p3923
(dp3924
g161
S'count'
p3925
sbasbsg192
(idelphi
DelphiIntegerValue
p3926
(dp3927
g40
S'0'
sbsg197
S'='
sbsg213
Nsg214
(idelphi
DelphiCompoundStatement
p3928
(dp3929
g143
(lp3930
(i__main__
DelphiAssignStatement
p3931
(dp3932
g147
(idelphi
DelphiNilValue
p3933
(dp3934
bsg154
(i__main__
DelphiIdentAccess
p3935
(dp3936
g150
S'result'
p3937
sg152
(lp3938
sbsba(i__main__
DelphiAssignStatement
p3939
(dp3940
g147
Nsg154
(i__main__
DelphiIdentAccess
p3941
(dp3942
g150
S'self'
p3943
sg152
(lp3944
(idelphi
DelphiFieldEndAccess
p3945
(dp3946
g161
S'free'
p3947
sbasbsba(i__main__
DelphiExitStatement
p3948
(dp3949
S'proceduralOrMethodImplementation'
p3950
g3851
sbasbsbasbsS'caseLabelList'
p3951
(lp3952
(i__main__
DelphiIdentAccess
p3953
(dp3954
g150
S'trackPress'
p3955
sg152
(lp3956
sbasba(idelphi
DelphiCaseSelector
p3957
(dp3958
g1234
(idelphi
DelphiCompoundStatement
p3959
(dp3960
g143
(lp3961
(idelphi
DelphiIfStatement
p3962
(dp3963
g174
(i__main__
DelphiIdentAccess
p3964
(dp3965
g150
S'mouseDidMove'
p3966
sg152
(lp3967
sbsg213
Nsg214
(idelphi
DelphiCompoundStatement
p3968
(dp3969
g143
(lp3970
(i__main__
DelphiAssignStatement
p3971
(dp3972
g147
(i__main__
DelphiIdentAccess
p3973
(dp3974
g150
S'Point'
p3975
sg152
(lp3976
(idelphi
DelphiFunctionEndAccess
p3977
(dp3978
g183
(lp3979
(idelphi
DelphiAddOp
p3980
(dp3981
g177
S'-'
sg179
(i__main__
DelphiIdentAccess
p3982
(dp3983
g150
S'previousPoint'
p3984
sg152
(lp3985
(idelphi
DelphiFieldEndAccess
p3986
(dp3987
g161
S'x'
sbasbsg198
(i__main__
DelphiIdentAccess
p3988
(dp3989
g150
S'nextPoint'
p3990
sg152
(lp3991
(idelphi
DelphiFieldEndAccess
p3992
(dp3993
g161
S'x'
sbasbsba(idelphi
DelphiAddOp
p3994
(dp3995
g177
S'-'
sg179
(i__main__
DelphiIdentAccess
p3996
(dp3997
g150
S'previousPoint'
p3998
sg152
(lp3999
(idelphi
DelphiFieldEndAccess
p4000
(dp4001
g161
S'y'
sbasbsg198
(i__main__
DelphiIdentAccess
p4002
(dp4003
g150
S'nextPoint'
p4004
sg152
(lp4005
(idelphi
DelphiFieldEndAccess
p4006
(dp4007
g161
S'y'
sbasbsbasbasbsg154
(i__main__
DelphiIdentAccess
p4008
(dp4009
g150
S'delta'
p4010
sg152
(lp4011
sbsba(idelphi
DelphiForStatement
p4012
(dp4013
g1217
S'i'
sg1218
(idelphi
DelphiAddOp
p4014
(dp4015
g177
S'-'
sg179
(idelphi
DelphiIntegerValue
p4016
(dp4017
g40
S'1'
sbsg198
(i__main__
DelphiIdentAccess
p4018
(dp4019
g150
S'dragRecords'
p4020
sg152
(lp4021
(idelphi
DelphiFieldEndAccess
p4022
(dp4023
g161
S'count'
p4024
sbasbsbsg1230
g1231
sg49
(idelphi
DelphiIntegerValue
p4025
(dp4026
g40
S'0'
sbsg1234
(i__main__
DelphiAssignStatement
p4027
(dp4028
g147
Nsg154
(i__main__
DelphiIdentAccess
p4029
(dp4030
g150
S'TSDragRecord'
p4031
sg152
(lp4032
(idelphi
DelphiFunctionEndAccess
p4033
(dp4034
g183
(lp4035
(i__main__
DelphiIdentAccess
p4036
(dp4037
g150
S'dragRecords'
p4038
sg152
(lp4039
(idelphi
DelphiArrayEndAccess
p4040
(dp4041
g183
(lp4042
(i__main__
DelphiIdentAccess
p4043
(dp4044
g150
S'i'
sg152
(lp4045
sbasbasbasba(idelphi
DelphiFieldEndAccess
p4046
(dp4047
g161
S'offset'
p4048
sba(idelphi
DelphiFunctionEndAccess
p4049
(dp4050
g183
(lp4051
(i__main__
DelphiIdentAccess
p4052
(dp4053
g150
S'delta'
p4054
sg152
(lp4055
sbasbasbsbsba(idelphi
DelphiIfStatement
p4056
(dp4057
g174
(i__main__
DelphiIdentAccess
p4058
(dp4059
g150
S'assigned'
p4060
sg152
(lp4061
(idelphi
DelphiFunctionEndAccess
p4062
(dp4063
g183
(lp4064
(i__main__
DelphiIdentAccess
p4065
(dp4066
g150
S'notifyProcedure'
p4067
sg152
(lp4068
sbasbasbsg213
Nsg214
(i__main__
DelphiAssignStatement
p4069
(dp4070
g147
Nsg154
(i__main__
DelphiIdentAccess
p4071
(dp4072
g150
S'notifyProcedure'
p4073
sg152
(lp4074
(idelphi
DelphiFunctionEndAccess
p4075
(dp4076
g183
(lp4077
(i__main__
DelphiIdentAccess
p4078
(dp4079
g150
S'self'
p4080
sg152
(lp4081
sba(i__main__
DelphiIdentAccess
p4082
(dp4083
g150
S'commandDone'
p4084
sg152
(lp4085
sbasbasbsbsbasbsbasbsg3951
(lp4086
(i__main__
DelphiIdentAccess
p4087
(dp4088
g150
S'trackMove'
p4089
sg152
(lp4090
sbasba(idelphi
DelphiCaseSelector
p4091
(dp4092
g1234
(idelphi
DelphiCompoundStatement
p4093
(dp4094
g143
(lp4095
(idelphi
DelphiIfStatement
p4096
(dp4097
g174
(idelphi
DelphiNot
p4098
(dp4099
g1377
(i__main__
DelphiIdentAccess
p4100
(dp4101
g150
S'mouseDidMove'
p4102
sg152
(lp4103
sbsbsg213
(idelphi
DelphiCompoundStatement
p4104
(dp4105
g143
(lp4106
(i__main__
DelphiAssignStatement
p4107
(dp4108
g147
(i__main__
DelphiIdentAccess
p4109
(dp4110
g150
S'Point'
p4111
sg152
(lp4112
(idelphi
DelphiFunctionEndAccess
p4113
(dp4114
g183
(lp4115
(idelphi
DelphiAddOp
p4116
(dp4117
g177
S'-'
sg179
(i__main__
DelphiIdentAccess
p4118
(dp4119
g150
S'previousPoint'
p4120
sg152
(lp4121
(idelphi
DelphiFieldEndAccess
p4122
(dp4123
g161
S'x'
sbasbsg198
(i__main__
DelphiIdentAccess
p4124
(dp4125
g150
S'nextPoint'
p4126
sg152
(lp4127
(idelphi
DelphiFieldEndAccess
p4128
(dp4129
g161
S'x'
sbasbsba(idelphi
DelphiAddOp
p4130
(dp4131
g177
S'-'
sg179
(i__main__
DelphiIdentAccess
p4132
(dp4133
g150
S'previousPoint'
p4134
sg152
(lp4135
(idelphi
DelphiFieldEndAccess
p4136
(dp4137
g161
S'y'
sbasbsg198
(i__main__
DelphiIdentAccess
p4138
(dp4139
g150
S'nextPoint'
p4140
sg152
(lp4141
(idelphi
DelphiFieldEndAccess
p4142
(dp4143
g161
S'y'
sbasbsbasbasbsg154
(i__main__
DelphiIdentAccess
p4144
(dp4145
g150
S'delta'
p4146
sg152
(lp4147
sbsba(idelphi
DelphiIfStatement
p4148
(dp4149
g174
(idelphi
DelphiAddOp
p4150
(dp4151
g177
g178
sg179
(idelphi
DelphiNestedExpressionListAccess
p4152
(dp4153
g152
(lp4154
sg183
(lp4155
(idelphi
DelphiRelOp
p4156
(dp4157
g187
(i__main__
DelphiIdentAccess
p4158
(dp4159
g150
S'delta'
p4160
sg152
(lp4161
(idelphi
DelphiFieldEndAccess
p4162
(dp4163
g161
S'y'
sbasbsg192
(idelphi
DelphiIntegerValue
p4164
(dp4165
g40
S'0'
sbsg197
g638
sbasbsg198
(idelphi
DelphiNestedExpressionListAccess
p4166
(dp4167
g152
(lp4168
sg183
(lp4169
(idelphi
DelphiRelOp
p4170
(dp4171
g187
(i__main__
DelphiIdentAccess
p4172
(dp4173
g150
S'delta'
p4174
sg152
(lp4175
(idelphi
DelphiFieldEndAccess
p4176
(dp4177
g161
S'x'
sbasbsg192
(idelphi
DelphiIntegerValue
p4178
(dp4179
g40
S'0'
sbsg197
g638
sbasbsbsg213
Nsg214
(idelphi
DelphiCompoundStatement
p4180
(dp4181
g143
(lp4182
(idelphi
DelphiForStatement
p4183
(dp4184
g1217
S'i'
sg1218
(idelphi
DelphiAddOp
p4185
(dp4186
g177
S'-'
sg179
(idelphi
DelphiIntegerValue
p4187
(dp4188
g40
S'1'
sbsg198
(i__main__
DelphiIdentAccess
p4189
(dp4190
g150
S'dragRecords'
p4191
sg152
(lp4192
(idelphi
DelphiFieldEndAccess
p4193
(dp4194
g161
S'count'
p4195
sbasbsbsg1230
g1231
sg49
(idelphi
DelphiIntegerValue
p4196
(dp4197
g40
S'0'
sbsg1234
(i__main__
DelphiAssignStatement
p4198
(dp4199
g147
Nsg154
(i__main__
DelphiIdentAccess
p4200
(dp4201
g150
S'TSDragRecord'
p4202
sg152
(lp4203
(idelphi
DelphiFunctionEndAccess
p4204
(dp4205
g183
(lp4206
(i__main__
DelphiIdentAccess
p4207
(dp4208
g150
S'dragRecords'
p4209
sg152
(lp4210
(idelphi
DelphiArrayEndAccess
p4211
(dp4212
g183
(lp4213
(i__main__
DelphiIdentAccess
p4214
(dp4215
g150
S'i'
sg152
(lp4216
sbasbasbasba(idelphi
DelphiFieldEndAccess
p4217
(dp4218
g161
S'offset'
p4219
sba(idelphi
DelphiFunctionEndAccess
p4220
(dp4221
g183
(lp4222
(i__main__
DelphiIdentAccess
p4223
(dp4224
g150
S'delta'
p4225
sg152
(lp4226
sbasbasbsbsba(idelphi
DelphiIfStatement
p4227
(dp4228
g174
(i__main__
DelphiIdentAccess
p4229
(dp4230
g150
S'assigned'
p4231
sg152
(lp4232
(idelphi
DelphiFunctionEndAccess
p4233
(dp4234
g183
(lp4235
(i__main__
DelphiIdentAccess
p4236
(dp4237
g150
S'notifyProcedure'
p4238
sg152
(lp4239
sbasbasbsg213
Nsg214
(i__main__
DelphiAssignStatement
p4240
(dp4241
g147
Nsg154
(i__main__
DelphiIdentAccess
p4242
(dp4243
g150
S'notifyProcedure'
p4244
sg152
(lp4245
(idelphi
DelphiFunctionEndAccess
p4246
(dp4247
g183
(lp4248
(i__main__
DelphiIdentAccess
p4249
(dp4250
g150
S'self'
p4251
sg152
(lp4252
sba(i__main__
DelphiIdentAccess
p4253
(dp4254
g150
S'commandDone'
p4255
sg152
(lp4256
sbasbasbsbsbasbsbasbsg214
(idelphi
DelphiCompoundStatement
p4257
(dp4258
g143
(lp4259
(idelphi
DelphiIfStatement
p4260
(dp4261
g174
(idelphi
DelphiAddOp
p4262
(dp4263
g177
g178
sg179
(idelphi
DelphiNestedExpressionListAccess
p4264
(dp4265
g152
(lp4266
sg183
(lp4267
(idelphi
DelphiRelOp
p4268
(dp4269
g187
(i__main__
DelphiIdentAccess
p4270
(dp4271
g150
S'TSDragRecord'
p4272
sg152
(lp4273
(idelphi
DelphiFunctionEndAccess
p4274
(dp4275
g183
(lp4276
(i__main__
DelphiIdentAccess
p4277
(dp4278
g150
S'dragRecords'
p4279
sg152
(lp4280
(idelphi
DelphiArrayEndAccess
p4281
(dp4282
g183
(lp4283
(idelphi
DelphiIntegerValue
p4284
(dp4285
g40
S'0'
sbasbasbasba(idelphi
DelphiFieldEndAccess
p4286
(dp4287
g161
S'draggedNode'
p4288
sba(idelphi
DelphiFieldEndAccess
p4289
(dp4290
g161
S'position'
p4291
sba(idelphi
DelphiFieldEndAccess
p4292
(dp4293
g161
S'y'
sbasbsg192
(i__main__
DelphiIdentAccess
p4294
(dp4295
g150
S'TSDragRecord'
p4296
sg152
(lp4297
(idelphi
DelphiFunctionEndAccess
p4298
(dp4299
g183
(lp4300
(i__main__
DelphiIdentAccess
p4301
(dp4302
g150
S'dragRecords'
p4303
sg152
(lp4304
(idelphi
DelphiArrayEndAccess
p4305
(dp4306
g183
(lp4307
(idelphi
DelphiIntegerValue
p4308
(dp4309
g40
S'0'
sbasbasbasba(idelphi
DelphiFieldEndAccess
p4310
(dp4311
g161
S'originalLocation'
p4312
sba(idelphi
DelphiFieldEndAccess
p4313
(dp4314
g161
S'y'
sbasbsg197
g638
sbasbsg198
(idelphi
DelphiNestedExpressionListAccess
p4315
(dp4316
g152
(lp4317
sg183
(lp4318
(idelphi
DelphiRelOp
p4319
(dp4320
g187
(i__main__
DelphiIdentAccess
p4321
(dp4322
g150
S'TSDragRecord'
p4323
sg152
(lp4324
(idelphi
DelphiFunctionEndAccess
p4325
(dp4326
g183
(lp4327
(i__main__
DelphiIdentAccess
p4328
(dp4329
g150
S'dragRecords'
p4330
sg152
(lp4331
(idelphi
DelphiArrayEndAccess
p4332
(dp4333
g183
(lp4334
(idelphi
DelphiIntegerValue
p4335
(dp4336
g40
S'0'
sbasbasbasba(idelphi
DelphiFieldEndAccess
p4337
(dp4338
g161
S'draggedNode'
p4339
sba(idelphi
DelphiFieldEndAccess
p4340
(dp4341
g161
S'position'
p4342
sba(idelphi
DelphiFieldEndAccess
p4343
(dp4344
g161
S'x'
sbasbsg192
(i__main__
DelphiIdentAccess
p4345
(dp4346
g150
S'TSDragRecord'
p4347
sg152
(lp4348
(idelphi
DelphiFunctionEndAccess
p4349
(dp4350
g183
(lp4351
(i__main__
DelphiIdentAccess
p4352
(dp4353
g150
S'dragRecords'
p4354
sg152
(lp4355
(idelphi
DelphiArrayEndAccess
p4356
(dp4357
g183
(lp4358
(idelphi
DelphiIntegerValue
p4359
(dp4360
g40
S'0'
sbasbasbasba(idelphi
DelphiFieldEndAccess
p4361
(dp4362
g161
S'originalLocation'
p4363
sba(idelphi
DelphiFieldEndAccess
p4364
(dp4365
g161
S'x'
sbasbsg197
g638
sbasbsbsg213
Nsg214
(idelphi
DelphiCompoundStatement
p4366
(dp4367
g143
(lp4368
(idelphi
DelphiForStatement
p4369
(dp4370
g1217
S'i'
sg1218
(idelphi
DelphiAddOp
p4371
(dp4372
g177
S'-'
sg179
(idelphi
DelphiIntegerValue
p4373
(dp4374
g40
S'1'
sbsg198
(i__main__
DelphiIdentAccess
p4375
(dp4376
g150
S'dragRecords'
p4377
sg152
(lp4378
(idelphi
DelphiFieldEndAccess
p4379
(dp4380
g161
S'count'
p4381
sbasbsbsg1230
g1231
sg49
(idelphi
DelphiIntegerValue
p4382
(dp4383
g40
S'0'
sbsg1234
(i__main__
DelphiAssignStatement
p4384
(dp4385
g147
Nsg154
(i__main__
DelphiIdentAccess
p4386
(dp4387
g150
S'TSDragRecord'
p4388
sg152
(lp4389
(idelphi
DelphiFunctionEndAccess
p4390
(dp4391
g183
(lp4392
(i__main__
DelphiIdentAccess
p4393
(dp4394
g150
S'dragRecords'
p4395
sg152
(lp4396
(idelphi
DelphiArrayEndAccess
p4397
(dp4398
g183
(lp4399
(i__main__
DelphiIdentAccess
p4400
(dp4401
g150
S'i'
sg152
(lp4402
sbasbasbasba(idelphi
DelphiFieldEndAccess
p4403
(dp4404
g161
S'undoDrag'
p4405
sbasbsbsba(idelphi
DelphiIfStatement
p4406
(dp4407
g174
(i__main__
DelphiIdentAccess
p4408
(dp4409
g150
S'assigned'
p4410
sg152
(lp4411
(idelphi
DelphiFunctionEndAccess
p4412
(dp4413
g183
(lp4414
(i__main__
DelphiIdentAccess
p4415
(dp4416
g150
S'notifyProcedure'
p4417
sg152
(lp4418
sbasbasbsg213
Nsg214
(i__main__
DelphiAssignStatement
p4419
(dp4420
g147
Nsg154
(i__main__
DelphiIdentAccess
p4421
(dp4422
g150
S'notifyProcedure'
p4423
sg152
(lp4424
(idelphi
DelphiFunctionEndAccess
p4425
(dp4426
g183
(lp4427
(i__main__
DelphiIdentAccess
p4428
(dp4429
g150
S'self'
p4430
sg152
(lp4431
sba(i__main__
DelphiIdentAccess
p4432
(dp4433
g150
S'commandDone'
p4434
sg152
(lp4435
sbasbasbsbsbasbsba(i__main__
DelphiAssignStatement
p4436
(dp4437
g147
(idelphi
DelphiNilValue
p4438
(dp4439
bsg154
(i__main__
DelphiIdentAccess
p4440
(dp4441
g150
S'result'
p4442
sg152
(lp4443
sbsba(i__main__
DelphiAssignStatement
p4444
(dp4445
g147
Nsg154
(i__main__
DelphiIdentAccess
p4446
(dp4447
g150
S'self'
p4448
sg152
(lp4449
(idelphi
DelphiFieldEndAccess
p4450
(dp4451
g161
S'free'
p4452
sbasbsbasbsbasbsg3951
(lp4453
(i__main__
DelphiIdentAccess
p4454
(dp4455
g150
S'trackRelease'
p4456
sg152
(lp4457
sbasbasbasbsg378
(lp4458
(i__main__
DelphiVarSection
p4459
(dp4460
g1341
I0
sg1342
(lp4461
(idelphi
DelphiVarDecl
p4462
(dp4463
g1346
Nsg1347
(lp4464
S'i'
asg53
(i__main__
DelphiPrimitiveType
p4465
(dp4466
g39
g66
sbsba(idelphi
DelphiVarDecl
p4467
(dp4468
g1346
Nsg1347
(lp4469
S'delta'
p4470
asg53
(i__main__
DelphiNamedType
p4471
(dp4472
g39
S'TPoint'
p4473
sg57
g1
sg58
NsbsbasbasbsbsS'redocommand'
p4474
(i__main__
DelphiMethodImplementation
p4475
(dp4476
g123
g3564
sg17
g3566
sg25
(lp4477
sg125
(lp4478
sg127
(lp4479
sg129
(lp4480
g131
asg132
(dp4481
sg27
S'TSMapDragCommand'
p4482
sg28
Nsg135
(lp4483
sg29
I0
sg30
g31
sg137
(i__main__
DelphiBlock
p4484
(dp4485
g140
(idelphi
DelphiCompoundStatement
p4486
(dp4487
g143
(lp4488
(i__main__
DelphiAssignStatement
p4489
(dp4490
g147
Nsg154
(i__main__
DelphiIdentAccess
p4491
(dp4492
g150
S'domain'
p4493
sg152
(lp4494
(idelphi
DelphiFieldEndAccess
p4495
(dp4496
g161
S'world'
p4497
sba(idelphi
DelphiFieldEndAccess
p4498
(dp4499
g161
S'deselectAllExcept'
p4500
sba(idelphi
DelphiFunctionEndAccess
p4501
(dp4502
g183
(lp4503
(idelphi
DelphiNilValue
p4504
(dp4505
basbasbsba(idelphi
DelphiForStatement
p4506
(dp4507
g1217
S'i'
sg1218
(idelphi
DelphiAddOp
p4508
(dp4509
g177
S'-'
sg179
(idelphi
DelphiIntegerValue
p4510
(dp4511
g40
S'1'
sbsg198
(i__main__
DelphiIdentAccess
p4512
(dp4513
g150
S'dragRecords'
p4514
sg152
(lp4515
(idelphi
DelphiFieldEndAccess
p4516
(dp4517
g161
S'count'
p4518
sbasbsbsg1230
g1231
sg49
(idelphi
DelphiIntegerValue
p4519
(dp4520
g40
S'0'
sbsg1234
(idelphi
DelphiCompoundStatement
p4521
(dp4522
g143
(lp4523
(i__main__
DelphiAssignStatement
p4524
(dp4525
g147
(i__main__
DelphiIdentAccess
p4526
(dp4527
g150
S'true'
p4528
sg152
(lp4529
sbsg154
(i__main__
DelphiIdentAccess
p4530
(dp4531
g150
S'TSDragRecord'
p4532
sg152
(lp4533
(idelphi
DelphiFunctionEndAccess
p4534
(dp4535
g183
(lp4536
(i__main__
DelphiIdentAccess
p4537
(dp4538
g150
S'dragRecords'
p4539
sg152
(lp4540
(idelphi
DelphiArrayEndAccess
p4541
(dp4542
g183
(lp4543
(i__main__
DelphiIdentAccess
p4544
(dp4545
g150
S'i'
sg152
(lp4546
sbasbasbasba(idelphi
DelphiFieldEndAccess
p4547
(dp4548
g161
S'draggedNode'
p4549
sba(idelphi
DelphiFieldEndAccess
p4550
(dp4551
g161
S'selected'
p4552
sbasbsba(i__main__
DelphiAssignStatement
p4553
(dp4554
g147
Nsg154
(i__main__
DelphiIdentAccess
p4555
(dp4556
g150
S'TSDragRecord'
p4557
sg152
(lp4558
(idelphi
DelphiFunctionEndAccess
p4559
(dp4560
g183
(lp4561
(i__main__
DelphiIdentAccess
p4562
(dp4563
g150
S'dragRecords'
p4564
sg152
(lp4565
(idelphi
DelphiArrayEndAccess
p4566
(dp4567
g183
(lp4568
(i__main__
DelphiIdentAccess
p4569
(dp4570
g150
S'i'
sg152
(lp4571
sbasbasbasba(idelphi
DelphiFieldEndAccess
p4572
(dp4573
g161
S'doDrag'
p4574
sbasbsbasbsba(idelphi
DelphiIfStatement
p4575
(dp4576
g174
(i__main__
DelphiIdentAccess
p4577
(dp4578
g150
S'assigned'
p4579
sg152
(lp4580
(idelphi
DelphiFunctionEndAccess
p4581
(dp4582
g183
(lp4583
(i__main__
DelphiIdentAccess
p4584
(dp4585
g150
S'notifyProcedure'
p4586
sg152
(lp4587
sbasbasbsg213
Nsg214
(i__main__
DelphiAssignStatement
p4588
(dp4589
g147
Nsg154
(i__main__
DelphiIdentAccess
p4590
(dp4591
g150
S'notifyProcedure'
p4592
sg152
(lp4593
(idelphi
DelphiFunctionEndAccess
p4594
(dp4595
g183
(lp4596
(i__main__
DelphiIdentAccess
p4597
(dp4598
g150
S'self'
p4599
sg152
(lp4600
sba(i__main__
DelphiIdentAccess
p4601
(dp4602
g150
S'commandDone'
p4603
sg152
(lp4604
sbasbasbsbsba(i__main__
DelphiAssignStatement
p4605
(dp4606
g147
Nsg154
(idelphi
DelphiInheritedCall
p4607
(dp4608
g150
S'doCommand'
p4609
sg183
Nsbsbasbsg378
(lp4610
(i__main__
DelphiVarSection
p4611
(dp4612
g1341
I0
sg1342
(lp4613
(idelphi
DelphiVarDecl
p4614
(dp4615
g1346
Nsg1347
(lp4616
S'i'
asg53
(i__main__
DelphiPrimitiveType
p4617
(dp4618
g39
g66
sbsbasbasbsbsS'destroy'
p4619
(i__main__
DelphiMethodImplementation
p4620
(dp4621
g123
g3569
sg17
g3571
sg25
(lp4622
sg125
(lp4623
sg127
(lp4624
sg129
(lp4625
g131
asg132
(dp4626
sg27
S'TSMapDragCommand'
p4627
sg28
Nsg135
(lp4628
sg29
I0
sg30
g895
sg137
(i__main__
DelphiBlock
p4629
(dp4630
g140
(idelphi
DelphiCompoundStatement
p4631
(dp4632
g143
(lp4633
(idelphi
DelphiIfStatement
p4634
(dp4635
g174
(idelphi
DelphiRelOp
p4636
(dp4637
g187
(i__main__
DelphiIdentAccess
p4638
(dp4639
g150
S'dragRecords'
p4640
sg152
(lp4641
sbsg192
(idelphi
DelphiNilValue
p4642
(dp4643
bsg197
g638
sbsg213
Nsg214
(idelphi
DelphiForStatement
p4644
(dp4645
g1217
S'i'
sg1218
(idelphi
DelphiAddOp
p4646
(dp4647
g177
S'-'
sg179
(idelphi
DelphiIntegerValue
p4648
(dp4649
g40
S'1'
sbsg198
(i__main__
DelphiIdentAccess
p4650
(dp4651
g150
S'dragRecords'
p4652
sg152
(lp4653
(idelphi
DelphiFieldEndAccess
p4654
(dp4655
g161
S'count'
p4656
sbasbsbsg1230
g1231
sg49
(idelphi
DelphiIntegerValue
p4657
(dp4658
g40
S'0'
sbsg1234
(i__main__
DelphiAssignStatement
p4659
(dp4660
g147
Nsg154
(i__main__
DelphiIdentAccess
p4661
(dp4662
g150
S'TObject'
p4663
sg152
(lp4664
(idelphi
DelphiFunctionEndAccess
p4665
(dp4666
g183
(lp4667
(i__main__
DelphiIdentAccess
p4668
(dp4669
g150
S'dragRecords'
p4670
sg152
(lp4671
(idelphi
DelphiArrayEndAccess
p4672
(dp4673
g183
(lp4674
(i__main__
DelphiIdentAccess
p4675
(dp4676
g150
S'i'
sg152
(lp4677
sbasbasbasba(idelphi
DelphiFieldEndAccess
p4678
(dp4679
g161
S'free'
p4680
sbasbsbsbsba(i__main__
DelphiAssignStatement
p4681
(dp4682
g147
Nsg154
(i__main__
DelphiIdentAccess
p4683
(dp4684
g150
S'dragRecords'
p4685
sg152
(lp4686
(idelphi
DelphiFieldEndAccess
p4687
(dp4688
g161
S'free'
p4689
sbasbsba(i__main__
DelphiAssignStatement
p4690
(dp4691
g147
(idelphi
DelphiNilValue
p4692
(dp4693
bsg154
(i__main__
DelphiIdentAccess
p4694
(dp4695
g150
S'dragRecords'
p4696
sg152
(lp4697
sbsbasbsg378
(lp4698
(i__main__
DelphiVarSection
p4699
(dp4700
g1341
I0
sg1342
(lp4701
(idelphi
DelphiVarDecl
p4702
(dp4703
g1346
Nsg1347
(lp4704
S'i'
asg53
(i__main__
DelphiPrimitiveType
p4705
(dp4706
g39
g66
sbsbasbasbsbsS'undocommand'
p4707
(i__main__
DelphiMethodImplementation
p4708
(dp4709
g123
g3574
sg17
g3576
sg25
(lp4710
sg125
(lp4711
sg127
(lp4712
sg129
(lp4713
g131
asg132
(dp4714
sg27
S'TSMapDragCommand'
p4715
sg28
Nsg135
(lp4716
sg29
I0
sg30
g31
sg137
(i__main__
DelphiBlock
p4717
(dp4718
g140
(idelphi
DelphiCompoundStatement
p4719
(dp4720
g143
(lp4721
(i__main__
DelphiAssignStatement
p4722
(dp4723
g147
Nsg154
(i__main__
DelphiIdentAccess
p4724
(dp4725
g150
S'domain'
p4726
sg152
(lp4727
(idelphi
DelphiFieldEndAccess
p4728
(dp4729
g161
S'world'
p4730
sba(idelphi
DelphiFieldEndAccess
p4731
(dp4732
g161
S'deselectAllExcept'
p4733
sba(idelphi
DelphiFunctionEndAccess
p4734
(dp4735
g183
(lp4736
(idelphi
DelphiNilValue
p4737
(dp4738
basbasbsba(idelphi
DelphiForStatement
p4739
(dp4740
g1217
S'i'
sg1218
(idelphi
DelphiAddOp
p4741
(dp4742
g177
S'-'
sg179
(idelphi
DelphiIntegerValue
p4743
(dp4744
g40
S'1'
sbsg198
(i__main__
DelphiIdentAccess
p4745
(dp4746
g150
S'dragRecords'
p4747
sg152
(lp4748
(idelphi
DelphiFieldEndAccess
p4749
(dp4750
g161
S'count'
p4751
sbasbsbsg1230
g1231
sg49
(idelphi
DelphiIntegerValue
p4752
(dp4753
g40
S'0'
sbsg1234
(idelphi
DelphiCompoundStatement
p4754
(dp4755
g143
(lp4756
(i__main__
DelphiAssignStatement
p4757
(dp4758
g147
(i__main__
DelphiIdentAccess
p4759
(dp4760
g150
S'true'
p4761
sg152
(lp4762
sbsg154
(i__main__
DelphiIdentAccess
p4763
(dp4764
g150
S'TSDragRecord'
p4765
sg152
(lp4766
(idelphi
DelphiFunctionEndAccess
p4767
(dp4768
g183
(lp4769
(i__main__
DelphiIdentAccess
p4770
(dp4771
g150
S'dragRecords'
p4772
sg152
(lp4773
(idelphi
DelphiArrayEndAccess
p4774
(dp4775
g183
(lp4776
(i__main__
DelphiIdentAccess
p4777
(dp4778
g150
S'i'
sg152
(lp4779
sbasbasbasba(idelphi
DelphiFieldEndAccess
p4780
(dp4781
g161
S'draggedNode'
p4782
sba(idelphi
DelphiFieldEndAccess
p4783
(dp4784
g161
S'selected'
p4785
sbasbsba(i__main__
DelphiAssignStatement
p4786
(dp4787
g147
Nsg154
(i__main__
DelphiIdentAccess
p4788
(dp4789
g150
S'TSDragRecord'
p4790
sg152
(lp4791
(idelphi
DelphiFunctionEndAccess
p4792
(dp4793
g183
(lp4794
(i__main__
DelphiIdentAccess
p4795
(dp4796
g150
S'dragRecords'
p4797
sg152
(lp4798
(idelphi
DelphiArrayEndAccess
p4799
(dp4800
g183
(lp4801
(i__main__
DelphiIdentAccess
p4802
(dp4803
g150
S'i'
sg152
(lp4804
sbasbasbasba(idelphi
DelphiFieldEndAccess
p4805
(dp4806
g161
S'undoDrag'
p4807
sbasbsbasbsba(idelphi
DelphiIfStatement
p4808
(dp4809
g174
(i__main__
DelphiIdentAccess
p4810
(dp4811
g150
S'assigned'
p4812
sg152
(lp4813
(idelphi
DelphiFunctionEndAccess
p4814
(dp4815
g183
(lp4816
(i__main__
DelphiIdentAccess
p4817
(dp4818
g150
S'notifyProcedure'
p4819
sg152
(lp4820
sbasbasbsg213
Nsg214
(i__main__
DelphiAssignStatement
p4821
(dp4822
g147
Nsg154
(i__main__
DelphiIdentAccess
p4823
(dp4824
g150
S'notifyProcedure'
p4825
sg152
(lp4826
(idelphi
DelphiFunctionEndAccess
p4827
(dp4828
g183
(lp4829
(i__main__
DelphiIdentAccess
p4830
(dp4831
g150
S'self'
p4832
sg152
(lp4833
sba(i__main__
DelphiIdentAccess
p4834
(dp4835
g150
S'commandUndone'
p4836
sg152
(lp4837
sbasbasbsbsba(i__main__
DelphiAssignStatement
p4838
(dp4839
g147
Nsg154
(idelphi
DelphiInheritedCall
p4840
(dp4841
g150
S'undoCommand'
p4842
sg183
Nsbsbasbsg378
(lp4843
(i__main__
DelphiVarSection
p4844
(dp4845
g1341
I0
sg1342
(lp4846
(idelphi
DelphiVarDecl
p4847
(dp4848
g1346
Nsg1347
(lp4849
S'i'
asg53
(i__main__
DelphiPrimitiveType
p4850
(dp4851
g39
g66
sbsbasbasbsbssg826
(dp4852
sg828
(lp4853
g3510
ag3508
asba(i__main__
DelphiClass
p4854
(dp4855
g7
(dp4856
sg17
S'TSCommandList'
p4857
sg19
(dp4858
S'movefocus'
p4859
(i__main__
DelphiMethodDeclaration
p4860
(dp4861
g17
S'moveFocus'
p4862
sg25
(lp4863
(i__main__
DelphiFormalParameter
p4864
(dp4865
g49
Nsg50
(lp4866
S'newFocus'
p4867
asg53
(i__main__
DelphiNamedType
p4868
(dp4869
g39
S'TSVariable'
p4870
sg57
g1
sg58
Nsbsg59
Nsbasg27
g4857
sg28
(i__main__
DelphiNamedType
p4871
(dp4872
g39
S'TSMoveFocusCommand'
p4873
sg57
g1
sg58
Nsbsg29
I0
sg30
g41
sbsS'togglevariable'
p4874
(i__main__
DelphiMethodDeclaration
p4875
(dp4876
g17
S'toggleVariable'
p4877
sg25
(lp4878
(i__main__
DelphiFormalParameter
p4879
(dp4880
g49
Nsg50
(lp4881
S'variable'
p4882
asg53
(i__main__
DelphiNamedType
p4883
(dp4884
g39
S'TSVariable'
p4885
sg57
g1
sg58
Nsbsg59
Nsbasg27
g4857
sg28
(i__main__
DelphiNamedType
p4886
(dp4887
g39
S'TSToggleVariableCommand'
p4888
sg57
g1
sg58
Nsbsg29
I0
sg30
g41
sbsS'rulefieldchange'
p4889
(i__main__
DelphiMethodDeclaration
p4890
(dp4891
g17
S'ruleFieldChange'
p4892
sg25
(lp4893
(i__main__
DelphiFormalParameter
p4894
(dp4895
g49
Nsg50
(lp4896
S'rule'
p4897
asg53
(i__main__
DelphiNamedType
p4898
(dp4899
g39
S'TSRule'
p4900
sg57
g1
sg58
Nsbsg59
Nsba(i__main__
DelphiFormalParameter
p4901
(dp4902
g49
Nsg50
(lp4903
S'field'
p4904
asg53
(i__main__
DelphiPrimitiveType
p4905
(dp4906
g39
g66
sbsg59
Nsba(i__main__
DelphiFormalParameter
p4907
(dp4908
g49
Nsg50
(lp4909
S'newValue'
p4910
asg53
(i__main__
DelphiPrimitiveType
p4911
(dp4912
g39
g40
sbsg59
g73
sbasg27
g4857
sg28
(i__main__
DelphiNamedType
p4913
(dp4914
g39
S'TSRuleFieldChange'
p4915
sg57
g1
sg58
Nsbsg29
I0
sg30
g41
sbsS'docommandphrase'
p4916
(i__main__
DelphiMethodDeclaration
p4917
(dp4918
g17
S'doCommandPhrase'
p4919
sg25
(lp4920
(i__main__
DelphiFormalParameter
p4921
(dp4922
g49
Nsg50
(lp4923
S'commandPhrase'
p4924
asg53
(i__main__
DelphiPrimitiveType
p4925
(dp4926
g39
g40
sbsg59
g73
sbasg27
g4857
sg28
(i__main__
DelphiNamedType
p4927
(dp4928
g39
S'TSDoCommandPhrase'
p4929
sg57
g1
sg58
Nsbsg29
I0
sg30
g41
sbssg90
(lp4930
(i__main__
DelphiNamedType
p4931
(dp4932
g39
S'KfCommandList'
p4933
sg57
g1
sg58
Nsbasg95
(dp4934
sg110
(lp4935
S'togglevariable'
p4936
aS'movefocus'
p4937
aS'docommandphrase'
p4938
aS'rulefieldchange'
p4939
asg118
(dp4940
S'movefocus'
p4941
(i__main__
DelphiMethodImplementation
p4942
(dp4943
g123
g4860
sg17
g4862
sg25
(lp4944
(i__main__
DelphiFormalParameter
p4945
(dp4946
g49
Nsg50
(lp4947
S'newFocus'
p4948
asg53
(i__main__
DelphiNamedType
p4949
(dp4950
g39
S'TSVariable'
p4951
sg57
g1
sg58
Nsbsg59
Nsbasg125
(lp4952
sg127
(lp4953
sg129
(lp4954
g131
ag4948
asg132
(dp4955
g4948
g4949
ssg27
S'TSCommandList'
p4956
sg28
(i__main__
DelphiNamedType
p4957
(dp4958
g39
S'TSMoveFocusCommand'
p4959
sg57
g1
sg58
Nsbsg135
(lp4960
sg29
I0
sg30
g41
sg137
(i__main__
DelphiBlock
p4961
(dp4962
g140
(idelphi
DelphiCompoundStatement
p4963
(dp4964
g143
(lp4965
(i__main__
DelphiAssignStatement
p4966
(dp4967
g147
(i__main__
DelphiIdentAccess
p4968
(dp4969
g150
S'TSMoveFocusCommand'
p4970
sg152
(lp4971
(idelphi
DelphiFieldEndAccess
p4972
(dp4973
g161
S'createWithNewFocus'
p4974
sba(idelphi
DelphiFunctionEndAccess
p4975
(dp4976
g183
(lp4977
(i__main__
DelphiIdentAccess
p4978
(dp4979
g150
S'newFocus'
p4980
sg152
(lp4981
sbasbasbsg154
(i__main__
DelphiIdentAccess
p4982
(dp4983
g150
S'result'
p4984
sg152
(lp4985
sbsba(i__main__
DelphiAssignStatement
p4986
(dp4987
g147
Nsg154
(i__main__
DelphiIdentAccess
p4988
(dp4989
g150
S'self'
p4990
sg152
(lp4991
(idelphi
DelphiFieldEndAccess
p4992
(dp4993
g161
S'doCommand'
p4994
sba(idelphi
DelphiFunctionEndAccess
p4995
(dp4996
g183
(lp4997
(i__main__
DelphiIdentAccess
p4998
(dp4999
g150
S'result'
p5000
sg152
(lp5001
sbasbasbsbasbsg378
(lp5002
sbsbsS'togglevariable'
p5003
(i__main__
DelphiMethodImplementation
p5004
(dp5005
g123
g4875
sg17
g4877
sg25
(lp5006
(i__main__
DelphiFormalParameter
p5007
(dp5008
g49
Nsg50
(lp5009
S'variable'
p5010
asg53
(i__main__
DelphiNamedType
p5011
(dp5012
g39
S'TSVariable'
p5013
sg57
g1
sg58
Nsbsg59
Nsbasg125
(lp5014
sg127
(lp5015
sg129
(lp5016
g131
ag5010
asg132
(dp5017
g5010
g5011
ssg27
S'TSCommandList'
p5018
sg28
(i__main__
DelphiNamedType
p5019
(dp5020
g39
S'TSToggleVariableCommand'
p5021
sg57
g1
sg58
Nsbsg135
(lp5022
sg29
I0
sg30
g41
sg137
(i__main__
DelphiBlock
p5023
(dp5024
g140
(idelphi
DelphiCompoundStatement
p5025
(dp5026
g143
(lp5027
(i__main__
DelphiAssignStatement
p5028
(dp5029
g147
(i__main__
DelphiIdentAccess
p5030
(dp5031
g150
S'TSToggleVariableCommand'
p5032
sg152
(lp5033
(idelphi
DelphiFieldEndAccess
p5034
(dp5035
g161
S'createWithVariable'
p5036
sba(idelphi
DelphiFunctionEndAccess
p5037
(dp5038
g183
(lp5039
(i__main__
DelphiIdentAccess
p5040
(dp5041
g150
S'variable'
p5042
sg152
(lp5043
sbasbasbsg154
(i__main__
DelphiIdentAccess
p5044
(dp5045
g150
S'result'
p5046
sg152
(lp5047
sbsba(i__main__
DelphiAssignStatement
p5048
(dp5049
g147
Nsg154
(i__main__
DelphiIdentAccess
p5050
(dp5051
g150
S'self'
p5052
sg152
(lp5053
(idelphi
DelphiFieldEndAccess
p5054
(dp5055
g161
S'doCommand'
p5056
sba(idelphi
DelphiFunctionEndAccess
p5057
(dp5058
g183
(lp5059
(i__main__
DelphiIdentAccess
p5060
(dp5061
g150
S'result'
p5062
sg152
(lp5063
sbasbasbsbasbsg378
(lp5064
sbsg304
(lp5065
S' ----------------------------- TSCommandList -------------------------------'
p5066
asbsS'rulefieldchange'
p5067
(i__main__
DelphiMethodImplementation
p5068
(dp5069
g123
g4890
sg17
g4892
sg25
(lp5070
(i__main__
DelphiFormalParameter
p5071
(dp5072
g49
Nsg50
(lp5073
S'rule'
p5074
asg53
(i__main__
DelphiNamedType
p5075
(dp5076
g39
S'TSRule'
p5077
sg57
g1
sg58
Nsbsg59
Nsba(i__main__
DelphiFormalParameter
p5078
(dp5079
g49
Nsg50
(lp5080
S'field'
p5081
asg53
(i__main__
DelphiPrimitiveType
p5082
(dp5083
g39
g66
sbsg59
Nsba(i__main__
DelphiFormalParameter
p5084
(dp5085
g49
Nsg50
(lp5086
S'newValue'
p5087
asg53
(i__main__
DelphiPrimitiveType
p5088
(dp5089
g39
g40
sbsg59
g73
sbasg125
(lp5090
sg127
(lp5091
sg129
(lp5092
g131
ag5074
ag5081
ag5087
asg132
(dp5093
g5081
g5082
sg5087
g5088
sg5074
g5075
ssg27
S'TSCommandList'
p5094
sg28
(i__main__
DelphiNamedType
p5095
(dp5096
g39
S'TSRuleFieldChange'
p5097
sg57
g1
sg58
Nsbsg135
(lp5098
sg29
I0
sg30
g41
sg137
(i__main__
DelphiBlock
p5099
(dp5100
g140
(idelphi
DelphiCompoundStatement
p5101
(dp5102
g143
(lp5103
(idelphi
DelphiIfStatement
p5104
(dp5105
g174
(idelphi
DelphiAddOp
p5106
(dp5107
g177
g178
sg179
(idelphi
DelphiNestedExpressionListAccess
p5108
(dp5109
g152
(lp5110
sg183
(lp5111
(idelphi
DelphiRelOp
p5112
(dp5113
g187
(i__main__
DelphiIdentAccess
p5114
(dp5115
g150
S'field'
p5116
sg152
(lp5117
sbsg192
(i__main__
DelphiIdentAccess
p5118
(dp5119
g150
S'kRuleMove'
p5120
sg152
(lp5121
sbsg197
S'='
sbasbsg198
(idelphi
DelphiNestedExpressionListAccess
p5122
(dp5123
g152
(lp5124
sg183
(lp5125
(idelphi
DelphiRelOp
p5126
(dp5127
g187
(i__main__
DelphiIdentAccess
p5128
(dp5129
g150
S'field'
p5130
sg152
(lp5131
sbsg192
(i__main__
DelphiIdentAccess
p5132
(dp5133
g150
S'kRuleContext'
p5134
sg152
(lp5135
sbsg197
S'='
sbasbsbsg213
Nsg214
(idelphi
DelphiIfStatement
p5136
(dp5137
g174
(idelphi
DelphiRelOp
p5138
(dp5139
g187
(i__main__
DelphiIdentAccess
p5140
(dp5141
g150
S'Pos'
p5142
sg152
(lp5143
(idelphi
DelphiFunctionEndAccess
p5144
(dp5145
g183
(lp5146
(idelphi
DelphiStringAccess
p5147
(dp5148
g152
(lp5149
sg40
(idelphi
DelphiStringValue
p5150
(dp5151
g40
S'new context '
p5152
sbsba(i__main__
DelphiIdentAccess
p5153
(dp5154
g150
S'rule'
p5155
sg152
(lp5156
(idelphi
DelphiFieldEndAccess
p5157
(dp5158
g161
S'getTextForField'
p5159
sba(idelphi
DelphiFunctionEndAccess
p5160
(dp5161
g183
(lp5162
(i__main__
DelphiIdentAccess
p5163
(dp5164
g150
S'field'
p5165
sg152
(lp5166
sbasbasbasbasbsg192
(idelphi
DelphiIntegerValue
p5167
(dp5168
g40
S'1'
sbsg197
S'='
sbsg213
Nsg214
(idelphi
DelphiCompoundStatement
p5169
(dp5170
g143
(lp5171
(idelphi
DelphiIfStatement
p5172
(dp5173
g174
(idelphi
DelphiRelOp
p5174
(dp5175
g187
(i__main__
DelphiIdentAccess
p5176
(dp5177
g150
S'domain'
p5178
sg152
(lp5179
(idelphi
DelphiFieldEndAccess
p5180
(dp5181
g161
S'world'
p5182
sba(idelphi
DelphiFieldEndAccess
p5183
(dp5184
g161
S'findVariable'
p5185
sba(idelphi
DelphiFunctionEndAccess
p5186
(dp5187
g183
(lp5188
(i__main__
DelphiIdentAccess
p5189
(dp5190
g150
S'newValue'
p5191
sg152
(lp5192
sbasbasbsg192
(idelphi
DelphiNilValue
p5193
(dp5194
bsg197
S'='
sbsg213
Nsg214
(idelphi
DelphiCompoundStatement
p5195
(dp5196
g143
(lp5197
(i__main__
DelphiAssignStatement
p5198
(dp5199
g147
(i__main__
DelphiIdentAccess
p5200
(dp5201
g150
S'domain'
p5202
sg152
(lp5203
(idelphi
DelphiFieldEndAccess
p5204
(dp5205
g161
S'world'
p5206
sba(idelphi
DelphiFieldEndAccess
p5207
(dp5208
g161
S'findOrCreateVariable'
p5209
sba(idelphi
DelphiFunctionEndAccess
p5210
(dp5211
g183
(lp5212
(i__main__
DelphiIdentAccess
p5213
(dp5214
g150
S'newValue'
p5215
sg152
(lp5216
sba(i__main__
DelphiIdentAccess
p5217
(dp5218
g150
S'false'
p5219
sg152
(lp5220
sbasbasbsg154
(i__main__
DelphiIdentAccess
p5221
(dp5222
g150
S'newContextOrMove'
p5223
sg152
(lp5224
sbsba(i__main__
DelphiAssignStatement
p5225
(dp5226
g147
(i__main__
DelphiIdentAccess
p5227
(dp5228
g150
S'rule'
p5229
sg152
(lp5230
(idelphi
DelphiFieldEndAccess
p5231
(dp5232
g161
S'context'
p5233
sba(idelphi
DelphiFieldEndAccess
p5234
(dp5235
g161
S'position'
p5236
sbasbsg154
(i__main__
DelphiIdentAccess
p5237
(dp5238
g150
S'newContextOrMove'
p5239
sg152
(lp5240
(idelphi
DelphiFieldEndAccess
p5241
(dp5242
g161
S'position'
p5243
sbasbsbasbsbasbsbsba(i__main__
DelphiAssignStatement
p5244
(dp5245
g147
(i__main__
DelphiIdentAccess
p5246
(dp5247
g150
S'TSRuleFieldChange'
p5248
sg152
(lp5249
(idelphi
DelphiFieldEndAccess
p5250
(dp5251
g161
S'createWithRule'
p5252
sba(idelphi
DelphiFunctionEndAccess
p5253
(dp5254
g183
(lp5255
(i__main__
DelphiIdentAccess
p5256
(dp5257
g150
S'rule'
p5258
sg152
(lp5259
sba(i__main__
DelphiIdentAccess
p5260
(dp5261
g150
S'field'
p5262
sg152
(lp5263
sba(i__main__
DelphiIdentAccess
p5264
(dp5265
g150
S'newValue'
p5266
sg152
(lp5267
sbasbasbsg154
(i__main__
DelphiIdentAccess
p5268
(dp5269
g150
S'result'
p5270
sg152
(lp5271
sbsba(i__main__
DelphiAssignStatement
p5272
(dp5273
g147
Nsg154
(i__main__
DelphiIdentAccess
p5274
(dp5275
g150
S'self'
p5276
sg152
(lp5277
(idelphi
DelphiFieldEndAccess
p5278
(dp5279
g161
S'doCommand'
p5280
sba(idelphi
DelphiFunctionEndAccess
p5281
(dp5282
g183
(lp5283
(i__main__
DelphiIdentAccess
p5284
(dp5285
g150
S'result'
p5286
sg152
(lp5287
sbasbasbsbasbsg378
(lp5288
(i__main__
DelphiVarSection
p5289
(dp5290
g1341
I0
sg1342
(lp5291
(idelphi
DelphiVarDecl
p5292
(dp5293
g1346
Nsg1347
(lp5294
S'newContextOrMove'
p5295
asg53
(i__main__
DelphiNamedType
p5296
(dp5297
g39
S'TSVariable'
p5298
sg57
g1
sg58
NsbsbasbasbsbsS'docommandphrase'
p5299
(i__main__
DelphiMethodImplementation
p5300
(dp5301
g123
g4917
sg17
g4919
sg25
(lp5302
(i__main__
DelphiFormalParameter
p5303
(dp5304
g49
Nsg50
(lp5305
S'commandPhrase'
p5306
asg53
(i__main__
DelphiPrimitiveType
p5307
(dp5308
g39
g40
sbsg59
g73
sbasg125
(lp5309
sg127
(lp5310
sg129
(lp5311
g131
ag5306
asg132
(dp5312
g5306
g5307
ssg27
S'TSCommandList'
p5313
sg28
(i__main__
DelphiNamedType
p5314
(dp5315
g39
S'TSDoCommandPhrase'
p5316
sg57
g1
sg58
Nsbsg135
(lp5317
sg29
I0
sg30
g41
sg137
(i__main__
DelphiBlock
p5318
(dp5319
g140
(idelphi
DelphiCompoundStatement
p5320
(dp5321
g143
(lp5322
(i__main__
DelphiAssignStatement
p5323
(dp5324
g147
(i__main__
DelphiIdentAccess
p5325
(dp5326
g150
S'TSDoCommandPhrase'
p5327
sg152
(lp5328
(idelphi
DelphiFieldEndAccess
p5329
(dp5330
g161
S'createWithCommandPhrase'
p5331
sba(idelphi
DelphiFunctionEndAccess
p5332
(dp5333
g183
(lp5334
(i__main__
DelphiIdentAccess
p5335
(dp5336
g150
S'commandPhrase'
p5337
sg152
(lp5338
sbasbasbsg154
(i__main__
DelphiIdentAccess
p5339
(dp5340
g150
S'result'
p5341
sg152
(lp5342
sbsba(i__main__
DelphiAssignStatement
p5343
(dp5344
g147
Nsg154
(i__main__
DelphiIdentAccess
p5345
(dp5346
g150
S'self'
p5347
sg152
(lp5348
(idelphi
DelphiFieldEndAccess
p5349
(dp5350
g161
S'doCommand'
p5351
sba(idelphi
DelphiFunctionEndAccess
p5352
(dp5353
g183
(lp5354
(i__main__
DelphiIdentAccess
p5355
(dp5356
g150
S'result'
p5357
sg152
(lp5358
sbasbasbsbasbsg378
(lp5359
sbsbssg826
(dp5360
sg828
(lp5361
sbasS'includedUnits'
p5362
NsS'implementationUses'
p5363
(lp5364
S'USDomain'
p5365
aS'USConsoleForm'
p5366
aS'USSpeech'
p5367
aS'USRuleEditorForm'
p5368
aS'USChangeLog'
p5369
asg17
S'uscommands'
p5370
sS'constSections'
p5371
(lp5372
sS'globalsInProperCase'
p5373
NsS'interfaceUses'
p5374
(lp5375
S'delphi_compatability'
p5376
aS'Windows'
p5377
aS'Graphics'
p5378
aS'Classes'
p5379
aS'Controls'
p5380
aS'SysUtils'
p5381
aS'StdCtrls'
p5382
aS'UCommand'
p5383
aS'USWorld'
p5384
aS'USFocusCommands'
p5385
aS'USVariableCommands'
p5386
asS'finalCommentToken'
p5387
(i__main__
PassStatement
p5388
(dp5389
g378
(lp5390
sbsS'varSections'
p5391
(lp5392
sS'globals'
p5393
NsS'originalFileName'
p5394
S'../../storyharp-js/converted_source/uscommands.pas'
p5395
sS'proceduralImplementations'
p5396
(dp5397
sS'fileName'
p5398
S'/home/pdfernhout/workspace/storyharp-js/converted_source/uscommands.pas'
p5399
sS'proceduralDeclarations'
p5400
(dp5401
sS'types'
p5402
(dp5403
S'tsdeleterulescommand'
p5404
g1628
sS'tsmapdragcommand'
p5405
g3504
sS'tsnewrulescommand'
p5406
g847
sS'tsmoverulescommand'
p5407
g2545
sS'tsrulefieldchange'
p5408
g5
sS'tscommandlist'
p5409
g4854
ssb.