(i__main__
DelphiUnit
p1
(dp2
S'sectionsInOrderDefined'
p3
(lp4
(i__main__
DelphiRecord
p5
(dp6
S'variableNamesInDeclaredOrder'
p7
(lp8
S'text'
p9
aS'selStart'
p10
aS'selLength'
p11
asS'variableNamesInProperCase'
p12
(dp13
S'text'
p14
g9
sS'selstart'
p15
g10
sS'sellength'
p16
g11
ssS'name'
p17
S'TSelectionInformation'
p18
sS'variableNames'
p19
(dp20
S'text'
p21
(i__main__
DelphiPrimitiveType
p22
(dp23
S'typeName'
p24
S'string'
p25
sbsS'selstart'
p26
(i__main__
DelphiPrimitiveType
p27
(dp28
g24
S'integer'
p29
sbsS'sellength'
p30
g27
ssba(i__main__
DelphiClass
p31
(dp32
g12
(dp33
S'control'
p34
S'control'
p35
sS'modelchange'
p36
S'modelChange'
p37
sS'form'
p38
S'form'
p39
ssg17
S'TFocusShiftAction'
p40
sS'methodDeclarations'
p41
(dp42
S'undoshift'
p43
(i__main__
DelphiMethodDeclaration
p44
(dp45
g17
S'undoShift'
p46
sS'formalParameters'
p47
(lp48
sS'className'
p49
g40
sS'resultType'
p50
NsS'isClassMethod'
p51
I0
sS'methodType'
p52
S'procedure'
p53
sbsS'restorestatewithfocus'
p54
(i__main__
DelphiMethodDeclaration
p55
(dp56
g17
S'restoreStateWithFocus'
p57
sg47
(lp58
sg49
g40
sg50
Nsg51
I0
sg52
g53
sS'commentLinesBefore'
p59
(lp60
S' param ignored\r'
p61
asbsS'createwithformcontrolmodelchange'
p62
(i__main__
DelphiMethodDeclaration
p63
(dp64
g17
S'createWithFormControlModelChange'
p65
sg47
(lp66
(i__main__
DelphiFormalParameter
p67
(dp68
S'initialValue'
p69
NsS'names'
p70
(lp71
S'form'
p72
asS'theType'
p73
(i__main__
DelphiNamedType
p74
(dp75
g24
S'TForm'
p76
sS'unitDefinedIn'
p77
g1
sS'unitName'
p78
NsbsS'parameterVariety'
p79
Nsba(i__main__
DelphiFormalParameter
p80
(dp81
g69
Nsg70
(lp82
S'control'
p83
asg73
(i__main__
DelphiNamedType
p84
(dp85
g24
S'TWinControl'
p86
sg77
g1
sg78
Nsbsg79
Nsba(i__main__
DelphiFormalParameter
p87
(dp88
g69
Nsg70
(lp89
S'modelChange'
p90
asg73
(i__main__
DelphiNamedType
p91
(dp92
g24
S'TModelChange'
p93
sg77
g1
sg78
Nsbsg79
Nsbasg49
g40
sg50
Nsg51
I0
sg52
S'constructor'
p94
sbsS'doshift'
p95
(i__main__
DelphiMethodDeclaration
p96
(dp97
g17
S'doShift'
p98
sg47
(lp99
sg49
g40
sg50
Nsg51
I0
sg52
g53
sbsS'recordstate'
p100
(i__main__
DelphiMethodDeclaration
p101
(dp102
g17
S'recordState'
p103
sg47
(lp104
(i__main__
DelphiFormalParameter
p105
(dp106
g69
Nsg70
(lp107
S'selectionInformation'
p108
asg73
(i__main__
DelphiNamedType
p109
(dp110
g24
S'TSelectionInformation'
p111
sg77
g1
sg78
Nsbsg79
S'const'
p112
sbasg49
g40
sg50
Nsg51
I0
sg52
g53
sbsS'destroy'
p113
(i__main__
DelphiMethodDeclaration
p114
(dp115
g17
S'destroy'
p116
sg47
(lp117
sg49
g40
sg50
Nsg51
I0
sg52
S'destructor'
p118
sbsS'redoshift'
p119
(i__main__
DelphiMethodDeclaration
p120
(dp121
g17
S'redoShift'
p122
sg47
(lp123
sg49
g40
sg50
Nsg51
I0
sg52
g53
sbssS'superclassNamedTypes'
p124
(lp125
(i__main__
DelphiNamedType
p126
(dp127
g24
S'TObject'
p128
sg77
g1
sg78
Nsbasg19
(dp129
S'control'
p130
(i__main__
DelphiNamedType
p131
(dp132
g24
S'TWinControl'
p133
sg77
g1
sg78
NsbsS'modelchange'
p134
(i__main__
DelphiNamedType
p135
(dp136
g24
S'TModelChange'
p137
sg77
g1
sg78
NsbsS'form'
p138
(i__main__
DelphiNamedType
p139
(dp140
g24
S'TForm'
p141
sg77
g1
sg78
NsbssS'methodNamesInDefinedOrder'
p142
(lp143
S'createwithformcontrolmodelchange'
p144
aS'destroy'
p145
aS'recordstate'
p146
aS'restorestatewithfocus'
p147
aS'doshift'
p148
aS'undoshift'
p149
aS'redoshift'
p150
asS'methodImplementations'
p151
(dp152
S'undoshift'
p153
(i__main__
DelphiMethodImplementation
p154
(dp155
S'originalDeclaration'
p156
g44
sg17
g46
sg47
(lp157
sS'varParamIndexes'
p158
(lp159
sS'varParamsSkipped'
p160
(lp161
sS'argNames'
p162
(lp163
S'self'
p164
asS'argTypes'
p165
(dp166
sg49
S'TFocusShiftAction'
p167
sg50
NsS'varParamNames'
p168
(lp169
sg51
I0
sg52
g53
sS'block'
p170
(i__main__
DelphiBlock
p171
(dp172
S'compoundStatement'
p173
(idelphi
DelphiCompoundStatement
p174
(dp175
S'statements'
p176
(lp177
(idelphi
DelphiIfStatement
p178
(dp179
S'expression'
p180
(idelphi
DelphiRelOp
p181
(dp182
S'simpleExpression1'
p183
(i__main__
DelphiIdentAccess
p184
(dp185
S'ident'
p186
S'modelChange'
p187
sS'endAccessList'
p188
(lp189
sbsS'simpleExpression2'
p190
(idelphi
DelphiNilValue
p191
(dp192
bsS'relOp'
p193
S'<>'
p194
sbsS'ifFalseStatement'
p195
NsS'ifTrueStatement'
p196
(i__main__
DelphiAssignStatement
p197
(dp198
S'newValueExpression'
p199
NsS'destinationExpression'
p200
(i__main__
DelphiIdentAccess
p201
(dp202
g186
S'modelChange'
p203
sg188
(lp204
(idelphi
DelphiFieldEndAccess
p205
(dp206
S'field'
p207
S'undoChange'
p208
sbasbsg59
(lp209
S' subclasses may override\r'
p210
asbsbasbsS'limitedDeclSectionList'
p211
(lp212
sbsbsS'restorestatewithfocus'
p213
(i__main__
DelphiMethodImplementation
p214
(dp215
g156
g55
sg17
g57
sg47
(lp216
sg158
(lp217
sg160
(lp218
sg162
(lp219
g164
asg165
(dp220
sg49
S'TFocusShiftAction'
p221
sg50
Nsg168
(lp222
sg51
I0
sg52
g53
sg170
(i__main__
DelphiBlock
p223
(dp224
g173
(idelphi
DelphiCompoundStatement
p225
(dp226
g176
(lp227
(i__main__
DelphiAssignStatement
p228
(dp229
g199
Nsg200
(i__main__
DelphiIdentAccess
p230
(dp231
g186
S'control'
p232
sg188
(lp233
(idelphi
DelphiFieldEndAccess
p234
(dp235
g207
S'setFocus'
p236
sbasbsg59
(lp237
S' form.Active := true;\r'
p238
asbasg59
(lp239
S' subclasses may override\r'
p240
asbsg211
(lp241
sbsg59
g60
sbsS'createwithformcontrolmodelchange'
p242
(i__main__
DelphiMethodImplementation
p243
(dp244
g156
g63
sg17
g65
sg47
(lp245
(i__main__
DelphiFormalParameter
p246
(dp247
g69
Nsg70
(lp248
S'form'
p249
asg73
(i__main__
DelphiNamedType
p250
(dp251
g24
S'TForm'
p252
sg77
g1
sg78
Nsbsg79
Nsba(i__main__
DelphiFormalParameter
p253
(dp254
g69
Nsg70
(lp255
S'control'
p256
asg73
(i__main__
DelphiNamedType
p257
(dp258
g24
S'TWinControl'
p259
sg77
g1
sg78
Nsbsg79
Nsba(i__main__
DelphiFormalParameter
p260
(dp261
g69
Nsg70
(lp262
S'modelChange'
p263
asg73
(i__main__
DelphiNamedType
p264
(dp265
g24
S'TModelChange'
p266
sg77
g1
sg78
Nsbsg79
Nsbasg158
(lp267
sg160
(lp268
sg162
(lp269
g164
ag249
ag256
ag263
asg165
(dp270
g256
g257
sg263
g264
sg249
g250
ssg49
S'TFocusShiftAction'
p271
sg50
Nsg168
(lp272
sg51
I0
sg52
g94
sg170
(i__main__
DelphiBlock
p273
(dp274
g173
(idelphi
DelphiCompoundStatement
p275
(dp276
g176
(lp277
(i__main__
DelphiAssignStatement
p278
(dp279
g199
(i__main__
DelphiIdentAccess
p280
(dp281
g186
S'form'
p282
sg188
(lp283
sbsg200
(i__main__
DelphiIdentAccess
p284
(dp285
g186
S'self'
p286
sg188
(lp287
(idelphi
DelphiFieldEndAccess
p288
(dp289
g207
S'form'
p290
sbasbsba(i__main__
DelphiAssignStatement
p291
(dp292
g199
(i__main__
DelphiIdentAccess
p293
(dp294
g186
S'control'
p295
sg188
(lp296
sbsg200
(i__main__
DelphiIdentAccess
p297
(dp298
g186
S'self'
p299
sg188
(lp300
(idelphi
DelphiFieldEndAccess
p301
(dp302
g207
S'control'
p303
sbasbsba(i__main__
DelphiAssignStatement
p304
(dp305
g199
(i__main__
DelphiIdentAccess
p306
(dp307
g186
S'modelChange'
p308
sg188
(lp309
sbsg200
(i__main__
DelphiIdentAccess
p310
(dp311
g186
S'self'
p312
sg188
(lp313
(idelphi
DelphiFieldEndAccess
p314
(dp315
g207
S'modelChange'
p316
sbasbsbasbsg211
(lp317
sbsg59
(lp318
S'/////////////////////////// TFocusShiftAction //////////////////////////\r'
p319
asbsS'doshift'
p320
(i__main__
DelphiMethodImplementation
p321
(dp322
g156
g96
sg17
g98
sg47
(lp323
sg158
(lp324
sg160
(lp325
sg162
(lp326
g164
asg165
(dp327
sg49
S'TFocusShiftAction'
p328
sg50
Nsg168
(lp329
sg51
I0
sg52
g53
sg170
(i__main__
DelphiBlock
p330
(dp331
g173
(idelphi
DelphiCompoundStatement
p332
(dp333
g176
(lp334
(idelphi
DelphiIfStatement
p335
(dp336
g180
(idelphi
DelphiRelOp
p337
(dp338
g183
(i__main__
DelphiIdentAccess
p339
(dp340
g186
S'modelChange'
p341
sg188
(lp342
sbsg190
(idelphi
DelphiNilValue
p343
(dp344
bsg193
g194
sbsg195
Nsg196
(i__main__
DelphiAssignStatement
p345
(dp346
g199
Nsg200
(i__main__
DelphiIdentAccess
p347
(dp348
g186
S'modelChange'
p349
sg188
(lp350
(idelphi
DelphiFieldEndAccess
p351
(dp352
g207
S'doChange'
p353
sbasbsg59
(lp354
S' subclasses may override\r'
p355
asbsbasbsg211
(lp356
sbsg59
(lp357
S' assume focus shifted is handled by system the first time\r'
p358
aS' assume do must be called before other component is focused to if it is off the form\r'
p359
asbsS'recordstate'
p360
(i__main__
DelphiMethodImplementation
p361
(dp362
g156
g101
sg17
g103
sg47
(lp363
(i__main__
DelphiFormalParameter
p364
(dp365
g69
Nsg70
(lp366
S'selectionInformation'
p367
asg73
(i__main__
DelphiNamedType
p368
(dp369
g24
S'TSelectionInformation'
p370
sg77
g1
sg78
Nsbsg79
g112
sbasg158
(lp371
sg160
(lp372
sg162
(lp373
g164
ag367
asg165
(dp374
g367
g368
ssg49
S'TFocusShiftAction'
p375
sg50
Nsg168
(lp376
sg51
I0
sg52
g53
sg170
(i__main__
DelphiBlock
p377
(dp378
g173
(idelphi
DelphiCompoundStatement
p379
(dp380
g176
Nsg59
(lp381
S' subclasses should override\r'
p382
asbsg211
(lp383
sbsg59
(lp384
S' param ignored\r'
p385
asbsS'destroy'
p386
(i__main__
DelphiMethodImplementation
p387
(dp388
g156
g114
sg17
g116
sg47
(lp389
sg158
(lp390
sg160
(lp391
sg162
(lp392
g164
asg165
(dp393
sg49
S'TFocusShiftAction'
p394
sg50
Nsg168
(lp395
sg51
I0
sg52
g118
sg170
(i__main__
DelphiBlock
p396
(dp397
g173
(idelphi
DelphiCompoundStatement
p398
(dp399
g176
(lp400
(i__main__
DelphiAssignStatement
p401
(dp402
g199
Nsg200
(i__main__
DelphiIdentAccess
p403
(dp404
g186
S'modelChange'
p405
sg188
(lp406
(idelphi
DelphiFieldEndAccess
p407
(dp408
g207
S'free'
p409
sbasbsba(i__main__
DelphiAssignStatement
p410
(dp411
g199
Nsg200
(idelphi
DelphiInheritedCall
p412
(dp413
g186
S'destroy'
p414
sS'expressionList'
p415
Nsbsbasbsg211
(lp416
sbsbsS'redoshift'
p417
(i__main__
DelphiMethodImplementation
p418
(dp419
g156
g120
sg17
g122
sg47
(lp420
sg158
(lp421
sg160
(lp422
sg162
(lp423
g164
asg165
(dp424
sg49
S'TFocusShiftAction'
p425
sg50
Nsg168
(lp426
sg51
I0
sg52
g53
sg170
(i__main__
DelphiBlock
p427
(dp428
g173
(idelphi
DelphiCompoundStatement
p429
(dp430
g176
(lp431
(idelphi
DelphiIfStatement
p432
(dp433
g180
(idelphi
DelphiRelOp
p434
(dp435
g183
(i__main__
DelphiIdentAccess
p436
(dp437
g186
S'modelChange'
p438
sg188
(lp439
sbsg190
(idelphi
DelphiNilValue
p440
(dp441
bsg193
g194
sbsg195
Nsg196
(i__main__
DelphiAssignStatement
p442
(dp443
g199
Nsg200
(i__main__
DelphiIdentAccess
p444
(dp445
g186
S'modelChange'
p446
sg188
(lp447
(idelphi
DelphiFieldEndAccess
p448
(dp449
g207
S'redoChange'
p450
sbasbsbsbasbsg211
(lp451
sbsbssS'propertyDeclarations'
p452
(dp453
sg7
(lp454
g35
ag39
ag37
asba(i__main__
DelphiClass
p455
(dp456
g12
(dp457
sg17
S'TFocusExitAction'
p458
sg41
(dp459
S'undoshift'
p460
(i__main__
DelphiMethodDeclaration
p461
(dp462
g17
S'undoShift'
p463
sg47
(lp464
sg49
g458
sg50
Nsg51
I0
sg52
g53
sbsS'redoshift'
p465
(i__main__
DelphiMethodDeclaration
p466
(dp467
g17
S'redoShift'
p468
sg47
(lp469
sg49
g458
sg50
Nsg51
I0
sg52
g53
sbsS'doshift'
p470
(i__main__
DelphiMethodDeclaration
p471
(dp472
g17
S'doShift'
p473
sg47
(lp474
sg49
g458
sg50
Nsg51
I0
sg52
g53
sbssg124
(lp475
(i__main__
DelphiNamedType
p476
(dp477
g24
S'TFocusShiftAction'
p478
sg77
g1
sg78
Nsbasg19
(dp479
sg142
(lp480
S'doshift'
p481
aS'undoshift'
p482
aS'redoshift'
p483
asg151
(dp484
S'undoshift'
p485
(i__main__
DelphiMethodImplementation
p486
(dp487
g156
g461
sg17
g463
sg47
(lp488
sg158
(lp489
sg160
(lp490
sg162
(lp491
g164
asg165
(dp492
sg49
S'TFocusExitAction'
p493
sg50
Nsg168
(lp494
sg51
I0
sg52
g53
sg170
(i__main__
DelphiBlock
p495
(dp496
g173
(idelphi
DelphiCompoundStatement
p497
(dp498
g176
(lp499
(i__main__
DelphiAssignStatement
p500
(dp501
g199
Nsg200
(i__main__
DelphiIdentAccess
p502
(dp503
g186
S'self'
p504
sg188
(lp505
(idelphi
DelphiFieldEndAccess
p506
(dp507
g207
S'restoreStateWithFocus'
p508
sbasbsba(i__main__
DelphiAssignStatement
p509
(dp510
g199
Nsg200
(idelphi
DelphiInheritedCall
p511
(dp512
g186
S'undoShift'
p513
sg415
Nsbsg59
(lp514
S' need to restore selectionInformation in form\r'
p515
asbasbsg211
(lp516
sbsg59
(lp517
S' exit moves focus on undo\r'
p518
asbsS'redoshift'
p519
(i__main__
DelphiMethodImplementation
p520
(dp521
g156
g466
sg17
g468
sg47
(lp522
sg158
(lp523
sg160
(lp524
sg162
(lp525
g164
asg165
(dp526
sg49
S'TFocusExitAction'
p527
sg50
Nsg168
(lp528
sg51
I0
sg52
g53
sg170
(i__main__
DelphiBlock
p529
(dp530
g173
(idelphi
DelphiCompoundStatement
p531
(dp532
g176
(lp533
(i__main__
DelphiAssignStatement
p534
(dp535
g199
Nsg200
(idelphi
DelphiInheritedCall
p536
(dp537
g186
S'redoShift'
p538
sg415
Nsbsbasbsg211
(lp539
sbsbsS'doshift'
p540
(i__main__
DelphiMethodImplementation
p541
(dp542
g156
g471
sg17
g473
sg47
(lp543
sg158
(lp544
sg160
(lp545
sg162
(lp546
g164
asg165
(dp547
sg49
S'TFocusExitAction'
p548
sg50
Nsg168
(lp549
sg51
I0
sg52
g53
sg170
(i__main__
DelphiBlock
p550
(dp551
g173
(idelphi
DelphiCompoundStatement
p552
(dp553
g176
(lp554
(i__main__
DelphiAssignStatement
p555
(dp556
g199
Nsg200
(idelphi
DelphiInheritedCall
p557
(dp558
g186
S'doShift'
p559
sg415
Nsbsbasbsg211
(lp560
sbsg59
(lp561
S'////////////////////////// TFocusExitAction ////////////////////////////////\r'
p562
asbssg452
(dp563
sg7
(lp564
sba(i__main__
DelphiClass
p565
(dp566
g12
(dp567
sg17
S'TFocusEnterAction'
p568
sg41
(dp569
S'undoshift'
p570
(i__main__
DelphiMethodDeclaration
p571
(dp572
g17
S'undoShift'
p573
sg47
(lp574
sg49
g568
sg50
Nsg51
I0
sg52
g53
sbsS'redoshift'
p575
(i__main__
DelphiMethodDeclaration
p576
(dp577
g17
S'redoShift'
p578
sg47
(lp579
sg49
g568
sg50
Nsg51
I0
sg52
g53
sbsS'doshift'
p580
(i__main__
DelphiMethodDeclaration
p581
(dp582
g17
S'doShift'
p583
sg47
(lp584
sg49
g568
sg50
Nsg51
I0
sg52
g53
sbssg124
(lp585
(i__main__
DelphiNamedType
p586
(dp587
g24
S'TFocusShiftAction'
p588
sg77
g1
sg78
Nsbasg19
(dp589
sg142
(lp590
S'doshift'
p591
aS'undoshift'
p592
aS'redoshift'
p593
asg151
(dp594
S'undoshift'
p595
(i__main__
DelphiMethodImplementation
p596
(dp597
g156
g571
sg17
g573
sg47
(lp598
sg158
(lp599
sg160
(lp600
sg162
(lp601
g164
asg165
(dp602
sg49
S'TFocusEnterAction'
p603
sg50
Nsg168
(lp604
sg51
I0
sg52
g53
sg170
(i__main__
DelphiBlock
p605
(dp606
g173
(idelphi
DelphiCompoundStatement
p607
(dp608
g176
(lp609
(i__main__
DelphiAssignStatement
p610
(dp611
g199
Nsg200
(idelphi
DelphiInheritedCall
p612
(dp613
g186
S'undoShift'
p614
sg415
Nsbsbasbsg211
(lp615
sbsbsS'redoshift'
p616
(i__main__
DelphiMethodImplementation
p617
(dp618
g156
g576
sg17
g578
sg47
(lp619
sg158
(lp620
sg160
(lp621
sg162
(lp622
g164
asg165
(dp623
sg49
S'TFocusEnterAction'
p624
sg50
Nsg168
(lp625
sg51
I0
sg52
g53
sg170
(i__main__
DelphiBlock
p626
(dp627
g173
(idelphi
DelphiCompoundStatement
p628
(dp629
g176
(lp630
(i__main__
DelphiAssignStatement
p631
(dp632
g199
Nsg200
(i__main__
DelphiIdentAccess
p633
(dp634
g186
S'self'
p635
sg188
(lp636
(idelphi
DelphiFieldEndAccess
p637
(dp638
g207
S'restoreStateWithFocus'
p639
sbasbsba(i__main__
DelphiAssignStatement
p640
(dp641
g199
Nsg200
(idelphi
DelphiInheritedCall
p642
(dp643
g186
S'redoShift'
p644
sg415
Nsbsbasbsg211
(lp645
sbsg59
(lp646
S' enter moves focus on redo\r'
p647
asbsS'doshift'
p648
(i__main__
DelphiMethodImplementation
p649
(dp650
g156
g581
sg17
g583
sg47
(lp651
sg158
(lp652
sg160
(lp653
sg162
(lp654
g164
asg165
(dp655
sg49
S'TFocusEnterAction'
p656
sg50
Nsg168
(lp657
sg51
I0
sg52
g53
sg170
(i__main__
DelphiBlock
p658
(dp659
g173
(idelphi
DelphiCompoundStatement
p660
(dp661
g176
(lp662
(i__main__
DelphiAssignStatement
p663
(dp664
g199
Nsg200
(idelphi
DelphiInheritedCall
p665
(dp666
g186
S'doShift'
p667
sg415
Nsbsbasbsg211
(lp668
sbsg59
(lp669
S'////////////////////////// TFocusEnterAction ////////////////////////////////\r'
p670
asbssg452
(dp671
sg7
(lp672
sba(i__main__
DelphiClass
p673
(dp674
g12
(dp675
S'selectioninformation'
p676
S'selectionInformation'
p677
ssg17
S'TTextFocusExitAction'
p678
sg41
(dp679
S'recordstate'
p680
(i__main__
DelphiMethodDeclaration
p681
(dp682
g17
S'recordState'
p683
sg47
(lp684
(i__main__
DelphiFormalParameter
p685
(dp686
g69
Nsg70
(lp687
S'selectionInformation'
p688
asg73
(i__main__
DelphiNamedType
p689
(dp690
g24
S'TSelectionInformation'
p691
sg77
g1
sg78
Nsbsg79
g112
sbasg49
g678
sg50
Nsg51
I0
sg52
g53
sbsS'restorestatewithfocus'
p692
(i__main__
DelphiMethodDeclaration
p693
(dp694
g17
S'restoreStateWithFocus'
p695
sg47
(lp696
sg49
g678
sg50
Nsg51
I0
sg52
g53
sbssg124
(lp697
(i__main__
DelphiNamedType
p698
(dp699
g24
S'TFocusExitAction'
p700
sg77
g1
sg78
Nsbasg19
(dp701
S'selectioninformation'
p702
(i__main__
DelphiNamedType
p703
(dp704
g24
S'TSelectionInformation'
p705
sg77
g1
sg78
Nsbssg142
(lp706
S'recordstate'
p707
aS'restorestatewithfocus'
p708
asg151
(dp709
S'recordstate'
p710
(i__main__
DelphiMethodImplementation
p711
(dp712
g156
g681
sg17
g683
sg47
(lp713
(i__main__
DelphiFormalParameter
p714
(dp715
g69
Nsg70
(lp716
S'selectionInformation'
p717
asg73
(i__main__
DelphiNamedType
p718
(dp719
g24
S'TSelectionInformation'
p720
sg77
g1
sg78
Nsbsg79
g112
sbasg158
(lp721
sg160
(lp722
sg162
(lp723
g164
ag717
asg165
(dp724
g717
g718
ssg49
S'TTextFocusExitAction'
p725
sg50
Nsg168
(lp726
sg51
I0
sg52
g53
sg170
(i__main__
DelphiBlock
p727
(dp728
g173
(idelphi
DelphiCompoundStatement
p729
(dp730
g176
(lp731
(i__main__
DelphiAssignStatement
p732
(dp733
g199
Nsg200
(idelphi
DelphiInheritedCall
p734
(dp735
g186
S'recordState'
p736
sg415
(lp737
(i__main__
DelphiIdentAccess
p738
(dp739
g186
S'selectionInformation'
p740
sg188
(lp741
sbasbsba(i__main__
DelphiAssignStatement
p742
(dp743
g199
(i__main__
DelphiIdentAccess
p744
(dp745
g186
S'selectionInformation'
p746
sg188
(lp747
sbsg200
(i__main__
DelphiIdentAccess
p748
(dp749
g186
S'self'
p750
sg188
(lp751
(idelphi
DelphiFieldEndAccess
p752
(dp753
g207
S'selectionInformation'
p754
sbasbsbasg59
(lp755
S'RecordSelectionInformation(selectionInformation, control);\r'
p756
asbsg211
(lp757
sbsg59
(lp758
S'////////////////////////// TTextFocusExitAction ////////////////////////////////\r'
p759
asbsS'restorestatewithfocus'
p760
(i__main__
DelphiMethodImplementation
p761
(dp762
g156
g693
sg17
g695
sg47
(lp763
sg158
(lp764
sg160
(lp765
sg162
(lp766
g164
asg165
(dp767
sg49
S'TTextFocusExitAction'
p768
sg50
Nsg168
(lp769
sg51
I0
sg52
g53
sg170
(i__main__
DelphiBlock
p770
(dp771
g173
(idelphi
DelphiCompoundStatement
p772
(dp773
g176
(lp774
(i__main__
DelphiAssignStatement
p775
(dp776
g199
Nsg200
(idelphi
DelphiInheritedCall
p777
(dp778
g186
S'restoreStateWithFocus'
p779
sg415
Nsbsba(i__main__
DelphiAssignStatement
p780
(dp781
g199
Nsg200
(i__main__
DelphiIdentAccess
p782
(dp783
g186
S'RestoreSelectionInformation'
p784
sg188
(lp785
(idelphi
DelphiFunctionEndAccess
p786
(dp787
g415
(lp788
(i__main__
DelphiIdentAccess
p789
(dp790
g186
S'selectionInformation'
p791
sg188
(lp792
sba(i__main__
DelphiIdentAccess
p793
(dp794
g186
S'control'
p795
sg188
(lp796
sbasbasbsbasbsg211
(lp797
sbsbssg452
(dp798
sg7
(lp799
g677
asba(i__main__
DelphiClass
p800
(dp801
g12
(dp802
sg17
S'TTextFocusEnterAction'
p803
sg41
(dp804
sg124
(lp805
(i__main__
DelphiNamedType
p806
(dp807
g24
S'TFocusEnterAction'
p808
sg77
g1
sg78
Nsbasg19
(dp809
sg142
(lp810
sg151
(dp811
sg452
(dp812
sg7
(lp813
sba(i__main__
DelphiClass
p814
(dp815
g12
(dp816
S'focusexitaction'
p817
S'focusExitAction'
p818
sS'focusenteraction'
p819
S'focusEnterAction'
p820
ssg17
S'TFocusShiftCommand'
p821
sg41
(dp822
S'description'
p823
(i__main__
DelphiMethodDeclaration
p824
(dp825
g17
S'description'
p826
sg47
(lp827
sg49
g821
sg50
(i__main__
DelphiPrimitiveType
p828
(dp829
g24
g25
sbsg51
I0
sg52
S'function'
p830
sbsS'docommand'
p831
(i__main__
DelphiMethodDeclaration
p832
(dp833
g17
S'doCommand'
p834
sg47
(lp835
sg49
g821
sg50
Nsg51
I0
sg52
g53
sbsS'redocommand'
p836
(i__main__
DelphiMethodDeclaration
p837
(dp838
g17
S'redoCommand'
p839
sg47
(lp840
sg49
g821
sg50
Nsg51
I0
sg52
g53
sbsS'destroy'
p841
(i__main__
DelphiMethodDeclaration
p842
(dp843
g17
S'destroy'
p844
sg47
(lp845
sg49
g821
sg50
Nsg51
I0
sg52
g118
sbsS'createwithfocusexitaction'
p846
(i__main__
DelphiMethodDeclaration
p847
(dp848
g17
S'createWithFocusExitAction'
p849
sg47
(lp850
(i__main__
DelphiFormalParameter
p851
(dp852
g69
Nsg70
(lp853
S'focusExitAction'
p854
asg73
(i__main__
DelphiNamedType
p855
(dp856
g24
S'TFocusExitAction'
p857
sg77
g1
sg78
Nsbsg79
Nsbasg49
g821
sg50
Nsg51
I0
sg52
g94
sbsS'undocommand'
p858
(i__main__
DelphiMethodDeclaration
p859
(dp860
g17
S'undoCommand'
p861
sg47
(lp862
sg49
g821
sg50
Nsg51
I0
sg52
g53
sbsS'setfocusenteraction'
p863
(i__main__
DelphiMethodDeclaration
p864
(dp865
g17
S'setFocusEnterAction'
p866
sg47
(lp867
(i__main__
DelphiFormalParameter
p868
(dp869
g69
Nsg70
(lp870
S'focusEnterAction'
p871
asg73
(i__main__
DelphiNamedType
p872
(dp873
g24
S'TFocusEnterAction'
p874
sg77
g1
sg78
Nsbsg79
Nsbasg49
g821
sg50
Nsg51
I0
sg52
g53
sbssg124
(lp875
(i__main__
DelphiNamedType
p876
(dp877
g24
S'KfCommand'
p878
sg77
g1
sg78
Nsbasg19
(dp879
S'focusexitaction'
p880
(i__main__
DelphiNamedType
p881
(dp882
g24
S'TFocusExitAction'
p883
sg77
g1
sg78
NsbsS'focusenteraction'
p884
(i__main__
DelphiNamedType
p885
(dp886
g24
S'TFocusEnterAction'
p887
sg77
g1
sg78
Nsbssg142
(lp888
S'createwithfocusexitaction'
p889
aS'setfocusenteraction'
p890
aS'destroy'
p891
aS'docommand'
p892
aS'undocommand'
p893
aS'redocommand'
p894
aS'description'
p895
asg151
(dp896
S'description'
p897
(i__main__
DelphiMethodImplementation
p898
(dp899
g156
g824
sg17
g826
sg47
(lp900
sg158
(lp901
sg160
(lp902
sg162
(lp903
g164
asg165
(dp904
sg49
S'TFocusShiftCommand'
p905
sg50
(i__main__
DelphiPrimitiveType
p906
(dp907
g24
g25
sbsg168
(lp908
sg51
I0
sg52
g830
sg170
(i__main__
DelphiBlock
p909
(dp910
g173
(idelphi
DelphiCompoundStatement
p911
(dp912
g176
(lp913
(i__main__
DelphiAssignStatement
p914
(dp915
g199
(idelphi
DelphiStringAccess
p916
(dp917
g188
(lp918
sg25
(idelphi
DelphiStringValue
p919
(dp920
g25
S'editor focus shift'
p921
sbsbsg200
(i__main__
DelphiIdentAccess
p922
(dp923
g186
S'result'
p924
sg188
(lp925
sbsbasbsg211
(lp926
sbsbsS'docommand'
p927
(i__main__
DelphiMethodImplementation
p928
(dp929
g156
g832
sg17
g834
sg47
(lp930
sg158
(lp931
sg160
(lp932
sg162
(lp933
g164
asg165
(dp934
sg49
S'TFocusShiftCommand'
p935
sg50
Nsg168
(lp936
sg51
I0
sg52
g53
sg170
(i__main__
DelphiBlock
p937
(dp938
g173
(idelphi
DelphiCompoundStatement
p939
(dp940
g176
(lp941
(i__main__
DelphiAssignStatement
p942
(dp943
g199
Nsg200
(idelphi
DelphiInheritedCall
p944
(dp945
g186
S'doCommand'
p946
sg415
Nsbsba(i__main__
DelphiAssignStatement
p947
(dp948
g199
Nsg200
(i__main__
DelphiIdentAccess
p949
(dp950
g186
S'domain'
p951
sg188
(lp952
(idelphi
DelphiFieldEndAccess
p953
(dp954
g207
S'beginUpdate'
p955
sbasbsba(i__main__
DelphiAssignStatement
p956
(dp957
g199
Nsg200
(i__main__
DelphiIdentAccess
p958
(dp959
g186
S'focusExitAction'
p960
sg188
(lp961
(idelphi
DelphiFieldEndAccess
p962
(dp963
g207
S'doShift'
p964
sbasbsba(idelphi
DelphiIfStatement
p965
(dp966
g180
(idelphi
DelphiRelOp
p967
(dp968
g183
(i__main__
DelphiIdentAccess
p969
(dp970
g186
S'focusEnterAction'
p971
sg188
(lp972
sbsg190
(idelphi
DelphiNilValue
p973
(dp974
bsg193
g194
sbsg195
Nsg196
(i__main__
DelphiAssignStatement
p975
(dp976
g199
Nsg200
(i__main__
DelphiIdentAccess
p977
(dp978
g186
S'focusEnterAction'
p979
sg188
(lp980
(idelphi
DelphiFieldEndAccess
p981
(dp982
g207
S'doShift'
p983
sbasbsbsba(i__main__
DelphiAssignStatement
p984
(dp985
g199
Nsg200
(i__main__
DelphiIdentAccess
p986
(dp987
g186
S'domain'
p988
sg188
(lp989
(idelphi
DelphiFieldEndAccess
p990
(dp991
g207
S'endUpdate'
p992
sbasbsbasbsg211
(lp993
sbsbsS'redocommand'
p994
(i__main__
DelphiMethodImplementation
p995
(dp996
g156
g837
sg17
g839
sg47
(lp997
sg158
(lp998
sg160
(lp999
sg162
(lp1000
g164
asg165
(dp1001
sg49
S'TFocusShiftCommand'
p1002
sg50
Nsg168
(lp1003
sg51
I0
sg52
g53
sg170
(i__main__
DelphiBlock
p1004
(dp1005
g173
(idelphi
DelphiCompoundStatement
p1006
(dp1007
g176
(lp1008
(i__main__
DelphiAssignStatement
p1009
(dp1010
g199
Nsg200
(idelphi
DelphiInheritedCall
p1011
(dp1012
g186
S'doCommand'
p1013
sg415
Nsbsba(i__main__
DelphiAssignStatement
p1014
(dp1015
g199
Nsg200
(i__main__
DelphiIdentAccess
p1016
(dp1017
g186
S'domain'
p1018
sg188
(lp1019
(idelphi
DelphiFieldEndAccess
p1020
(dp1021
g207
S'beginUpdate'
p1022
sbasbsba(i__main__
DelphiAssignStatement
p1023
(dp1024
g199
Nsg200
(i__main__
DelphiIdentAccess
p1025
(dp1026
g186
S'focusExitAction'
p1027
sg188
(lp1028
(idelphi
DelphiFieldEndAccess
p1029
(dp1030
g207
S'redoShift'
p1031
sbasbsba(idelphi
DelphiIfStatement
p1032
(dp1033
g180
(idelphi
DelphiRelOp
p1034
(dp1035
g183
(i__main__
DelphiIdentAccess
p1036
(dp1037
g186
S'focusEnterAction'
p1038
sg188
(lp1039
sbsg190
(idelphi
DelphiNilValue
p1040
(dp1041
bsg193
g194
sbsg195
Nsg196
(i__main__
DelphiAssignStatement
p1042
(dp1043
g199
Nsg200
(i__main__
DelphiIdentAccess
p1044
(dp1045
g186
S'focusEnterAction'
p1046
sg188
(lp1047
(idelphi
DelphiFieldEndAccess
p1048
(dp1049
g207
S'redoShift'
p1050
sbasbsbsba(i__main__
DelphiAssignStatement
p1051
(dp1052
g199
Nsg200
(i__main__
DelphiIdentAccess
p1053
(dp1054
g186
S'domain'
p1055
sg188
(lp1056
(idelphi
DelphiFieldEndAccess
p1057
(dp1058
g207
S'endUpdate'
p1059
sbasbsbasbsg211
(lp1060
sbsbsS'destroy'
p1061
(i__main__
DelphiMethodImplementation
p1062
(dp1063
g156
g842
sg17
g844
sg47
(lp1064
sg158
(lp1065
sg160
(lp1066
sg162
(lp1067
g164
asg165
(dp1068
sg49
S'TFocusShiftCommand'
p1069
sg50
Nsg168
(lp1070
sg51
I0
sg52
g118
sg170
(i__main__
DelphiBlock
p1071
(dp1072
g173
(idelphi
DelphiCompoundStatement
p1073
(dp1074
g176
(lp1075
(i__main__
DelphiAssignStatement
p1076
(dp1077
g199
Nsg200
(i__main__
DelphiIdentAccess
p1078
(dp1079
g186
S'focusExitAction'
p1080
sg188
(lp1081
(idelphi
DelphiFieldEndAccess
p1082
(dp1083
g207
S'free'
p1084
sbasbsba(i__main__
DelphiAssignStatement
p1085
(dp1086
g199
Nsg200
(i__main__
DelphiIdentAccess
p1087
(dp1088
g186
S'focusEnterAction'
p1089
sg188
(lp1090
(idelphi
DelphiFieldEndAccess
p1091
(dp1092
g207
S'free'
p1093
sbasbsba(i__main__
DelphiAssignStatement
p1094
(dp1095
g199
Nsg200
(idelphi
DelphiInheritedCall
p1096
(dp1097
g186
S'destroy'
p1098
sg415
Nsbsbasbsg211
(lp1099
sbsbsS'createwithfocusexitaction'
p1100
(i__main__
DelphiMethodImplementation
p1101
(dp1102
g156
g847
sg17
g849
sg47
(lp1103
(i__main__
DelphiFormalParameter
p1104
(dp1105
g69
Nsg70
(lp1106
S'focusExitAction'
p1107
asg73
(i__main__
DelphiNamedType
p1108
(dp1109
g24
S'TFocusExitAction'
p1110
sg77
g1
sg78
Nsbsg79
Nsbasg158
(lp1111
sg160
(lp1112
sg162
(lp1113
g164
ag1107
asg165
(dp1114
g1107
g1108
ssg49
S'TFocusShiftCommand'
p1115
sg50
Nsg168
(lp1116
sg51
I0
sg52
g94
sg170
(i__main__
DelphiBlock
p1117
(dp1118
g173
(idelphi
DelphiCompoundStatement
p1119
(dp1120
g176
(lp1121
(i__main__
DelphiAssignStatement
p1122
(dp1123
g199
Nsg200
(i__main__
DelphiIdentAccess
p1124
(dp1125
g186
S'self'
p1126
sg188
(lp1127
(idelphi
DelphiFieldEndAccess
p1128
(dp1129
g207
S'create'
p1130
sbasbsba(i__main__
DelphiAssignStatement
p1131
(dp1132
g199
(i__main__
DelphiIdentAccess
p1133
(dp1134
g186
S'focusExitAction'
p1135
sg188
(lp1136
sbsg200
(i__main__
DelphiIdentAccess
p1137
(dp1138
g186
S'self'
p1139
sg188
(lp1140
(idelphi
DelphiFieldEndAccess
p1141
(dp1142
g207
S'focusExitAction'
p1143
sbasbsbasg59
(lp1144
S'self.focusExitAction.recordState;\r'
p1145
aS' responsibility of component being focused to call setFocusEnterAction\r'
p1146
asbsg211
(lp1147
sbsg59
(lp1148
S'////////////////////////// TTextFocusEnterAction ////////////////////////////////\r'
p1149
aS'////////////////////////// TFocusShiftCommand ////////////////////////////////\r'
p1150
asbsS'undocommand'
p1151
(i__main__
DelphiMethodImplementation
p1152
(dp1153
g156
g859
sg17
g861
sg47
(lp1154
sg158
(lp1155
sg160
(lp1156
sg162
(lp1157
g164
asg165
(dp1158
sg49
S'TFocusShiftCommand'
p1159
sg50
Nsg168
(lp1160
sg51
I0
sg52
g53
sg170
(i__main__
DelphiBlock
p1161
(dp1162
g173
(idelphi
DelphiCompoundStatement
p1163
(dp1164
g176
(lp1165
(i__main__
DelphiAssignStatement
p1166
(dp1167
g199
Nsg200
(idelphi
DelphiInheritedCall
p1168
(dp1169
g186
S'undoCommand'
p1170
sg415
Nsbsba(i__main__
DelphiAssignStatement
p1171
(dp1172
g199
Nsg200
(i__main__
DelphiIdentAccess
p1173
(dp1174
g186
S'domain'
p1175
sg188
(lp1176
(idelphi
DelphiFieldEndAccess
p1177
(dp1178
g207
S'beginUpdate'
p1179
sbasbsba(idelphi
DelphiIfStatement
p1180
(dp1181
g180
(idelphi
DelphiRelOp
p1182
(dp1183
g183
(i__main__
DelphiIdentAccess
p1184
(dp1185
g186
S'focusEnterAction'
p1186
sg188
(lp1187
sbsg190
(idelphi
DelphiNilValue
p1188
(dp1189
bsg193
g194
sbsg195
Nsg196
(i__main__
DelphiAssignStatement
p1190
(dp1191
g199
Nsg200
(i__main__
DelphiIdentAccess
p1192
(dp1193
g186
S'focusEnterAction'
p1194
sg188
(lp1195
(idelphi
DelphiFieldEndAccess
p1196
(dp1197
g207
S'undoShift'
p1198
sbasbsbsba(i__main__
DelphiAssignStatement
p1199
(dp1200
g199
Nsg200
(i__main__
DelphiIdentAccess
p1201
(dp1202
g186
S'focusExitAction'
p1203
sg188
(lp1204
(idelphi
DelphiFieldEndAccess
p1205
(dp1206
g207
S'undoShift'
p1207
sbasbsba(i__main__
DelphiAssignStatement
p1208
(dp1209
g199
Nsg200
(i__main__
DelphiIdentAccess
p1210
(dp1211
g186
S'domain'
p1212
sg188
(lp1213
(idelphi
DelphiFieldEndAccess
p1214
(dp1215
g207
S'endUpdate'
p1216
sbasbsbasbsg211
(lp1217
sbsbsS'setfocusenteraction'
p1218
(i__main__
DelphiMethodImplementation
p1219
(dp1220
g156
g864
sg17
g866
sg47
(lp1221
(i__main__
DelphiFormalParameter
p1222
(dp1223
g69
Nsg70
(lp1224
S'focusEnterAction'
p1225
asg73
(i__main__
DelphiNamedType
p1226
(dp1227
g24
S'TFocusEnterAction'
p1228
sg77
g1
sg78
Nsbsg79
Nsbasg158
(lp1229
sg160
(lp1230
sg162
(lp1231
g164
ag1225
asg165
(dp1232
g1225
g1226
ssg49
S'TFocusShiftCommand'
p1233
sg50
Nsg168
(lp1234
sg51
I0
sg52
g53
sg170
(i__main__
DelphiBlock
p1235
(dp1236
g173
(idelphi
DelphiCompoundStatement
p1237
(dp1238
g176
(lp1239
(i__main__
DelphiAssignStatement
p1240
(dp1241
g199
(i__main__
DelphiIdentAccess
p1242
(dp1243
g186
S'focusEnterAction'
p1244
sg188
(lp1245
sbsg200
(i__main__
DelphiIdentAccess
p1246
(dp1247
g186
S'self'
p1248
sg188
(lp1249
(idelphi
DelphiFieldEndAccess
p1250
(dp1251
g207
S'focusEnterAction'
p1252
sbasbsba(i__main__
DelphiAssignStatement
p1253
(dp1254
g199
Nsg200
(i__main__
DelphiIdentAccess
p1255
(dp1256
g186
S'self'
p1257
sg188
(lp1258
(idelphi
DelphiFieldEndAccess
p1259
(dp1260
g207
S'FocusEnterAction'
p1261
sba(idelphi
DelphiFieldEndAccess
p1262
(dp1263
g207
S'recordState'
p1264
sba(idelphi
DelphiFunctionEndAccess
p1265
(dp1266
g415
(lp1267
(i__main__
DelphiIdentAccess
p1268
(dp1269
g186
S'selectionInformation'
p1270
sg188
(lp1271
sbasbasbsg59
(lp1272
S' param ignored\r'
p1273
asbasbsg211
(lp1274
(i__main__
DelphiVarSection
p1275
(dp1276
S'atTopLevel'
p1277
I0
sS'varDeclList'
p1278
(lp1279
(idelphi
DelphiVarDecl
p1280
(dp1281
S'constExpression'
p1282
NsS'identList'
p1283
(lp1284
S'selectionInformation'
p1285
asg73
(i__main__
DelphiNamedType
p1286
(dp1287
g24
S'TSelectionInformation'
p1288
sg77
g1
sg78
Nsbsbasbasbsbssg452
(dp1289
sg7
(lp1290
g818
ag820
asba(i__main__
DelphiProceduralImplementation
p1291
(dp1292
g156
(i__main__
DelphiProceduralDeclaration
p1293
(dp1294
g47
(lp1295
(i__main__
DelphiFormalParameter
p1296
(dp1297
g69
Nsg70
(lp1298
S'selectionInformation'
p1299
asg73
(i__main__
DelphiNamedType
p1300
(dp1301
g24
S'TSelectionInformation'
p1302
sg77
g1
sg78
Nsbsg79
S'var'
p1303
sba(i__main__
DelphiFormalParameter
p1304
(dp1305
g69
Nsg70
(lp1306
S'control'
p1307
asg73
(i__main__
DelphiNamedType
p1308
(dp1309
g24
S'TControl'
p1310
sg77
g1
sg78
Nsbsg79
Nsbasg17
S'RecordSelectionInformation'
p1311
sg50
Nsbsg17
g1311
sg50
Nsg158
(lp1312
sg160
(lp1313
S'selectionInformation'
p1314
asg162
(lp1315
g1314
aS'control'
p1316
asg165
(dp1317
g1316
(i__main__
DelphiNamedType
p1318
(dp1319
g24
S'TControl'
p1320
sg77
g1
sg78
Nsbsg1314
(i__main__
DelphiNamedType
p1321
(dp1322
g24
S'TSelectionInformation'
p1323
sg77
g1
sg78
Nsbssg47
(lp1324
(i__main__
DelphiFormalParameter
p1325
(dp1326
g69
Nsg70
(lp1327
g1314
asg73
g1321
sg79
g1303
sba(i__main__
DelphiFormalParameter
p1328
(dp1329
g69
Nsg70
(lp1330
g1316
asg73
g1318
sg79
Nsbasg168
(lp1331
sg170
(i__main__
DelphiBlock
p1332
(dp1333
g173
(idelphi
DelphiCompoundStatement
p1334
(dp1335
g176
(lp1336
(idelphi
DelphiIfStatement
p1337
(dp1338
g180
(idelphi
DelphiRelOp
p1339
(dp1340
g183
(i__main__
DelphiIdentAccess
p1341
(dp1342
g186
S'control'
p1343
sg188
(lp1344
sbsg190
(i__main__
DelphiIdentAccess
p1345
(dp1346
g186
S'TCustomEdit'
p1347
sg188
(lp1348
sbsg193
S'is'
p1349
sbsg195
(idelphi
DelphiIfStatement
p1350
(dp1351
g180
(idelphi
DelphiRelOp
p1352
(dp1353
g183
(i__main__
DelphiIdentAccess
p1354
(dp1355
g186
S'control'
p1356
sg188
(lp1357
sbsg190
(i__main__
DelphiIdentAccess
p1358
(dp1359
g186
S'TQuickFillComboBox'
p1360
sg188
(lp1361
sbsg193
g1349
sbsg195
(idelphi
DelphiCompoundStatement
p1362
(dp1363
g176
(lp1364
(idelphi
DelphiRaiseStatement
p1365
(dp1366
g180
(i__main__
DelphiIdentAccess
p1367
(dp1368
g186
S'Exception'
p1369
sg188
(lp1370
(idelphi
DelphiFieldEndAccess
p1371
(dp1372
g207
S'create'
p1373
sba(idelphi
DelphiFunctionEndAccess
p1374
(dp1375
g415
(lp1376
(idelphi
DelphiStringAccess
p1377
(dp1378
g188
(lp1379
sg25
(idelphi
DelphiStringValue
p1380
(dp1381
g25
S'RecordSelectionInformation: unsupported control class'
p1382
sbsbasbasbsg59
(lp1383
S' error\r'
p1384
asbasbsg196
(idelphi
DelphiCompoundStatement
p1385
(dp1386
g176
(lp1387
(i__main__
DelphiAssignStatement
p1388
(dp1389
g199
(idelphi
DelphiNestedExpressionListAccess
p1390
(dp1391
g188
(lp1392
(idelphi
DelphiFieldEndAccess
p1393
(dp1394
g207
S'text'
p1395
sbasg415
(lp1396
(idelphi
DelphiMulOp
p1397
(dp1398
S'signedFactor2'
p1399
(i__main__
DelphiIdentAccess
p1400
(dp1401
g186
S'TQuickFillComboBox'
p1402
sg188
(lp1403
sbsS'mulOp'
p1404
S'as'
p1405
sS'signedFactor1'
p1406
(i__main__
DelphiIdentAccess
p1407
(dp1408
g186
S'control'
p1409
sg188
(lp1410
sbsbasbsg200
(i__main__
DelphiIdentAccess
p1411
(dp1412
g186
S'selectionInformation'
p1413
sg188
(lp1414
(idelphi
DelphiFieldEndAccess
p1415
(dp1416
g207
S'text'
p1417
sbasbsba(i__main__
DelphiAssignStatement
p1418
(dp1419
g199
(idelphi
DelphiNestedExpressionListAccess
p1420
(dp1421
g188
(lp1422
(idelphi
DelphiFieldEndAccess
p1423
(dp1424
g207
S'selStart'
p1425
sbasg415
(lp1426
(idelphi
DelphiMulOp
p1427
(dp1428
g1399
(i__main__
DelphiIdentAccess
p1429
(dp1430
g186
S'TQuickFillComboBox'
p1431
sg188
(lp1432
sbsg1404
g1405
sg1406
(i__main__
DelphiIdentAccess
p1433
(dp1434
g186
S'control'
p1435
sg188
(lp1436
sbsbasbsg200
(i__main__
DelphiIdentAccess
p1437
(dp1438
g186
S'selectionInformation'
p1439
sg188
(lp1440
(idelphi
DelphiFieldEndAccess
p1441
(dp1442
g207
S'selStart'
p1443
sbasbsba(i__main__
DelphiAssignStatement
p1444
(dp1445
g199
(idelphi
DelphiNestedExpressionListAccess
p1446
(dp1447
g188
(lp1448
(idelphi
DelphiFieldEndAccess
p1449
(dp1450
g207
S'selLength'
p1451
sbasg415
(lp1452
(idelphi
DelphiMulOp
p1453
(dp1454
g1399
(i__main__
DelphiIdentAccess
p1455
(dp1456
g186
S'TQuickFillComboBox'
p1457
sg188
(lp1458
sbsg1404
g1405
sg1406
(i__main__
DelphiIdentAccess
p1459
(dp1460
g186
S'control'
p1461
sg188
(lp1462
sbsbasbsg200
(i__main__
DelphiIdentAccess
p1463
(dp1464
g186
S'selectionInformation'
p1465
sg188
(lp1466
(idelphi
DelphiFieldEndAccess
p1467
(dp1468
g207
S'selLength'
p1469
sbasbsbasbsbsg196
(idelphi
DelphiCompoundStatement
p1470
(dp1471
g176
(lp1472
(i__main__
DelphiAssignStatement
p1473
(dp1474
g199
(idelphi
DelphiNestedExpressionListAccess
p1475
(dp1476
g188
(lp1477
(idelphi
DelphiFieldEndAccess
p1478
(dp1479
g207
S'text'
p1480
sbasg415
(lp1481
(idelphi
DelphiMulOp
p1482
(dp1483
g1399
(i__main__
DelphiIdentAccess
p1484
(dp1485
g186
S'TCustomEdit'
p1486
sg188
(lp1487
sbsg1404
g1405
sg1406
(i__main__
DelphiIdentAccess
p1488
(dp1489
g186
S'control'
p1490
sg188
(lp1491
sbsbasbsg200
(i__main__
DelphiIdentAccess
p1492
(dp1493
g186
S'selectionInformation'
p1494
sg188
(lp1495
(idelphi
DelphiFieldEndAccess
p1496
(dp1497
g207
S'text'
p1498
sbasbsba(i__main__
DelphiAssignStatement
p1499
(dp1500
g199
(idelphi
DelphiNestedExpressionListAccess
p1501
(dp1502
g188
(lp1503
(idelphi
DelphiFieldEndAccess
p1504
(dp1505
g207
S'selStart'
p1506
sbasg415
(lp1507
(idelphi
DelphiMulOp
p1508
(dp1509
g1399
(i__main__
DelphiIdentAccess
p1510
(dp1511
g186
S'TCustomEdit'
p1512
sg188
(lp1513
sbsg1404
g1405
sg1406
(i__main__
DelphiIdentAccess
p1514
(dp1515
g186
S'control'
p1516
sg188
(lp1517
sbsbasbsg200
(i__main__
DelphiIdentAccess
p1518
(dp1519
g186
S'selectionInformation'
p1520
sg188
(lp1521
(idelphi
DelphiFieldEndAccess
p1522
(dp1523
g207
S'selStart'
p1524
sbasbsba(i__main__
DelphiAssignStatement
p1525
(dp1526
g199
(idelphi
DelphiNestedExpressionListAccess
p1527
(dp1528
g188
(lp1529
(idelphi
DelphiFieldEndAccess
p1530
(dp1531
g207
S'selLength'
p1532
sbasg415
(lp1533
(idelphi
DelphiMulOp
p1534
(dp1535
g1399
(i__main__
DelphiIdentAccess
p1536
(dp1537
g186
S'TCustomEdit'
p1538
sg188
(lp1539
sbsg1404
g1405
sg1406
(i__main__
DelphiIdentAccess
p1540
(dp1541
g186
S'control'
p1542
sg188
(lp1543
sbsbasbsg200
(i__main__
DelphiIdentAccess
p1544
(dp1545
g186
S'selectionInformation'
p1546
sg188
(lp1547
(idelphi
DelphiFieldEndAccess
p1548
(dp1549
g207
S'selLength'
p1550
sbasbsbasbsbasbsg211
(lp1551
sbsba(i__main__
DelphiProceduralImplementation
p1552
(dp1553
g156
(i__main__
DelphiProceduralDeclaration
p1554
(dp1555
g47
(lp1556
(i__main__
DelphiFormalParameter
p1557
(dp1558
g69
Nsg70
(lp1559
S'selectionInformation'
p1560
asg73
(i__main__
DelphiNamedType
p1561
(dp1562
g24
S'TSelectionInformation'
p1563
sg77
g1
sg78
Nsbsg79
g112
sba(i__main__
DelphiFormalParameter
p1564
(dp1565
g69
Nsg70
(lp1566
S'control'
p1567
asg73
(i__main__
DelphiNamedType
p1568
(dp1569
g24
S'TControl'
p1570
sg77
g1
sg78
Nsbsg79
Nsbasg17
S'RestoreSelectionInformation'
p1571
sg50
Nsbsg17
g1571
sg50
Nsg158
(lp1572
sg160
(lp1573
sg162
(lp1574
S'selectionInformation'
p1575
aS'control'
p1576
asg165
(dp1577
g1576
(i__main__
DelphiNamedType
p1578
(dp1579
g24
S'TControl'
p1580
sg77
g1
sg78
Nsbsg1575
(i__main__
DelphiNamedType
p1581
(dp1582
g24
S'TSelectionInformation'
p1583
sg77
g1
sg78
Nsbssg47
(lp1584
(i__main__
DelphiFormalParameter
p1585
(dp1586
g69
Nsg70
(lp1587
g1575
asg73
g1581
sg79
g112
sba(i__main__
DelphiFormalParameter
p1588
(dp1589
g69
Nsg70
(lp1590
g1576
asg73
g1578
sg79
Nsbasg168
(lp1591
sg170
(i__main__
DelphiBlock
p1592
(dp1593
g173
(idelphi
DelphiCompoundStatement
p1594
(dp1595
g176
(lp1596
(idelphi
DelphiIfStatement
p1597
(dp1598
g180
(idelphi
DelphiRelOp
p1599
(dp1600
g183
(i__main__
DelphiIdentAccess
p1601
(dp1602
g186
S'control'
p1603
sg188
(lp1604
sbsg190
(i__main__
DelphiIdentAccess
p1605
(dp1606
g186
S'TCustomEdit'
p1607
sg188
(lp1608
sbsg193
g1349
sbsg195
(idelphi
DelphiIfStatement
p1609
(dp1610
g180
(idelphi
DelphiRelOp
p1611
(dp1612
g183
(i__main__
DelphiIdentAccess
p1613
(dp1614
g186
S'control'
p1615
sg188
(lp1616
sbsg190
(i__main__
DelphiIdentAccess
p1617
(dp1618
g186
S'TQuickFillComboBox'
p1619
sg188
(lp1620
sbsg193
g1349
sbsg195
(idelphi
DelphiCompoundStatement
p1621
(dp1622
g176
(lp1623
(idelphi
DelphiRaiseStatement
p1624
(dp1625
g180
(i__main__
DelphiIdentAccess
p1626
(dp1627
g186
S'Exception'
p1628
sg188
(lp1629
(idelphi
DelphiFieldEndAccess
p1630
(dp1631
g207
S'create'
p1632
sba(idelphi
DelphiFunctionEndAccess
p1633
(dp1634
g415
(lp1635
(idelphi
DelphiStringAccess
p1636
(dp1637
g188
(lp1638
sg25
(idelphi
DelphiStringValue
p1639
(dp1640
g25
S'RestoreSelectionInformation: unsupported control class'
p1641
sbsbasbasbsg59
(lp1642
S' error\r'
p1643
asbasbsg196
(idelphi
DelphiCompoundStatement
p1644
(dp1645
g176
(lp1646
(i__main__
DelphiAssignStatement
p1647
(dp1648
g199
(i__main__
DelphiIdentAccess
p1649
(dp1650
g186
S'selectionInformation'
p1651
sg188
(lp1652
(idelphi
DelphiFieldEndAccess
p1653
(dp1654
g207
S'text'
p1655
sbasbsg200
(idelphi
DelphiNestedExpressionListAccess
p1656
(dp1657
g188
(lp1658
(idelphi
DelphiFieldEndAccess
p1659
(dp1660
g207
S'text'
p1661
sbasg415
(lp1662
(idelphi
DelphiMulOp
p1663
(dp1664
g1399
(i__main__
DelphiIdentAccess
p1665
(dp1666
g186
S'TQuickFillComboBox'
p1667
sg188
(lp1668
sbsg1404
g1405
sg1406
(i__main__
DelphiIdentAccess
p1669
(dp1670
g186
S'control'
p1671
sg188
(lp1672
sbsbasbsba(i__main__
DelphiAssignStatement
p1673
(dp1674
g199
(i__main__
DelphiIdentAccess
p1675
(dp1676
g186
S'selectionInformation'
p1677
sg188
(lp1678
(idelphi
DelphiFieldEndAccess
p1679
(dp1680
g207
S'selStart'
p1681
sbasbsg200
(idelphi
DelphiNestedExpressionListAccess
p1682
(dp1683
g188
(lp1684
(idelphi
DelphiFieldEndAccess
p1685
(dp1686
g207
S'selStart'
p1687
sbasg415
(lp1688
(idelphi
DelphiMulOp
p1689
(dp1690
g1399
(i__main__
DelphiIdentAccess
p1691
(dp1692
g186
S'TQuickFillComboBox'
p1693
sg188
(lp1694
sbsg1404
g1405
sg1406
(i__main__
DelphiIdentAccess
p1695
(dp1696
g186
S'control'
p1697
sg188
(lp1698
sbsbasbsba(i__main__
DelphiAssignStatement
p1699
(dp1700
g199
(i__main__
DelphiIdentAccess
p1701
(dp1702
g186
S'selectionInformation'
p1703
sg188
(lp1704
(idelphi
DelphiFieldEndAccess
p1705
(dp1706
g207
S'selLength'
p1707
sbasbsg200
(idelphi
DelphiNestedExpressionListAccess
p1708
(dp1709
g188
(lp1710
(idelphi
DelphiFieldEndAccess
p1711
(dp1712
g207
S'selLength'
p1713
sbasg415
(lp1714
(idelphi
DelphiMulOp
p1715
(dp1716
g1399
(i__main__
DelphiIdentAccess
p1717
(dp1718
g186
S'TQuickFillComboBox'
p1719
sg188
(lp1720
sbsg1404
g1405
sg1406
(i__main__
DelphiIdentAccess
p1721
(dp1722
g186
S'control'
p1723
sg188
(lp1724
sbsbasbsbasbsbsg196
(idelphi
DelphiCompoundStatement
p1725
(dp1726
g176
(lp1727
(i__main__
DelphiAssignStatement
p1728
(dp1729
g199
(i__main__
DelphiIdentAccess
p1730
(dp1731
g186
S'selectionInformation'
p1732
sg188
(lp1733
(idelphi
DelphiFieldEndAccess
p1734
(dp1735
g207
S'text'
p1736
sbasbsg200
(idelphi
DelphiNestedExpressionListAccess
p1737
(dp1738
g188
(lp1739
(idelphi
DelphiFieldEndAccess
p1740
(dp1741
g207
S'text'
p1742
sbasg415
(lp1743
(idelphi
DelphiMulOp
p1744
(dp1745
g1399
(i__main__
DelphiIdentAccess
p1746
(dp1747
g186
S'TCustomEdit'
p1748
sg188
(lp1749
sbsg1404
g1405
sg1406
(i__main__
DelphiIdentAccess
p1750
(dp1751
g186
S'control'
p1752
sg188
(lp1753
sbsbasbsba(i__main__
DelphiAssignStatement
p1754
(dp1755
g199
(i__main__
DelphiIdentAccess
p1756
(dp1757
g186
S'selectionInformation'
p1758
sg188
(lp1759
(idelphi
DelphiFieldEndAccess
p1760
(dp1761
g207
S'selStart'
p1762
sbasbsg200
(idelphi
DelphiNestedExpressionListAccess
p1763
(dp1764
g188
(lp1765
(idelphi
DelphiFieldEndAccess
p1766
(dp1767
g207
S'selStart'
p1768
sbasg415
(lp1769
(idelphi
DelphiMulOp
p1770
(dp1771
g1399
(i__main__
DelphiIdentAccess
p1772
(dp1773
g186
S'TCustomEdit'
p1774
sg188
(lp1775
sbsg1404
g1405
sg1406
(i__main__
DelphiIdentAccess
p1776
(dp1777
g186
S'control'
p1778
sg188
(lp1779
sbsbasbsba(i__main__
DelphiAssignStatement
p1780
(dp1781
g199
(i__main__
DelphiIdentAccess
p1782
(dp1783
g186
S'selectionInformation'
p1784
sg188
(lp1785
(idelphi
DelphiFieldEndAccess
p1786
(dp1787
g207
S'selLength'
p1788
sbasbsg200
(idelphi
DelphiNestedExpressionListAccess
p1789
(dp1790
g188
(lp1791
(idelphi
DelphiFieldEndAccess
p1792
(dp1793
g207
S'selLength'
p1794
sbasg415
(lp1795
(idelphi
DelphiMulOp
p1796
(dp1797
g1399
(i__main__
DelphiIdentAccess
p1798
(dp1799
g186
S'TCustomEdit'
p1800
sg188
(lp1801
sbsg1404
g1405
sg1406
(i__main__
DelphiIdentAccess
p1802
(dp1803
g186
S'control'
p1804
sg188
(lp1805
sbsbasbsbasbsbasbsg211
(lp1806
sbsbasS'includedUnits'
p1807
NsS'implementationUses'
p1808
(lp1809
S'SysUtils'
p1810
aS'QuickFillComboBox'
p1811
aS'USDomain'
p1812
asg17
S'usfocuscommands'
p1813
sS'constSections'
p1814
(lp1815
sS'globalsInProperCase'
p1816
NsS'interfaceUses'
p1817
(lp1818
S'delphi_compatability'
p1819
aS'Windows'
p1820
aS'Graphics'
p1821
aS'Classes'
p1822
aS'Forms'
p1823
aS'Controls'
p1824
aS'StdCtrls'
p1825
aS'UCommand'
p1826
aS'USWorld'
p1827
aS'USModelChanges'
p1828
asS'finalCommentToken'
p1829
(i__main__
PassStatement
p1830
(dp1831
g211
(lp1832
sbsS'varSections'
p1833
(lp1834
sS'globals'
p1835
NsS'originalFileName'
p1836
S'../../storyharp-js/converted_source/usfocuscommands.pas'
p1837
sS'proceduralImplementations'
p1838
(dp1839
S'recordselectioninformation'
p1840
g1291
sS'restoreselectioninformation'
p1841
g1552
ssS'fileName'
p1842
S'/home/pdfernhout/workspace/storyharp-js/converted_source/usfocuscommands.pas'
p1843
sS'proceduralDeclarations'
p1844
(dp1845
S'recordselectioninformation'
p1846
g1293
sS'restoreselectioninformation'
p1847
g1554
ssS'types'
p1848
(dp1849
S'ttextfocusenteraction'
p1850
g800
sS'tfocusexitaction'
p1851
g455
sS'tfocusshiftcommand'
p1852
g814
sS'tfocusenteraction'
p1853
g565
sS'tselectioninformation'
p1854
g5
sS'ttextfocusexitaction'
p1855
g673
sS'tfocusshiftaction'
p1856
g31
ssb.