(i__main__
DelphiUnit
p1
(dp2
S'sectionsInOrderDefined'
p3
(lp4
(i__main__
DelphiClass
p5
(dp6
S'variableNamesInProperCase'
p7
(dp8
sS'name'
p9
S'TForm1'
p10
sS'methodDeclarations'
p11
(dp12
sS'superclassNamedTypes'
p13
(lp14
(i__main__
DelphiNamedType
p15
(dp16
S'typeName'
p17
S'TForm'
p18
sS'unitDefinedIn'
p19
g1
sS'unitName'
p20
NsbasS'variableNames'
p21
(dp22
sS'methodNamesInDefinedOrder'
p23
(lp24
sS'methodImplementations'
p25
(dp26
sS'propertyDeclarations'
p27
(dp28
sS'variableNamesInDeclaredOrder'
p29
(lp30
sba(i__main__
DelphiVarSection
p31
(dp32
S'atTopLevel'
p33
I1
sS'varDeclList'
p34
(lp35
(idelphi
DelphiVarDecl
p36
(dp37
S'constExpression'
p38
NsS'identList'
p39
(lp40
S'Form1'
p41
asS'theType'
p42
(i__main__
DelphiNamedType
p43
(dp44
g17
S'TForm1'
p45
sg19
g1
sg20
NsbsbasbasS'includedUnits'
p46
NsS'implementationUses'
p47
Nsg9
S'usmain'
p48
sS'constSections'
p49
(lp50
sS'globalsInProperCase'
p51
NsS'interfaceUses'
p52
(lp53
S'delphi_compatability'
p54
aS'Windows'
p55
aS'Messages'
p56
aS'SysUtils'
p57
aS'Classes'
p58
aS'Graphics'
p59
aS'Controls'
p60
aS'Forms'
p61
aS'Dialogs'
p62
asS'finalCommentToken'
p63
(i__main__
PassStatement
p64
(dp65
S'limitedDeclSectionList'
p66
(lp67
sS'commentLinesBefore'
p68
(lp69
S' Private declarations '
p70
aS' Public declarations '
p71
aS'$R *.DFM'
p72
asbsS'varSections'
p73
(lp74
g31
asS'globals'
p75
NsS'originalFileName'
p76
S'../../storyharp-js/converted_source/usmain.pas'
p77
sS'proceduralImplementations'
p78
(dp79
sS'fileName'
p80
S'/home/pdfernhout/workspace/storyharp-js/converted_source/usmain.pas'
p81
sS'proceduralDeclarations'
p82
(dp83
sS'types'
p84
(dp85
S'tform1'
p86
g5
ssb.