(i__main__
DelphiUnit
p1
(dp2
S'sectionsInOrderDefined'
p3
(lp4
(i__main__
DelphiClass
p5
(dp6
S'variableNamesInProperCase'
p7
(dp8
S'helpbutton'
p9
S'helpButton'
p10
sS'label1'
p11
S'Label1'
p12
sS'label2'
p13
S'Label2'
p14
sS'label3'
p15
S'Label3'
p16
sS'label4'
p17
S'Label4'
p18
sS'label5'
p19
S'Label5'
p20
sS'label6'
p21
S'Label6'
p22
sS'extramediadirectoryedit'
p23
S'extraMediaDirectoryEdit'
p24
sS'openworldfiledirectory'
p25
S'openWorldFileDirectory'
p26
sS'cancel'
p27
S'cancel'
p28
sS'close'
p29
S'Close'
p30
sS'windowsmediadirectory'
p31
S'windowsMediaDirectory'
p32
sS'exedirectory'
p33
S'exeDirectory'
p34
ssS'name'
p35
S'TExtraMediaDirectoryForm'
p36
sS'methodDeclarations'
p37
(dp38
S'helpbuttonclick'
p39
(i__main__
DelphiMethodDeclaration
p40
(dp41
g35
S'helpButtonClick'
p42
sS'formalParameters'
p43
(lp44
(i__main__
DelphiFormalParameter
p45
(dp46
S'initialValue'
p47
NsS'names'
p48
(lp49
S'Sender'
p50
asS'theType'
p51
(i__main__
DelphiNamedType
p52
(dp53
S'typeName'
p54
S'TObject'
p55
sS'unitDefinedIn'
p56
g1
sS'unitName'
p57
NsbsS'parameterVariety'
p58
NsbasS'className'
p59
g36
sS'resultType'
p60
NsS'isClassMethod'
p61
I0
sS'methodType'
p62
S'procedure'
p63
sbsS'formactivate'
p64
(i__main__
DelphiMethodDeclaration
p65
(dp66
g35
S'FormActivate'
p67
sg43
(lp68
(i__main__
DelphiFormalParameter
p69
(dp70
g47
Nsg48
(lp71
S'Sender'
p72
asg51
(i__main__
DelphiNamedType
p73
(dp74
g54
S'TObject'
p75
sg56
g1
sg57
Nsbsg58
Nsbasg59
g36
sg60
Nsg61
I0
sg62
g63
sbsS'closeclick'
p76
(i__main__
DelphiMethodDeclaration
p77
(dp78
g35
S'CloseClick'
p79
sg43
(lp80
(i__main__
DelphiFormalParameter
p81
(dp82
g47
Nsg48
(lp83
S'Sender'
p84
asg51
(i__main__
DelphiNamedType
p85
(dp86
g54
S'TObject'
p87
sg56
g1
sg57
Nsbsg58
Nsbasg59
g36
sg60
Nsg61
I0
sg62
g63
sbssS'superclassNamedTypes'
p88
(lp89
(i__main__
DelphiNamedType
p90
(dp91
g54
S'TForm'
p92
sg56
g1
sg57
NsbasS'variableNames'
p93
(dp94
S'helpbutton'
p95
(i__main__
DelphiNamedType
p96
(dp97
g54
S'TSpeedButton'
p98
sg56
g1
sg57
NsbsS'label1'
p99
(i__main__
DelphiNamedType
p100
(dp101
g54
S'TLabel'
p102
sg56
g1
sg57
NsbsS'label2'
p103
(i__main__
DelphiNamedType
p104
(dp105
g54
S'TLabel'
p106
sg56
g1
sg57
NsbsS'label3'
p107
(i__main__
DelphiNamedType
p108
(dp109
g54
S'TLabel'
p110
sg56
g1
sg57
NsbsS'label4'
p111
(i__main__
DelphiNamedType
p112
(dp113
g54
S'TLabel'
p114
sg56
g1
sg57
NsbsS'label5'
p115
(i__main__
DelphiNamedType
p116
(dp117
g54
S'TLabel'
p118
sg56
g1
sg57
NsbsS'label6'
p119
(i__main__
DelphiNamedType
p120
(dp121
g54
S'TLabel'
p122
sg56
g1
sg57
NsbsS'extramediadirectoryedit'
p123
(i__main__
DelphiNamedType
p124
(dp125
g54
S'TEdit'
p126
sg56
g1
sg57
NsbsS'openworldfiledirectory'
p127
(i__main__
DelphiNamedType
p128
(dp129
g54
S'TEdit'
p130
sg56
g1
sg57
NsbsS'cancel'
p131
(i__main__
DelphiNamedType
p132
(dp133
g54
S'TButton'
p134
sg56
g1
sg57
NsbsS'close'
p135
(i__main__
DelphiNamedType
p136
(dp137
g54
S'TButton'
p138
sg56
g1
sg57
NsbsS'windowsmediadirectory'
p139
(i__main__
DelphiNamedType
p140
(dp141
g54
S'TEdit'
p142
sg56
g1
sg57
NsbsS'exedirectory'
p143
(i__main__
DelphiNamedType
p144
(dp145
g54
S'TEdit'
p146
sg56
g1
sg57
NsbssS'methodNamesInDefinedOrder'
p147
(lp148
S'formactivate'
p149
aS'closeclick'
p150
aS'helpbuttonclick'
p151
asS'methodImplementations'
p152
(dp153
S'helpbuttonclick'
p154
(i__main__
DelphiMethodImplementation
p155
(dp156
S'originalDeclaration'
p157
g40
sg35
g42
sg43
(lp158
(i__main__
DelphiFormalParameter
p159
(dp160
g47
Nsg48
(lp161
S'Sender'
p162
asg51
(i__main__
DelphiNamedType
p163
(dp164
g54
S'TObject'
p165
sg56
g1
sg57
Nsbsg58
NsbasS'varParamIndexes'
p166
(lp167
sS'varParamsSkipped'
p168
(lp169
sS'argNames'
p170
(lp171
S'self'
p172
ag162
asS'argTypes'
p173
(dp174
g162
g163
ssg59
S'TExtraMediaDirectoryForm'
p175
sg60
NsS'varParamNames'
p176
(lp177
sg61
I0
sg62
g63
sS'block'
p178
(i__main__
DelphiBlock
p179
(dp180
S'compoundStatement'
p181
(idelphi
DelphiCompoundStatement
p182
(dp183
S'statements'
p184
(lp185
(i__main__
DelphiAssignStatement
p186
(dp187
S'newValueExpression'
p188
NsS'destinationExpression'
p189
(i__main__
DelphiIdentAccess
p190
(dp191
S'ident'
p192
S'application'
p193
sS'endAccessList'
p194
(lp195
(idelphi
DelphiFieldEndAccess
p196
(dp197
S'field'
p198
S'helpJump'
p199
sba(idelphi
DelphiFunctionEndAccess
p200
(dp201
S'expressionList'
p202
(lp203
(idelphi
DelphiStringAccess
p204
(dp205
g194
(lp206
sS'string'
p207
(idelphi
DelphiStringValue
p208
(dp209
g207
S'Setting_the_sounds_and_music_directory'
p210
sbsbasbasbsbasbsS'limitedDeclSectionList'
p211
(lp212
sbsbsS'formactivate'
p213
(i__main__
DelphiMethodImplementation
p214
(dp215
g157
g65
sg35
g67
sg43
(lp216
(i__main__
DelphiFormalParameter
p217
(dp218
g47
Nsg48
(lp219
S'Sender'
p220
asg51
(i__main__
DelphiNamedType
p221
(dp222
g54
S'TObject'
p223
sg56
g1
sg57
Nsbsg58
Nsbasg166
(lp224
sg168
(lp225
sg170
(lp226
g172
ag220
asg173
(dp227
g220
g221
ssg59
S'TExtraMediaDirectoryForm'
p228
sg60
Nsg176
(lp229
sg61
I0
sg62
g63
sg178
(i__main__
DelphiBlock
p230
(dp231
g181
(idelphi
DelphiCompoundStatement
p232
(dp233
g184
(lp234
(i__main__
DelphiAssignStatement
p235
(dp236
g188
(i__main__
DelphiIdentAccess
p237
(dp238
g192
S'domain'
p239
sg194
(lp240
(idelphi
DelphiFieldEndAccess
p241
(dp242
g198
S'worldFileName'
p243
sbasbsg189
(i__main__
DelphiIdentAccess
p244
(dp245
g192
S'openWorldFileDirectory'
p246
sg194
(lp247
(idelphi
DelphiFieldEndAccess
p248
(dp249
g198
S'text'
p250
sbasbsba(i__main__
DelphiAssignStatement
p251
(dp252
g188
(i__main__
DelphiIdentAccess
p253
(dp254
g192
S'ExtractFilePath'
p255
sg194
(lp256
(idelphi
DelphiFunctionEndAccess
p257
(dp258
g202
(lp259
(i__main__
DelphiIdentAccess
p260
(dp261
g192
S'domain'
p262
sg194
(lp263
(idelphi
DelphiFieldEndAccess
p264
(dp265
g198
S'worldFileName'
p266
sbasbasbasbsg189
(i__main__
DelphiIdentAccess
p267
(dp268
g192
S'openWorldFileDirectory'
p269
sg194
(lp270
(idelphi
DelphiFieldEndAccess
p271
(dp272
g198
S'text'
p273
sbasbsba(idelphi
DelphiIfStatement
p274
(dp275
S'expression'
p276
(idelphi
DelphiRelOp
p277
(dp278
S'simpleExpression1'
p279
(i__main__
DelphiIdentAccess
p280
(dp281
g192
S'openWorldFileDirectory'
p282
sg194
(lp283
(idelphi
DelphiFieldEndAccess
p284
(dp285
g198
S'text'
p286
sbasbsS'simpleExpression2'
p287
(idelphi
DelphiStringAccess
p288
(dp289
g194
(lp290
sg207
(idelphi
DelphiStringValue
p291
(dp292
g207
S''
sbsbsS'relOp'
p293
S'='
sbsS'ifFalseStatement'
p294
NsS'ifTrueStatement'
p295
(i__main__
DelphiAssignStatement
p296
(dp297
g188
(idelphi
DelphiAddOp
p298
(dp299
S'addOp'
p300
S'+'
sS'term2'
p301
(idelphi
DelphiStringAccess
p302
(dp303
g194
(lp304
sg207
(idelphi
DelphiStringValue
p305
(dp306
g207
S'\\'
sbsbsS'term1'
p307
(i__main__
DelphiIdentAccess
p308
(dp309
g192
S'GetCurrentDir'
p310
sg194
(lp311
sbsbsg189
(i__main__
DelphiIdentAccess
p312
(dp313
g192
S'openWorldFileDirectory'
p314
sg194
(lp315
(idelphi
DelphiFieldEndAccess
p316
(dp317
g198
S'text'
p318
sbasbsbsba(i__main__
DelphiAssignStatement
p319
(dp320
g188
(i__main__
DelphiIdentAccess
p321
(dp322
g192
S'domain'
p323
sg194
(lp324
(idelphi
DelphiFieldEndAccess
p325
(dp326
g198
S'options'
p327
sba(idelphi
DelphiFieldEndAccess
p328
(dp329
g198
S'extraMediaDirectory'
p330
sbasbsg189
(i__main__
DelphiIdentAccess
p331
(dp332
g192
S'extraMediaDirectoryEdit'
p333
sg194
(lp334
(idelphi
DelphiFieldEndAccess
p335
(dp336
g198
S'text'
p337
sbasbsba(i__main__
DelphiAssignStatement
p338
(dp339
g188
(i__main__
DelphiIdentAccess
p340
(dp341
g192
S'ExtractFilePath'
p342
sg194
(lp343
(idelphi
DelphiFunctionEndAccess
p344
(dp345
g202
(lp346
(i__main__
DelphiIdentAccess
p347
(dp348
g192
S'Application'
p349
sg194
(lp350
(idelphi
DelphiFieldEndAccess
p351
(dp352
g198
S'exeName'
p353
sbasbasbasbsg189
(i__main__
DelphiIdentAccess
p354
(dp355
g192
S'exeDirectory'
p356
sg194
(lp357
(idelphi
DelphiFieldEndAccess
p358
(dp359
g198
S'text'
p360
sbasbsba(i__main__
DelphiAssignStatement
p361
(dp362
g188
(i__main__
DelphiIdentAccess
p363
(dp364
g192
S'getWindowsMediaDirectory'
p365
sg194
(lp366
sbsg189
(i__main__
DelphiIdentAccess
p367
(dp368
g192
S'windowsMediaDirectory'
p369
sg194
(lp370
(idelphi
DelphiFieldEndAccess
p371
(dp372
g198
S'text'
p373
sbasbsbasbsg211
(lp374
sbsS'commentLinesBefore'
p375
(lp376
S' Private declarations '
p377
aS' Public declarations '
p378
aS'$R *.DFM'
p379
asbsS'closeclick'
p380
(i__main__
DelphiMethodImplementation
p381
(dp382
g157
g77
sg35
g79
sg43
(lp383
(i__main__
DelphiFormalParameter
p384
(dp385
g47
Nsg48
(lp386
S'Sender'
p387
asg51
(i__main__
DelphiNamedType
p388
(dp389
g54
S'TObject'
p390
sg56
g1
sg57
Nsbsg58
Nsbasg166
(lp391
sg168
(lp392
sg170
(lp393
g172
ag387
asg173
(dp394
g387
g388
ssg59
S'TExtraMediaDirectoryForm'
p395
sg60
Nsg176
(lp396
sg61
I0
sg62
g63
sg178
(i__main__
DelphiBlock
p397
(dp398
g181
(idelphi
DelphiCompoundStatement
p399
(dp400
g184
(lp401
(idelphi
DelphiIfStatement
p402
(dp403
g276
(idelphi
DelphiNot
p404
(dp405
S'factor'
p406
(i__main__
DelphiIdentAccess
p407
(dp408
g192
S'directoryExists'
p409
sg194
(lp410
(idelphi
DelphiFunctionEndAccess
p411
(dp412
g202
(lp413
(i__main__
DelphiIdentAccess
p414
(dp415
g192
S'extraMediaDirectoryEdit'
p416
sg194
(lp417
(idelphi
DelphiFieldEndAccess
p418
(dp419
g198
S'text'
p420
sbasbasbasbsbsg294
Nsg295
(idelphi
DelphiCompoundStatement
p421
(dp422
g184
(lp423
(i__main__
DelphiAssignStatement
p424
(dp425
g188
Nsg189
(i__main__
DelphiIdentAccess
p426
(dp427
g192
S'ShowMessage'
p428
sg194
(lp429
(idelphi
DelphiFunctionEndAccess
p430
(dp431
g202
(lp432
(idelphi
DelphiStringAccess
p433
(dp434
g194
(lp435
sg207
(idelphi
DelphiStringValue
p436
(dp437
g207
S'The directory you specified does not exist.'
p438
sbsbasbasbsba(i__main__
DelphiExitStatement
p439
(dp440
S'proceduralOrMethodImplementation'
p441
g381
sbasbsba(i__main__
DelphiAssignStatement
p442
(dp443
g188
(i__main__
DelphiIdentAccess
p444
(dp445
g192
S'extraMediaDirectoryEdit'
p446
sg194
(lp447
(idelphi
DelphiFieldEndAccess
p448
(dp449
g198
S'text'
p450
sbasbsg189
(i__main__
DelphiIdentAccess
p451
(dp452
g192
S'domain'
p453
sg194
(lp454
(idelphi
DelphiFieldEndAccess
p455
(dp456
g198
S'options'
p457
sba(idelphi
DelphiFieldEndAccess
p458
(dp459
g198
S'extraMediaDirectory'
p460
sbasbsba(i__main__
DelphiAssignStatement
p461
(dp462
g188
(i__main__
DelphiIdentAccess
p463
(dp464
g192
S'mrOK'
p465
sg194
(lp466
sbsg189
(i__main__
DelphiIdentAccess
p467
(dp468
g192
S'modalResult'
p469
sg194
(lp470
sbsbasbsg211
(lp471
sbsbssS'propertyDeclarations'
p472
(dp473
sS'variableNamesInDeclaredOrder'
p474
(lp475
g30
ag28
ag10
ag12
ag14
ag16
ag24
ag18
ag20
ag22
ag26
ag34
ag32
asba(i__main__
DelphiVarSection
p476
(dp477
S'atTopLevel'
p478
I1
sS'varDeclList'
p479
(lp480
(idelphi
DelphiVarDecl
p481
(dp482
S'constExpression'
p483
NsS'identList'
p484
(lp485
S'ExtraMediaDirectoryForm'
p486
asg51
(i__main__
DelphiNamedType
p487
(dp488
g54
S'TExtraMediaDirectoryForm'
p489
sg56
g1
sg57
NsbsbasbasS'includedUnits'
p490
NsS'implementationUses'
p491
(lp492
S'FileCtrl'
p493
aS'USDomain'
p494
aS'USSpeech'
p495
asg35
S'usmediadirform'
p496
sS'constSections'
p497
(lp498
sS'globalsInProperCase'
p499
NsS'interfaceUses'
p500
(lp501
S'delphi_compatability'
p502
aS'Windows'
p503
aS'Messages'
p504
aS'SysUtils'
p505
aS'Classes'
p506
aS'Graphics'
p507
aS'Controls'
p508
aS'Forms'
p509
aS'Dialogs'
p510
aS'StdCtrls'
p511
aS'Buttons'
p512
asS'finalCommentToken'
p513
(i__main__
PassStatement
p514
(dp515
g211
(lp516
sbsS'varSections'
p517
(lp518
g476
asS'globals'
p519
NsS'originalFileName'
p520
S'../../storyharp-js/converted_source/usmediadirform.pas'
p521
sS'proceduralImplementations'
p522
(dp523
sS'fileName'
p524
S'/home/pdfernhout/workspace/storyharp-js/converted_source/usmediadirform.pas'
p525
sS'proceduralDeclarations'
p526
(dp527
sS'types'
p528
(dp529
S'textramediadirectoryform'
p530
g5
ssb.