(i__main__
DelphiUnit
p1
(dp2
S'sectionsInOrderDefined'
p3
(lp4
(i__main__
DelphiClass
p5
(dp6
S'variableNamesInProperCase'
p7
(dp8
sS'name'
p9
S'TModelChange'
p10
sS'methodDeclarations'
p11
(dp12
S'redochange'
p13
(i__main__
DelphiMethodDeclaration
p14
(dp15
g9
S'redoChange'
p16
sS'formalParameters'
p17
(lp18
sS'className'
p19
g10
sS'resultType'
p20
NsS'isClassMethod'
p21
I0
sS'methodType'
p22
S'procedure'
p23
sbsS'dochange'
p24
(i__main__
DelphiMethodDeclaration
p25
(dp26
g9
S'doChange'
p27
sg17
(lp28
sg19
g10
sg20
Nsg21
I0
sg22
g23
sbsS'undochange'
p29
(i__main__
DelphiMethodDeclaration
p30
(dp31
g9
S'undoChange'
p32
sg17
(lp33
sg19
g10
sg20
Nsg21
I0
sg22
g23
sbssS'superclassNamedTypes'
p34
(lp35
(i__main__
DelphiNamedType
p36
(dp37
S'typeName'
p38
S'TObject'
p39
sS'unitDefinedIn'
p40
g1
sS'unitName'
p41
NsbasS'variableNames'
p42
(dp43
sS'methodNamesInDefinedOrder'
p44
(lp45
S'dochange'
p46
aS'undochange'
p47
aS'redochange'
p48
asS'methodImplementations'
p49
(dp50
S'redochange'
p51
(i__main__
DelphiMethodImplementation
p52
(dp53
S'originalDeclaration'
p54
g14
sg9
g16
sg17
(lp55
sS'varParamIndexes'
p56
(lp57
sS'varParamsSkipped'
p58
(lp59
sS'argNames'
p60
(lp61
S'self'
p62
asS'argTypes'
p63
(dp64
sg19
S'TModelChange'
p65
sg20
NsS'varParamNames'
p66
(lp67
sg21
I0
sg22
g23
sS'block'
p68
(i__main__
DelphiBlock
p69
(dp70
S'compoundStatement'
p71
(idelphi
DelphiCompoundStatement
p72
(dp73
S'statements'
p74
(lp75
(i__main__
DelphiAssignStatement
p76
(dp77
S'newValueExpression'
p78
NsS'destinationExpression'
p79
(i__main__
DelphiIdentAccess
p80
(dp81
S'ident'
p82
S'self'
p83
sS'endAccessList'
p84
(lp85
(idelphi
DelphiFieldEndAccess
p86
(dp87
S'field'
p88
S'doChange'
p89
sbasbsbasS'commentLinesBefore'
p90
(lp91
S' sublasses may override and should call inherited doChange\r'
p92
asbsS'limitedDeclSectionList'
p93
(lp94
sbsbsS'dochange'
p95
(i__main__
DelphiMethodImplementation
p96
(dp97
g54
g25
sg9
g27
sg17
(lp98
sg56
(lp99
sg58
(lp100
sg60
(lp101
g62
asg63
(dp102
sg19
S'TModelChange'
p103
sg20
Nsg66
(lp104
sg21
I0
sg22
g23
sg68
(i__main__
DelphiBlock
p105
(dp106
g71
(idelphi
DelphiCompoundStatement
p107
(dp108
g74
Nsg90
(lp109
S' subclasses should override\r'
p110
asbsg93
(lp111
sbsg90
(lp112
S'////////////////////////////////// TModelChange /////////////////////////////////////\r'
p113
asbsS'undochange'
p114
(i__main__
DelphiMethodImplementation
p115
(dp116
g54
g30
sg9
g32
sg17
(lp117
sg56
(lp118
sg58
(lp119
sg60
(lp120
g62
asg63
(dp121
sg19
S'TModelChange'
p122
sg20
Nsg66
(lp123
sg21
I0
sg22
g23
sg68
(i__main__
DelphiBlock
p124
(dp125
g71
(idelphi
DelphiCompoundStatement
p126
(dp127
g74
Nsg90
(lp128
S' subclasses should override\r'
p129
asbsg93
(lp130
sbsbssS'propertyDeclarations'
p131
(dp132
sS'variableNamesInDeclaredOrder'
p133
(lp134
sba(i__main__
DelphiClass
p135
(dp136
g7
(dp137
S'newtext'
p138
S'newText'
p139
sS'fieldtype'
p140
S'fieldType'
p141
sS'rule'
p142
S'rule'
p143
sS'oldtext'
p144
S'oldText'
p145
ssg9
S'TRuleFieldChange'
p146
sg11
(dp147
S'redochange'
p148
(i__main__
DelphiMethodDeclaration
p149
(dp150
g9
S'redoChange'
p151
sg17
(lp152
sg19
g146
sg20
Nsg21
I0
sg22
g23
sbsS'dochange'
p153
(i__main__
DelphiMethodDeclaration
p154
(dp155
g9
S'doChange'
p156
sg17
(lp157
sg19
g146
sg20
Nsg21
I0
sg22
g23
sbsS'undochange'
p158
(i__main__
DelphiMethodDeclaration
p159
(dp160
g9
S'undoChange'
p161
sg17
(lp162
sg19
g146
sg20
Nsg21
I0
sg22
g23
sbsS'createwithrulefieldtypeoldtextnewtext'
p163
(i__main__
DelphiMethodDeclaration
p164
(dp165
g9
S'createWithRuleFieldTypeOldTextNewText'
p166
sg17
(lp167
(i__main__
DelphiFormalParameter
p168
(dp169
S'initialValue'
p170
NsS'names'
p171
(lp172
S'rule'
p173
asS'theType'
p174
(i__main__
DelphiNamedType
p175
(dp176
g38
S'TSRule'
p177
sg40
g1
sg41
NsbsS'parameterVariety'
p178
Nsba(i__main__
DelphiFormalParameter
p179
(dp180
g170
Nsg171
(lp181
S'fieldType'
p182
asg174
(i__main__
DelphiPrimitiveType
p183
(dp184
g38
S'integer'
p185
sbsg178
Nsba(i__main__
DelphiFormalParameter
p186
(dp187
g170
Nsg171
(lp188
S'newText'
p189
asg174
(i__main__
DelphiPrimitiveType
p190
(dp191
g38
S'string'
p192
sbsg178
S'const'
p193
sbasg19
g146
sg20
Nsg21
I0
sg22
S'constructor'
p194
sbssg34
(lp195
(i__main__
DelphiNamedType
p196
(dp197
g38
S'TModelChange'
p198
sg40
g1
sg41
Nsbasg42
(dp199
S'newtext'
p200
(i__main__
DelphiPrimitiveType
p201
(dp202
g38
g192
sbsS'fieldtype'
p203
(i__main__
DelphiPrimitiveType
p204
(dp205
g38
g185
sbsS'rule'
p206
(i__main__
DelphiNamedType
p207
(dp208
g38
S'TSRule'
p209
sg40
g1
sg41
NsbsS'oldtext'
p210
g201
ssg44
(lp211
S'createwithrulefieldtypeoldtextnewtext'
p212
aS'dochange'
p213
aS'undochange'
p214
aS'redochange'
p215
asg49
(dp216
S'redochange'
p217
(i__main__
DelphiMethodImplementation
p218
(dp219
g54
g149
sg9
g151
sg17
(lp220
sg56
(lp221
sg58
(lp222
sg60
(lp223
g62
asg63
(dp224
sg19
S'TRuleFieldChange'
p225
sg20
Nsg66
(lp226
sg21
I0
sg22
g23
sg68
(i__main__
DelphiBlock
p227
(dp228
g71
(idelphi
DelphiCompoundStatement
p229
(dp230
g74
(lp231
(idelphi
DelphiIfStatement
p232
(dp233
S'expression'
p234
(idelphi
DelphiRelOp
p235
(dp236
S'simpleExpression1'
p237
(i__main__
DelphiIdentAccess
p238
(dp239
g82
S'rule'
p240
sg84
(lp241
sbsS'simpleExpression2'
p242
(idelphi
DelphiNilValue
p243
(dp244
bsS'relOp'
p245
S'<>'
p246
sbsS'ifFalseStatement'
p247
NsS'ifTrueStatement'
p248
(i__main__
DelphiAssignStatement
p249
(dp250
g78
Nsg79
(i__main__
DelphiIdentAccess
p251
(dp252
g82
S'rule'
p253
sg84
(lp254
(idelphi
DelphiFieldEndAccess
p255
(dp256
g88
S'setTextForField'
p257
sba(idelphi
DelphiFunctionEndAccess
p258
(dp259
S'expressionList'
p260
(lp261
(i__main__
DelphiIdentAccess
p262
(dp263
g82
S'fieldType'
p264
sg84
(lp265
sba(i__main__
DelphiIdentAccess
p266
(dp267
g82
S'newText'
p268
sg84
(lp269
sbasbasbsbsbasg90
(lp270
S'\tRuleEditorForm.updateForFieldChange(fieldType);\r'
p271
asbsg93
(lp272
sbsbsS'dochange'
p273
(i__main__
DelphiMethodImplementation
p274
(dp275
g54
g154
sg9
g156
sg17
(lp276
sg56
(lp277
sg58
(lp278
sg60
(lp279
g62
asg63
(dp280
sg19
S'TRuleFieldChange'
p281
sg20
Nsg66
(lp282
sg21
I0
sg22
g23
sg68
(i__main__
DelphiBlock
p283
(dp284
g71
(idelphi
DelphiCompoundStatement
p285
(dp286
g74
(lp287
(idelphi
DelphiIfStatement
p288
(dp289
g234
(idelphi
DelphiRelOp
p290
(dp291
g237
(i__main__
DelphiIdentAccess
p292
(dp293
g82
S'rule'
p294
sg84
(lp295
sbsg242
(idelphi
DelphiNilValue
p296
(dp297
bsg245
g246
sbsg247
Nsg248
(i__main__
DelphiAssignStatement
p298
(dp299
g78
Nsg79
(i__main__
DelphiIdentAccess
p300
(dp301
g82
S'rule'
p302
sg84
(lp303
(idelphi
DelphiFieldEndAccess
p304
(dp305
g88
S'setTextForField'
p306
sba(idelphi
DelphiFunctionEndAccess
p307
(dp308
g260
(lp309
(i__main__
DelphiIdentAccess
p310
(dp311
g82
S'fieldType'
p312
sg84
(lp313
sba(i__main__
DelphiIdentAccess
p314
(dp315
g82
S'newText'
p316
sg84
(lp317
sbasbasbsbsbasbsg93
(lp318
sbsbsS'undochange'
p319
(i__main__
DelphiMethodImplementation
p320
(dp321
g54
g159
sg9
g161
sg17
(lp322
sg56
(lp323
sg58
(lp324
sg60
(lp325
g62
asg63
(dp326
sg19
S'TRuleFieldChange'
p327
sg20
Nsg66
(lp328
sg21
I0
sg22
g23
sg68
(i__main__
DelphiBlock
p329
(dp330
g71
(idelphi
DelphiCompoundStatement
p331
(dp332
g74
(lp333
(idelphi
DelphiIfStatement
p334
(dp335
g234
(idelphi
DelphiRelOp
p336
(dp337
g237
(i__main__
DelphiIdentAccess
p338
(dp339
g82
S'rule'
p340
sg84
(lp341
sbsg242
(idelphi
DelphiNilValue
p342
(dp343
bsg245
g246
sbsg247
Nsg248
(i__main__
DelphiAssignStatement
p344
(dp345
g78
Nsg79
(i__main__
DelphiIdentAccess
p346
(dp347
g82
S'rule'
p348
sg84
(lp349
(idelphi
DelphiFieldEndAccess
p350
(dp351
g88
S'setTextForField'
p352
sba(idelphi
DelphiFunctionEndAccess
p353
(dp354
g260
(lp355
(i__main__
DelphiIdentAccess
p356
(dp357
g82
S'fieldType'
p358
sg84
(lp359
sba(i__main__
DelphiIdentAccess
p360
(dp361
g82
S'oldText'
p362
sg84
(lp363
sbasbasbsbsbasg90
(lp364
S'\tRuleEditorForm.updateForFieldChange(fieldType);\r'
p365
asbsg93
(lp366
sbsbsS'createwithrulefieldtypeoldtextnewtext'
p367
(i__main__
DelphiMethodImplementation
p368
(dp369
g54
g164
sg9
g166
sg17
(lp370
(i__main__
DelphiFormalParameter
p371
(dp372
g170
Nsg171
(lp373
S'rule'
p374
asg174
(i__main__
DelphiNamedType
p375
(dp376
g38
S'TSRule'
p377
sg40
g1
sg41
Nsbsg178
Nsba(i__main__
DelphiFormalParameter
p378
(dp379
g170
Nsg171
(lp380
S'fieldType'
p381
asg174
(i__main__
DelphiPrimitiveType
p382
(dp383
g38
g185
sbsg178
Nsba(i__main__
DelphiFormalParameter
p384
(dp385
g170
Nsg171
(lp386
S'newText'
p387
asg174
(i__main__
DelphiPrimitiveType
p388
(dp389
g38
g192
sbsg178
g193
sbasg56
(lp390
sg58
(lp391
sg60
(lp392
g62
ag374
ag381
ag387
asg63
(dp393
g387
g388
sg381
g382
sg374
g375
ssg19
S'TRuleFieldChange'
p394
sg20
Nsg66
(lp395
sg21
I0
sg22
g194
sg68
(i__main__
DelphiBlock
p396
(dp397
g71
(idelphi
DelphiCompoundStatement
p398
(dp399
g74
(lp400
(i__main__
DelphiAssignStatement
p401
(dp402
g78
Nsg79
(i__main__
DelphiIdentAccess
p403
(dp404
g82
S'self'
p405
sg84
(lp406
(idelphi
DelphiFieldEndAccess
p407
(dp408
g88
S'create'
p409
sbasbsba(i__main__
DelphiAssignStatement
p410
(dp411
g78
(i__main__
DelphiIdentAccess
p412
(dp413
g82
S'rule'
p414
sg84
(lp415
sbsg79
(i__main__
DelphiIdentAccess
p416
(dp417
g82
S'self'
p418
sg84
(lp419
(idelphi
DelphiFieldEndAccess
p420
(dp421
g88
S'rule'
p422
sbasbsba(i__main__
DelphiAssignStatement
p423
(dp424
g78
(i__main__
DelphiIdentAccess
p425
(dp426
g82
S'fieldType'
p427
sg84
(lp428
sbsg79
(i__main__
DelphiIdentAccess
p429
(dp430
g82
S'self'
p431
sg84
(lp432
(idelphi
DelphiFieldEndAccess
p433
(dp434
g88
S'fieldType'
p435
sbasbsba(idelphi
DelphiIfStatement
p436
(dp437
g234
(idelphi
DelphiRelOp
p438
(dp439
g237
(i__main__
DelphiIdentAccess
p440
(dp441
g82
S'rule'
p442
sg84
(lp443
sbsg242
(idelphi
DelphiNilValue
p444
(dp445
bsg245
g246
sbsg247
Nsg248
(i__main__
DelphiAssignStatement
p446
(dp447
g78
(i__main__
DelphiIdentAccess
p448
(dp449
g82
S'rule'
p450
sg84
(lp451
(idelphi
DelphiFieldEndAccess
p452
(dp453
g88
S'getTextForField'
p454
sba(idelphi
DelphiFunctionEndAccess
p455
(dp456
g260
(lp457
(i__main__
DelphiIdentAccess
p458
(dp459
g82
S'fieldType'
p460
sg84
(lp461
sbasbasbsg79
(i__main__
DelphiIdentAccess
p462
(dp463
g82
S'self'
p464
sg84
(lp465
(idelphi
DelphiFieldEndAccess
p466
(dp467
g88
S'oldText'
p468
sbasbsbsba(i__main__
DelphiAssignStatement
p469
(dp470
g78
(i__main__
DelphiIdentAccess
p471
(dp472
g82
S'newText'
p473
sg84
(lp474
sbsg79
(i__main__
DelphiIdentAccess
p475
(dp476
g82
S'self'
p477
sg84
(lp478
(idelphi
DelphiFieldEndAccess
p479
(dp480
g88
S'newText'
p481
sbasbsbasbsg93
(lp482
sbsg90
(lp483
S'////////////////////////////// TRuleFieldChange ////////////////////////////////////\r'
p484
asbssg131
(dp485
sg133
(lp486
g143
ag141
ag145
ag139
asbasS'includedUnits'
p487
NsS'implementationUses'
p488
(lp489
S'USRuleEditorForm'
p490
asg9
S'usmodelchanges'
p491
sS'constSections'
p492
(lp493
sS'globalsInProperCase'
p494
NsS'interfaceUses'
p495
(lp496
S'delphi_compatability'
p497
aS'USWorld'
p498
asS'finalCommentToken'
p499
(i__main__
PassStatement
p500
(dp501
g93
(lp502
sbsS'varSections'
p503
(lp504
sS'globals'
p505
NsS'originalFileName'
p506
S'../../storyharp-js/converted_source/usmodelchanges.pas'
p507
sS'proceduralImplementations'
p508
(dp509
sS'fileName'
p510
S'/home/pdfernhout/workspace/storyharp-js/converted_source/usmodelchanges.pas'
p511
sS'proceduralDeclarations'
p512
(dp513
sS'types'
p514
(dp515
S'trulefieldchange'
p516
g135
sS'tmodelchange'
p517
g5
ssb.