(i__main__
DelphiUnit
p1
(dp2
S'sectionsInOrderDefined'
p3
(lp4
(i__main__
DelphiClass
p5
(dp6
S'variableNamesInProperCase'
p7
(dp8
S'pictureimage'
p9
S'PictureImage'
p10
sS'firstpicturebutton'
p11
S'FirstPictureButton'
p12
sS'picturenames'
p13
S'pictureNames'
p14
sS'nextpicturebutton'
p15
S'NextPictureButton'
p16
sS'commands'
p17
S'commands'
p18
sS'captionrichedit'
p19
S'CaptionRichEdit'
p20
sS'picturescrollbox'
p21
S'PictureScrollBox'
p22
sS'selectedpictureindex'
p23
S'selectedPictureIndex'
p24
sS'replies'
p25
S'replies'
p26
sS'numberslabel'
p27
S'numbersLabel'
p28
sS'previouspicturebutton'
p29
S'PreviousPictureButton'
p30
sS'controlspanel'
p31
S'controlsPanel'
p32
sS'lastpicturebutton'
p33
S'LastPictureButton'
p34
ssS'name'
p35
S'TPictureForm'
p36
sS'methodDeclarations'
p37
(dp38
S'formdestroy'
p39
(i__main__
DelphiMethodDeclaration
p40
(dp41
g35
S'FormDestroy'
p42
sS'formalParameters'
p43
(lp44
(i__main__
DelphiFormalParameter
p45
(dp46
S'initialValue'
p47
NsS'names'
p48
(lp49
S'Sender'
p50
asS'theType'
p51
(i__main__
DelphiNamedType
p52
(dp53
S'typeName'
p54
S'TObject'
p55
sS'unitDefinedIn'
p56
g1
sS'unitName'
p57
NsbsS'parameterVariety'
p58
NsbasS'className'
p59
g36
sS'resultType'
p60
NsS'isClassMethod'
p61
I0
sS'methodType'
p62
S'procedure'
p63
sbsS'formresize'
p64
(i__main__
DelphiMethodDeclaration
p65
(dp66
g35
S'FormResize'
p67
sg43
(lp68
(i__main__
DelphiFormalParameter
p69
(dp70
g47
Nsg48
(lp71
S'Sender'
p72
asg51
(i__main__
DelphiNamedType
p73
(dp74
g54
S'TObject'
p75
sg56
g1
sg57
Nsbsg58
Nsbasg59
g36
sg60
Nsg61
I0
sg62
g63
sbsS'previouspicturebuttonclick'
p76
(i__main__
DelphiMethodDeclaration
p77
(dp78
g35
S'PreviousPictureButtonClick'
p79
sg43
(lp80
(i__main__
DelphiFormalParameter
p81
(dp82
g47
Nsg48
(lp83
S'Sender'
p84
asg51
(i__main__
DelphiNamedType
p85
(dp86
g54
S'TObject'
p87
sg56
g1
sg57
Nsbsg58
Nsbasg59
g36
sg60
Nsg61
I0
sg62
g63
sbsS'lastpicturebuttonclick'
p88
(i__main__
DelphiMethodDeclaration
p89
(dp90
g35
S'LastPictureButtonClick'
p91
sg43
(lp92
(i__main__
DelphiFormalParameter
p93
(dp94
g47
Nsg48
(lp95
S'Sender'
p96
asg51
(i__main__
DelphiNamedType
p97
(dp98
g54
S'TObject'
p99
sg56
g1
sg57
Nsbsg58
Nsbasg59
g36
sg60
Nsg61
I0
sg62
g63
sbsS'clearpictures'
p100
(i__main__
DelphiMethodDeclaration
p101
(dp102
g35
S'clearPictures'
p103
sg43
(lp104
sg59
g36
sg60
Nsg61
I0
sg62
g63
sbsS'loadselectedpicture'
p105
(i__main__
DelphiMethodDeclaration
p106
(dp107
g35
S'loadSelectedPicture'
p108
sg43
(lp109
sg59
g36
sg60
Nsg61
I0
sg62
g63
sbsS'palettechanged'
p110
(i__main__
DelphiMethodDeclaration
p111
(dp112
g35
S'PaletteChanged'
p113
sg43
(lp114
(i__main__
DelphiFormalParameter
p115
(dp116
g47
Nsg48
(lp117
S'Foreground'
p118
asg51
(i__main__
DelphiPrimitiveType
p119
(dp120
g54
S'boolean'
p121
sbsg58
Nsbasg59
g36
sg60
(i__main__
DelphiPrimitiveType
p122
(dp123
g54
g121
sbsg61
I0
sg62
S'function'
p124
sbsS'addpicturefromfile'
p125
(i__main__
DelphiMethodDeclaration
p126
(dp127
g35
S'addPictureFromFile'
p128
sg43
(lp129
(i__main__
DelphiFormalParameter
p130
(dp131
g47
Nsg48
(lp132
S'aFileName'
p133
asg51
(i__main__
DelphiPrimitiveType
p134
(dp135
g54
S'string'
p136
sbsg58
S'const'
p137
sba(i__main__
DelphiFormalParameter
p138
(dp139
g47
Nsg48
(lp140
S'reply'
p141
asg51
(i__main__
DelphiPrimitiveType
p142
(dp143
g54
g136
sbsg58
g137
sbasg59
g36
sg60
Nsg61
I0
sg62
g63
sS'commentLinesBefore'
p144
(lp145
S' Public declarations '
p146
asbsS'getpalette'
p147
(i__main__
DelphiMethodDeclaration
p148
(dp149
g35
S'GetPalette'
p150
sg43
(lp151
sg59
g36
sg60
(i__main__
DelphiNamedType
p152
(dp153
g54
S'HPALETTE'
p154
sg56
g1
sg57
Nsbsg61
I0
sg62
g124
sg144
(lp155
S' Private declarations '
p156
aS' palette stuff '
p157
aS' ----------------------------------------------------------------------------- *palette stuff '
p158
asbsS'updateviews'
p159
(i__main__
DelphiMethodDeclaration
p160
(dp161
g35
S'updateViews'
p162
sg43
(lp163
sg59
g36
sg60
Nsg61
I0
sg62
g63
sbsS'firstpicturebuttonclick'
p164
(i__main__
DelphiMethodDeclaration
p165
(dp166
g35
S'FirstPictureButtonClick'
p167
sg43
(lp168
(i__main__
DelphiFormalParameter
p169
(dp170
g47
Nsg48
(lp171
S'Sender'
p172
asg51
(i__main__
DelphiNamedType
p173
(dp174
g54
S'TObject'
p175
sg56
g1
sg57
Nsbsg58
Nsbasg59
g36
sg60
Nsg61
I0
sg62
g63
sbsS'formcreate'
p176
(i__main__
DelphiMethodDeclaration
p177
(dp178
g35
S'FormCreate'
p179
sg43
(lp180
(i__main__
DelphiFormalParameter
p181
(dp182
g47
Nsg48
(lp183
S'Sender'
p184
asg51
(i__main__
DelphiNamedType
p185
(dp186
g54
S'TObject'
p187
sg56
g1
sg57
Nsbsg58
Nsbasg59
g36
sg60
Nsg61
I0
sg62
g63
sbsS'nextpicturebuttonclick'
p188
(i__main__
DelphiMethodDeclaration
p189
(dp190
g35
S'NextPictureButtonClick'
p191
sg43
(lp192
(i__main__
DelphiFormalParameter
p193
(dp194
g47
Nsg48
(lp195
S'Sender'
p196
asg51
(i__main__
DelphiNamedType
p197
(dp198
g54
S'TObject'
p199
sg56
g1
sg57
Nsbsg58
Nsbasg59
g36
sg60
Nsg61
I0
sg62
g63
sbssS'superclassNamedTypes'
p200
(lp201
(i__main__
DelphiNamedType
p202
(dp203
g54
S'TForm'
p204
sg56
g1
sg57
NsbasS'variableNames'
p205
(dp206
S'pictureimage'
p207
(i__main__
DelphiNamedType
p208
(dp209
g54
S'TImage'
p210
sg56
g1
sg57
NsbsS'firstpicturebutton'
p211
(i__main__
DelphiNamedType
p212
(dp213
g54
S'TSpeedButton'
p214
sg56
g1
sg57
NsbsS'picturenames'
p215
(i__main__
DelphiNamedType
p216
(dp217
g54
S'TStringList'
p218
sg56
g1
sg57
NsbsS'nextpicturebutton'
p219
(i__main__
DelphiNamedType
p220
(dp221
g54
S'TSpeedButton'
p222
sg56
g1
sg57
NsbsS'commands'
p223
(i__main__
DelphiNamedType
p224
(dp225
g54
S'TStringList'
p226
sg56
g1
sg57
NsbsS'captionrichedit'
p227
(i__main__
DelphiNamedType
p228
(dp229
g54
S'TRichEdit'
p230
sg56
g1
sg57
NsbsS'picturescrollbox'
p231
(i__main__
DelphiNamedType
p232
(dp233
g54
S'TScrollBox'
p234
sg56
g1
sg57
NsbsS'selectedpictureindex'
p235
(i__main__
DelphiPrimitiveType
p236
(dp237
g54
S'integer'
p238
sbsS'replies'
p239
(i__main__
DelphiNamedType
p240
(dp241
g54
S'TStringList'
p242
sg56
g1
sg57
NsbsS'numberslabel'
p243
(i__main__
DelphiNamedType
p244
(dp245
g54
S'TLabel'
p246
sg56
g1
sg57
NsbsS'previouspicturebutton'
p247
(i__main__
DelphiNamedType
p248
(dp249
g54
S'TSpeedButton'
p250
sg56
g1
sg57
NsbsS'controlspanel'
p251
(i__main__
DelphiNamedType
p252
(dp253
g54
S'TPanel'
p254
sg56
g1
sg57
NsbsS'lastpicturebutton'
p255
(i__main__
DelphiNamedType
p256
(dp257
g54
S'TSpeedButton'
p258
sg56
g1
sg57
NsbssS'methodNamesInDefinedOrder'
p259
(lp260
S'formcreate'
p261
aS'formdestroy'
p262
aS'updateviews'
p263
aS'addpicturefromfile'
p264
aS'loadselectedpicture'
p265
aS'formresize'
p266
aS'clearpictures'
p267
aS'firstpicturebuttonclick'
p268
aS'previouspicturebuttonclick'
p269
aS'nextpicturebuttonclick'
p270
aS'lastpicturebuttonclick'
p271
aS'getpalette'
p272
aS'palettechanged'
p273
asS'methodImplementations'
p274
(dp275
S'formdestroy'
p276
(i__main__
DelphiMethodImplementation
p277
(dp278
S'originalDeclaration'
p279
g40
sg35
g42
sg43
(lp280
(i__main__
DelphiFormalParameter
p281
(dp282
g47
Nsg48
(lp283
S'Sender'
p284
asg51
(i__main__
DelphiNamedType
p285
(dp286
g54
S'TObject'
p287
sg56
g1
sg57
Nsbsg58
NsbasS'varParamIndexes'
p288
(lp289
sS'varParamsSkipped'
p290
(lp291
sS'argNames'
p292
(lp293
S'self'
p294
ag284
asS'argTypes'
p295
(dp296
g284
g285
ssg59
S'TPictureForm'
p297
sg60
NsS'varParamNames'
p298
(lp299
sg61
I0
sg62
g63
sS'block'
p300
(i__main__
DelphiBlock
p301
(dp302
S'compoundStatement'
p303
(idelphi
DelphiCompoundStatement
p304
(dp305
S'statements'
p306
(lp307
(i__main__
DelphiAssignStatement
p308
(dp309
S'newValueExpression'
p310
NsS'destinationExpression'
p311
(i__main__
DelphiIdentAccess
p312
(dp313
S'ident'
p314
S'pictureNames'
p315
sS'endAccessList'
p316
(lp317
(idelphi
DelphiFieldEndAccess
p318
(dp319
S'field'
p320
S'free'
p321
sbasbsba(i__main__
DelphiAssignStatement
p322
(dp323
g310
(idelphi
DelphiNilValue
p324
(dp325
bsg311
(i__main__
DelphiIdentAccess
p326
(dp327
g314
S'pictureNames'
p328
sg316
(lp329
sbsba(i__main__
DelphiAssignStatement
p330
(dp331
g310
Nsg311
(i__main__
DelphiIdentAccess
p332
(dp333
g314
S'commands'
p334
sg316
(lp335
(idelphi
DelphiFieldEndAccess
p336
(dp337
g320
S'free'
p338
sbasbsba(i__main__
DelphiAssignStatement
p339
(dp340
g310
(idelphi
DelphiNilValue
p341
(dp342
bsg311
(i__main__
DelphiIdentAccess
p343
(dp344
g314
S'commands'
p345
sg316
(lp346
sbsba(i__main__
DelphiAssignStatement
p347
(dp348
g310
Nsg311
(i__main__
DelphiIdentAccess
p349
(dp350
g314
S'replies'
p351
sg316
(lp352
(idelphi
DelphiFieldEndAccess
p353
(dp354
g320
S'free'
p355
sbasbsba(i__main__
DelphiAssignStatement
p356
(dp357
g310
(idelphi
DelphiNilValue
p358
(dp359
bsg311
(i__main__
DelphiIdentAccess
p360
(dp361
g314
S'replies'
p362
sg316
(lp363
sbsbasbsS'limitedDeclSectionList'
p364
(lp365
sbsbsS'updateviews'
p366
(i__main__
DelphiMethodImplementation
p367
(dp368
g279
g160
sg35
g162
sg43
(lp369
sg288
(lp370
sg290
(lp371
sg292
(lp372
g294
asg295
(dp373
sg59
S'TPictureForm'
p374
sg60
Nsg298
(lp375
sg61
I0
sg62
g63
sg300
(i__main__
DelphiBlock
p376
(dp377
g303
(idelphi
DelphiCompoundStatement
p378
(dp379
g306
(lp380
(i__main__
DelphiAssignStatement
p381
(dp382
g310
(idelphi
DelphiAddOp
p383
(dp384
S'addOp'
p385
S'+'
sS'term2'
p386
(i__main__
DelphiIdentAccess
p387
(dp388
g314
S'ExtractFileName'
p389
sg316
(lp390
(idelphi
DelphiFunctionEndAccess
p391
(dp392
S'expressionList'
p393
(lp394
(i__main__
DelphiIdentAccess
p395
(dp396
g314
S'domain'
p397
sg316
(lp398
(idelphi
DelphiFieldEndAccess
p399
(dp400
g320
S'worldFileName'
p401
sbasbasbasbsS'term1'
p402
(idelphi
DelphiStringAccess
p403
(dp404
g316
(lp405
sg136
(idelphi
DelphiStringValue
p406
(dp407
g136
S'StoryHarp Pictures - '
p408
sbsbsbsg311
(i__main__
DelphiIdentAccess
p409
(dp410
g314
S'self'
p411
sg316
(lp412
(idelphi
DelphiFieldEndAccess
p413
(dp414
g320
S'caption'
p415
sbasbsbasbsg364
(lp416
sbsbsS'previouspicturebuttonclick'
p417
(i__main__
DelphiMethodImplementation
p418
(dp419
g279
g77
sg35
g79
sg43
(lp420
(i__main__
DelphiFormalParameter
p421
(dp422
g47
Nsg48
(lp423
S'Sender'
p424
asg51
(i__main__
DelphiNamedType
p425
(dp426
g54
S'TObject'
p427
sg56
g1
sg57
Nsbsg58
Nsbasg288
(lp428
sg290
(lp429
sg292
(lp430
g294
ag424
asg295
(dp431
g424
g425
ssg59
S'TPictureForm'
p432
sg60
Nsg298
(lp433
sg61
I0
sg62
g63
sg300
(i__main__
DelphiBlock
p434
(dp435
g303
(idelphi
DelphiCompoundStatement
p436
(dp437
g306
(lp438
(i__main__
DelphiAssignStatement
p439
(dp440
g310
(i__main__
DelphiIdentAccess
p441
(dp442
g314
S'localIntMax'
p443
sg316
(lp444
(idelphi
DelphiFunctionEndAccess
p445
(dp446
g393
(lp447
(idelphi
DelphiIntegerValue
p448
(dp449
g136
S'0'
sba(idelphi
DelphiAddOp
p450
(dp451
g385
S'-'
sg386
(idelphi
DelphiIntegerValue
p452
(dp453
g136
S'1'
sbsg402
(i__main__
DelphiIdentAccess
p454
(dp455
g314
S'selectedPictureIndex'
p456
sg316
(lp457
sbsbasbasbsg311
(i__main__
DelphiIdentAccess
p458
(dp459
g314
S'selectedPictureIndex'
p460
sg316
(lp461
sbsba(i__main__
DelphiAssignStatement
p462
(dp463
g310
Nsg311
(i__main__
DelphiIdentAccess
p464
(dp465
g314
S'self'
p466
sg316
(lp467
(idelphi
DelphiFieldEndAccess
p468
(dp469
g320
S'loadSelectedPicture'
p470
sbasbsbasbsg364
(lp471
sbsbsS'lastpicturebuttonclick'
p472
(i__main__
DelphiMethodImplementation
p473
(dp474
g279
g89
sg35
g91
sg43
(lp475
(i__main__
DelphiFormalParameter
p476
(dp477
g47
Nsg48
(lp478
S'Sender'
p479
asg51
(i__main__
DelphiNamedType
p480
(dp481
g54
S'TObject'
p482
sg56
g1
sg57
Nsbsg58
Nsbasg288
(lp483
sg290
(lp484
sg292
(lp485
g294
ag479
asg295
(dp486
g479
g480
ssg59
S'TPictureForm'
p487
sg60
Nsg298
(lp488
sg61
I0
sg62
g63
sg300
(i__main__
DelphiBlock
p489
(dp490
g303
(idelphi
DelphiCompoundStatement
p491
(dp492
g306
(lp493
(i__main__
DelphiAssignStatement
p494
(dp495
g310
(idelphi
DelphiAddOp
p496
(dp497
g385
S'-'
sg386
(idelphi
DelphiIntegerValue
p498
(dp499
g136
S'1'
sbsg402
(i__main__
DelphiIdentAccess
p500
(dp501
g314
S'pictureNames'
p502
sg316
(lp503
(idelphi
DelphiFieldEndAccess
p504
(dp505
g320
S'count'
p506
sbasbsbsg311
(i__main__
DelphiIdentAccess
p507
(dp508
g314
S'selectedPictureIndex'
p509
sg316
(lp510
sbsba(i__main__
DelphiAssignStatement
p511
(dp512
g310
Nsg311
(i__main__
DelphiIdentAccess
p513
(dp514
g314
S'self'
p515
sg316
(lp516
(idelphi
DelphiFieldEndAccess
p517
(dp518
g320
S'loadSelectedPicture'
p519
sbasbsbasbsg364
(lp520
sbsbsS'clearpictures'
p521
(i__main__
DelphiMethodImplementation
p522
(dp523
g279
g101
sg35
g103
sg43
(lp524
sg288
(lp525
sg290
(lp526
sg292
(lp527
g294
asg295
(dp528
sg59
S'TPictureForm'
p529
sg60
Nsg298
(lp530
sg61
I0
sg62
g63
sg300
(i__main__
DelphiBlock
p531
(dp532
g303
(idelphi
DelphiCompoundStatement
p533
(dp534
g306
(lp535
(i__main__
DelphiAssignStatement
p536
(dp537
g310
Nsg311
(i__main__
DelphiIdentAccess
p538
(dp539
g314
S'pictureNames'
p540
sg316
(lp541
(idelphi
DelphiFieldEndAccess
p542
(dp543
g320
S'clear'
p544
sbasbsba(i__main__
DelphiAssignStatement
p545
(dp546
g310
(i__main__
DelphiIdentAccess
p547
(dp548
g314
S'false'
p549
sg316
(lp550
sbsg311
(i__main__
DelphiIdentAccess
p551
(dp552
g314
S'FirstPictureButton'
p553
sg316
(lp554
(idelphi
DelphiFieldEndAccess
p555
(dp556
g320
S'enabled'
p557
sbasbsba(i__main__
DelphiAssignStatement
p558
(dp559
g310
(i__main__
DelphiIdentAccess
p560
(dp561
g314
S'false'
p562
sg316
(lp563
sbsg311
(i__main__
DelphiIdentAccess
p564
(dp565
g314
S'PreviousPictureButton'
p566
sg316
(lp567
(idelphi
DelphiFieldEndAccess
p568
(dp569
g320
S'enabled'
p570
sbasbsba(i__main__
DelphiAssignStatement
p571
(dp572
g310
(i__main__
DelphiIdentAccess
p573
(dp574
g314
S'false'
p575
sg316
(lp576
sbsg311
(i__main__
DelphiIdentAccess
p577
(dp578
g314
S'LastPictureButton'
p579
sg316
(lp580
(idelphi
DelphiFieldEndAccess
p581
(dp582
g320
S'enabled'
p583
sbasbsba(i__main__
DelphiAssignStatement
p584
(dp585
g310
(i__main__
DelphiIdentAccess
p586
(dp587
g314
S'false'
p588
sg316
(lp589
sbsg311
(i__main__
DelphiIdentAccess
p590
(dp591
g314
S'NextPictureButton'
p592
sg316
(lp593
(idelphi
DelphiFieldEndAccess
p594
(dp595
g320
S'enabled'
p596
sbasbsba(i__main__
DelphiAssignStatement
p597
(dp598
g310
Nsg311
(i__main__
DelphiIdentAccess
p599
(dp600
g314
S'self'
p601
sg316
(lp602
(idelphi
DelphiFieldEndAccess
p603
(dp604
g320
S'hide'
p605
sbasbsbasbsg364
(lp606
sbsbsS'loadselectedpicture'
p607
(i__main__
DelphiMethodImplementation
p608
(dp609
g279
g106
sg35
g108
sg43
(lp610
sg288
(lp611
sg290
(lp612
sg292
(lp613
g294
asg295
(dp614
sg59
S'TPictureForm'
p615
sg60
Nsg298
(lp616
sg61
I0
sg62
g63
sg300
(i__main__
DelphiBlock
p617
(dp618
g303
(idelphi
DelphiCompoundStatement
p619
(dp620
g306
(lp621
(i__main__
DelphiAssignStatement
p622
(dp623
g310
(i__main__
DelphiIdentAccess
p624
(dp625
g314
S'pictureNames'
p626
sg316
(lp627
(idelphi
DelphiFieldEndAccess
p628
(dp629
g320
S'strings'
p630
sba(idelphi
DelphiArrayEndAccess
p631
(dp632
g393
(lp633
(i__main__
DelphiIdentAccess
p634
(dp635
g314
S'selectedPictureIndex'
p636
sg316
(lp637
sbasbasbsg311
(i__main__
DelphiIdentAccess
p638
(dp639
g314
S'fileName'
p640
sg316
(lp641
sbsba(idelphi
DelphiTryFinallyStatement
p642
(dp643
S'tryStatements'
p644
(lp645
(i__main__
DelphiAssignStatement
p646
(dp647
g310
Nsg311
(i__main__
DelphiIdentAccess
p648
(dp649
g314
S'cursor_startWait'
p650
sg316
(lp651
sbsba(idelphi
DelphiTryExceptStatement
p652
(dp653
g644
(lp654
(i__main__
DelphiAssignStatement
p655
(dp656
g310
Nsg311
(i__main__
DelphiIdentAccess
p657
(dp658
g314
S'PictureImage'
p659
sg316
(lp660
(idelphi
DelphiFieldEndAccess
p661
(dp662
g320
S'picture'
p663
sba(idelphi
DelphiFieldEndAccess
p664
(dp665
g320
S'bitmap'
p666
sba(idelphi
DelphiFieldEndAccess
p667
(dp668
g320
S'loadFromFile'
p669
sba(idelphi
DelphiFunctionEndAccess
p670
(dp671
g393
(lp672
(i__main__
DelphiIdentAccess
p673
(dp674
g314
S'fileName'
p675
sg316
(lp676
sbasbasbsbasS'exceptionHandlers'
p677
(idelphi
DelphiExceptionHandlers
p678
(dp679
S'exceptionHandlerList'
p680
NsS'statementList'
p681
(lp682
(i__main__
DelphiAssignStatement
p683
(dp684
g310
Nsg311
(i__main__
DelphiIdentAccess
p685
(dp686
g314
S'showMessage'
p687
sg316
(lp688
(idelphi
DelphiFunctionEndAccess
p689
(dp690
g393
(lp691
(idelphi
DelphiAddOp
p692
(dp693
g385
S'+'
sg386
(idelphi
DelphiStringAccess
p694
(dp695
g316
(lp696
sg136
(idelphi
DelphiStringValue
p697
(dp698
g136
S' not found or could not load.'
p699
sbsbsg402
(idelphi
DelphiAddOp
p700
(dp701
g385
S'+'
sg386
(i__main__
DelphiIdentAccess
p702
(dp703
g314
S'fileName'
p704
sg316
(lp705
sbsg402
(idelphi
DelphiStringAccess
p706
(dp707
g316
(lp708
sg136
(idelphi
DelphiStringValue
p709
(dp710
g136
S'Picture file '
p711
sbsbsbsbasbasbsba(i__main__
DelphiAssignStatement
p712
(dp713
g310
Nsg311
(i__main__
DelphiIdentAccess
p714
(dp715
g314
S'cursor_stopWait'
p716
sg316
(lp717
sbsba(i__main__
DelphiExitStatement
p718
(dp719
S'proceduralOrMethodImplementation'
p720
g608
sbasbsbasS'finallyStatements'
p721
(lp722
(i__main__
DelphiAssignStatement
p723
(dp724
g310
Nsg311
(i__main__
DelphiIdentAccess
p725
(dp726
g314
S'cursor_stopWait'
p727
sg316
(lp728
sbsbasba(idelphi
DelphiWithStatement
p729
(dp730
S'statement'
p731
(i__main__
DelphiAssignStatement
p732
(dp733
g310
Nsg311
(i__main__
DelphiIdentAccess
p734
(dp735
g314
S'setBounds'
p736
sg316
(lp737
(idelphi
DelphiFunctionEndAccess
p738
(dp739
g393
(lp740
(i__main__
DelphiIdentAccess
p741
(dp742
g314
S'localIntMax'
p743
sg316
(lp744
(idelphi
DelphiFunctionEndAccess
p745
(dp746
g393
(lp747
(idelphi
DelphiIntegerValue
p748
(dp749
g136
S'0'
sba(idelphi
DelphiAddOp
p750
(dp751
g385
S'-'
sg386
(idelphi
DelphiMulOp
p752
(dp753
S'signedFactor2'
p754
(idelphi
DelphiIntegerValue
p755
(dp756
g136
S'2'
sbsS'mulOp'
p757
S'div'
p758
sS'signedFactor1'
p759
(i__main__
DelphiIdentAccess
p760
(dp761
g314
S'width'
p762
sg316
(lp763
sbsbsg402
(idelphi
DelphiMulOp
p764
(dp765
g754
(idelphi
DelphiIntegerValue
p766
(dp767
g136
S'2'
sbsg757
g758
sg759
(i__main__
DelphiIdentAccess
p768
(dp769
g314
S'PictureScrollBox'
p770
sg316
(lp771
(idelphi
DelphiFieldEndAccess
p772
(dp773
g320
S'width'
p774
sbasbsbsbasbasba(i__main__
DelphiIdentAccess
p775
(dp776
g314
S'localIntMax'
p777
sg316
(lp778
(idelphi
DelphiFunctionEndAccess
p779
(dp780
g393
(lp781
(idelphi
DelphiIntegerValue
p782
(dp783
g136
S'0'
sba(idelphi
DelphiAddOp
p784
(dp785
g385
S'-'
sg386
(idelphi
DelphiMulOp
p786
(dp787
g754
(idelphi
DelphiIntegerValue
p788
(dp789
g136
S'2'
sbsg757
g758
sg759
(i__main__
DelphiIdentAccess
p790
(dp791
g314
S'height'
p792
sg316
(lp793
sbsbsg402
(idelphi
DelphiMulOp
p794
(dp795
g754
(idelphi
DelphiIntegerValue
p796
(dp797
g136
S'2'
sbsg757
g758
sg759
(i__main__
DelphiIdentAccess
p798
(dp799
g314
S'PictureScrollBox'
p800
sg316
(lp801
(idelphi
DelphiFieldEndAccess
p802
(dp803
g320
S'height'
p804
sbasbsbsbasbasba(i__main__
DelphiIdentAccess
p805
(dp806
g314
S'width'
p807
sg316
(lp808
sba(i__main__
DelphiIdentAccess
p809
(dp810
g314
S'height'
p811
sg316
(lp812
sbasbasbsbsS'variableReferenceList'
p813
(lp814
(i__main__
DelphiIdentAccess
p815
(dp816
g314
S'PictureImage'
p817
sg316
(lp818
sbasba(i__main__
DelphiAssignStatement
p819
(dp820
g310
(idelphi
DelphiAddOp
p821
(dp822
g385
S'+'
sg386
(i__main__
DelphiIdentAccess
p823
(dp824
g314
S'intToStr'
p825
sg316
(lp826
(idelphi
DelphiFunctionEndAccess
p827
(dp828
g393
(lp829
(i__main__
DelphiIdentAccess
p830
(dp831
g314
S'pictureNames'
p832
sg316
(lp833
(idelphi
DelphiFieldEndAccess
p834
(dp835
g320
S'count'
p836
sbasbasbasbsg402
(idelphi
DelphiAddOp
p837
(dp838
g385
S'+'
sg386
(idelphi
DelphiStringAccess
p839
(dp840
g316
(lp841
sg136
(idelphi
DelphiStringValue
p842
(dp843
g136
S' of '
p844
sbsbsg402
(i__main__
DelphiIdentAccess
p845
(dp846
g314
S'intToStr'
p847
sg316
(lp848
(idelphi
DelphiFunctionEndAccess
p849
(dp850
g393
(lp851
(idelphi
DelphiAddOp
p852
(dp853
g385
S'+'
sg386
(idelphi
DelphiIntegerValue
p854
(dp855
g136
S'1'
sbsg402
(i__main__
DelphiIdentAccess
p856
(dp857
g314
S'selectedPictureIndex'
p858
sg316
(lp859
sbsbasbasbsbsbsg311
(i__main__
DelphiIdentAccess
p860
(dp861
g314
S'numbersLabel'
p862
sg316
(lp863
(idelphi
DelphiFieldEndAccess
p864
(dp865
g320
S'caption'
p866
sbasbsba(i__main__
DelphiAssignStatement
p867
(dp868
g310
(i__main__
DelphiIdentAccess
p869
(dp870
g314
S'replies'
p871
sg316
(lp872
(idelphi
DelphiFieldEndAccess
p873
(dp874
g320
S'strings'
p875
sba(idelphi
DelphiArrayEndAccess
p876
(dp877
g393
(lp878
(i__main__
DelphiIdentAccess
p879
(dp880
g314
S'selectedPictureIndex'
p881
sg316
(lp882
sbasbasbsg311
(i__main__
DelphiIdentAccess
p883
(dp884
g314
S'CaptionRichEdit'
p885
sg316
(lp886
(idelphi
DelphiFieldEndAccess
p887
(dp888
g320
S'text'
p889
sbasbsba(i__main__
DelphiAssignStatement
p890
(dp891
g310
(idelphi
DelphiRelOp
p892
(dp893
S'simpleExpression1'
p894
(i__main__
DelphiIdentAccess
p895
(dp896
g314
S'selectedPictureIndex'
p897
sg316
(lp898
sbsS'simpleExpression2'
p899
(idelphi
DelphiIntegerValue
p900
(dp901
g136
S'0'
sbsS'relOp'
p902
S'>'
sbsg311
(i__main__
DelphiIdentAccess
p903
(dp904
g314
S'FirstPictureButton'
p905
sg316
(lp906
(idelphi
DelphiFieldEndAccess
p907
(dp908
g320
S'enabled'
p909
sbasbsba(i__main__
DelphiAssignStatement
p910
(dp911
g310
(i__main__
DelphiIdentAccess
p912
(dp913
g314
S'FirstPictureButton'
p914
sg316
(lp915
(idelphi
DelphiFieldEndAccess
p916
(dp917
g320
S'enabled'
p918
sbasbsg311
(i__main__
DelphiIdentAccess
p919
(dp920
g314
S'PreviousPictureButton'
p921
sg316
(lp922
(idelphi
DelphiFieldEndAccess
p923
(dp924
g320
S'enabled'
p925
sbasbsba(i__main__
DelphiAssignStatement
p926
(dp927
g310
(idelphi
DelphiRelOp
p928
(dp929
g894
(i__main__
DelphiIdentAccess
p930
(dp931
g314
S'selectedPictureIndex'
p932
sg316
(lp933
sbsg899
(idelphi
DelphiAddOp
p934
(dp935
g385
S'-'
sg386
(idelphi
DelphiIntegerValue
p936
(dp937
g136
S'1'
sbsg402
(i__main__
DelphiIdentAccess
p938
(dp939
g314
S'pictureNames'
p940
sg316
(lp941
(idelphi
DelphiFieldEndAccess
p942
(dp943
g320
S'count'
p944
sbasbsbsg902
S'<'
sbsg311
(i__main__
DelphiIdentAccess
p945
(dp946
g314
S'LastPictureButton'
p947
sg316
(lp948
(idelphi
DelphiFieldEndAccess
p949
(dp950
g320
S'enabled'
p951
sbasbsba(i__main__
DelphiAssignStatement
p952
(dp953
g310
(i__main__
DelphiIdentAccess
p954
(dp955
g314
S'LastPictureButton'
p956
sg316
(lp957
(idelphi
DelphiFieldEndAccess
p958
(dp959
g320
S'enabled'
p960
sbasbsg311
(i__main__
DelphiIdentAccess
p961
(dp962
g314
S'NextPictureButton'
p963
sg316
(lp964
(idelphi
DelphiFieldEndAccess
p965
(dp966
g320
S'enabled'
p967
sbasbsba(idelphi
DelphiIfStatement
p968
(dp969
S'expression'
p970
(idelphi
DelphiNot
p971
(dp972
S'factor'
p973
(i__main__
DelphiIdentAccess
p974
(dp975
g314
S'self'
p976
sg316
(lp977
(idelphi
DelphiFieldEndAccess
p978
(dp979
g320
S'visible'
p980
sbasbsbsS'ifFalseStatement'
p981
NsS'ifTrueStatement'
p982
(i__main__
DelphiAssignStatement
p983
(dp984
g310
Nsg311
(i__main__
DelphiIdentAccess
p985
(dp986
g314
S'self'
p987
sg316
(lp988
(idelphi
DelphiFieldEndAccess
p989
(dp990
g320
S'show'
p991
sbasbsbsba(i__main__
DelphiAssignStatement
p992
(dp993
g310
Nsg311
(i__main__
DelphiIdentAccess
p994
(dp995
g314
S'self'
p996
sg316
(lp997
(idelphi
DelphiFieldEndAccess
p998
(dp999
g320
S'bringToFront'
p1000
sbasbsbasbsg364
(lp1001
(i__main__
DelphiVarSection
p1002
(dp1003
S'atTopLevel'
p1004
I0
sS'varDeclList'
p1005
(lp1006
(idelphi
DelphiVarDecl
p1007
(dp1008
S'constExpression'
p1009
NsS'identList'
p1010
(lp1011
S'fileName'
p1012
asg51
(i__main__
DelphiPrimitiveType
p1013
(dp1014
g54
g136
sbsbasbasbsbsS'addpicturefromfile'
p1015
(i__main__
DelphiMethodImplementation
p1016
(dp1017
g279
g126
sg35
g128
sg43
(lp1018
(i__main__
DelphiFormalParameter
p1019
(dp1020
g47
Nsg48
(lp1021
S'aFileName'
p1022
asg51
(i__main__
DelphiPrimitiveType
p1023
(dp1024
g54
g136
sbsg58
g137
sba(i__main__
DelphiFormalParameter
p1025
(dp1026
g47
Nsg48
(lp1027
S'reply'
p1028
asg51
(i__main__
DelphiPrimitiveType
p1029
(dp1030
g54
g136
sbsg58
g137
sbasg288
(lp1031
sg290
(lp1032
sg292
(lp1033
g294
ag1022
ag1028
asg295
(dp1034
g1028
g1029
sg1022
g1023
ssg59
S'TPictureForm'
p1035
sg60
Nsg298
(lp1036
sg61
I0
sg62
g63
sg300
(i__main__
DelphiBlock
p1037
(dp1038
g303
(idelphi
DelphiCompoundStatement
p1039
(dp1040
g306
(lp1041
(idelphi
DelphiIfStatement
p1042
(dp1043
g970
(idelphi
DelphiNot
p1044
(dp1045
g973
(i__main__
DelphiIdentAccess
p1046
(dp1047
g314
S'domain'
p1048
sg316
(lp1049
(idelphi
DelphiFieldEndAccess
p1050
(dp1051
g320
S'options'
p1052
sba(idelphi
DelphiFieldEndAccess
p1053
(dp1054
g320
S'showPictures'
p1055
sbasbsbsg981
Nsg982
(i__main__
DelphiExitStatement
p1056
(dp1057
g720
g1016
sbsba(idelphi
DelphiIfStatement
p1058
(dp1059
g970
(idelphi
DelphiRelOp
p1060
(dp1061
g894
(i__main__
DelphiIdentAccess
p1062
(dp1063
g314
S'pictureNames'
p1064
sg316
(lp1065
(idelphi
DelphiFieldEndAccess
p1066
(dp1067
g320
S'indexOf'
p1068
sba(idelphi
DelphiFunctionEndAccess
p1069
(dp1070
g393
(lp1071
(i__main__
DelphiIdentAccess
p1072
(dp1073
g314
S'aFileName'
p1074
sg316
(lp1075
sbasbasbsg899
(idelphi
DelphiIntegerValue
p1076
(dp1077
g136
S'0'
sbsg902
S'<'
sbsg981
(idelphi
DelphiCompoundStatement
p1078
(dp1079
g306
(lp1080
(i__main__
DelphiAssignStatement
p1081
(dp1082
g310
(i__main__
DelphiIdentAccess
p1083
(dp1084
g314
S'pictureNames'
p1085
sg316
(lp1086
(idelphi
DelphiFieldEndAccess
p1087
(dp1088
g320
S'indexOf'
p1089
sba(idelphi
DelphiFunctionEndAccess
p1090
(dp1091
g393
(lp1092
(i__main__
DelphiIdentAccess
p1093
(dp1094
g314
S'aFileName'
p1095
sg316
(lp1096
sbasbasbsg311
(i__main__
DelphiIdentAccess
p1097
(dp1098
g314
S'selectedPictureIndex'
p1099
sg316
(lp1100
sbsba(i__main__
DelphiAssignStatement
p1101
(dp1102
g310
Nsg311
(i__main__
DelphiIdentAccess
p1103
(dp1104
g314
S'self'
p1105
sg316
(lp1106
(idelphi
DelphiFieldEndAccess
p1107
(dp1108
g320
S'loadSelectedPicture'
p1109
sbasbsbasbsg982
(idelphi
DelphiCompoundStatement
p1110
(dp1111
g306
(lp1112
(i__main__
DelphiAssignStatement
p1113
(dp1114
g310
Nsg311
(i__main__
DelphiIdentAccess
p1115
(dp1116
g314
S'pictureNames'
p1117
sg316
(lp1118
(idelphi
DelphiFieldEndAccess
p1119
(dp1120
g320
S'add'
p1121
sba(idelphi
DelphiFunctionEndAccess
p1122
(dp1123
g393
(lp1124
(i__main__
DelphiIdentAccess
p1125
(dp1126
g314
S'aFileName'
p1127
sg316
(lp1128
sbasbasbsg144
(lp1129
S' assumes file existence has been verified by caller (speech system)\r'
p1130
asba(i__main__
DelphiAssignStatement
p1131
(dp1132
g310
Nsg311
(i__main__
DelphiIdentAccess
p1133
(dp1134
g314
S'replies'
p1135
sg316
(lp1136
(idelphi
DelphiFieldEndAccess
p1137
(dp1138
g320
S'add'
p1139
sba(idelphi
DelphiFunctionEndAccess
p1140
(dp1141
g393
(lp1142
(i__main__
DelphiIdentAccess
p1143
(dp1144
g314
S'reply'
p1145
sg316
(lp1146
sbasbasbsg144
(lp1147
S'commands.add(command);\r'
p1148
asba(i__main__
DelphiAssignStatement
p1149
(dp1150
g310
(idelphi
DelphiAddOp
p1151
(dp1152
g385
S'-'
sg386
(idelphi
DelphiIntegerValue
p1153
(dp1154
g136
S'1'
sbsg402
(i__main__
DelphiIdentAccess
p1155
(dp1156
g314
S'pictureNames'
p1157
sg316
(lp1158
(idelphi
DelphiFieldEndAccess
p1159
(dp1160
g320
S'count'
p1161
sbasbsbsg311
(i__main__
DelphiIdentAccess
p1162
(dp1163
g314
S'selectedPictureIndex'
p1164
sg316
(lp1165
sbsba(i__main__
DelphiAssignStatement
p1166
(dp1167
g310
Nsg311
(i__main__
DelphiIdentAccess
p1168
(dp1169
g314
S'self'
p1170
sg316
(lp1171
(idelphi
DelphiFieldEndAccess
p1172
(dp1173
g320
S'loadSelectedPicture'
p1174
sbasbsbasbsbasbsg364
(lp1175
sbsg144
g145
sbsS'getpalette'
p1176
(i__main__
DelphiMethodImplementation
p1177
(dp1178
g279
g148
sg35
g150
sg43
(lp1179
sg288
(lp1180
sg290
(lp1181
sg292
(lp1182
g294
asg295
(dp1183
sg59
S'TPictureForm'
p1184
sg60
(i__main__
DelphiNamedType
p1185
(dp1186
g54
S'HPALETTE'
p1187
sg56
g1
sg57
Nsbsg298
(lp1188
sg61
I0
sg62
g124
sg300
(i__main__
DelphiBlock
p1189
(dp1190
g303
(idelphi
DelphiCompoundStatement
p1191
(dp1192
g306
(lp1193
(i__main__
DelphiAssignStatement
p1194
(dp1195
g310
(i__main__
DelphiIdentAccess
p1196
(dp1197
g314
S'PictureImage'
p1198
sg316
(lp1199
(idelphi
DelphiFieldEndAccess
p1200
(dp1201
g320
S'picture'
p1202
sba(idelphi
DelphiFieldEndAccess
p1203
(dp1204
g320
S'bitmap'
p1205
sba(idelphi
DelphiFieldEndAccess
p1206
(dp1207
g320
S'palette'
p1208
sbasbsg311
(i__main__
DelphiIdentAccess
p1209
(dp1210
g314
S'result'
p1211
sg316
(lp1212
sbsbasbsg364
(lp1213
sbsg144
g155
sbsS'formresize'
p1214
(i__main__
DelphiMethodImplementation
p1215
(dp1216
g279
g65
sg35
g67
sg43
(lp1217
(i__main__
DelphiFormalParameter
p1218
(dp1219
g47
Nsg48
(lp1220
S'Sender'
p1221
asg51
(i__main__
DelphiNamedType
p1222
(dp1223
g54
S'TObject'
p1224
sg56
g1
sg57
Nsbsg58
Nsbasg288
(lp1225
sg290
(lp1226
sg292
(lp1227
g294
ag1221
asg295
(dp1228
g1221
g1222
ssg59
S'TPictureForm'
p1229
sg60
Nsg298
(lp1230
sg61
I0
sg62
g63
sg300
(i__main__
DelphiBlock
p1231
(dp1232
g303
(idelphi
DelphiCompoundStatement
p1233
(dp1234
g306
(lp1235
(idelphi
DelphiWithStatement
p1236
(dp1237
g731
(i__main__
DelphiAssignStatement
p1238
(dp1239
g310
Nsg311
(i__main__
DelphiIdentAccess
p1240
(dp1241
g314
S'setBounds'
p1242
sg316
(lp1243
(idelphi
DelphiFunctionEndAccess
p1244
(dp1245
g393
(lp1246
(idelphi
DelphiIntegerValue
p1247
(dp1248
g136
S'0'
sba(idelphi
DelphiIntegerValue
p1249
(dp1250
g136
S'0'
sba(i__main__
DelphiIdentAccess
p1251
(dp1252
g314
S'self'
p1253
sg316
(lp1254
(idelphi
DelphiFieldEndAccess
p1255
(dp1256
g320
S'clientWidth'
p1257
sbasba(idelphi
DelphiAddOp
p1258
(dp1259
g385
S'-'
sg386
(i__main__
DelphiIdentAccess
p1260
(dp1261
g314
S'controlsPanel'
p1262
sg316
(lp1263
(idelphi
DelphiFieldEndAccess
p1264
(dp1265
g320
S'height'
p1266
sbasbsg402
(i__main__
DelphiIdentAccess
p1267
(dp1268
g314
S'self'
p1269
sg316
(lp1270
(idelphi
DelphiFieldEndAccess
p1271
(dp1272
g320
S'clientHeight'
p1273
sbasbsbasbasbsg144
(lp1274
S'with CaptionRichEdit do setBounds(0, self.clientHeight - height, self.clientWidth, height);\r'
p1275
aS'controlsPanel.height'
p1276
aS'- CaptionRichEdit.height'
p1277
asbsg813
(lp1278
(i__main__
DelphiIdentAccess
p1279
(dp1280
g314
S'PictureScrollBox'
p1281
sg316
(lp1282
sbasba(idelphi
DelphiWithStatement
p1283
(dp1284
g731
(i__main__
DelphiAssignStatement
p1285
(dp1286
g310
Nsg311
(i__main__
DelphiIdentAccess
p1287
(dp1288
g314
S'setBounds'
p1289
sg316
(lp1290
(idelphi
DelphiFunctionEndAccess
p1291
(dp1292
g393
(lp1293
(idelphi
DelphiIntegerValue
p1294
(dp1295
g136
S'0'
sba(idelphi
DelphiAddOp
p1296
(dp1297
g385
S'-'
sg386
(i__main__
DelphiIdentAccess
p1298
(dp1299
g314
S'height'
p1300
sg316
(lp1301
sbsg402
(i__main__
DelphiIdentAccess
p1302
(dp1303
g314
S'self'
p1304
sg316
(lp1305
(idelphi
DelphiFieldEndAccess
p1306
(dp1307
g320
S'clientHeight'
p1308
sbasbsba(i__main__
DelphiIdentAccess
p1309
(dp1310
g314
S'self'
p1311
sg316
(lp1312
(idelphi
DelphiFieldEndAccess
p1313
(dp1314
g320
S'clientWidth'
p1315
sbasba(i__main__
DelphiIdentAccess
p1316
(dp1317
g314
S'height'
p1318
sg316
(lp1319
sbasbasbsbsg813
(lp1320
(i__main__
DelphiIdentAccess
p1321
(dp1322
g314
S'controlsPanel'
p1323
sg316
(lp1324
sbasba(idelphi
DelphiWithStatement
p1325
(dp1326
g731
(i__main__
DelphiAssignStatement
p1327
(dp1328
g310
Nsg311
(i__main__
DelphiIdentAccess
p1329
(dp1330
g314
S'setBounds'
p1331
sg316
(lp1332
(idelphi
DelphiFunctionEndAccess
p1333
(dp1334
g393
(lp1335
(i__main__
DelphiIdentAccess
p1336
(dp1337
g314
S'localIntMax'
p1338
sg316
(lp1339
(idelphi
DelphiFunctionEndAccess
p1340
(dp1341
g393
(lp1342
(idelphi
DelphiIntegerValue
p1343
(dp1344
g136
S'0'
sba(idelphi
DelphiAddOp
p1345
(dp1346
g385
S'-'
sg386
(idelphi
DelphiMulOp
p1347
(dp1348
g754
(idelphi
DelphiIntegerValue
p1349
(dp1350
g136
S'2'
sbsg757
g758
sg759
(i__main__
DelphiIdentAccess
p1351
(dp1352
g314
S'width'
p1353
sg316
(lp1354
sbsbsg402
(idelphi
DelphiMulOp
p1355
(dp1356
g754
(idelphi
DelphiIntegerValue
p1357
(dp1358
g136
S'2'
sbsg757
g758
sg759
(i__main__
DelphiIdentAccess
p1359
(dp1360
g314
S'PictureScrollBox'
p1361
sg316
(lp1362
(idelphi
DelphiFieldEndAccess
p1363
(dp1364
g320
S'width'
p1365
sbasbsbsbasbasba(i__main__
DelphiIdentAccess
p1366
(dp1367
g314
S'localIntMax'
p1368
sg316
(lp1369
(idelphi
DelphiFunctionEndAccess
p1370
(dp1371
g393
(lp1372
(idelphi
DelphiIntegerValue
p1373
(dp1374
g136
S'0'
sba(idelphi
DelphiAddOp
p1375
(dp1376
g385
S'-'
sg386
(idelphi
DelphiMulOp
p1377
(dp1378
g754
(idelphi
DelphiIntegerValue
p1379
(dp1380
g136
S'2'
sbsg757
g758
sg759
(i__main__
DelphiIdentAccess
p1381
(dp1382
g314
S'height'
p1383
sg316
(lp1384
sbsbsg402
(idelphi
DelphiMulOp
p1385
(dp1386
g754
(idelphi
DelphiIntegerValue
p1387
(dp1388
g136
S'2'
sbsg757
g758
sg759
(i__main__
DelphiIdentAccess
p1389
(dp1390
g314
S'PictureScrollBox'
p1391
sg316
(lp1392
(idelphi
DelphiFieldEndAccess
p1393
(dp1394
g320
S'height'
p1395
sbasbsbsbasbasba(i__main__
DelphiIdentAccess
p1396
(dp1397
g314
S'width'
p1398
sg316
(lp1399
sba(i__main__
DelphiIdentAccess
p1400
(dp1401
g314
S'height'
p1402
sg316
(lp1403
sbasbasbsbsg813
(lp1404
(i__main__
DelphiIdentAccess
p1405
(dp1406
g314
S'PictureImage'
p1407
sg316
(lp1408
sbasbasbsg364
(lp1409
sbsbsS'nextpicturebuttonclick'
p1410
(i__main__
DelphiMethodImplementation
p1411
(dp1412
g279
g189
sg35
g191
sg43
(lp1413
(i__main__
DelphiFormalParameter
p1414
(dp1415
g47
Nsg48
(lp1416
S'Sender'
p1417
asg51
(i__main__
DelphiNamedType
p1418
(dp1419
g54
S'TObject'
p1420
sg56
g1
sg57
Nsbsg58
Nsbasg288
(lp1421
sg290
(lp1422
sg292
(lp1423
g294
ag1417
asg295
(dp1424
g1417
g1418
ssg59
S'TPictureForm'
p1425
sg60
Nsg298
(lp1426
sg61
I0
sg62
g63
sg300
(i__main__
DelphiBlock
p1427
(dp1428
g303
(idelphi
DelphiCompoundStatement
p1429
(dp1430
g306
(lp1431
(i__main__
DelphiAssignStatement
p1432
(dp1433
g310
(i__main__
DelphiIdentAccess
p1434
(dp1435
g314
S'localIntMin'
p1436
sg316
(lp1437
(idelphi
DelphiFunctionEndAccess
p1438
(dp1439
g393
(lp1440
(idelphi
DelphiAddOp
p1441
(dp1442
g385
S'-'
sg386
(idelphi
DelphiIntegerValue
p1443
(dp1444
g136
S'1'
sbsg402
(i__main__
DelphiIdentAccess
p1445
(dp1446
g314
S'pictureNames'
p1447
sg316
(lp1448
(idelphi
DelphiFieldEndAccess
p1449
(dp1450
g320
S'count'
p1451
sbasbsba(idelphi
DelphiAddOp
p1452
(dp1453
g385
S'+'
sg386
(idelphi
DelphiIntegerValue
p1454
(dp1455
g136
S'1'
sbsg402
(i__main__
DelphiIdentAccess
p1456
(dp1457
g314
S'selectedPictureIndex'
p1458
sg316
(lp1459
sbsbasbasbsg311
(i__main__
DelphiIdentAccess
p1460
(dp1461
g314
S'selectedPictureIndex'
p1462
sg316
(lp1463
sbsba(i__main__
DelphiAssignStatement
p1464
(dp1465
g310
Nsg311
(i__main__
DelphiIdentAccess
p1466
(dp1467
g314
S'self'
p1468
sg316
(lp1469
(idelphi
DelphiFieldEndAccess
p1470
(dp1471
g320
S'loadSelectedPicture'
p1472
sbasbsbasbsg364
(lp1473
sbsbsS'formcreate'
p1474
(i__main__
DelphiMethodImplementation
p1475
(dp1476
g279
g177
sg35
g179
sg43
(lp1477
(i__main__
DelphiFormalParameter
p1478
(dp1479
g47
Nsg48
(lp1480
S'Sender'
p1481
asg51
(i__main__
DelphiNamedType
p1482
(dp1483
g54
S'TObject'
p1484
sg56
g1
sg57
Nsbsg58
Nsbasg288
(lp1485
sg290
(lp1486
sg292
(lp1487
g294
ag1481
asg295
(dp1488
g1481
g1482
ssg59
S'TPictureForm'
p1489
sg60
Nsg298
(lp1490
sg61
I0
sg62
g63
sg300
(i__main__
DelphiBlock
p1491
(dp1492
g303
(idelphi
DelphiCompoundStatement
p1493
(dp1494
g306
(lp1495
(i__main__
DelphiAssignStatement
p1496
(dp1497
g310
(i__main__
DelphiIdentAccess
p1498
(dp1499
g314
S'TStringList'
p1500
sg316
(lp1501
(idelphi
DelphiFieldEndAccess
p1502
(dp1503
g320
S'create'
p1504
sbasbsg311
(i__main__
DelphiIdentAccess
p1505
(dp1506
g314
S'pictureNames'
p1507
sg316
(lp1508
sbsba(i__main__
DelphiAssignStatement
p1509
(dp1510
g310
(i__main__
DelphiIdentAccess
p1511
(dp1512
g314
S'TStringList'
p1513
sg316
(lp1514
(idelphi
DelphiFieldEndAccess
p1515
(dp1516
g320
S'create'
p1517
sbasbsg311
(i__main__
DelphiIdentAccess
p1518
(dp1519
g314
S'commands'
p1520
sg316
(lp1521
sbsba(i__main__
DelphiAssignStatement
p1522
(dp1523
g310
(i__main__
DelphiIdentAccess
p1524
(dp1525
g314
S'TStringList'
p1526
sg316
(lp1527
(idelphi
DelphiFieldEndAccess
p1528
(dp1529
g320
S'create'
p1530
sbasbsg311
(i__main__
DelphiIdentAccess
p1531
(dp1532
g314
S'replies'
p1533
sg316
(lp1534
sbsba(i__main__
DelphiAssignStatement
p1535
(dp1536
g310
Nsg311
(i__main__
DelphiIdentAccess
p1537
(dp1538
g314
S'domain'
p1539
sg316
(lp1540
(idelphi
DelphiFieldEndAccess
p1541
(dp1542
g320
S'setFormSize'
p1543
sba(idelphi
DelphiFunctionEndAccess
p1544
(dp1545
g393
(lp1546
(i__main__
DelphiIdentAccess
p1547
(dp1548
g314
S'self'
p1549
sg316
(lp1550
sba(i__main__
DelphiIdentAccess
p1551
(dp1552
g314
S'domain'
p1553
sg316
(lp1554
(idelphi
DelphiFieldEndAccess
p1555
(dp1556
g320
S'options'
p1557
sba(idelphi
DelphiFieldEndAccess
p1558
(dp1559
g320
S'pictureWindowRect'
p1560
sbasbasbasbsba(i__main__
DelphiAssignStatement
p1561
(dp1562
g310
(idelphi
DelphiStringAccess
p1563
(dp1564
g316
(lp1565
sg136
(idelphi
DelphiStringValue
p1566
(dp1567
g136
S''
sbsbsg311
(i__main__
DelphiIdentAccess
p1568
(dp1569
g314
S'numbersLabel'
p1570
sg316
(lp1571
(idelphi
DelphiFieldEndAccess
p1572
(dp1573
g320
S'caption'
p1574
sbasbsba(i__main__
DelphiAssignStatement
p1575
(dp1576
g310
(i__main__
DelphiIdentAccess
p1577
(dp1578
g314
S'bvNone'
p1579
sg316
(lp1580
sbsg311
(i__main__
DelphiIdentAccess
p1581
(dp1582
g314
S'controlsPanel'
p1583
sg316
(lp1584
(idelphi
DelphiFieldEndAccess
p1585
(dp1586
g320
S'bevelOuter'
p1587
sbasbsbasbsg364
(lp1588
sbsbsS'palettechanged'
p1589
(i__main__
DelphiMethodImplementation
p1590
(dp1591
g279
g111
sg35
g113
sg43
(lp1592
(i__main__
DelphiFormalParameter
p1593
(dp1594
g47
Nsg48
(lp1595
S'Foreground'
p1596
asg51
(i__main__
DelphiPrimitiveType
p1597
(dp1598
g54
g121
sbsg58
Nsbasg288
(lp1599
sg290
(lp1600
sg292
(lp1601
g294
ag1596
asg295
(dp1602
g1596
g1597
ssg59
S'TPictureForm'
p1603
sg60
(i__main__
DelphiPrimitiveType
p1604
(dp1605
g54
g121
sbsg298
(lp1606
sg61
I0
sg62
g124
sg300
(i__main__
DelphiBlock
p1607
(dp1608
g303
(idelphi
DelphiCompoundStatement
p1609
(dp1610
g306
(lp1611
(i__main__
DelphiAssignStatement
p1612
(dp1613
g310
(i__main__
DelphiIdentAccess
p1614
(dp1615
g314
S'false'
p1616
sg316
(lp1617
sbsg311
(i__main__
DelphiIdentAccess
p1618
(dp1619
g314
S'result'
p1620
sg316
(lp1621
sbsba(idelphi
DelphiIfStatement
p1622
(dp1623
g970
(i__main__
DelphiIdentAccess
p1624
(dp1625
g314
S'Application'
p1626
sg316
(lp1627
(idelphi
DelphiFieldEndAccess
p1628
(dp1629
g320
S'terminated'
p1630
sbasbsg981
Nsg982
(i__main__
DelphiExitStatement
p1631
(dp1632
g720
g1590
sbsba(i__main__
DelphiAssignStatement
p1633
(dp1634
g310
(i__main__
DelphiIdentAccess
p1635
(dp1636
g314
S'getPalette'
p1637
sg316
(lp1638
sbsg311
(i__main__
DelphiIdentAccess
p1639
(dp1640
g314
S'palette'
p1641
sg316
(lp1642
sbsba(idelphi
DelphiIfStatement
p1643
(dp1644
g970
(idelphi
DelphiRelOp
p1645
(dp1646
g894
(i__main__
DelphiIdentAccess
p1647
(dp1648
g314
S'palette'
p1649
sg316
(lp1650
sbsg899
(idelphi
DelphiIntegerValue
p1651
(dp1652
g136
S'0'
sbsg902
S'<>'
p1653
sbsg981
Nsg982
(idelphi
DelphiCompoundStatement
p1654
(dp1655
g306
(lp1656
(i__main__
DelphiAssignStatement
p1657
(dp1658
g310
(i__main__
DelphiIdentAccess
p1659
(dp1660
g314
S'getDeviceContext'
p1661
sg316
(lp1662
(idelphi
DelphiFunctionEndAccess
p1663
(dp1664
g393
(lp1665
(i__main__
DelphiIdentAccess
p1666
(dp1667
g314
S'WindowHandle'
p1668
sg316
(lp1669
sbasbasbsg311
(i__main__
DelphiIdentAccess
p1670
(dp1671
g314
S'DC'
p1672
sg316
(lp1673
sbsba(i__main__
DelphiAssignStatement
p1674
(dp1675
g310
(i__main__
DelphiIdentAccess
p1676
(dp1677
g314
S'selectPalette'
p1678
sg316
(lp1679
(idelphi
DelphiFunctionEndAccess
p1680
(dp1681
g393
(lp1682
(i__main__
DelphiIdentAccess
p1683
(dp1684
g314
S'DC'
p1685
sg316
(lp1686
sba(i__main__
DelphiIdentAccess
p1687
(dp1688
g314
S'palette'
p1689
sg316
(lp1690
sba(idelphi
DelphiNot
p1691
(dp1692
g973
(i__main__
DelphiIdentAccess
p1693
(dp1694
g314
S'foreground'
p1695
sg316
(lp1696
sbsbasbasbsg311
(i__main__
DelphiIdentAccess
p1697
(dp1698
g314
S'oldPalette'
p1699
sg316
(lp1700
sbsba(idelphi
DelphiIfStatement
p1701
(dp1702
g970
(idelphi
DelphiMulOp
p1703
(dp1704
g754
(idelphi
DelphiNestedExpressionListAccess
p1705
(dp1706
g316
(lp1707
sg393
(lp1708
(idelphi
DelphiRelOp
p1709
(dp1710
g894
(i__main__
DelphiIdentAccess
p1711
(dp1712
g314
S'PictureImage'
p1713
sg316
(lp1714
sbsg899
(idelphi
DelphiNilValue
p1715
(dp1716
bsg902
g1653
sbasbsg757
S'and'
p1717
sg759
(idelphi
DelphiNestedExpressionListAccess
p1718
(dp1719
g316
(lp1720
sg393
(lp1721
(idelphi
DelphiRelOp
p1722
(dp1723
g894
(i__main__
DelphiIdentAccess
p1724
(dp1725
g314
S'realizePalette'
p1726
sg316
(lp1727
(idelphi
DelphiFunctionEndAccess
p1728
(dp1729
g393
(lp1730
(i__main__
DelphiIdentAccess
p1731
(dp1732
g314
S'DC'
p1733
sg316
(lp1734
sbasbasbsg899
(idelphi
DelphiIntegerValue
p1735
(dp1736
g136
S'0'
sbsg902
g1653
sbasbsbsg981
Nsg982
(i__main__
DelphiAssignStatement
p1737
(dp1738
g310
Nsg311
(i__main__
DelphiIdentAccess
p1739
(dp1740
g314
S'PictureImage'
p1741
sg316
(lp1742
(idelphi
DelphiFieldEndAccess
p1743
(dp1744
g320
S'invalidate'
p1745
sbasbsg144
(lp1746
S' if palette changed, repaint drawing '
p1747
asbsba(i__main__
DelphiAssignStatement
p1748
(dp1749
g310
Nsg311
(i__main__
DelphiIdentAccess
p1750
(dp1751
g314
S'selectPalette'
p1752
sg316
(lp1753
(idelphi
DelphiFunctionEndAccess
p1754
(dp1755
g393
(lp1756
(i__main__
DelphiIdentAccess
p1757
(dp1758
g314
S'DC'
p1759
sg316
(lp1760
sba(i__main__
DelphiIdentAccess
p1761
(dp1762
g314
S'oldPalette'
p1763
sg316
(lp1764
sba(i__main__
DelphiIdentAccess
p1765
(dp1766
g314
S'True'
p1767
sg316
(lp1768
sbasbasbsba(i__main__
DelphiAssignStatement
p1769
(dp1770
g310
Nsg311
(i__main__
DelphiIdentAccess
p1771
(dp1772
g314
S'realizePalette'
p1773
sg316
(lp1774
(idelphi
DelphiFunctionEndAccess
p1775
(dp1776
g393
(lp1777
(i__main__
DelphiIdentAccess
p1778
(dp1779
g314
S'DC'
p1780
sg316
(lp1781
sbasbasbsba(i__main__
DelphiAssignStatement
p1782
(dp1783
g310
Nsg311
(i__main__
DelphiIdentAccess
p1784
(dp1785
g314
S'releaseDC'
p1786
sg316
(lp1787
(idelphi
DelphiFunctionEndAccess
p1788
(dp1789
g393
(lp1790
(i__main__
DelphiIdentAccess
p1791
(dp1792
g314
S'windowHandle'
p1793
sg316
(lp1794
sba(i__main__
DelphiIdentAccess
p1795
(dp1796
g314
S'DC'
p1797
sg316
(lp1798
sbasbasbsbasbsba(i__main__
DelphiAssignStatement
p1799
(dp1800
g310
(idelphi
DelphiInheritedCall
p1801
(dp1802
g314
S'paletteChanged'
p1803
sg393
(lp1804
(i__main__
DelphiIdentAccess
p1805
(dp1806
g314
S'foreground'
p1807
sg316
(lp1808
sbasbsg311
(i__main__
DelphiIdentAccess
p1809
(dp1810
g314
S'result'
p1811
sg316
(lp1812
sbsbasbsg364
(lp1813
(i__main__
DelphiVarSection
p1814
(dp1815
g1004
I0
sg1005
(lp1816
(idelphi
DelphiVarDecl
p1817
(dp1818
g1009
Nsg1010
(lp1819
S'oldPalette'
p1820
aS'palette'
p1821
asg51
(i__main__
DelphiNamedType
p1822
(dp1823
g54
S'HPALETTE'
p1824
sg56
g1
sg57
Nsbsba(idelphi
DelphiVarDecl
p1825
(dp1826
g1009
Nsg1010
(lp1827
S'windowHandle'
p1828
asg51
(i__main__
DelphiNamedType
p1829
(dp1830
g54
S'HWnd'
p1831
sg56
g1
sg57
Nsbsba(idelphi
DelphiVarDecl
p1832
(dp1833
g1009
Nsg1010
(lp1834
S'DC'
p1835
asg51
(i__main__
DelphiNamedType
p1836
(dp1837
g54
S'HDC'
p1838
sg56
g1
sg57
Nsbsbasbasbsg144
(lp1839
S'overriden because paint box will not update correctly'
p1840
aS'makes window take first priority for palettes'
p1841
asbsS'firstpicturebuttonclick'
p1842
(i__main__
DelphiMethodImplementation
p1843
(dp1844
g279
g165
sg35
g167
sg43
(lp1845
(i__main__
DelphiFormalParameter
p1846
(dp1847
g47
Nsg48
(lp1848
S'Sender'
p1849
asg51
(i__main__
DelphiNamedType
p1850
(dp1851
g54
S'TObject'
p1852
sg56
g1
sg57
Nsbsg58
Nsbasg288
(lp1853
sg290
(lp1854
sg292
(lp1855
g294
ag1849
asg295
(dp1856
g1849
g1850
ssg59
S'TPictureForm'
p1857
sg60
Nsg298
(lp1858
sg61
I0
sg62
g63
sg300
(i__main__
DelphiBlock
p1859
(dp1860
g303
(idelphi
DelphiCompoundStatement
p1861
(dp1862
g306
(lp1863
(i__main__
DelphiAssignStatement
p1864
(dp1865
g310
(idelphi
DelphiIntegerValue
p1866
(dp1867
g136
S'0'
sbsg311
(i__main__
DelphiIdentAccess
p1868
(dp1869
g314
S'selectedPictureIndex'
p1870
sg316
(lp1871
sbsba(i__main__
DelphiAssignStatement
p1872
(dp1873
g310
Nsg311
(i__main__
DelphiIdentAccess
p1874
(dp1875
g314
S'self'
p1876
sg316
(lp1877
(idelphi
DelphiFieldEndAccess
p1878
(dp1879
g320
S'loadSelectedPicture'
p1880
sbasbsbasbsg364
(lp1881
sbsbssS'propertyDeclarations'
p1882
(dp1883
sS'variableNamesInDeclaredOrder'
p1884
(lp1885
g32
ag12
ag30
ag16
ag34
ag28
ag22
ag10
ag20
ag14
ag18
ag26
ag24
asba(i__main__
DelphiVarSection
p1886
(dp1887
g1004
I1
sg1005
(lp1888
(idelphi
DelphiVarDecl
p1889
(dp1890
g1009
Nsg1010
(lp1891
S'PictureForm'
p1892
asg51
(i__main__
DelphiNamedType
p1893
(dp1894
g54
S'TPictureForm'
p1895
sg56
g1
sg57
Nsbsbasba(i__main__
DelphiProceduralImplementation
p1896
(dp1897
g279
g1896
sg35
S'localIntMin'
p1898
sg60
(i__main__
DelphiPrimitiveType
p1899
(dp1900
g54
g238
sbsg288
(lp1901
sg290
(lp1902
sg292
(lp1903
S'a'
aS'b'
asg295
(dp1904
S'a'
(i__main__
DelphiPrimitiveType
p1905
(dp1906
g54
g238
sbsS'b'
g1905
ssg43
(lp1907
(i__main__
DelphiFormalParameter
p1908
(dp1909
g47
Nsg48
(lp1910
S'a'
aS'b'
asg51
g1905
sg58
Nsbasg298
(lp1911
sg300
(i__main__
DelphiBlock
p1912
(dp1913
g303
(idelphi
DelphiCompoundStatement
p1914
(dp1915
g306
(lp1916
(i__main__
DelphiAssignStatement
p1917
(dp1918
g310
(i__main__
DelphiIdentAccess
p1919
(dp1920
g314
S'a'
sg316
(lp1921
sbsg311
(i__main__
DelphiIdentAccess
p1922
(dp1923
g314
S'result'
p1924
sg316
(lp1925
sbsba(idelphi
DelphiIfStatement
p1926
(dp1927
g970
(idelphi
DelphiRelOp
p1928
(dp1929
g894
(i__main__
DelphiIdentAccess
p1930
(dp1931
g314
S'b'
sg316
(lp1932
sbsg899
(i__main__
DelphiIdentAccess
p1933
(dp1934
g314
S'a'
sg316
(lp1935
sbsg902
S'<'
sbsg981
Nsg982
(i__main__
DelphiAssignStatement
p1936
(dp1937
g310
(i__main__
DelphiIdentAccess
p1938
(dp1939
g314
S'b'
sg316
(lp1940
sbsg311
(i__main__
DelphiIdentAccess
p1941
(dp1942
g314
S'result'
p1943
sg316
(lp1944
sbsbsbasbsg364
(lp1945
sbsg144
(lp1946
S'$R *.DFM'
p1947
asba(i__main__
DelphiProceduralImplementation
p1948
(dp1949
g279
g1948
sg35
S'localIntMax'
p1950
sg60
(i__main__
DelphiPrimitiveType
p1951
(dp1952
g54
g238
sbsg288
(lp1953
sg290
(lp1954
sg292
(lp1955
S'a'
aS'b'
asg295
(dp1956
S'a'
(i__main__
DelphiPrimitiveType
p1957
(dp1958
g54
g238
sbsS'b'
g1957
ssg43
(lp1959
(i__main__
DelphiFormalParameter
p1960
(dp1961
g47
Nsg48
(lp1962
S'a'
aS'b'
asg51
g1957
sg58
Nsbasg298
(lp1963
sg300
(i__main__
DelphiBlock
p1964
(dp1965
g303
(idelphi
DelphiCompoundStatement
p1966
(dp1967
g306
(lp1968
(i__main__
DelphiAssignStatement
p1969
(dp1970
g310
(i__main__
DelphiIdentAccess
p1971
(dp1972
g314
S'a'
sg316
(lp1973
sbsg311
(i__main__
DelphiIdentAccess
p1974
(dp1975
g314
S'result'
p1976
sg316
(lp1977
sbsba(idelphi
DelphiIfStatement
p1978
(dp1979
g970
(idelphi
DelphiRelOp
p1980
(dp1981
g894
(i__main__
DelphiIdentAccess
p1982
(dp1983
g314
S'b'
sg316
(lp1984
sbsg899
(i__main__
DelphiIdentAccess
p1985
(dp1986
g314
S'a'
sg316
(lp1987
sbsg902
S'>'
sbsg981
Nsg982
(i__main__
DelphiAssignStatement
p1988
(dp1989
g310
(i__main__
DelphiIdentAccess
p1990
(dp1991
g314
S'b'
sg316
(lp1992
sbsg311
(i__main__
DelphiIdentAccess
p1993
(dp1994
g314
S'result'
p1995
sg316
(lp1996
sbsbsbasbsg364
(lp1997
sbsbasS'includedUnits'
p1998
NsS'implementationUses'
p1999
(lp2000
S'USDomain'
p2001
aS'ucursor'
p2002
asg35
S'uspictureform'
p2003
sS'constSections'
p2004
(lp2005
sS'globalsInProperCase'
p2006
NsS'interfaceUses'
p2007
(lp2008
S'delphi_compatability'
p2009
aS'Windows'
p2010
aS'Messages'
p2011
aS'SysUtils'
p2012
aS'Classes'
p2013
aS'Graphics'
p2014
aS'Controls'
p2015
aS'Forms'
p2016
aS'Dialogs'
p2017
aS'Buttons'
p2018
aS'ExtCtrls'
p2019
aS'StdCtrls'
p2020
aS'ComCtrls'
p2021
asS'finalCommentToken'
p2022
(i__main__
PassStatement
p2023
(dp2024
g364
(lp2025
sbsS'varSections'
p2026
(lp2027
g1886
asS'globals'
p2028
NsS'originalFileName'
p2029
S'../../storyharp-js/converted_source/uspictureform.pas'
p2030
sS'proceduralImplementations'
p2031
(dp2032
S'localintmin'
p2033
g1896
sS'localintmax'
p2034
g1948
ssS'fileName'
p2035
S'/home/pdfernhout/workspace/storyharp-js/converted_source/uspictureform.pas'
p2036
sS'proceduralDeclarations'
p2037
(dp2038
sS'types'
p2039
(dp2040
S'tpictureform'
p2041
g5
ssb.