(i__main__
DelphiUnit
p1
(dp2
S'sectionsInOrderDefined'
p3
(lp4
(i__main__
DelphiClass
p5
(dp6
S'variableNamesInProperCase'
p7
(dp8
S'fontdialog'
p9
S'FontDialog'
p10
sS'colordialog'
p11
S'ColorDialog'
p12
sS'browserfontnameedit'
p13
S'browserFontNameEdit'
p14
sS'changemapcommandscolor'
p15
S'ChangeMapCommandsColor'
p16
sS'changebackgroundcolor'
p17
S'changeBackgroundColor'
p18
sS'changetextcolor'
p19
S'changeTextColor'
p20
sS'cancel'
p21
S'cancel'
p22
sS'close'
p23
S'Close'
p24
sS'mapfontnameedit'
p25
S'mapFontNameEdit'
p26
sS'helpbutton'
p27
S'helpButton'
p28
sS'symbolbuttons'
p29
S'symbolButtons'
p30
sS'changemapfont'
p31
S'changeMapFont'
p32
sS'panel1'
p33
S'Panel1'
p34
sS'backgroundcolorpanel'
p35
S'backgroundColorPanel'
p36
sS'label1'
p37
S'Label1'
p38
sS'label2'
p39
S'Label2'
p40
sS'label3'
p41
S'Label3'
p42
sS'label4'
p43
S'Label4'
p44
sS'label5'
p45
S'Label5'
p46
sS'showmapcommands'
p47
S'showMapCommands'
p48
sS'tablefontnameedit'
p49
S'tableFontNameEdit'
p50
sS'label6'
p51
S'Label6'
p52
sS'changetablefont'
p53
S'changeTableFont'
p54
sS'changebrowserfont'
p55
S'changeBrowserFont'
p56
sS'textcolorpanel'
p57
S'textColorPanel'
p58
sS'mapcommandscolorpanel'
p59
S'mapCommandsColorPanel'
p60
sS'options'
p61
S'options'
p62
ssS'name'
p63
S'TPreferencesForm'
p64
sS'methodDeclarations'
p65
(dp66
S'helpbuttonclick'
p67
(i__main__
DelphiMethodDeclaration
p68
(dp69
g63
S'helpButtonClick'
p70
sS'formalParameters'
p71
(lp72
(i__main__
DelphiFormalParameter
p73
(dp74
S'initialValue'
p75
NsS'names'
p76
(lp77
S'Sender'
p78
asS'theType'
p79
(i__main__
DelphiNamedType
p80
(dp81
S'typeName'
p82
S'TObject'
p83
sS'unitDefinedIn'
p84
g1
sS'unitName'
p85
NsbsS'parameterVariety'
p86
NsbasS'className'
p87
g64
sS'resultType'
p88
NsS'isClassMethod'
p89
I0
sS'methodType'
p90
S'procedure'
p91
sbsS'formactivate'
p92
(i__main__
DelphiMethodDeclaration
p93
(dp94
g63
S'FormActivate'
p95
sg71
(lp96
(i__main__
DelphiFormalParameter
p97
(dp98
g75
Nsg76
(lp99
S'Sender'
p100
asg79
(i__main__
DelphiNamedType
p101
(dp102
g82
S'TObject'
p103
sg84
g1
sg85
Nsbsg86
Nsbasg87
g64
sg88
Nsg89
I0
sg90
g91
sbsS'symbolbuttonsclick'
p104
(i__main__
DelphiMethodDeclaration
p105
(dp106
g63
S'symbolButtonsClick'
p107
sg71
(lp108
(i__main__
DelphiFormalParameter
p109
(dp110
g75
Nsg76
(lp111
S'Sender'
p112
asg79
(i__main__
DelphiNamedType
p113
(dp114
g82
S'TObject'
p115
sg84
g1
sg85
Nsbsg86
Nsbasg87
g64
sg88
Nsg89
I0
sg90
g91
sbsS'changemapcommandscolorclick'
p116
(i__main__
DelphiMethodDeclaration
p117
(dp118
g63
S'ChangeMapCommandsColorClick'
p119
sg71
(lp120
(i__main__
DelphiFormalParameter
p121
(dp122
g75
Nsg76
(lp123
S'Sender'
p124
asg79
(i__main__
DelphiNamedType
p125
(dp126
g82
S'TObject'
p127
sg84
g1
sg85
Nsbsg86
Nsbasg87
g64
sg88
Nsg89
I0
sg90
g91
sbsS'changebrowserfontclick'
p128
(i__main__
DelphiMethodDeclaration
p129
(dp130
g63
S'changeBrowserFontClick'
p131
sg71
(lp132
(i__main__
DelphiFormalParameter
p133
(dp134
g75
Nsg76
(lp135
S'Sender'
p136
asg79
(i__main__
DelphiNamedType
p137
(dp138
g82
S'TObject'
p139
sg84
g1
sg85
Nsbsg86
Nsbasg87
g64
sg88
Nsg89
I0
sg90
g91
sbsS'changetextcolorclick'
p140
(i__main__
DelphiMethodDeclaration
p141
(dp142
g63
S'changeTextColorClick'
p143
sg71
(lp144
(i__main__
DelphiFormalParameter
p145
(dp146
g75
Nsg76
(lp147
S'Sender'
p148
asg79
(i__main__
DelphiNamedType
p149
(dp150
g82
S'TObject'
p151
sg84
g1
sg85
Nsbsg86
Nsbasg87
g64
sg88
Nsg89
I0
sg90
g91
sbsS'showmapcommandsclick'
p152
(i__main__
DelphiMethodDeclaration
p153
(dp154
g63
S'showMapCommandsClick'
p155
sg71
(lp156
(i__main__
DelphiFormalParameter
p157
(dp158
g75
Nsg76
(lp159
S'Sender'
p160
asg79
(i__main__
DelphiNamedType
p161
(dp162
g82
S'TObject'
p163
sg84
g1
sg85
Nsbsg86
Nsbasg87
g64
sg88
Nsg89
I0
sg90
g91
sbsS'changetablefontclick'
p164
(i__main__
DelphiMethodDeclaration
p165
(dp166
g63
S'changeTableFontClick'
p167
sg71
(lp168
(i__main__
DelphiFormalParameter
p169
(dp170
g75
Nsg76
(lp171
S'Sender'
p172
asg79
(i__main__
DelphiNamedType
p173
(dp174
g82
S'TObject'
p175
sg84
g1
sg85
Nsbsg86
Nsbasg87
g64
sg88
Nsg89
I0
sg90
g91
sbsS'changemapfontclick'
p176
(i__main__
DelphiMethodDeclaration
p177
(dp178
g63
S'changeMapFontClick'
p179
sg71
(lp180
(i__main__
DelphiFormalParameter
p181
(dp182
g75
Nsg76
(lp183
S'Sender'
p184
asg79
(i__main__
DelphiNamedType
p185
(dp186
g82
S'TObject'
p187
sg84
g1
sg85
Nsbsg86
Nsbasg87
g64
sg88
Nsg89
I0
sg90
g91
sbsS'changebackgroundcolorclick'
p188
(i__main__
DelphiMethodDeclaration
p189
(dp190
g63
S'changeBackgroundColorClick'
p191
sg71
(lp192
(i__main__
DelphiFormalParameter
p193
(dp194
g75
Nsg76
(lp195
S'Sender'
p196
asg79
(i__main__
DelphiNamedType
p197
(dp198
g82
S'TObject'
p199
sg84
g1
sg85
Nsbsg86
Nsbasg87
g64
sg88
Nsg89
I0
sg90
g91
sbssS'superclassNamedTypes'
p200
(lp201
(i__main__
DelphiNamedType
p202
(dp203
g82
S'TForm'
p204
sg84
g1
sg85
NsbasS'variableNames'
p205
(dp206
S'fontdialog'
p207
(i__main__
DelphiNamedType
p208
(dp209
g82
S'TFontDialog'
p210
sg84
g1
sg85
NsbsS'colordialog'
p211
(i__main__
DelphiNamedType
p212
(dp213
g82
S'TColorDialog'
p214
sg84
g1
sg85
NsbsS'browserfontnameedit'
p215
(i__main__
DelphiNamedType
p216
(dp217
g82
S'TEdit'
p218
sg84
g1
sg85
NsbsS'changemapcommandscolor'
p219
(i__main__
DelphiNamedType
p220
(dp221
g82
S'TButton'
p222
sg84
g1
sg85
NsbsS'changebackgroundcolor'
p223
(i__main__
DelphiNamedType
p224
(dp225
g82
S'TButton'
p226
sg84
g1
sg85
NsbsS'changetextcolor'
p227
(i__main__
DelphiNamedType
p228
(dp229
g82
S'TButton'
p230
sg84
g1
sg85
NsbsS'cancel'
p231
(i__main__
DelphiNamedType
p232
(dp233
g82
S'TButton'
p234
sg84
g1
sg85
NsbsS'close'
p235
(i__main__
DelphiNamedType
p236
(dp237
g82
S'TButton'
p238
sg84
g1
sg85
NsbsS'mapfontnameedit'
p239
(i__main__
DelphiNamedType
p240
(dp241
g82
S'TEdit'
p242
sg84
g1
sg85
NsbsS'helpbutton'
p243
(i__main__
DelphiNamedType
p244
(dp245
g82
S'TSpeedButton'
p246
sg84
g1
sg85
NsbsS'symbolbuttons'
p247
(i__main__
DelphiNamedType
p248
(dp249
g82
S'TCheckBox'
p250
sg84
g1
sg85
NsbsS'changemapfont'
p251
(i__main__
DelphiNamedType
p252
(dp253
g82
S'TButton'
p254
sg84
g1
sg85
NsbsS'panel1'
p255
(i__main__
DelphiNamedType
p256
(dp257
g82
S'TPanel'
p258
sg84
g1
sg85
NsbsS'backgroundcolorpanel'
p259
(i__main__
DelphiNamedType
p260
(dp261
g82
S'TPanel'
p262
sg84
g1
sg85
NsbsS'label1'
p263
(i__main__
DelphiNamedType
p264
(dp265
g82
S'TLabel'
p266
sg84
g1
sg85
NsbsS'label2'
p267
(i__main__
DelphiNamedType
p268
(dp269
g82
S'TLabel'
p270
sg84
g1
sg85
NsbsS'label3'
p271
(i__main__
DelphiNamedType
p272
(dp273
g82
S'TLabel'
p274
sg84
g1
sg85
NsbsS'label4'
p275
(i__main__
DelphiNamedType
p276
(dp277
g82
S'TLabel'
p278
sg84
g1
sg85
NsbsS'label5'
p279
(i__main__
DelphiNamedType
p280
(dp281
g82
S'TLabel'
p282
sg84
g1
sg85
NsbsS'showmapcommands'
p283
(i__main__
DelphiNamedType
p284
(dp285
g82
S'TCheckBox'
p286
sg84
g1
sg85
NsbsS'tablefontnameedit'
p287
(i__main__
DelphiNamedType
p288
(dp289
g82
S'TEdit'
p290
sg84
g1
sg85
NsbsS'label6'
p291
(i__main__
DelphiNamedType
p292
(dp293
g82
S'TLabel'
p294
sg84
g1
sg85
NsbsS'changetablefont'
p295
(i__main__
DelphiNamedType
p296
(dp297
g82
S'TButton'
p298
sg84
g1
sg85
NsbsS'changebrowserfont'
p299
(i__main__
DelphiNamedType
p300
(dp301
g82
S'TButton'
p302
sg84
g1
sg85
NsbsS'textcolorpanel'
p303
(i__main__
DelphiNamedType
p304
(dp305
g82
S'TPanel'
p306
sg84
g1
sg85
NsbsS'mapcommandscolorpanel'
p307
(i__main__
DelphiNamedType
p308
(dp309
g82
S'TPanel'
p310
sg84
g1
sg85
NsbsS'options'
p311
(i__main__
DelphiNamedType
p312
(dp313
g82
S'DomainOptionsStructure'
p314
sg84
g1
sg85
NsbssS'methodNamesInDefinedOrder'
p315
(lp316
S'formactivate'
p317
aS'changetablefontclick'
p318
aS'changemapfontclick'
p319
aS'changebrowserfontclick'
p320
aS'changebackgroundcolorclick'
p321
aS'changetextcolorclick'
p322
aS'changemapcommandscolorclick'
p323
aS'showmapcommandsclick'
p324
aS'symbolbuttonsclick'
p325
aS'helpbuttonclick'
p326
asS'methodImplementations'
p327
(dp328
S'helpbuttonclick'
p329
(i__main__
DelphiMethodImplementation
p330
(dp331
S'originalDeclaration'
p332
g68
sg63
g70
sg71
(lp333
(i__main__
DelphiFormalParameter
p334
(dp335
g75
Nsg76
(lp336
S'Sender'
p337
asg79
(i__main__
DelphiNamedType
p338
(dp339
g82
S'TObject'
p340
sg84
g1
sg85
Nsbsg86
NsbasS'varParamIndexes'
p341
(lp342
sS'varParamsSkipped'
p343
(lp344
sS'argNames'
p345
(lp346
S'self'
p347
ag337
asS'argTypes'
p348
(dp349
g337
g338
ssg87
S'TPreferencesForm'
p350
sg88
NsS'varParamNames'
p351
(lp352
sg89
I0
sg90
g91
sS'block'
p353
(i__main__
DelphiBlock
p354
(dp355
S'compoundStatement'
p356
(idelphi
DelphiCompoundStatement
p357
(dp358
S'statements'
p359
(lp360
(i__main__
DelphiAssignStatement
p361
(dp362
S'newValueExpression'
p363
NsS'destinationExpression'
p364
(i__main__
DelphiIdentAccess
p365
(dp366
S'ident'
p367
S'application'
p368
sS'endAccessList'
p369
(lp370
(idelphi
DelphiFieldEndAccess
p371
(dp372
S'field'
p373
S'helpJump'
p374
sba(idelphi
DelphiFunctionEndAccess
p375
(dp376
S'expressionList'
p377
(lp378
(idelphi
DelphiStringAccess
p379
(dp380
g369
(lp381
sS'string'
p382
(idelphi
DelphiStringValue
p383
(dp384
g382
S'Changing_editor_preferences'
p385
sbsbasbasbsbasbsS'limitedDeclSectionList'
p386
(lp387
sbsbsS'formactivate'
p388
(i__main__
DelphiMethodImplementation
p389
(dp390
g332
g93
sg63
g95
sg71
(lp391
(i__main__
DelphiFormalParameter
p392
(dp393
g75
Nsg76
(lp394
S'Sender'
p395
asg79
(i__main__
DelphiNamedType
p396
(dp397
g82
S'TObject'
p398
sg84
g1
sg85
Nsbsg86
Nsbasg341
(lp399
sg343
(lp400
sg345
(lp401
g347
ag395
asg348
(dp402
g395
g396
ssg87
S'TPreferencesForm'
p403
sg88
Nsg351
(lp404
sg89
I0
sg90
g91
sg353
(i__main__
DelphiBlock
p405
(dp406
g356
(idelphi
DelphiCompoundStatement
p407
(dp408
g359
(lp409
(idelphi
DelphiWithStatement
p410
(dp411
S'statement'
p412
(idelphi
DelphiCompoundStatement
p413
(dp414
g359
(lp415
(i__main__
DelphiAssignStatement
p416
(dp417
g363
(idelphi
DelphiAddOp
p418
(dp419
S'addOp'
p420
S'+'
sS'term2'
p421
(i__main__
DelphiIdentAccess
p422
(dp423
g367
S'intToStr'
p424
sg369
(lp425
(idelphi
DelphiFunctionEndAccess
p426
(dp427
g377
(lp428
(i__main__
DelphiIdentAccess
p429
(dp430
g367
S'options'
p431
sg369
(lp432
(idelphi
DelphiFieldEndAccess
p433
(dp434
g373
S'tableFontSize'
p435
sbasbasbasbsS'term1'
p436
(idelphi
DelphiAddOp
p437
(dp438
g420
S'+'
sg421
(idelphi
DelphiStringAccess
p439
(dp440
g369
(lp441
sg382
(idelphi
DelphiStringValue
p442
(dp443
g382
S', '
p444
sbsbsg436
(i__main__
DelphiIdentAccess
p445
(dp446
g367
S'options'
p447
sg369
(lp448
(idelphi
DelphiFieldEndAccess
p449
(dp450
g373
S'tableFontName'
p451
sbasbsbsbsg364
(i__main__
DelphiIdentAccess
p452
(dp453
g367
S'tableFontNameEdit'
p454
sg369
(lp455
(idelphi
DelphiFieldEndAccess
p456
(dp457
g373
S'text'
p458
sbasbsba(i__main__
DelphiAssignStatement
p459
(dp460
g363
(idelphi
DelphiAddOp
p461
(dp462
g420
S'+'
sg421
(i__main__
DelphiIdentAccess
p463
(dp464
g367
S'intToStr'
p465
sg369
(lp466
(idelphi
DelphiFunctionEndAccess
p467
(dp468
g377
(lp469
(i__main__
DelphiIdentAccess
p470
(dp471
g367
S'options'
p472
sg369
(lp473
(idelphi
DelphiFieldEndAccess
p474
(dp475
g373
S'mapFontSize'
p476
sbasbasbasbsg436
(idelphi
DelphiAddOp
p477
(dp478
g420
S'+'
sg421
(idelphi
DelphiStringAccess
p479
(dp480
g369
(lp481
sg382
(idelphi
DelphiStringValue
p482
(dp483
g382
S', '
p484
sbsbsg436
(i__main__
DelphiIdentAccess
p485
(dp486
g367
S'options'
p487
sg369
(lp488
(idelphi
DelphiFieldEndAccess
p489
(dp490
g373
S'mapFontName'
p491
sbasbsbsbsg364
(i__main__
DelphiIdentAccess
p492
(dp493
g367
S'mapFontNameEdit'
p494
sg369
(lp495
(idelphi
DelphiFieldEndAccess
p496
(dp497
g373
S'text'
p498
sbasbsba(i__main__
DelphiAssignStatement
p499
(dp500
g363
(idelphi
DelphiAddOp
p501
(dp502
g420
S'+'
sg421
(i__main__
DelphiIdentAccess
p503
(dp504
g367
S'intToStr'
p505
sg369
(lp506
(idelphi
DelphiFunctionEndAccess
p507
(dp508
g377
(lp509
(i__main__
DelphiIdentAccess
p510
(dp511
g367
S'options'
p512
sg369
(lp513
(idelphi
DelphiFieldEndAccess
p514
(dp515
g373
S'browserFontSize'
p516
sbasbasbasbsg436
(idelphi
DelphiAddOp
p517
(dp518
g420
S'+'
sg421
(idelphi
DelphiStringAccess
p519
(dp520
g369
(lp521
sg382
(idelphi
DelphiStringValue
p522
(dp523
g382
S', '
p524
sbsbsg436
(i__main__
DelphiIdentAccess
p525
(dp526
g367
S'options'
p527
sg369
(lp528
(idelphi
DelphiFieldEndAccess
p529
(dp530
g373
S'browserFontName'
p531
sbasbsbsbsg364
(i__main__
DelphiIdentAccess
p532
(dp533
g367
S'browserFontNameEdit'
p534
sg369
(lp535
(idelphi
DelphiFieldEndAccess
p536
(dp537
g373
S'text'
p538
sbasbsba(i__main__
DelphiAssignStatement
p539
(dp540
g363
(i__main__
DelphiIdentAccess
p541
(dp542
g367
S'selectedItemColor'
p543
sg369
(lp544
sbsg364
(i__main__
DelphiIdentAccess
p545
(dp546
g367
S'backgroundColorPanel'
p547
sg369
(lp548
(idelphi
DelphiFieldEndAccess
p549
(dp550
g373
S'color'
p551
sbasbsba(i__main__
DelphiAssignStatement
p552
(dp553
g363
(i__main__
DelphiIdentAccess
p554
(dp555
g367
S'selectedTextColor'
p556
sg369
(lp557
sbsg364
(i__main__
DelphiIdentAccess
p558
(dp559
g367
S'textColorPanel'
p560
sg369
(lp561
(idelphi
DelphiFieldEndAccess
p562
(dp563
g373
S'color'
p564
sbasbsba(i__main__
DelphiAssignStatement
p565
(dp566
g363
(i__main__
DelphiIdentAccess
p567
(dp568
g367
S'showCommandPrefixInMap'
p569
sg369
(lp570
sbsg364
(i__main__
DelphiIdentAccess
p571
(dp572
g367
S'showMapCommands'
p573
sg369
(lp574
(idelphi
DelphiFieldEndAccess
p575
(dp576
g373
S'checked'
p577
sbasbsba(i__main__
DelphiAssignStatement
p578
(dp579
g363
(i__main__
DelphiIdentAccess
p580
(dp581
g367
S'buttonSymbols'
p582
sg369
(lp583
sbsg364
(i__main__
DelphiIdentAccess
p584
(dp585
g367
S'symbolButtons'
p586
sg369
(lp587
(idelphi
DelphiFieldEndAccess
p588
(dp589
g373
S'checked'
p590
sbasbsbasbsS'variableReferenceList'
p591
(lp592
(i__main__
DelphiIdentAccess
p593
(dp594
g367
S'options'
p595
sg369
(lp596
sbasbasbsg386
(lp597
sbsS'commentLinesBefore'
p598
(lp599
S' Private declarations '
p600
aS' Public declarations '
p601
aS'$R *.DFM'
p602
asbsS'symbolbuttonsclick'
p603
(i__main__
DelphiMethodImplementation
p604
(dp605
g332
g105
sg63
g107
sg71
(lp606
(i__main__
DelphiFormalParameter
p607
(dp608
g75
Nsg76
(lp609
S'Sender'
p610
asg79
(i__main__
DelphiNamedType
p611
(dp612
g82
S'TObject'
p613
sg84
g1
sg85
Nsbsg86
Nsbasg341
(lp614
sg343
(lp615
sg345
(lp616
g347
ag610
asg348
(dp617
g610
g611
ssg87
S'TPreferencesForm'
p618
sg88
Nsg351
(lp619
sg89
I0
sg90
g91
sg353
(i__main__
DelphiBlock
p620
(dp621
g356
(idelphi
DelphiCompoundStatement
p622
(dp623
g359
(lp624
(i__main__
DelphiAssignStatement
p625
(dp626
g363
(i__main__
DelphiIdentAccess
p627
(dp628
g367
S'symbolButtons'
p629
sg369
(lp630
(idelphi
DelphiFieldEndAccess
p631
(dp632
g373
S'checked'
p633
sbasbsg364
(i__main__
DelphiIdentAccess
p634
(dp635
g367
S'options'
p636
sg369
(lp637
(idelphi
DelphiFieldEndAccess
p638
(dp639
g373
S'buttonSymbols'
p640
sbasbsbasbsg386
(lp641
sbsbsS'changemapcommandscolorclick'
p642
(i__main__
DelphiMethodImplementation
p643
(dp644
g332
g117
sg63
g119
sg71
(lp645
(i__main__
DelphiFormalParameter
p646
(dp647
g75
Nsg76
(lp648
S'Sender'
p649
asg79
(i__main__
DelphiNamedType
p650
(dp651
g82
S'TObject'
p652
sg84
g1
sg85
Nsbsg86
Nsbasg341
(lp653
sg343
(lp654
sg345
(lp655
g347
ag649
asg348
(dp656
g649
g650
ssg87
S'TPreferencesForm'
p657
sg88
Nsg351
(lp658
sg89
I0
sg90
g91
sg353
(i__main__
DelphiBlock
p659
(dp660
g356
(idelphi
DelphiCompoundStatement
p661
(dp662
g359
(lp663
(i__main__
DelphiAssignStatement
p664
(dp665
g363
(i__main__
DelphiIdentAccess
p666
(dp667
g367
S'mapCommandsColorPanel'
p668
sg369
(lp669
(idelphi
DelphiFieldEndAccess
p670
(dp671
g373
S'color'
p672
sbasbsg364
(i__main__
DelphiIdentAccess
p673
(dp674
g367
S'colorDialog'
p675
sg369
(lp676
(idelphi
DelphiFieldEndAccess
p677
(dp678
g373
S'color'
p679
sbasbsba(idelphi
DelphiIfStatement
p680
(dp681
S'expression'
p682
(i__main__
DelphiIdentAccess
p683
(dp684
g367
S'colorDialog'
p685
sg369
(lp686
(idelphi
DelphiFieldEndAccess
p687
(dp688
g373
S'execute'
p689
sbasbsS'ifFalseStatement'
p690
NsS'ifTrueStatement'
p691
(idelphi
DelphiCompoundStatement
p692
(dp693
g359
(lp694
(i__main__
DelphiAssignStatement
p695
(dp696
g363
(i__main__
DelphiIdentAccess
p697
(dp698
g367
S'colorDialog'
p699
sg369
(lp700
(idelphi
DelphiFieldEndAccess
p701
(dp702
g373
S'color'
p703
sbasbsg364
(i__main__
DelphiIdentAccess
p704
(dp705
g367
S'mapCommandsColorPanel'
p706
sg369
(lp707
(idelphi
DelphiFieldEndAccess
p708
(dp709
g373
S'color'
p710
sbasbsba(i__main__
DelphiAssignStatement
p711
(dp712
g363
(i__main__
DelphiIdentAccess
p713
(dp714
g367
S'mapCommandsColorPanel'
p715
sg369
(lp716
(idelphi
DelphiFieldEndAccess
p717
(dp718
g373
S'color'
p719
sbasbsg364
(i__main__
DelphiIdentAccess
p720
(dp721
g367
S'options'
p722
sg369
(lp723
(idelphi
DelphiFieldEndAccess
p724
(dp725
g373
S'commandTextColorInMap'
p726
sbasbsbasbsbasbsg386
(lp727
sbsbsS'changebrowserfontclick'
p728
(i__main__
DelphiMethodImplementation
p729
(dp730
g332
g129
sg63
g131
sg71
(lp731
(i__main__
DelphiFormalParameter
p732
(dp733
g75
Nsg76
(lp734
S'Sender'
p735
asg79
(i__main__
DelphiNamedType
p736
(dp737
g82
S'TObject'
p738
sg84
g1
sg85
Nsbsg86
Nsbasg341
(lp739
sg343
(lp740
sg345
(lp741
g347
ag735
asg348
(dp742
g735
g736
ssg87
S'TPreferencesForm'
p743
sg88
Nsg351
(lp744
sg89
I0
sg90
g91
sg353
(i__main__
DelphiBlock
p745
(dp746
g356
(idelphi
DelphiCompoundStatement
p747
(dp748
g359
(lp749
(i__main__
DelphiAssignStatement
p750
(dp751
g363
(i__main__
DelphiIdentAccess
p752
(dp753
g367
S'options'
p754
sg369
(lp755
(idelphi
DelphiFieldEndAccess
p756
(dp757
g373
S'browserFontName'
p758
sbasbsg364
(i__main__
DelphiIdentAccess
p759
(dp760
g367
S'fontDialog'
p761
sg369
(lp762
(idelphi
DelphiFieldEndAccess
p763
(dp764
g373
S'font'
p765
sba(idelphi
DelphiFieldEndAccess
p766
(dp767
g373
S'name'
p768
sbasbsba(i__main__
DelphiAssignStatement
p769
(dp770
g363
(i__main__
DelphiIdentAccess
p771
(dp772
g367
S'options'
p773
sg369
(lp774
(idelphi
DelphiFieldEndAccess
p775
(dp776
g373
S'browserFontSize'
p777
sbasbsg364
(i__main__
DelphiIdentAccess
p778
(dp779
g367
S'fontDialog'
p780
sg369
(lp781
(idelphi
DelphiFieldEndAccess
p782
(dp783
g373
S'font'
p784
sba(idelphi
DelphiFieldEndAccess
p785
(dp786
g373
S'size'
p787
sbasbsba(idelphi
DelphiIfStatement
p788
(dp789
g682
(i__main__
DelphiIdentAccess
p790
(dp791
g367
S'fontDialog'
p792
sg369
(lp793
(idelphi
DelphiFieldEndAccess
p794
(dp795
g373
S'execute'
p796
sbasbsg690
Nsg691
(idelphi
DelphiCompoundStatement
p797
(dp798
g359
(lp799
(i__main__
DelphiAssignStatement
p800
(dp801
g363
(i__main__
DelphiIdentAccess
p802
(dp803
g367
S'fontDialog'
p804
sg369
(lp805
(idelphi
DelphiFieldEndAccess
p806
(dp807
g373
S'font'
p808
sba(idelphi
DelphiFieldEndAccess
p809
(dp810
g373
S'name'
p811
sbasbsg364
(i__main__
DelphiIdentAccess
p812
(dp813
g367
S'options'
p814
sg369
(lp815
(idelphi
DelphiFieldEndAccess
p816
(dp817
g373
S'browserFontName'
p818
sbasbsba(i__main__
DelphiAssignStatement
p819
(dp820
g363
(i__main__
DelphiIdentAccess
p821
(dp822
g367
S'fontDialog'
p823
sg369
(lp824
(idelphi
DelphiFieldEndAccess
p825
(dp826
g373
S'font'
p827
sba(idelphi
DelphiFieldEndAccess
p828
(dp829
g373
S'size'
p830
sbasbsg364
(i__main__
DelphiIdentAccess
p831
(dp832
g367
S'options'
p833
sg369
(lp834
(idelphi
DelphiFieldEndAccess
p835
(dp836
g373
S'browserFontSize'
p837
sbasbsba(i__main__
DelphiAssignStatement
p838
(dp839
g363
(idelphi
DelphiAddOp
p840
(dp841
g420
S'+'
sg421
(i__main__
DelphiIdentAccess
p842
(dp843
g367
S'intToStr'
p844
sg369
(lp845
(idelphi
DelphiFunctionEndAccess
p846
(dp847
g377
(lp848
(i__main__
DelphiIdentAccess
p849
(dp850
g367
S'options'
p851
sg369
(lp852
(idelphi
DelphiFieldEndAccess
p853
(dp854
g373
S'browserFontSize'
p855
sbasbasbasbsg436
(idelphi
DelphiAddOp
p856
(dp857
g420
S'+'
sg421
(idelphi
DelphiStringAccess
p858
(dp859
g369
(lp860
sg382
(idelphi
DelphiStringValue
p861
(dp862
g382
S', '
p863
sbsbsg436
(i__main__
DelphiIdentAccess
p864
(dp865
g367
S'options'
p866
sg369
(lp867
(idelphi
DelphiFieldEndAccess
p868
(dp869
g373
S'browserFontName'
p870
sbasbsbsbsg364
(i__main__
DelphiIdentAccess
p871
(dp872
g367
S'browserFontNameEdit'
p873
sg369
(lp874
(idelphi
DelphiFieldEndAccess
p875
(dp876
g373
S'text'
p877
sbasbsbasbsbasbsg386
(lp878
sbsbsS'changetextcolorclick'
p879
(i__main__
DelphiMethodImplementation
p880
(dp881
g332
g141
sg63
g143
sg71
(lp882
(i__main__
DelphiFormalParameter
p883
(dp884
g75
Nsg76
(lp885
S'Sender'
p886
asg79
(i__main__
DelphiNamedType
p887
(dp888
g82
S'TObject'
p889
sg84
g1
sg85
Nsbsg86
Nsbasg341
(lp890
sg343
(lp891
sg345
(lp892
g347
ag886
asg348
(dp893
g886
g887
ssg87
S'TPreferencesForm'
p894
sg88
Nsg351
(lp895
sg89
I0
sg90
g91
sg353
(i__main__
DelphiBlock
p896
(dp897
g356
(idelphi
DelphiCompoundStatement
p898
(dp899
g359
(lp900
(i__main__
DelphiAssignStatement
p901
(dp902
g363
(i__main__
DelphiIdentAccess
p903
(dp904
g367
S'textColorPanel'
p905
sg369
(lp906
(idelphi
DelphiFieldEndAccess
p907
(dp908
g373
S'color'
p909
sbasbsg364
(i__main__
DelphiIdentAccess
p910
(dp911
g367
S'colorDialog'
p912
sg369
(lp913
(idelphi
DelphiFieldEndAccess
p914
(dp915
g373
S'color'
p916
sbasbsba(idelphi
DelphiIfStatement
p917
(dp918
g682
(i__main__
DelphiIdentAccess
p919
(dp920
g367
S'colorDialog'
p921
sg369
(lp922
(idelphi
DelphiFieldEndAccess
p923
(dp924
g373
S'execute'
p925
sbasbsg690
Nsg691
(idelphi
DelphiCompoundStatement
p926
(dp927
g359
(lp928
(i__main__
DelphiAssignStatement
p929
(dp930
g363
(i__main__
DelphiIdentAccess
p931
(dp932
g367
S'colorDialog'
p933
sg369
(lp934
(idelphi
DelphiFieldEndAccess
p935
(dp936
g373
S'color'
p937
sbasbsg364
(i__main__
DelphiIdentAccess
p938
(dp939
g367
S'textColorPanel'
p940
sg369
(lp941
(idelphi
DelphiFieldEndAccess
p942
(dp943
g373
S'color'
p944
sbasbsba(i__main__
DelphiAssignStatement
p945
(dp946
g363
(i__main__
DelphiIdentAccess
p947
(dp948
g367
S'textColorPanel'
p949
sg369
(lp950
(idelphi
DelphiFieldEndAccess
p951
(dp952
g373
S'color'
p953
sbasbsg364
(i__main__
DelphiIdentAccess
p954
(dp955
g367
S'options'
p956
sg369
(lp957
(idelphi
DelphiFieldEndAccess
p958
(dp959
g373
S'selectedTextColor'
p960
sbasbsbasbsbasbsg386
(lp961
sbsbsS'showmapcommandsclick'
p962
(i__main__
DelphiMethodImplementation
p963
(dp964
g332
g153
sg63
g155
sg71
(lp965
(i__main__
DelphiFormalParameter
p966
(dp967
g75
Nsg76
(lp968
S'Sender'
p969
asg79
(i__main__
DelphiNamedType
p970
(dp971
g82
S'TObject'
p972
sg84
g1
sg85
Nsbsg86
Nsbasg341
(lp973
sg343
(lp974
sg345
(lp975
g347
ag969
asg348
(dp976
g969
g970
ssg87
S'TPreferencesForm'
p977
sg88
Nsg351
(lp978
sg89
I0
sg90
g91
sg353
(i__main__
DelphiBlock
p979
(dp980
g356
(idelphi
DelphiCompoundStatement
p981
(dp982
g359
(lp983
(i__main__
DelphiAssignStatement
p984
(dp985
g363
(i__main__
DelphiIdentAccess
p986
(dp987
g367
S'showMapCommands'
p988
sg369
(lp989
(idelphi
DelphiFieldEndAccess
p990
(dp991
g373
S'checked'
p992
sbasbsg364
(i__main__
DelphiIdentAccess
p993
(dp994
g367
S'options'
p995
sg369
(lp996
(idelphi
DelphiFieldEndAccess
p997
(dp998
g373
S'showCommandPrefixInMap'
p999
sbasbsbasbsg386
(lp1000
sbsbsS'changetablefontclick'
p1001
(i__main__
DelphiMethodImplementation
p1002
(dp1003
g332
g165
sg63
g167
sg71
(lp1004
(i__main__
DelphiFormalParameter
p1005
(dp1006
g75
Nsg76
(lp1007
S'Sender'
p1008
asg79
(i__main__
DelphiNamedType
p1009
(dp1010
g82
S'TObject'
p1011
sg84
g1
sg85
Nsbsg86
Nsbasg341
(lp1012
sg343
(lp1013
sg345
(lp1014
g347
ag1008
asg348
(dp1015
g1008
g1009
ssg87
S'TPreferencesForm'
p1016
sg88
Nsg351
(lp1017
sg89
I0
sg90
g91
sg353
(i__main__
DelphiBlock
p1018
(dp1019
g356
(idelphi
DelphiCompoundStatement
p1020
(dp1021
g359
(lp1022
(i__main__
DelphiAssignStatement
p1023
(dp1024
g363
(i__main__
DelphiIdentAccess
p1025
(dp1026
g367
S'options'
p1027
sg369
(lp1028
(idelphi
DelphiFieldEndAccess
p1029
(dp1030
g373
S'tableFontName'
p1031
sbasbsg364
(i__main__
DelphiIdentAccess
p1032
(dp1033
g367
S'fontDialog'
p1034
sg369
(lp1035
(idelphi
DelphiFieldEndAccess
p1036
(dp1037
g373
S'font'
p1038
sba(idelphi
DelphiFieldEndAccess
p1039
(dp1040
g373
S'name'
p1041
sbasbsba(i__main__
DelphiAssignStatement
p1042
(dp1043
g363
(i__main__
DelphiIdentAccess
p1044
(dp1045
g367
S'options'
p1046
sg369
(lp1047
(idelphi
DelphiFieldEndAccess
p1048
(dp1049
g373
S'tableFontSize'
p1050
sbasbsg364
(i__main__
DelphiIdentAccess
p1051
(dp1052
g367
S'fontDialog'
p1053
sg369
(lp1054
(idelphi
DelphiFieldEndAccess
p1055
(dp1056
g373
S'font'
p1057
sba(idelphi
DelphiFieldEndAccess
p1058
(dp1059
g373
S'size'
p1060
sbasbsba(idelphi
DelphiIfStatement
p1061
(dp1062
g682
(i__main__
DelphiIdentAccess
p1063
(dp1064
g367
S'fontDialog'
p1065
sg369
(lp1066
(idelphi
DelphiFieldEndAccess
p1067
(dp1068
g373
S'execute'
p1069
sbasbsg690
Nsg691
(idelphi
DelphiCompoundStatement
p1070
(dp1071
g359
(lp1072
(i__main__
DelphiAssignStatement
p1073
(dp1074
g363
(i__main__
DelphiIdentAccess
p1075
(dp1076
g367
S'fontDialog'
p1077
sg369
(lp1078
(idelphi
DelphiFieldEndAccess
p1079
(dp1080
g373
S'font'
p1081
sba(idelphi
DelphiFieldEndAccess
p1082
(dp1083
g373
S'name'
p1084
sbasbsg364
(i__main__
DelphiIdentAccess
p1085
(dp1086
g367
S'options'
p1087
sg369
(lp1088
(idelphi
DelphiFieldEndAccess
p1089
(dp1090
g373
S'tableFontName'
p1091
sbasbsba(i__main__
DelphiAssignStatement
p1092
(dp1093
g363
(i__main__
DelphiIdentAccess
p1094
(dp1095
g367
S'fontDialog'
p1096
sg369
(lp1097
(idelphi
DelphiFieldEndAccess
p1098
(dp1099
g373
S'font'
p1100
sba(idelphi
DelphiFieldEndAccess
p1101
(dp1102
g373
S'size'
p1103
sbasbsg364
(i__main__
DelphiIdentAccess
p1104
(dp1105
g367
S'options'
p1106
sg369
(lp1107
(idelphi
DelphiFieldEndAccess
p1108
(dp1109
g373
S'tableFontSize'
p1110
sbasbsba(i__main__
DelphiAssignStatement
p1111
(dp1112
g363
(idelphi
DelphiAddOp
p1113
(dp1114
g420
S'+'
sg421
(i__main__
DelphiIdentAccess
p1115
(dp1116
g367
S'intToStr'
p1117
sg369
(lp1118
(idelphi
DelphiFunctionEndAccess
p1119
(dp1120
g377
(lp1121
(i__main__
DelphiIdentAccess
p1122
(dp1123
g367
S'options'
p1124
sg369
(lp1125
(idelphi
DelphiFieldEndAccess
p1126
(dp1127
g373
S'tableFontSize'
p1128
sbasbasbasbsg436
(idelphi
DelphiAddOp
p1129
(dp1130
g420
S'+'
sg421
(idelphi
DelphiStringAccess
p1131
(dp1132
g369
(lp1133
sg382
(idelphi
DelphiStringValue
p1134
(dp1135
g382
S', '
p1136
sbsbsg436
(i__main__
DelphiIdentAccess
p1137
(dp1138
g367
S'options'
p1139
sg369
(lp1140
(idelphi
DelphiFieldEndAccess
p1141
(dp1142
g373
S'tableFontName'
p1143
sbasbsbsbsg364
(i__main__
DelphiIdentAccess
p1144
(dp1145
g367
S'tableFontNameEdit'
p1146
sg369
(lp1147
(idelphi
DelphiFieldEndAccess
p1148
(dp1149
g373
S'text'
p1150
sbasbsbasbsbasbsg386
(lp1151
sbsbsS'changemapfontclick'
p1152
(i__main__
DelphiMethodImplementation
p1153
(dp1154
g332
g177
sg63
g179
sg71
(lp1155
(i__main__
DelphiFormalParameter
p1156
(dp1157
g75
Nsg76
(lp1158
S'Sender'
p1159
asg79
(i__main__
DelphiNamedType
p1160
(dp1161
g82
S'TObject'
p1162
sg84
g1
sg85
Nsbsg86
Nsbasg341
(lp1163
sg343
(lp1164
sg345
(lp1165
g347
ag1159
asg348
(dp1166
g1159
g1160
ssg87
S'TPreferencesForm'
p1167
sg88
Nsg351
(lp1168
sg89
I0
sg90
g91
sg353
(i__main__
DelphiBlock
p1169
(dp1170
g356
(idelphi
DelphiCompoundStatement
p1171
(dp1172
g359
(lp1173
(i__main__
DelphiAssignStatement
p1174
(dp1175
g363
(i__main__
DelphiIdentAccess
p1176
(dp1177
g367
S'options'
p1178
sg369
(lp1179
(idelphi
DelphiFieldEndAccess
p1180
(dp1181
g373
S'mapFontName'
p1182
sbasbsg364
(i__main__
DelphiIdentAccess
p1183
(dp1184
g367
S'fontDialog'
p1185
sg369
(lp1186
(idelphi
DelphiFieldEndAccess
p1187
(dp1188
g373
S'font'
p1189
sba(idelphi
DelphiFieldEndAccess
p1190
(dp1191
g373
S'name'
p1192
sbasbsba(i__main__
DelphiAssignStatement
p1193
(dp1194
g363
(i__main__
DelphiIdentAccess
p1195
(dp1196
g367
S'options'
p1197
sg369
(lp1198
(idelphi
DelphiFieldEndAccess
p1199
(dp1200
g373
S'mapFontSize'
p1201
sbasbsg364
(i__main__
DelphiIdentAccess
p1202
(dp1203
g367
S'fontDialog'
p1204
sg369
(lp1205
(idelphi
DelphiFieldEndAccess
p1206
(dp1207
g373
S'font'
p1208
sba(idelphi
DelphiFieldEndAccess
p1209
(dp1210
g373
S'size'
p1211
sbasbsba(idelphi
DelphiIfStatement
p1212
(dp1213
g682
(i__main__
DelphiIdentAccess
p1214
(dp1215
g367
S'fontDialog'
p1216
sg369
(lp1217
(idelphi
DelphiFieldEndAccess
p1218
(dp1219
g373
S'execute'
p1220
sbasbsg690
Nsg691
(idelphi
DelphiCompoundStatement
p1221
(dp1222
g359
(lp1223
(i__main__
DelphiAssignStatement
p1224
(dp1225
g363
(i__main__
DelphiIdentAccess
p1226
(dp1227
g367
S'fontDialog'
p1228
sg369
(lp1229
(idelphi
DelphiFieldEndAccess
p1230
(dp1231
g373
S'font'
p1232
sba(idelphi
DelphiFieldEndAccess
p1233
(dp1234
g373
S'name'
p1235
sbasbsg364
(i__main__
DelphiIdentAccess
p1236
(dp1237
g367
S'options'
p1238
sg369
(lp1239
(idelphi
DelphiFieldEndAccess
p1240
(dp1241
g373
S'mapFontName'
p1242
sbasbsba(i__main__
DelphiAssignStatement
p1243
(dp1244
g363
(i__main__
DelphiIdentAccess
p1245
(dp1246
g367
S'fontDialog'
p1247
sg369
(lp1248
(idelphi
DelphiFieldEndAccess
p1249
(dp1250
g373
S'font'
p1251
sba(idelphi
DelphiFieldEndAccess
p1252
(dp1253
g373
S'size'
p1254
sbasbsg364
(i__main__
DelphiIdentAccess
p1255
(dp1256
g367
S'options'
p1257
sg369
(lp1258
(idelphi
DelphiFieldEndAccess
p1259
(dp1260
g373
S'mapFontSize'
p1261
sbasbsba(i__main__
DelphiAssignStatement
p1262
(dp1263
g363
(idelphi
DelphiAddOp
p1264
(dp1265
g420
S'+'
sg421
(i__main__
DelphiIdentAccess
p1266
(dp1267
g367
S'intToStr'
p1268
sg369
(lp1269
(idelphi
DelphiFunctionEndAccess
p1270
(dp1271
g377
(lp1272
(i__main__
DelphiIdentAccess
p1273
(dp1274
g367
S'options'
p1275
sg369
(lp1276
(idelphi
DelphiFieldEndAccess
p1277
(dp1278
g373
S'mapFontSize'
p1279
sbasbasbasbsg436
(idelphi
DelphiAddOp
p1280
(dp1281
g420
S'+'
sg421
(idelphi
DelphiStringAccess
p1282
(dp1283
g369
(lp1284
sg382
(idelphi
DelphiStringValue
p1285
(dp1286
g382
S', '
p1287
sbsbsg436
(i__main__
DelphiIdentAccess
p1288
(dp1289
g367
S'options'
p1290
sg369
(lp1291
(idelphi
DelphiFieldEndAccess
p1292
(dp1293
g373
S'mapFontName'
p1294
sbasbsbsbsg364
(i__main__
DelphiIdentAccess
p1295
(dp1296
g367
S'mapFontNameEdit'
p1297
sg369
(lp1298
(idelphi
DelphiFieldEndAccess
p1299
(dp1300
g373
S'text'
p1301
sbasbsbasbsbasbsg386
(lp1302
sbsbsS'changebackgroundcolorclick'
p1303
(i__main__
DelphiMethodImplementation
p1304
(dp1305
g332
g189
sg63
g191
sg71
(lp1306
(i__main__
DelphiFormalParameter
p1307
(dp1308
g75
Nsg76
(lp1309
S'Sender'
p1310
asg79
(i__main__
DelphiNamedType
p1311
(dp1312
g82
S'TObject'
p1313
sg84
g1
sg85
Nsbsg86
Nsbasg341
(lp1314
sg343
(lp1315
sg345
(lp1316
g347
ag1310
asg348
(dp1317
g1310
g1311
ssg87
S'TPreferencesForm'
p1318
sg88
Nsg351
(lp1319
sg89
I0
sg90
g91
sg353
(i__main__
DelphiBlock
p1320
(dp1321
g356
(idelphi
DelphiCompoundStatement
p1322
(dp1323
g359
(lp1324
(i__main__
DelphiAssignStatement
p1325
(dp1326
g363
(i__main__
DelphiIdentAccess
p1327
(dp1328
g367
S'backgroundColorPanel'
p1329
sg369
(lp1330
(idelphi
DelphiFieldEndAccess
p1331
(dp1332
g373
S'color'
p1333
sbasbsg364
(i__main__
DelphiIdentAccess
p1334
(dp1335
g367
S'colorDialog'
p1336
sg369
(lp1337
(idelphi
DelphiFieldEndAccess
p1338
(dp1339
g373
S'color'
p1340
sbasbsba(idelphi
DelphiIfStatement
p1341
(dp1342
g682
(i__main__
DelphiIdentAccess
p1343
(dp1344
g367
S'colorDialog'
p1345
sg369
(lp1346
(idelphi
DelphiFieldEndAccess
p1347
(dp1348
g373
S'execute'
p1349
sbasbsg690
Nsg691
(idelphi
DelphiCompoundStatement
p1350
(dp1351
g359
(lp1352
(i__main__
DelphiAssignStatement
p1353
(dp1354
g363
(i__main__
DelphiIdentAccess
p1355
(dp1356
g367
S'colorDialog'
p1357
sg369
(lp1358
(idelphi
DelphiFieldEndAccess
p1359
(dp1360
g373
S'color'
p1361
sbasbsg364
(i__main__
DelphiIdentAccess
p1362
(dp1363
g367
S'backgroundColorPanel'
p1364
sg369
(lp1365
(idelphi
DelphiFieldEndAccess
p1366
(dp1367
g373
S'color'
p1368
sbasbsba(i__main__
DelphiAssignStatement
p1369
(dp1370
g363
(i__main__
DelphiIdentAccess
p1371
(dp1372
g367
S'backgroundColorPanel'
p1373
sg369
(lp1374
(idelphi
DelphiFieldEndAccess
p1375
(dp1376
g373
S'color'
p1377
sbasbsg364
(i__main__
DelphiIdentAccess
p1378
(dp1379
g367
S'options'
p1380
sg369
(lp1381
(idelphi
DelphiFieldEndAccess
p1382
(dp1383
g373
S'selectedItemColor'
p1384
sbasbsbasbsbasbsg386
(lp1385
sbsbssS'propertyDeclarations'
p1386
(dp1387
sS'variableNamesInDeclaredOrder'
p1388
(lp1389
g24
ag22
ag28
ag34
ag38
ag50
ag54
ag36
ag58
ag48
ag42
ag40
ag18
ag20
ag12
ag10
ag44
ag26
ag32
ag46
ag14
ag56
ag52
ag60
ag16
ag30
ag62
asba(i__main__
DelphiVarSection
p1390
(dp1391
S'atTopLevel'
p1392
I1
sS'varDeclList'
p1393
(lp1394
(idelphi
DelphiVarDecl
p1395
(dp1396
S'constExpression'
p1397
NsS'identList'
p1398
(lp1399
S'PreferencesForm'
p1400
asg79
(i__main__
DelphiNamedType
p1401
(dp1402
g82
S'TPreferencesForm'
p1403
sg84
g1
sg85
NsbsbasbasS'includedUnits'
p1404
NsS'implementationUses'
p1405
Nsg63
S'USPreferences'
p1406
sS'constSections'
p1407
(lp1408
sS'globalsInProperCase'
p1409
NsS'interfaceUses'
p1410
(lp1411
S'delphi_compatability'
p1412
aS'Windows'
p1413
aS'Messages'
p1414
aS'SysUtils'
p1415
aS'Classes'
p1416
aS'Graphics'
p1417
aS'Controls'
p1418
aS'Forms'
p1419
aS'Dialogs'
p1420
aS'StdCtrls'
p1421
aS'ComCtrls'
p1422
aS'ExtCtrls'
p1423
aS'Buttons'
p1424
aS'USDomain'
p1425
asS'finalCommentToken'
p1426
(i__main__
PassStatement
p1427
(dp1428
g386
(lp1429
sbsS'varSections'
p1430
(lp1431
g1390
asS'globals'
p1432
NsS'originalFileName'
p1433
S'../../storyharp-js/converted_source/uspreferences.pas'
p1434
sS'proceduralImplementations'
p1435
(dp1436
sS'fileName'
p1437
S'/home/pdfernhout/workspace/storyharp-js/converted_source/uspreferences.pas'
p1438
sS'proceduralDeclarations'
p1439
(dp1440
sS'types'
p1441
(dp1442
S'tpreferencesform'
p1443
g5
ssb.